ARM GAS  /tmp/ccQLVUJ1.s 			page 1


   1              		.syntax unified
   2              		.cpu cortex-m4
   3              		.fpu softvfp
   4              		.eabi_attribute 20, 1
   5              		.eabi_attribute 21, 1
   6              		.eabi_attribute 23, 3
   7              		.eabi_attribute 24, 1
   8              		.eabi_attribute 25, 1
   9              		.eabi_attribute 26, 1
  10              		.eabi_attribute 30, 2
  11              		.eabi_attribute 34, 1
  12              		.eabi_attribute 18, 4
  13              		.thumb
  14              		.file	"chcore_v7m.c"
  15              		.text
  16              	.Ltext0:
  17              		.cfi_sections	.debug_frame
  18              		.section	.text._port_switch_from_isr,"ax",%progbits
  19              		.align	2
  20              		.p2align 4,,15
  21              		.global	_port_switch_from_isr
  22              		.thumb
  23              		.thumb_func
  24              		.type	_port_switch_from_isr, %function
  25              	_port_switch_from_isr:
  26              	.LFB11:
  27              		.file 1 "../../os/ports/GCC/ARMCMx/chcore_v7m.c"
  28              		.loc 1 197 0
  29              		.cfi_startproc
  30              		@ Naked Function: prologue and epilogue provided by programmer.
  31              		@ args = 0, pretend = 0, frame = 0
  32              		@ frame_needed = 0, uses_anonymous_args = 0
  33              		.loc 1 200 0
  34 0000 FFF7FEFF 		bl	chSchDoReschedule
  35              	.LVL0:
  36              		.loc 1 202 0
  37              	@ 202 "../../os/ports/GCC/ARMCMx/chcore_v7m.c" 1
  38              		_port_exit_from_isr:
  39              	@ 0 "" 2
  40              		.loc 1 204 0
  41              	@ 204 "../../os/ports/GCC/ARMCMx/chcore_v7m.c" 1
  42 0004 00DF     		svc     #0
  43              	@ 0 "" 2
  44              		.loc 1 211 0
  45              		.thumb
  46              		.cfi_endproc
  47              	.LFE11:
  48              		.size	_port_switch_from_isr, .-_port_switch_from_isr
  49 0006 00BFAFF3 		.section	.text.SVCallVector,"ax",%progbits
  49      0080AFF3 
  49      0080
  50              		.align	2
  51              		.p2align 4,,15
  52              		.global	SVCallVector
  53              		.thumb
  54              		.thumb_func
  55              		.type	SVCallVector, %function
ARM GAS  /tmp/ccQLVUJ1.s 			page 2


  56              	SVCallVector:
  57              	.LFB8:
  58              		.loc 1 65 0
  59              		.cfi_startproc
  60              		@ args = 0, pretend = 0, frame = 0
  61              		@ frame_needed = 0, uses_anonymous_args = 0
  62              		@ link register save eliminated.
  63              		.loc 1 74 0
  64              	@ 74 "../../os/ports/GCC/ARMCMx/chcore_v7m.c" 1
  65 0000 EFF30983 		mrs     r3, PSP
  66              	@ 0 "" 2
  67              	.LVL1:
  68              		.loc 1 78 0
  69              		.thumb
  70 0004 2033     		adds	r3, r3, #32
  71              	.LVL2:
  72              		.loc 1 81 0
  73              	@ 81 "../../os/ports/GCC/ARMCMx/chcore_v7m.c" 1
  74 0006 83F30988 		msr     PSP, r3
  75              	@ 0 "" 2
  76              		.thumb
  77              	.LBB2:
  78              		.loc 1 82 0
  79 000a 0023     		movs	r3, #0
  80              	.LVL3:
  81              	@ 82 "../../os/ports/GCC/ARMCMx/chcore_v7m.c" 1
  82 000c 83F31188 		msr     BASEPRI, r3
  83              	@ 0 "" 2
  84              		.thumb
  85 0010 7047     		bx	lr
  86              	.LBE2:
  87              		.cfi_endproc
  88              	.LFE8:
  89              		.size	SVCallVector, .-SVCallVector
  90 0012 00BFAFF3 		.section	.text._port_init,"ax",%progbits
  90      0080AFF3 
  90      0080AFF3 
  90      0080
  91              		.align	2
  92              		.p2align 4,,15
  93              		.global	_port_init
  94              		.thumb
  95              		.thumb_func
  96              		.type	_port_init, %function
  97              	_port_init:
  98              	.LFB9:
  99              		.loc 1 120 0
 100              		.cfi_startproc
 101              		@ args = 0, pretend = 0, frame = 0
 102              		@ frame_needed = 0, uses_anonymous_args = 0
 103 0000 08B5     		push	{r3, lr}
 104              		.cfi_def_cfa_offset 8
 105              		.cfi_offset 3, -8
 106              		.cfi_offset 14, -4
 107              		.loc 1 123 0
 108 0002 4FF46D43 		mov	r3, #60672
 109 0006 CEF20003 		movt	r3, 57344
ARM GAS  /tmp/ccQLVUJ1.s 			page 3


 110              		.loc 1 124 0
 111 000a 4FF44072 		mov	r2, #768
 112 000e C0F2FA52 		movt	r2, 1530
 113              		.loc 1 123 0
 114 0012 0021     		movs	r1, #0
 115 0014 9960     		str	r1, [r3, #8]
 116              		.loc 1 127 0
 117 0016 0720     		movs	r0, #7
 118              		.loc 1 124 0
 119 0018 DA60     		str	r2, [r3, #12]
 120              		.loc 1 127 0
 121 001a 1021     		movs	r1, #16
 122 001c FFF7FEFF 		bl	nvicSetSystemHandlerPriority
 123              	.LVL4:
 124              		.loc 1 129 0
 125 0020 0A20     		movs	r0, #10
 126 0022 2021     		movs	r1, #32
 127 0024 FFF7FEFF 		bl	nvicSetSystemHandlerPriority
 128              	.LVL5:
 129              		.loc 1 131 0
 130 0028 0B20     		movs	r0, #11
 131 002a 8021     		movs	r1, #128
 132              		.loc 1 133 0
 133 002c BDE80840 		pop	{r3, lr}
 134              		.loc 1 131 0
 135 0030 FFF7FEBF 		b	nvicSetSystemHandlerPriority
 136              	.LVL6:
 137              		.cfi_endproc
 138              	.LFE9:
 139              		.size	_port_init, .-_port_init
 140 0034 AFF30080 		.section	.text._port_irq_epilogue,"ax",%progbits
 140      AFF30080 
 140      AFF30080 
 141              		.align	2
 142              		.p2align 4,,15
 143              		.global	_port_irq_epilogue
 144              		.thumb
 145              		.thumb_func
 146              		.type	_port_irq_epilogue, %function
 147              	_port_irq_epilogue:
 148              	.LFB10:
 149              		.loc 1 150 0
 150              		.cfi_startproc
 151              		@ args = 0, pretend = 0, frame = 0
 152              		@ frame_needed = 0, uses_anonymous_args = 0
 153              		@ link register save eliminated.
 154              	.LBB3:
 155              		.loc 1 152 0
 156 0000 2023     		movs	r3, #32
 157              	@ 152 "../../os/ports/GCC/ARMCMx/chcore_v7m.c" 1
 158 0002 83F31188 		msr     BASEPRI, r3
 159              	@ 0 "" 2
 160              		.thumb
 161              	.LBE3:
 162              		.loc 1 153 0
 163 0006 4FF46D43 		mov	r3, #60672
 164 000a CEF20003 		movt	r3, 57344
ARM GAS  /tmp/ccQLVUJ1.s 			page 4


 165 000e 5B68     		ldr	r3, [r3, #4]
 166 0010 13F40063 		ands	r3, r3, #2048
 167 0014 1FD0     		beq	.L5
 168              	.LBB4:
 169              		.loc 1 163 0
 170              	@ 163 "../../os/ports/GCC/ARMCMx/chcore_v7m.c" 1
 171 0016 EFF30982 		mrs     r2, PSP
 172              	@ 0 "" 2
 173              	.LVL7:
 174              		.loc 1 168 0
 175              		.thumb
 176 001a 4FF08073 		mov	r3, #16777216
 177 001e 42F8043C 		str	r3, [r2, #-4]
 178              		.loc 1 167 0
 179 0022 A2F12003 		sub	r3, r2, #32
 180              	.LVL8:
 181              		.loc 1 169 0
 182              	@ 169 "../../os/ports/GCC/ARMCMx/chcore_v7m.c" 1
 183 0026 83F30988 		msr     PSP, r3
 184              	@ 0 "" 2
 185              		.loc 1 173 0
 186              		.thumb
 187 002a 40F20003 		movw	r3, #:lower16:rlist
 188              	.LVL9:
 189 002e C0F20003 		movt	r3, #:upper16:rlist
 190 0032 9969     		ldr	r1, [r3, #24]
 191 0034 C87F     		ldrb	r0, [r1, #31]	@ zero_extendqisi2
 192 0036 88B1     		cbz	r0, .L6
 193              		.loc 1 173 0 is_stmt 0 discriminator 1
 194 0038 1868     		ldr	r0, [r3]
 195 003a 8B68     		ldr	r3, [r1, #8]
 196 003c 8168     		ldr	r1, [r0, #8]
 197 003e 9942     		cmp	r1, r3
 198 0040 94BF     		ite	ls
 199 0042 0023     		movls	r3, #0
 200 0044 0123     		movhi	r3, #1
 201 0046 93B1     		cbz	r3, .L8
 202              	.L11:
 203              		.loc 1 175 0 is_stmt 1
 204 0048 40F20003 		movw	r3, #:lower16:_port_switch_from_isr
 205 004c C0F20003 		movt	r3, #:upper16:_port_switch_from_isr
 206 0050 42F8083C 		str	r3, [r2, #-8]
 207 0054 7047     		bx	lr
 208              	.LVL10:
 209              	.L5:
 210              	.LBE4:
 211              	.LBB5:
 212              		.loc 1 187 0
 213              	@ 187 "../../os/ports/GCC/ARMCMx/chcore_v7m.c" 1
 214 0056 83F31188 		msr     BASEPRI, r3
 215              	@ 0 "" 2
 216              		.thumb
 217 005a 7047     		bx	lr
 218              	.LVL11:
 219              	.L6:
 220              	.LBE5:
 221              	.LBB6:
ARM GAS  /tmp/ccQLVUJ1.s 			page 5


 222              		.loc 1 173 0 discriminator 2
 223 005c 1868     		ldr	r0, [r3]
 224 005e 8B68     		ldr	r3, [r1, #8]
 225 0060 8168     		ldr	r1, [r0, #8]
 226 0062 9942     		cmp	r1, r3
 227 0064 34BF     		ite	cc
 228 0066 0023     		movcc	r3, #0
 229 0068 0123     		movcs	r3, #1
 230 006a 002B     		cmp	r3, #0
 231 006c ECD1     		bne	.L11
 232              	.L8:
 233              		.loc 1 180 0
 234 006e 40F20003 		movw	r3, #:lower16:_port_exit_from_isr
 235 0072 C0F20003 		movt	r3, #:upper16:_port_exit_from_isr
 236 0076 42F8083C 		str	r3, [r2, #-8]
 237 007a 7047     		bx	lr
 238              	.LBE6:
 239              		.cfi_endproc
 240              	.LFE10:
 241              		.size	_port_irq_epilogue, .-_port_irq_epilogue
 242 007c AFF30080 		.section	.text.SysTickVector,"ax",%progbits
 243              		.align	2
 244              		.p2align 4,,15
 245              		.global	SysTickVector
 246              		.thumb
 247              		.thumb_func
 248              		.type	SysTickVector, %function
 249              	SysTickVector:
 250              	.LFB7:
 251              		.loc 1 47 0
 252              		.cfi_startproc
 253              		@ args = 0, pretend = 0, frame = 0
 254              		@ frame_needed = 0, uses_anonymous_args = 0
 255 0000 08B5     		push	{r3, lr}
 256              		.cfi_def_cfa_offset 8
 257              		.cfi_offset 3, -8
 258              		.cfi_offset 14, -4
 259              	.LBB7:
 260              		.loc 1 51 0
 261 0002 2023     		movs	r3, #32
 262              	@ 51 "../../os/ports/GCC/ARMCMx/chcore_v7m.c" 1
 263 0004 83F31188 		msr     BASEPRI, r3
 264              	@ 0 "" 2
 265              		.thumb
 266              	.LBE7:
 267              		.loc 1 52 0
 268 0008 FFF7FEFF 		bl	chSysTimerHandlerI
 269              	.LVL12:
 270              	.LBB8:
 271              		.loc 1 53 0
 272 000c 0023     		movs	r3, #0
 273              	@ 53 "../../os/ports/GCC/ARMCMx/chcore_v7m.c" 1
 274 000e 83F31188 		msr     BASEPRI, r3
 275              	@ 0 "" 2
 276              		.thumb
 277              	.LBE8:
 278              		.loc 1 56 0
ARM GAS  /tmp/ccQLVUJ1.s 			page 6


 279 0012 BDE80840 		pop	{r3, lr}
 280              		.loc 1 55 0
 281 0016 FFF7FEBF 		b	_port_irq_epilogue
 282              	.LVL13:
 283              		.cfi_endproc
 284              	.LFE7:
 285              		.size	SysTickVector, .-SysTickVector
 286 001a 00BFAFF3 		.section	.text._port_switch,"ax",%progbits
 286      0080
 287              		.align	2
 288              		.p2align 4,,15
 289              		.global	_port_switch
 290              		.thumb
 291              		.thumb_func
 292              		.type	_port_switch, %function
 293              	_port_switch:
 294              	.LFB12:
 295              		.loc 1 226 0
 296              		.cfi_startproc
 297              		@ Naked Function: prologue and epilogue provided by programmer.
 298              		@ args = 0, pretend = 0, frame = 0
 299              		@ frame_needed = 0, uses_anonymous_args = 0
 300              	.LVL14:
 301              		.loc 1 228 0
 302              	@ 228 "../../os/ports/GCC/ARMCMx/chcore_v7m.c" 1
 303 0000 2DE9F04F 		push    {r4, r5, r6, r7, r8, r9, r10, r11, lr}
 304              	@ 0 "" 2
 305              		.loc 1 234 0
 306              	@ 234 "../../os/ports/GCC/ARMCMx/chcore_v7m.c" 1
 307 0004 C1F80CD0 		str     sp, [r1, #12]                          
 308 0008 D0F80CD0 		ldr     sp, [r0, #12]
 309              	@ 0 "" 2
 310              		.loc 1 240 0
 311              	@ 240 "../../os/ports/GCC/ARMCMx/chcore_v7m.c" 1
 312 000c BDE8F08F 		pop     {r4, r5, r6, r7, r8, r9, r10, r11, pc}
 313              	@ 0 "" 2
 314              		.loc 1 242 0
 315              		.thumb
 316              		.cfi_endproc
 317              	.LFE12:
 318              		.size	_port_switch, .-_port_switch
 319              		.section	.text._port_thread_start,"ax",%progbits
 320              		.align	2
 321              		.p2align 4,,15
 322              		.global	_port_thread_start
 323              		.thumb
 324              		.thumb_func
 325              		.type	_port_thread_start, %function
 326              	_port_thread_start:
 327              	.LFB13:
 328              		.loc 1 249 0
 329              		.cfi_startproc
 330              		@ args = 0, pretend = 0, frame = 0
 331              		@ frame_needed = 0, uses_anonymous_args = 0
 332              		@ link register save eliminated.
 333              	.LBB9:
 334              		.loc 1 251 0
ARM GAS  /tmp/ccQLVUJ1.s 			page 7


 335 0000 0023     		movs	r3, #0
 336              	@ 251 "../../os/ports/GCC/ARMCMx/chcore_v7m.c" 1
 337 0002 83F31188 		msr     BASEPRI, r3
 338              	@ 0 "" 2
 339              		.thumb
 340              	.LBE9:
 341              		.loc 1 252 0
 342              	@ 252 "../../os/ports/GCC/ARMCMx/chcore_v7m.c" 1
 343 0006 2846     		mov     r0, r5                                 
 344 0008 A047     		blx     r4                                     
 345 000a FFF7FEFF 		bl      chThdExit
 346              	@ 0 "" 2
 347              		.thumb
 348 000e 7047     		bx	lr
 349              		.cfi_endproc
 350              	.LFE13:
 351              		.size	_port_thread_start, .-_port_thread_start
 352              		.text
 353              	.Letext0:
 354              		.file 2 "/usr/include/newlib/machine/_default_types.h"
 355              		.file 3 "/usr/include/newlib/stdint.h"
 356              		.file 4 "../../os/ports/GCC/ARMCMx/chtypes.h"
 357              		.file 5 "../../os/kernel/include/chlists.h"
 358              		.file 6 "../../os/kernel/include/chthreads.h"
 359              		.file 7 "../../os/ports/GCC/ARMCMx/chcore_v7m.h"
 360              		.file 8 "../../os/ports/common/ARMCMx/nvic.h"
 361              		.file 9 "../../os/kernel/include/chschd.h"
 362              		.file 10 "../../os/kernel/include/chmtx.h"
 363              		.file 11 "../../os/kernel/include/chsys.h"