ARM GAS  /tmp/ccNJe4yq.s 			page 1


   1              		.syntax unified
   2              		.cpu cortex-m4
   3              		.fpu softvfp
   4              		.eabi_attribute 20, 1
   5              		.eabi_attribute 21, 1
   6              		.eabi_attribute 23, 3
   7              		.eabi_attribute 24, 1
   8              		.eabi_attribute 25, 1
   9              		.eabi_attribute 26, 1
  10              		.eabi_attribute 30, 2
  11              		.eabi_attribute 34, 1
  12              		.eabi_attribute 18, 4
  13              		.thumb
  14              		.file	"testthd.c"
  15              		.text
  16              	.Ltext0:
  17              		.cfi_sections	.debug_frame
  18              		.section	.text.thd1_execute,"ax",%progbits
  19              		.align	2
  20              		.p2align 4,,15
  21              		.thumb
  22              		.thumb_func
  23              		.type	thd1_execute, %function
  24              	thd1_execute:
  25              	.LFB8:
  26              		.file 1 "../../test/testthd.c"
  27              		.loc 1 66 0
  28              		.cfi_startproc
  29              		@ args = 0, pretend = 0, frame = 0
  30              		@ frame_needed = 0, uses_anonymous_args = 0
  31 0000 F0B5     		push	{r4, r5, r6, r7, lr}
  32              		.cfi_def_cfa_offset 20
  33              		.cfi_offset 4, -20
  34              		.cfi_offset 5, -16
  35              		.cfi_offset 6, -12
  36              		.cfi_offset 7, -8
  37              		.cfi_offset 14, -4
  38              		.loc 1 68 0
  39 0002 40F20007 		movw	r7, #:lower16:rlist
  40 0006 C0F20007 		movt	r7, #:upper16:rlist
  41 000a 40F20006 		movw	r6, #:lower16:wa
  42 000e BB69     		ldr	r3, [r7, #24]
  43              		.loc 1 66 0
  44 0010 83B0     		sub	sp, sp, #12
  45              		.cfi_def_cfa_offset 32
  46              		.loc 1 68 0
  47 0012 C0F20006 		movt	r6, #:upper16:wa
  48 0016 9A68     		ldr	r2, [r3, #8]
  49 0018 3068     		ldr	r0, [r6]
  50 001a 40F20005 		movw	r5, #:lower16:thread
  51 001e 40F20001 		movw	r1, #:lower16:.LC0
  52 0022 C0F20005 		movt	r5, #:upper16:thread
  53 0026 C0F20001 		movt	r1, #:upper16:.LC0
  54 002a 2B46     		mov	r3, r5
  55 002c 0091     		str	r1, [sp]
  56 002e 053A     		subs	r2, r2, #5
  57 0030 4FF4A871 		mov	r1, #336
ARM GAS  /tmp/ccNJe4yq.s 			page 2


  58 0034 FFF7FEFF 		bl	chThdCreateStatic
  59              	.LVL0:
  60              		.loc 1 69 0
  61 0038 BA69     		ldr	r2, [r7, #24]
  62 003a 7368     		ldr	r3, [r6, #4]
  63 003c 9268     		ldr	r2, [r2, #8]
  64              		.loc 1 68 0
  65 003e 40F20004 		movw	r4, #:lower16:threads
  66 0042 C0F20004 		movt	r4, #:upper16:threads
  67              		.loc 1 69 0
  68 0046 40F20001 		movw	r1, #:lower16:.LC1
  69 004a C0F20001 		movt	r1, #:upper16:.LC1
  70              		.loc 1 68 0
  71 004e 2060     		str	r0, [r4]
  72              		.loc 1 69 0
  73 0050 0091     		str	r1, [sp]
  74 0052 043A     		subs	r2, r2, #4
  75 0054 1846     		mov	r0, r3
  76 0056 4FF4A871 		mov	r1, #336
  77 005a 2B46     		mov	r3, r5
  78 005c FFF7FEFF 		bl	chThdCreateStatic
  79              	.LVL1:
  80              		.loc 1 70 0
  81 0060 BA69     		ldr	r2, [r7, #24]
  82 0062 B368     		ldr	r3, [r6, #8]
  83 0064 9268     		ldr	r2, [r2, #8]
  84              		.loc 1 69 0
  85 0066 6060     		str	r0, [r4, #4]
  86              		.loc 1 70 0
  87 0068 40F20001 		movw	r1, #:lower16:.LC2
  88 006c C0F20001 		movt	r1, #:upper16:.LC2
  89 0070 0091     		str	r1, [sp]
  90 0072 033A     		subs	r2, r2, #3
  91 0074 1846     		mov	r0, r3
  92 0076 4FF4A871 		mov	r1, #336
  93 007a 2B46     		mov	r3, r5
  94 007c FFF7FEFF 		bl	chThdCreateStatic
  95              	.LVL2:
  96              		.loc 1 71 0
  97 0080 BA69     		ldr	r2, [r7, #24]
  98 0082 F368     		ldr	r3, [r6, #12]
  99 0084 9268     		ldr	r2, [r2, #8]
 100              		.loc 1 70 0
 101 0086 A060     		str	r0, [r4, #8]
 102              		.loc 1 71 0
 103 0088 40F20001 		movw	r1, #:lower16:.LC3
 104 008c C0F20001 		movt	r1, #:upper16:.LC3
 105 0090 0091     		str	r1, [sp]
 106 0092 023A     		subs	r2, r2, #2
 107 0094 1846     		mov	r0, r3
 108 0096 4FF4A871 		mov	r1, #336
 109 009a 2B46     		mov	r3, r5
 110 009c FFF7FEFF 		bl	chThdCreateStatic
 111              	.LVL3:
 112              		.loc 1 72 0
 113 00a0 BA69     		ldr	r2, [r7, #24]
 114 00a2 3369     		ldr	r3, [r6, #16]
ARM GAS  /tmp/ccNJe4yq.s 			page 3


 115 00a4 9268     		ldr	r2, [r2, #8]
 116              		.loc 1 71 0
 117 00a6 E060     		str	r0, [r4, #12]
 118              		.loc 1 72 0
 119 00a8 40F20001 		movw	r1, #:lower16:.LC4
 120 00ac C0F20001 		movt	r1, #:upper16:.LC4
 121 00b0 013A     		subs	r2, r2, #1
 122 00b2 0091     		str	r1, [sp]
 123 00b4 1846     		mov	r0, r3
 124 00b6 4FF4A871 		mov	r1, #336
 125 00ba 2B46     		mov	r3, r5
 126 00bc FFF7FEFF 		bl	chThdCreateStatic
 127              	.LVL4:
 128 00c0 2061     		str	r0, [r4, #16]
 129              		.loc 1 73 0
 130 00c2 FFF7FEFF 		bl	test_wait_threads
 131              	.LVL5:
 132              		.loc 1 74 0
 133 00c6 40F20001 		movw	r1, #:lower16:.LC5
 134 00ca C0F20001 		movt	r1, #:upper16:.LC5
 135 00ce 0120     		movs	r0, #1
 136              		.loc 1 75 0
 137 00d0 03B0     		add	sp, sp, #12
 138              		@ sp needed
 139 00d2 BDE8F040 		pop	{r4, r5, r6, r7, lr}
 140              		.loc 1 74 0
 141 00d6 FFF7FEBF 		b	_test_assert_sequence
 142              	.LVL6:
 143              		.cfi_endproc
 144              	.LFE8:
 145              		.size	thd1_execute, .-thd1_execute
 146 00da 00BFAFF3 		.section	.text.thread,"ax",%progbits
 146      0080
 147              		.align	2
 148              		.p2align 4,,15
 149              		.thumb
 150              		.thumb_func
 151              		.type	thread, %function
 152              	thread:
 153              	.LFB7:
 154              		.loc 1 60 0
 155              		.cfi_startproc
 156              		@ args = 0, pretend = 0, frame = 0
 157              		@ frame_needed = 0, uses_anonymous_args = 0
 158              	.LVL7:
 159 0000 08B5     		push	{r3, lr}
 160              		.cfi_def_cfa_offset 8
 161              		.cfi_offset 3, -8
 162              		.cfi_offset 14, -4
 163              		.loc 1 62 0
 164 0002 0078     		ldrb	r0, [r0]	@ zero_extendqisi2
 165              	.LVL8:
 166 0004 FFF7FEFF 		bl	test_emit_token
 167              	.LVL9:
 168              		.loc 1 64 0
 169 0008 0020     		movs	r0, #0
 170 000a 08BD     		pop	{r3, pc}
ARM GAS  /tmp/ccNJe4yq.s 			page 4


 171              		.cfi_endproc
 172              	.LFE7:
 173              		.size	thread, .-thread
 174 000c AFF30080 		.section	.text.thd2_execute,"ax",%progbits
 175              		.align	2
 176              		.p2align 4,,15
 177              		.thumb
 178              		.thumb_func
 179              		.type	thd2_execute, %function
 180              	thd2_execute:
 181              	.LFB9:
 182              		.loc 1 94 0
 183              		.cfi_startproc
 184              		@ args = 0, pretend = 0, frame = 0
 185              		@ frame_needed = 0, uses_anonymous_args = 0
 186 0000 F0B5     		push	{r4, r5, r6, r7, lr}
 187              		.cfi_def_cfa_offset 20
 188              		.cfi_offset 4, -20
 189              		.cfi_offset 5, -16
 190              		.cfi_offset 6, -12
 191              		.cfi_offset 7, -8
 192              		.cfi_offset 14, -4
 193              		.loc 1 96 0
 194 0002 40F20007 		movw	r7, #:lower16:rlist
 195 0006 C0F20007 		movt	r7, #:upper16:rlist
 196 000a 40F20006 		movw	r6, #:lower16:wa
 197 000e BB69     		ldr	r3, [r7, #24]
 198              		.loc 1 94 0
 199 0010 83B0     		sub	sp, sp, #12
 200              		.cfi_def_cfa_offset 32
 201              		.loc 1 96 0
 202 0012 C0F20006 		movt	r6, #:upper16:wa
 203 0016 9A68     		ldr	r2, [r3, #8]
 204 0018 7068     		ldr	r0, [r6, #4]
 205 001a 40F20005 		movw	r5, #:lower16:thread
 206 001e 40F20001 		movw	r1, #:lower16:.LC1
 207 0022 C0F20005 		movt	r5, #:upper16:thread
 208 0026 C0F20001 		movt	r1, #:upper16:.LC1
 209 002a 2B46     		mov	r3, r5
 210 002c 0091     		str	r1, [sp]
 211 002e 043A     		subs	r2, r2, #4
 212 0030 4FF4A871 		mov	r1, #336
 213 0034 FFF7FEFF 		bl	chThdCreateStatic
 214              	.LVL10:
 215              		.loc 1 97 0
 216 0038 BA69     		ldr	r2, [r7, #24]
 217 003a 3368     		ldr	r3, [r6]
 218 003c 9268     		ldr	r2, [r2, #8]
 219              		.loc 1 96 0
 220 003e 40F20004 		movw	r4, #:lower16:threads
 221 0042 C0F20004 		movt	r4, #:upper16:threads
 222              		.loc 1 97 0
 223 0046 40F20001 		movw	r1, #:lower16:.LC0
 224 004a C0F20001 		movt	r1, #:upper16:.LC0
 225              		.loc 1 96 0
 226 004e 6060     		str	r0, [r4, #4]
 227              		.loc 1 97 0
ARM GAS  /tmp/ccNJe4yq.s 			page 5


 228 0050 0091     		str	r1, [sp]
 229 0052 053A     		subs	r2, r2, #5
 230 0054 1846     		mov	r0, r3
 231 0056 4FF4A871 		mov	r1, #336
 232 005a 2B46     		mov	r3, r5
 233 005c FFF7FEFF 		bl	chThdCreateStatic
 234              	.LVL11:
 235              		.loc 1 98 0
 236 0060 BA69     		ldr	r2, [r7, #24]
 237 0062 3369     		ldr	r3, [r6, #16]
 238 0064 9268     		ldr	r2, [r2, #8]
 239              		.loc 1 97 0
 240 0066 2060     		str	r0, [r4]
 241              		.loc 1 98 0
 242 0068 40F20001 		movw	r1, #:lower16:.LC4
 243 006c C0F20001 		movt	r1, #:upper16:.LC4
 244 0070 0091     		str	r1, [sp]
 245 0072 013A     		subs	r2, r2, #1
 246 0074 1846     		mov	r0, r3
 247 0076 4FF4A871 		mov	r1, #336
 248 007a 2B46     		mov	r3, r5
 249 007c FFF7FEFF 		bl	chThdCreateStatic
 250              	.LVL12:
 251              		.loc 1 99 0
 252 0080 BA69     		ldr	r2, [r7, #24]
 253 0082 F368     		ldr	r3, [r6, #12]
 254 0084 9268     		ldr	r2, [r2, #8]
 255              		.loc 1 98 0
 256 0086 2061     		str	r0, [r4, #16]
 257              		.loc 1 99 0
 258 0088 40F20001 		movw	r1, #:lower16:.LC3
 259 008c C0F20001 		movt	r1, #:upper16:.LC3
 260 0090 0091     		str	r1, [sp]
 261 0092 023A     		subs	r2, r2, #2
 262 0094 1846     		mov	r0, r3
 263 0096 4FF4A871 		mov	r1, #336
 264 009a 2B46     		mov	r3, r5
 265 009c FFF7FEFF 		bl	chThdCreateStatic
 266              	.LVL13:
 267              	.LBB2:
 268              		.loc 1 101 0
 269 00a0 2023     		movs	r3, #32
 270              	.LBE2:
 271              		.loc 1 99 0
 272 00a2 E060     		str	r0, [r4, #12]
 273              	.LBB3:
 274              		.loc 1 101 0
 275              	@ 101 "../../test/testthd.c" 1
 276 00a4 83F31188 		msr     BASEPRI, r3
 277              	@ 0 "" 2
 278              		.thumb
 279              	.LBE3:
 280              		.loc 1 102 0
 281 00a8 40F20002 		movw	r2, #:lower16:rlist
 282 00ac C0F20002 		movt	r2, #:upper16:rlist
 283 00b0 40F20003 		movw	r3, #:lower16:wa
 284 00b4 9269     		ldr	r2, [r2, #24]
ARM GAS  /tmp/ccNJe4yq.s 			page 6


 285 00b6 C0F20003 		movt	r3, #:upper16:wa
 286 00ba 9268     		ldr	r2, [r2, #8]
 287 00bc 9868     		ldr	r0, [r3, #8]
 288 00be 40F20001 		movw	r1, #:lower16:.LC2
 289 00c2 C0F20001 		movt	r1, #:upper16:.LC2
 290 00c6 40F20003 		movw	r3, #:lower16:thread
 291 00ca 0091     		str	r1, [sp]
 292 00cc 033A     		subs	r2, r2, #3
 293 00ce C0F20003 		movt	r3, #:upper16:thread
 294 00d2 4FF4A871 		mov	r1, #336
 295 00d6 FFF7FEFF 		bl	chThdCreateI
 296              	.LVL14:
 297 00da 40F20002 		movw	r2, #:lower16:threads
 298 00de C0F20002 		movt	r2, #:upper16:threads
 299              	.LBB4:
 300              		.loc 1 103 0
 301 00e2 0023     		movs	r3, #0
 302              	.LBE4:
 303              		.loc 1 102 0
 304 00e4 9060     		str	r0, [r2, #8]
 305              	.LBB5:
 306              		.loc 1 103 0
 307              	@ 103 "../../test/testthd.c" 1
 308 00e6 83F31188 		msr     BASEPRI, r3
 309              	@ 0 "" 2
 310              		.thumb
 311              	.LBE5:
 312              		.loc 1 104 0
 313 00ea 40F20003 		movw	r3, #:lower16:threads
 314 00ee C0F20003 		movt	r3, #:upper16:threads
 315 00f2 9868     		ldr	r0, [r3, #8]
 316 00f4 FFF7FEFF 		bl	chThdResume
 317              	.LVL15:
 318              		.loc 1 105 0
 319 00f8 FFF7FEFF 		bl	test_wait_threads
 320              	.LVL16:
 321              		.loc 1 106 0
 322 00fc 40F20001 		movw	r1, #:lower16:.LC5
 323 0100 C0F20001 		movt	r1, #:upper16:.LC5
 324 0104 0120     		movs	r0, #1
 325              		.loc 1 107 0
 326 0106 03B0     		add	sp, sp, #12
 327              		@ sp needed
 328 0108 BDE8F040 		pop	{r4, r5, r6, r7, lr}
 329              		.loc 1 106 0
 330 010c FFF7FEBF 		b	_test_assert_sequence
 331              	.LVL17:
 332              		.cfi_endproc
 333              	.LFE9:
 334              		.size	thd2_execute, .-thd2_execute
 335              		.section	.text.thd3_execute,"ax",%progbits
 336              		.align	2
 337              		.p2align 4,,15
 338              		.thumb
 339              		.thumb_func
 340              		.type	thd3_execute, %function
 341              	thd3_execute:
ARM GAS  /tmp/ccNJe4yq.s 			page 7


 342              	.LFB10:
 343              		.loc 1 126 0
 344              		.cfi_startproc
 345              		@ args = 0, pretend = 0, frame = 0
 346              		@ frame_needed = 0, uses_anonymous_args = 0
 347 0000 F8B5     		push	{r3, r4, r5, r6, r7, lr}
 348              		.cfi_def_cfa_offset 24
 349              		.cfi_offset 3, -24
 350              		.cfi_offset 4, -20
 351              		.cfi_offset 5, -16
 352              		.cfi_offset 6, -12
 353              		.cfi_offset 7, -8
 354              		.cfi_offset 14, -4
 355              		.loc 1 129 0
 356 0002 40F20004 		movw	r4, #:lower16:rlist
 357 0006 C0F20004 		movt	r4, #:upper16:rlist
 358 000a A369     		ldr	r3, [r4, #24]
 359 000c 9D68     		ldr	r5, [r3, #8]
 360              	.LVL18:
 361              		.loc 1 130 0
 362 000e 6E1C     		adds	r6, r5, #1
 363 0010 3046     		mov	r0, r6
 364 0012 FFF7FEFF 		bl	chThdSetPriority
 365              	.LVL19:
 366              		.loc 1 131 0
 367 0016 B0EB050C 		subs	ip, r0, r5
 368 001a DCF10001 		rsbs	r1, ip, #0
 369              		.loc 1 130 0
 370 001e 0746     		mov	r7, r0
 371              	.LVL20:
 372              		.loc 1 131 0
 373 0020 51EB0C01 		adcs	r1, r1, ip
 374 0024 0120     		movs	r0, #1
 375              	.LVL21:
 376 0026 FFF7FEFF 		bl	_test_assert
 377              	.LVL22:
 378 002a 00B1     		cbz	r0, .L9
 379              	.LVL23:
 380              	.L4:
 381 002c F8BD     		pop	{r3, r4, r5, r6, r7, pc}
 382              	.LVL24:
 383              	.L9:
 384              		.loc 1 133 0
 385 002e A369     		ldr	r3, [r4, #24]
 386 0030 9968     		ldr	r1, [r3, #8]
 387 0032 B6EB010E 		subs	lr, r6, r1
 388 0036 DEF10001 		rsbs	r1, lr, #0
 389 003a 51EB0E01 		adcs	r1, r1, lr
 390 003e 0220     		movs	r0, #2
 391 0040 FFF7FEFF 		bl	_test_assert
 392              	.LVL25:
 393 0044 0028     		cmp	r0, #0
 394 0046 F1D1     		bne	.L4
 395              		.loc 1 135 0
 396 0048 3846     		mov	r0, r7
 397 004a FFF7FEFF 		bl	chThdSetPriority
 398              	.LVL26:
ARM GAS  /tmp/ccNJe4yq.s 			page 8


 399              		.loc 1 136 0
 400 004e 301A     		subs	r0, r6, r0
 401              	.LVL27:
 402 0050 4142     		rsbs	r1, r0, #0
 403 0052 4141     		adcs	r1, r1, r0
 404 0054 0320     		movs	r0, #3
 405 0056 FFF7FEFF 		bl	_test_assert
 406              	.LVL28:
 407 005a 0028     		cmp	r0, #0
 408 005c E6D1     		bne	.L4
 409              		.loc 1 138 0
 410 005e A369     		ldr	r3, [r4, #24]
 411 0060 9968     		ldr	r1, [r3, #8]
 412 0062 4A1B     		subs	r2, r1, r5
 413 0064 5142     		rsbs	r1, r2, #0
 414 0066 5141     		adcs	r1, r1, r2
 415 0068 0420     		movs	r0, #4
 416 006a FFF7FEFF 		bl	_test_assert
 417              	.LVL29:
 418 006e 0028     		cmp	r0, #0
 419 0070 DCD1     		bne	.L4
 420              	.LBB6:
 421              		.loc 1 143 0
 422 0072 2023     		movs	r3, #32
 423              	@ 143 "../../test/testthd.c" 1
 424 0074 83F31188 		msr     BASEPRI, r3
 425              	@ 0 "" 2
 426              		.thumb
 427              	.LBE6:
 428              		.loc 1 144 0
 429 0078 A369     		ldr	r3, [r4, #24]
 430 007a 9A68     		ldr	r2, [r3, #8]
 431 007c 0232     		adds	r2, r2, #2
 432 007e 9A60     		str	r2, [r3, #8]
 433              	.LBB7:
 434              		.loc 1 145 0
 435 0080 0023     		movs	r3, #0
 436              	@ 145 "../../test/testthd.c" 1
 437 0082 83F31188 		msr     BASEPRI, r3
 438              	@ 0 "" 2
 439              		.thumb
 440              	.LBE7:
 441              		.loc 1 146 0
 442 0086 40F20004 		movw	r4, #:lower16:rlist
 443 008a C0F20004 		movt	r4, #:upper16:rlist
 444 008e AF1C     		adds	r7, r5, #2
 445 0090 A369     		ldr	r3, [r4, #24]
 446 0092 9968     		ldr	r1, [r3, #8]
 447 0094 CB1B     		subs	r3, r1, r7
 448 0096 5942     		rsbs	r1, r3, #0
 449 0098 5941     		adcs	r1, r1, r3
 450 009a 0520     		movs	r0, #5
 451 009c FFF7FEFF 		bl	_test_assert
 452              	.LVL30:
 453 00a0 0028     		cmp	r0, #0
 454 00a2 C3D1     		bne	.L4
 455              		.loc 1 150 0
ARM GAS  /tmp/ccNJe4yq.s 			page 9


 456 00a4 3046     		mov	r0, r6
 457 00a6 FFF7FEFF 		bl	chThdSetPriority
 458              	.LVL31:
 459              		.loc 1 151 0
 460 00aa B0EB050C 		subs	ip, r0, r5
 461 00ae DCF10001 		rsbs	r1, ip, #0
 462 00b2 51EB0C01 		adcs	r1, r1, ip
 463 00b6 0620     		movs	r0, #6
 464              	.LVL32:
 465 00b8 FFF7FEFF 		bl	_test_assert
 466              	.LVL33:
 467 00bc 0028     		cmp	r0, #0
 468 00be B5D1     		bne	.L4
 469              		.loc 1 153 0
 470 00c0 A369     		ldr	r3, [r4, #24]
 471 00c2 9968     		ldr	r1, [r3, #8]
 472 00c4 B7EB010E 		subs	lr, r7, r1
 473 00c8 DEF10001 		rsbs	r1, lr, #0
 474 00cc 51EB0E01 		adcs	r1, r1, lr
 475 00d0 0720     		movs	r0, #7
 476 00d2 FFF7FEFF 		bl	_test_assert
 477              	.LVL34:
 478 00d6 0028     		cmp	r0, #0
 479 00d8 A8D1     		bne	.L4
 480              		.loc 1 155 0
 481 00da A369     		ldr	r3, [r4, #24]
 482 00dc 196C     		ldr	r1, [r3, #64]
 483 00de 771A     		subs	r7, r6, r1
 484 00e0 7942     		rsbs	r1, r7, #0
 485 00e2 7941     		adcs	r1, r1, r7
 486 00e4 0820     		movs	r0, #8
 487 00e6 FFF7FEFF 		bl	_test_assert
 488              	.LVL35:
 489 00ea 0028     		cmp	r0, #0
 490 00ec 9ED1     		bne	.L4
 491              		.loc 1 159 0
 492 00ee EF1C     		adds	r7, r5, #3
 493 00f0 3846     		mov	r0, r7
 494 00f2 FFF7FEFF 		bl	chThdSetPriority
 495              	.LVL36:
 496              		.loc 1 160 0
 497 00f6 301A     		subs	r0, r6, r0
 498              	.LVL37:
 499 00f8 4142     		rsbs	r1, r0, #0
 500 00fa 4141     		adcs	r1, r1, r0
 501 00fc 0920     		movs	r0, #9
 502 00fe FFF7FEFF 		bl	_test_assert
 503              	.LVL38:
 504 0102 0028     		cmp	r0, #0
 505 0104 92D1     		bne	.L4
 506              		.loc 1 162 0
 507 0106 A369     		ldr	r3, [r4, #24]
 508 0108 9968     		ldr	r1, [r3, #8]
 509 010a 7A1A     		subs	r2, r7, r1
 510 010c 5142     		rsbs	r1, r2, #0
 511 010e 5141     		adcs	r1, r1, r2
 512 0110 0A20     		movs	r0, #10
ARM GAS  /tmp/ccNJe4yq.s 			page 10


 513 0112 FFF7FEFF 		bl	_test_assert
 514              	.LVL39:
 515 0116 0028     		cmp	r0, #0
 516 0118 88D1     		bne	.L4
 517              		.loc 1 164 0
 518 011a A369     		ldr	r3, [r4, #24]
 519 011c 196C     		ldr	r1, [r3, #64]
 520 011e 7B1A     		subs	r3, r7, r1
 521 0120 5942     		rsbs	r1, r3, #0
 522 0122 5941     		adcs	r1, r1, r3
 523 0124 0B20     		movs	r0, #11
 524 0126 FFF7FEFF 		bl	_test_assert
 525              	.LVL40:
 526 012a 0028     		cmp	r0, #0
 527 012c 7FF47EAF 		bne	.L4
 528              	.LBB8:
 529              		.loc 1 167 0
 530 0130 2023     		movs	r3, #32
 531              	@ 167 "../../test/testthd.c" 1
 532 0132 83F31188 		msr     BASEPRI, r3
 533              	@ 0 "" 2
 534              		.thumb
 535              	.LBE8:
 536              		.loc 1 168 0
 537 0136 A269     		ldr	r2, [r4, #24]
 538              	.LBB9:
 539              		.loc 1 170 0
 540 0138 0023     		movs	r3, #0
 541              	.LBE9:
 542              		.loc 1 168 0
 543 013a 9560     		str	r5, [r2, #8]
 544              		.loc 1 169 0
 545 013c 1564     		str	r5, [r2, #64]
 546              	.LBB10:
 547              		.loc 1 170 0
 548              	@ 170 "../../test/testthd.c" 1
 549 013e 83F31188 		msr     BASEPRI, r3
 550              	@ 0 "" 2
 551              		.thumb
 552 0142 73E7     		b	.L4
 553              	.LBE10:
 554              		.cfi_endproc
 555              	.LFE10:
 556              		.size	thd3_execute, .-thd3_execute
 557 0144 AFF30080 		.section	.text.thd4_execute,"ax",%progbits
 557      AFF30080 
 557      AFF30080 
 558              		.align	2
 559              		.p2align 4,,15
 560              		.thumb
 561              		.thumb_func
 562              		.type	thd4_execute, %function
 563              	thd4_execute:
 564              	.LFB11:
 565              		.loc 1 189 0
 566              		.cfi_startproc
 567              		@ args = 0, pretend = 0, frame = 0
ARM GAS  /tmp/ccNJe4yq.s 			page 11


 568              		@ frame_needed = 0, uses_anonymous_args = 0
 569 0000 38B5     		push	{r3, r4, r5, lr}
 570              		.cfi_def_cfa_offset 16
 571              		.cfi_offset 3, -16
 572              		.cfi_offset 4, -12
 573              		.cfi_offset 5, -8
 574              		.cfi_offset 14, -4
 575              		.loc 1 195 0
 576 0002 40F20004 		movw	r4, #:lower16:vtlist
 577 0006 C0F20004 		movt	r4, #:upper16:vtlist
 578              		.loc 1 192 0
 579 000a FFF7FEFF 		bl	test_wait_tick
 580              	.LVL41:
 581              		.loc 1 195 0
 582 000e E568     		ldr	r5, [r4, #12]
 583              	.LVL42:
 584              		.loc 1 196 0
 585 0010 6420     		movs	r0, #100
 586 0012 FFF7FEFF 		bl	chThdSleep
 587              	.LVL43:
 588              		.loc 1 197 0
 589 0016 05F16401 		add	r1, r5, #100
 590 001a 05F16502 		add	r2, r5, #101
 591 001e 0120     		movs	r0, #1
 592 0020 FFF7FEFF 		bl	_test_assert_time_window
 593              	.LVL44:
 594 0024 00B1     		cbz	r0, .L14
 595              	.LVL45:
 596              	.L10:
 597 0026 38BD     		pop	{r3, r4, r5, pc}
 598              	.LVL46:
 599              	.L14:
 600              		.loc 1 200 0
 601 0028 E568     		ldr	r5, [r4, #12]
 602              	.LVL47:
 603              		.loc 1 201 0
 604 002a 6420     		movs	r0, #100
 605 002c FFF7FEFF 		bl	chThdSleep
 606              	.LVL48:
 607              		.loc 1 202 0
 608 0030 05F16401 		add	r1, r5, #100
 609 0034 05F16502 		add	r2, r5, #101
 610 0038 0220     		movs	r0, #2
 611 003a FFF7FEFF 		bl	_test_assert_time_window
 612              	.LVL49:
 613 003e 0028     		cmp	r0, #0
 614 0040 F1D1     		bne	.L10
 615              	.LBB13:
 616              	.LBB14:
 617              		.loc 1 205 0
 618 0042 E568     		ldr	r5, [r4, #12]
 619              	.LVL50:
 620              		.loc 1 206 0
 621 0044 4FF47A70 		mov	r0, #1000
 622 0048 FFF7FEFF 		bl	chThdSleep
 623              	.LVL51:
 624              		.loc 1 207 0
ARM GAS  /tmp/ccNJe4yq.s 			page 12


 625 004c 05F57A71 		add	r1, r5, #1000
 626 0050 05F2E932 		addw	r2, r5, #1001
 627 0054 0320     		movs	r0, #3
 628 0056 FFF7FEFF 		bl	_test_assert_time_window
 629              	.LVL52:
 630 005a 0028     		cmp	r0, #0
 631 005c E3D1     		bne	.L10
 632              		.loc 1 210 0
 633 005e E468     		ldr	r4, [r4, #12]
 634 0060 04F16405 		add	r5, r4, #100
 635              	.LVL53:
 636              		.loc 1 211 0
 637 0064 2846     		mov	r0, r5
 638 0066 FFF7FEFF 		bl	chThdSleepUntil
 639              	.LVL54:
 640              		.loc 1 212 0
 641 006a 2946     		mov	r1, r5
 642 006c 04F16502 		add	r2, r4, #101
 643 0070 0420     		movs	r0, #4
 644              	.LBE14:
 645              	.LBE13:
 646              		.loc 1 213 0
 647 0072 BDE83840 		pop	{r3, r4, r5, lr}
 648              	.LVL55:
 649              	.LBB16:
 650              	.LBB15:
 651              		.loc 1 212 0
 652 0076 FFF7FEBF 		b	_test_assert_time_window
 653              	.LVL56:
 654              	.LBE15:
 655              	.LBE16:
 656              		.cfi_endproc
 657              	.LFE11:
 658              		.size	thd4_execute, .-thd4_execute
 659              		.global	patternthd
 660              		.global	testthd4
 661              		.global	testthd3
 662              		.global	testthd2
 663              		.global	testthd1
 664 007a 00BFAFF3 		.section	.rodata.testthd1,"a",%progbits
 664      0080
 665              		.align	2
 666              		.type	testthd1, %object
 667              		.size	testthd1, 16
 668              	testthd1:
 669 0000 64000000 		.word	.LC9
 670 0004 00000000 		.word	0
 671 0008 00000000 		.word	0
 672 000c 00000000 		.word	thd1_execute
 673              		.section	.rodata.testthd2,"a",%progbits
 674              		.align	2
 675              		.type	testthd2, %object
 676              		.size	testthd2, 16
 677              	testthd2:
 678 0000 48000000 		.word	.LC8
 679 0004 00000000 		.word	0
 680 0008 00000000 		.word	0
ARM GAS  /tmp/ccNJe4yq.s 			page 13


 681 000c 00000000 		.word	thd2_execute
 682              		.section	.rodata.testthd3,"a",%progbits
 683              		.align	2
 684              		.type	testthd3, %object
 685              		.size	testthd3, 16
 686              	testthd3:
 687 0000 2C000000 		.word	.LC7
 688 0004 00000000 		.word	0
 689 0008 00000000 		.word	0
 690 000c 00000000 		.word	thd3_execute
 691              		.section	.rodata.testthd4,"a",%progbits
 692              		.align	2
 693              		.type	testthd4, %object
 694              		.size	testthd4, 16
 695              	testthd4:
 696 0000 1C000000 		.word	.LC6
 697 0004 00000000 		.word	0
 698 0008 00000000 		.word	0
 699 000c 00000000 		.word	thd4_execute
 700              		.section	.rodata.patternthd,"a",%progbits
 701              		.align	2
 702              		.type	patternthd, %object
 703              		.size	patternthd, 20
 704              	patternthd:
 705 0000 00000000 		.word	testthd1
 706 0004 00000000 		.word	testthd2
 707 0008 00000000 		.word	testthd3
 708 000c 00000000 		.word	testthd4
 709 0010 00000000 		.word	0
 710              		.section	.rodata.str1.4,"aMS",%progbits,1
 711              		.align	2
 712              	.LC0:
 713 0000 4500     		.ascii	"E\000"
 714 0002 0000     		.space	2
 715              	.LC1:
 716 0004 4400     		.ascii	"D\000"
 717 0006 0000     		.space	2
 718              	.LC2:
 719 0008 4300     		.ascii	"C\000"
 720 000a 0000     		.space	2
 721              	.LC3:
 722 000c 4200     		.ascii	"B\000"
 723 000e 0000     		.space	2
 724              	.LC4:
 725 0010 4100     		.ascii	"A\000"
 726 0012 0000     		.space	2
 727              	.LC5:
 728 0014 41424344 		.ascii	"ABCDE\000"
 728      4500
 729 001a 0000     		.space	2
 730              	.LC6:
 731 001c 54687265 		.ascii	"Threads, delays\000"
 731      6164732C 
 731      2064656C 
 731      61797300 
 732              	.LC7:
 733 002c 54687265 		.ascii	"Threads, priority change\000"
ARM GAS  /tmp/ccNJe4yq.s 			page 14


 733      6164732C 
 733      20707269 
 733      6F726974 
 733      79206368 
 734 0045 000000   		.space	3
 735              	.LC8:
 736 0048 54687265 		.ascii	"Threads, enqueuing test #2\000"
 736      6164732C 
 736      20656E71 
 736      75657569 
 736      6E672074 
 737 0063 00       		.space	1
 738              	.LC9:
 739 0064 54687265 		.ascii	"Threads, enqueuing test #1\000"
 739      6164732C 
 739      20656E71 
 739      75657569 
 739      6E672074 
 740 007f 00       		.text
 741              	.Letext0:
 742              		.file 2 "/usr/lib/gcc/arm-none-eabi/4.8.2/include/stddef.h"
 743              		.file 3 "/usr/include/newlib/machine/_default_types.h"
 744              		.file 4 "/usr/include/newlib/stdint.h"
 745              		.file 5 "../../os/ports/GCC/ARMCMx/chtypes.h"
 746              		.file 6 "../../os/kernel/include/chlists.h"
 747              		.file 7 "../../os/kernel/include/chthreads.h"
 748              		.file 8 "../../os/ports/GCC/ARMCMx/chcore_v7m.h"
 749              		.file 9 "../../os/kernel/include/chvt.h"
 750              		.file 10 "../../os/kernel/include/chschd.h"
 751              		.file 11 "../../os/kernel/include/chmtx.h"
 752              		.file 12 "../../test/test.h"