ARM GAS  /tmp/cclC0EF6.s 			page 1


   1              		.syntax unified
   2              		.cpu cortex-m4
   3              		.fpu softvfp
   4              		.eabi_attribute 20, 1
   5              		.eabi_attribute 21, 1
   6              		.eabi_attribute 23, 3
   7              		.eabi_attribute 24, 1
   8              		.eabi_attribute 25, 1
   9              		.eabi_attribute 26, 1
  10              		.eabi_attribute 30, 2
  11              		.eabi_attribute 34, 1
  12              		.eabi_attribute 18, 4
  13              		.thumb
  14              		.file	"testqueues.c"
  15              		.text
  16              	.Ltext0:
  17              		.cfi_sections	.debug_frame
  18              		.section	.text.notify,"ax",%progbits
  19              		.align	2
  20              		.p2align 4,,15
  21              		.thumb
  22              		.thumb_func
  23              		.type	notify, %function
  24              	notify:
  25              	.LFB7:
  26              		.file 1 "../../test/testqueues.c"
  27              		.loc 1 57 0
  28              		.cfi_startproc
  29              		@ args = 0, pretend = 0, frame = 0
  30              		@ frame_needed = 0, uses_anonymous_args = 0
  31              		@ link register save eliminated.
  32              	.LVL0:
  33 0000 7047     		bx	lr
  34              		.cfi_endproc
  35              	.LFE7:
  36              		.size	notify, .-notify
  37 0002 00BFAFF3 		.section	.text.thread1,"ax",%progbits
  37      0080AFF3 
  37      0080AFF3 
  37      0080
  38              		.align	2
  39              		.p2align 4,,15
  40              		.thumb
  41              		.thumb_func
  42              		.type	thread1, %function
  43              	thread1:
  44              	.LFB9:
  45              		.loc 1 83 0
  46              		.cfi_startproc
  47              		@ args = 0, pretend = 0, frame = 0
  48              		@ frame_needed = 0, uses_anonymous_args = 0
  49              	.LVL1:
  50              		.loc 1 83 0
  51 0000 08B5     		push	{r3, lr}
  52              		.cfi_def_cfa_offset 8
  53              		.cfi_offset 3, -8
  54              		.cfi_offset 14, -4
ARM GAS  /tmp/cclC0EF6.s 			page 2


  55              		.loc 1 86 0
  56 0002 40F20000 		movw	r0, #:lower16:.LANCHOR0
  57              	.LVL2:
  58 0006 C821     		movs	r1, #200
  59 0008 C0F20000 		movt	r0, #:upper16:.LANCHOR0
  60 000c FFF7FEFF 		bl	chIQGetTimeout
  61              	.LVL3:
  62              		.loc 1 88 0
  63 0010 0020     		movs	r0, #0
  64 0012 08BD     		pop	{r3, pc}
  65              		.cfi_endproc
  66              	.LFE9:
  67              		.size	thread1, .-thread1
  68 0014 AFF30080 		.section	.text.queues1_setup,"ax",%progbits
  68      AFF30080 
  68      AFF30080 
  69              		.align	2
  70              		.p2align 4,,15
  71              		.thumb
  72              		.thumb_func
  73              		.type	queues1_setup, %function
  74              	queues1_setup:
  75              	.LFB8:
  76              		.loc 1 78 0
  77              		.cfi_startproc
  78              		@ args = 0, pretend = 0, frame = 0
  79              		@ frame_needed = 0, uses_anonymous_args = 0
  80 0000 00B5     		push	{lr}
  81              		.cfi_def_cfa_offset 4
  82              		.cfi_offset 14, -4
  83              		.loc 1 80 0
  84 0002 40F20003 		movw	r3, #:lower16:wa
  85 0006 C0F20003 		movt	r3, #:upper16:wa
  86              		.loc 1 78 0
  87 000a 83B0     		sub	sp, sp, #12
  88              		.cfi_def_cfa_offset 16
  89              		.loc 1 80 0
  90 000c 1968     		ldr	r1, [r3]
  91 000e 0022     		movs	r2, #0
  92 0010 40F20000 		movw	r0, #:lower16:.LANCHOR0
  93 0014 40F20003 		movw	r3, #:lower16:notify
  94 0018 0092     		str	r2, [sp]
  95 001a C0F20000 		movt	r0, #:upper16:.LANCHOR0
  96 001e C0F20003 		movt	r3, #:upper16:notify
  97 0022 0422     		movs	r2, #4
  98 0024 FFF7FEFF 		bl	chIQInit
  99              	.LVL4:
 100              		.loc 1 81 0
 101 0028 03B0     		add	sp, sp, #12
 102              		@ sp needed
 103 002a 5DF804FB 		ldr	pc, [sp], #4
 104              		.cfi_endproc
 105              	.LFE8:
 106              		.size	queues1_setup, .-queues1_setup
 107 002e 00BF     		.section	.text.thread2,"ax",%progbits
 108              		.align	2
 109              		.p2align 4,,15
ARM GAS  /tmp/cclC0EF6.s 			page 3


 110              		.thumb
 111              		.thumb_func
 112              		.type	thread2, %function
 113              	thread2:
 114              	.LFB12:
 115              		.loc 1 170 0
 116              		.cfi_startproc
 117              		@ args = 0, pretend = 0, frame = 0
 118              		@ frame_needed = 0, uses_anonymous_args = 0
 119              	.LVL5:
 120 0000 08B5     		push	{r3, lr}
 121              		.cfi_def_cfa_offset 8
 122              		.cfi_offset 3, -8
 123              		.cfi_offset 14, -4
 124              		.loc 1 173 0
 125 0002 40F20000 		movw	r0, #:lower16:.LANCHOR1
 126              	.LVL6:
 127 0006 0021     		movs	r1, #0
 128 0008 C822     		movs	r2, #200
 129 000a C0F20000 		movt	r0, #:upper16:.LANCHOR1
 130 000e FFF7FEFF 		bl	chOQPutTimeout
 131              	.LVL7:
 132              		.loc 1 175 0
 133 0012 0020     		movs	r0, #0
 134 0014 08BD     		pop	{r3, pc}
 135              		.cfi_endproc
 136              	.LFE12:
 137              		.size	thread2, .-thread2
 138 0016 00BFAFF3 		.section	.text.queues2_setup,"ax",%progbits
 138      0080AFF3 
 138      0080
 139              		.align	2
 140              		.p2align 4,,15
 141              		.thumb
 142              		.thumb_func
 143              		.type	queues2_setup, %function
 144              	queues2_setup:
 145              	.LFB11:
 146              		.loc 1 165 0
 147              		.cfi_startproc
 148              		@ args = 0, pretend = 0, frame = 0
 149              		@ frame_needed = 0, uses_anonymous_args = 0
 150 0000 00B5     		push	{lr}
 151              		.cfi_def_cfa_offset 4
 152              		.cfi_offset 14, -4
 153              		.loc 1 167 0
 154 0002 40F20003 		movw	r3, #:lower16:wa
 155 0006 C0F20003 		movt	r3, #:upper16:wa
 156              		.loc 1 165 0
 157 000a 83B0     		sub	sp, sp, #12
 158              		.cfi_def_cfa_offset 16
 159              		.loc 1 167 0
 160 000c 1968     		ldr	r1, [r3]
 161 000e 0022     		movs	r2, #0
 162 0010 40F20000 		movw	r0, #:lower16:.LANCHOR1
 163 0014 40F20003 		movw	r3, #:lower16:notify
 164 0018 0092     		str	r2, [sp]
ARM GAS  /tmp/cclC0EF6.s 			page 4


 165 001a C0F20000 		movt	r0, #:upper16:.LANCHOR1
 166 001e C0F20003 		movt	r3, #:upper16:notify
 167 0022 0422     		movs	r2, #4
 168 0024 FFF7FEFF 		bl	chOQInit
 169              	.LVL8:
 170              		.loc 1 168 0
 171 0028 03B0     		add	sp, sp, #12
 172              		@ sp needed
 173 002a 5DF804FB 		ldr	pc, [sp], #4
 174              		.cfi_endproc
 175              	.LFE11:
 176              		.size	queues2_setup, .-queues2_setup
 177 002e 00BF     		.section	.text.queues1_execute,"ax",%progbits
 178              		.align	2
 179              		.p2align 4,,15
 180              		.thumb
 181              		.thumb_func
 182              		.type	queues1_execute, %function
 183              	queues1_execute:
 184              	.LFB10:
 185              		.loc 1 90 0
 186              		.cfi_startproc
 187              		@ args = 0, pretend = 0, frame = 0
 188              		@ frame_needed = 0, uses_anonymous_args = 0
 189 0000 70B5     		push	{r4, r5, r6, lr}
 190              		.cfi_def_cfa_offset 16
 191              		.cfi_offset 4, -16
 192              		.cfi_offset 5, -12
 193              		.cfi_offset 6, -8
 194              		.cfi_offset 14, -4
 195              	.LBB99:
 196              		.loc 1 95 0
 197 0002 2023     		movs	r3, #32
 198              	.LBE99:
 199              		.loc 1 90 0
 200 0004 82B0     		sub	sp, sp, #8
 201              		.cfi_def_cfa_offset 24
 202              	.LBB100:
 203              		.loc 1 95 0
 204              	@ 95 "../../test/testqueues.c" 1
 205 0006 83F31188 		msr     BASEPRI, r3
 206              	@ 0 "" 2
 207              		.thumb
 208              	.LBE100:
 209 000a 40F20005 		movw	r5, #:lower16:.LANCHOR0
 210 000e C0F20005 		movt	r5, #:upper16:.LANCHOR0
 211 0012 0120     		movs	r0, #1
 212 0014 A968     		ldr	r1, [r5, #8]
 213 0016 D1F10101 		rsbs	r1, r1, #1
 214 001a 38BF     		it	cc
 215 001c 0021     		movcc	r1, #0
 216 001e FFF7FEFF 		bl	_test_assert
 217              	.LVL9:
 218 0022 0646     		mov	r6, r0
 219 0024 28BB     		cbnz	r0, .L27
 220              	.LBB101:
 221              	.LBB102:
ARM GAS  /tmp/cclC0EF6.s 			page 5


 222              	.LBB103:
 223 0026 0346     		mov	r3, r0
 224              	@ 95 "../../test/testqueues.c" 1
 225 0028 83F31188 		msr     BASEPRI, r3
 226              	@ 0 "" 2
 227              		.thumb
 228              	.LBE103:
 229              	.LBB104:
 230              		.loc 1 98 0
 231 002c 2023     		movs	r3, #32
 232              	@ 98 "../../test/testqueues.c" 1
 233 002e 83F31188 		msr     BASEPRI, r3
 234              	@ 0 "" 2
 235              	.LVL10:
 236              		.thumb
 237 0032 4124     		movs	r4, #65
 238              	.LVL11:
 239              	.L10:
 240              	.LBE104:
 241              		.loc 1 100 0
 242 0034 2146     		mov	r1, r4
 243 0036 40F20000 		movw	r0, #:lower16:.LANCHOR0
 244 003a 0134     		adds	r4, r4, #1
 245 003c C0F20000 		movt	r0, #:upper16:.LANCHOR0
 246 0040 E4B2     		uxtb	r4, r4
 247 0042 FFF7FEFF 		bl	chIQPutI
 248              	.LVL12:
 249              		.loc 1 99 0
 250 0046 452C     		cmp	r4, #69
 251 0048 F4D1     		bne	.L10
 252              	.LBB105:
 253              		.loc 1 101 0
 254 004a 0023     		movs	r3, #0
 255              	@ 101 "../../test/testqueues.c" 1
 256 004c 83F31188 		msr     BASEPRI, r3
 257              	@ 0 "" 2
 258              		.thumb
 259              	.LBE105:
 260              	.LBB106:
 261              		.loc 1 102 0
 262 0050 2023     		movs	r3, #32
 263              	@ 102 "../../test/testqueues.c" 1
 264 0052 83F31188 		msr     BASEPRI, r3
 265              	@ 0 "" 2
 266              		.thumb
 267              	.LBE106:
 268 0056 6969     		ldr	r1, [r5, #20]
 269 0058 AA69     		ldr	r2, [r5, #24]
 270 005a 40F20003 		movw	r3, #:lower16:.LANCHOR0
 271 005e 9142     		cmp	r1, r2
 272 0060 C0F20003 		movt	r3, #:upper16:.LANCHOR0
 273 0064 00F02981 		beq	.L29
 274              	.L11:
 275 0068 3146     		mov	r1, r6
 276 006a 0220     		movs	r0, #2
 277 006c FFF7FEFF 		bl	_test_assert
 278              	.LVL13:
ARM GAS  /tmp/cclC0EF6.s 			page 6


 279 0070 20B1     		cbz	r0, .L12
 280              	.L27:
 281              	.LBB107:
 282              		.loc 1 142 0
 283 0072 0023     		movs	r3, #0
 284              	@ 142 "../../test/testqueues.c" 1
 285 0074 83F31188 		msr     BASEPRI, r3
 286              	@ 0 "" 2
 287              		.thumb
 288              	.L6:
 289              	.LBE107:
 290              	.LBE102:
 291              	.LBE101:
 292              		.loc 1 147 0
 293 0078 02B0     		add	sp, sp, #8
 294              		@ sp needed
 295 007a 70BD     		pop	{r4, r5, r6, pc}
 296              	.L12:
 297              	.LBB130:
 298              	.LBB128:
 299              	.LBB108:
 300              		.loc 1 102 0
 301 007c 0346     		mov	r3, r0
 302              	@ 102 "../../test/testqueues.c" 1
 303 007e 83F31188 		msr     BASEPRI, r3
 304              	@ 0 "" 2
 305              		.thumb
 306              	.LBE108:
 307              	.LBB109:
 308              		.loc 1 103 0
 309 0082 2023     		movs	r3, #32
 310              	@ 103 "../../test/testqueues.c" 1
 311 0084 83F31188 		msr     BASEPRI, r3
 312              	@ 0 "" 2
 313              		.thumb
 314              	.LBE109:
 315 0088 40F20000 		movw	r0, #:lower16:.LANCHOR0
 316 008c 0021     		movs	r1, #0
 317 008e C0F20000 		movt	r0, #:upper16:.LANCHOR0
 318 0092 FFF7FEFF 		bl	chIQPutI
 319              	.LVL14:
 320 0096 0430     		adds	r0, r0, #4
 321 0098 14BF     		ite	ne
 322 009a 0021     		movne	r1, #0
 323 009c 0121     		moveq	r1, #1
 324 009e 0320     		movs	r0, #3
 325 00a0 FFF7FEFF 		bl	_test_assert
 326              	.LVL15:
 327 00a4 0028     		cmp	r0, #0
 328 00a6 E4D1     		bne	.L27
 329              	.LBB110:
 330 00a8 0346     		mov	r3, r0
 331              	@ 103 "../../test/testqueues.c" 1
 332 00aa 83F31188 		msr     BASEPRI, r3
 333              	@ 0 "" 2
 334              	.LVL16:
 335              		.thumb
ARM GAS  /tmp/cclC0EF6.s 			page 7


 336 00ae 0424     		movs	r4, #4
 337              	.LVL17:
 338              	.L15:
 339              	.LBE110:
 340              		.loc 1 107 0
 341 00b0 40F20000 		movw	r0, #:lower16:.LANCHOR0
 342 00b4 4FF0FF31 		mov	r1, #-1
 343 00b8 C0F20000 		movt	r0, #:upper16:.LANCHOR0
 344 00bc FFF7FEFF 		bl	chIQGetTimeout
 345              	.LVL18:
 346 00c0 C0B2     		uxtb	r0, r0
 347 00c2 FFF7FEFF 		bl	test_emit_token
 348              	.LVL19:
 349              		.loc 1 106 0
 350 00c6 013C     		subs	r4, r4, #1
 351              	.LVL20:
 352 00c8 F2D1     		bne	.L15
 353              	.LBB111:
 354              		.loc 1 108 0
 355 00ca 2023     		movs	r3, #32
 356              	@ 108 "../../test/testqueues.c" 1
 357 00cc 83F31188 		msr     BASEPRI, r3
 358              	@ 0 "" 2
 359              		.thumb
 360              	.LBE111:
 361 00d0 A968     		ldr	r1, [r5, #8]
 362 00d2 D1F10101 		rsbs	r1, r1, #1
 363 00d6 38BF     		it	cc
 364 00d8 0021     		movcc	r1, #0
 365 00da 0420     		movs	r0, #4
 366 00dc FFF7FEFF 		bl	_test_assert
 367              	.LVL21:
 368 00e0 0028     		cmp	r0, #0
 369 00e2 C6D1     		bne	.L27
 370              	.LBB112:
 371 00e4 0346     		mov	r3, r0
 372              	@ 108 "../../test/testqueues.c" 1
 373 00e6 83F31188 		msr     BASEPRI, r3
 374              	@ 0 "" 2
 375              		.thumb
 376              	.LBE112:
 377              		.loc 1 109 0
 378 00ea 40F20001 		movw	r1, #:lower16:.LC0
 379 00ee C0F20001 		movt	r1, #:upper16:.LC0
 380 00f2 0520     		movs	r0, #5
 381 00f4 FFF7FEFF 		bl	_test_assert_sequence
 382              	.LVL22:
 383 00f8 0028     		cmp	r0, #0
 384 00fa BDD1     		bne	.L6
 385              	.LBB113:
 386              		.loc 1 112 0
 387 00fc 2023     		movs	r3, #32
 388              	@ 112 "../../test/testqueues.c" 1
 389 00fe 83F31188 		msr     BASEPRI, r3
 390              	@ 0 "" 2
 391              	.LVL23:
 392              		.thumb
ARM GAS  /tmp/cclC0EF6.s 			page 8


 393 0102 4124     		movs	r4, #65
 394              	.LVL24:
 395              	.L19:
 396              	.LBE113:
 397              		.loc 1 114 0
 398 0104 2146     		mov	r1, r4
 399 0106 40F20000 		movw	r0, #:lower16:.LANCHOR0
 400 010a 0134     		adds	r4, r4, #1
 401 010c C0F20000 		movt	r0, #:upper16:.LANCHOR0
 402 0110 E4B2     		uxtb	r4, r4
 403 0112 FFF7FEFF 		bl	chIQPutI
 404              	.LVL25:
 405              		.loc 1 113 0
 406 0116 452C     		cmp	r4, #69
 407 0118 F4D1     		bne	.L19
 408              	.LBB114:
 409              		.loc 1 115 0
 410 011a 0023     		movs	r3, #0
 411              	@ 115 "../../test/testqueues.c" 1
 412 011c 83F31188 		msr     BASEPRI, r3
 413              	@ 0 "" 2
 414              		.thumb
 415              	.LBE114:
 416              		.loc 1 118 0
 417 0120 40F20004 		movw	r4, #:lower16:wa
 418 0124 C0F20004 		movt	r4, #:upper16:wa
 419 0128 40F20000 		movw	r0, #:lower16:.LANCHOR0
 420 012c 6168     		ldr	r1, [r4, #4]
 421 012e C0F20000 		movt	r0, #:upper16:.LANCHOR0
 422 0132 0822     		movs	r2, #8
 423 0134 FFF7FEFF 		bl	chIQReadTimeout
 424              	.LVL26:
 425              		.loc 1 119 0
 426 0138 061F     		subs	r6, r0, #4
 427 013a 7142     		rsbs	r1, r6, #0
 428 013c 7141     		adcs	r1, r1, r6
 429 013e 0620     		movs	r0, #6
 430              	.LVL27:
 431 0140 FFF7FEFF 		bl	_test_assert
 432              	.LVL28:
 433 0144 0028     		cmp	r0, #0
 434 0146 97D1     		bne	.L6
 435              	.LBB115:
 436              		.loc 1 120 0
 437 0148 2023     		movs	r3, #32
 438              	@ 120 "../../test/testqueues.c" 1
 439 014a 83F31188 		msr     BASEPRI, r3
 440              	@ 0 "" 2
 441              		.thumb
 442              	.LBE115:
 443 014e A968     		ldr	r1, [r5, #8]
 444 0150 D1F10101 		rsbs	r1, r1, #1
 445 0154 38BF     		it	cc
 446 0156 0021     		movcc	r1, #0
 447 0158 0720     		movs	r0, #7
 448 015a FFF7FEFF 		bl	_test_assert
 449              	.LVL29:
ARM GAS  /tmp/cclC0EF6.s 			page 9


 450 015e 0028     		cmp	r0, #0
 451 0160 87D1     		bne	.L27
 452              	.LBB116:
 453 0162 0346     		mov	r3, r0
 454              	@ 120 "../../test/testqueues.c" 1
 455 0164 83F31188 		msr     BASEPRI, r3
 456              	@ 0 "" 2
 457              		.thumb
 458              	.LBE116:
 459              	.LBB117:
 460              		.loc 1 123 0
 461 0168 2023     		movs	r3, #32
 462              	@ 123 "../../test/testqueues.c" 1
 463 016a 83F31188 		msr     BASEPRI, r3
 464              	@ 0 "" 2
 465              	.LVL30:
 466              		.thumb
 467 016e 4126     		movs	r6, #65
 468              	.LVL31:
 469              	.L23:
 470              	.LBE117:
 471              		.loc 1 125 0
 472 0170 3146     		mov	r1, r6
 473 0172 40F20000 		movw	r0, #:lower16:.LANCHOR0
 474 0176 0136     		adds	r6, r6, #1
 475 0178 C0F20000 		movt	r0, #:upper16:.LANCHOR0
 476 017c F6B2     		uxtb	r6, r6
 477 017e FFF7FEFF 		bl	chIQPutI
 478              	.LVL32:
 479              		.loc 1 124 0
 480 0182 452E     		cmp	r6, #69
 481 0184 F4D1     		bne	.L23
 482              	.LBB118:
 483              		.loc 1 126 0
 484 0186 0023     		movs	r3, #0
 485              	@ 126 "../../test/testqueues.c" 1
 486 0188 83F31188 		msr     BASEPRI, r3
 487              	@ 0 "" 2
 488              		.thumb
 489              	.LBE118:
 490              		.loc 1 129 0
 491 018c 6668     		ldr	r6, [r4, #4]
 492 018e 40F20000 		movw	r0, #:lower16:.LANCHOR0
 493 0192 3146     		mov	r1, r6
 494 0194 0222     		movs	r2, #2
 495 0196 C0F20000 		movt	r0, #:upper16:.LANCHOR0
 496 019a FFF7FEFF 		bl	chIQReadTimeout
 497              	.LVL33:
 498              		.loc 1 130 0
 499 019e 0238     		subs	r0, r0, #2
 500              	.LVL34:
 501 01a0 4142     		rsbs	r1, r0, #0
 502 01a2 4141     		adcs	r1, r1, r0
 503 01a4 0820     		movs	r0, #8
 504              	.LVL35:
 505 01a6 FFF7FEFF 		bl	_test_assert
 506              	.LVL36:
ARM GAS  /tmp/cclC0EF6.s 			page 10


 507 01aa 0346     		mov	r3, r0
 508 01ac 0028     		cmp	r0, #0
 509 01ae 7FF463AF 		bne	.L6
 510              		.loc 1 131 0
 511 01b2 40F20000 		movw	r0, #:lower16:.LANCHOR0
 512 01b6 3146     		mov	r1, r6
 513 01b8 0222     		movs	r2, #2
 514 01ba C0F20000 		movt	r0, #:upper16:.LANCHOR0
 515 01be FFF7FEFF 		bl	chIQReadTimeout
 516              	.LVL37:
 517              		.loc 1 132 0
 518 01c2 821E     		subs	r2, r0, #2
 519 01c4 5142     		rsbs	r1, r2, #0
 520 01c6 5141     		adcs	r1, r1, r2
 521 01c8 0920     		movs	r0, #9
 522              	.LVL38:
 523 01ca FFF7FEFF 		bl	_test_assert
 524              	.LVL39:
 525 01ce 0028     		cmp	r0, #0
 526 01d0 7FF452AF 		bne	.L6
 527              	.LBB119:
 528              		.loc 1 133 0
 529 01d4 2023     		movs	r3, #32
 530              	@ 133 "../../test/testqueues.c" 1
 531 01d6 83F31188 		msr     BASEPRI, r3
 532              	@ 0 "" 2
 533              		.thumb
 534              	.LBE119:
 535 01da A968     		ldr	r1, [r5, #8]
 536 01dc D1F10101 		rsbs	r1, r1, #1
 537 01e0 4FF00A00 		mov	r0, #10
 538 01e4 38BF     		it	cc
 539 01e6 0021     		movcc	r1, #0
 540 01e8 FFF7FEFF 		bl	_test_assert
 541              	.LVL40:
 542 01ec 0346     		mov	r3, r0
 543 01ee 0028     		cmp	r0, #0
 544 01f0 7FF43FAF 		bne	.L27
 545              	.LBB120:
 546              	@ 133 "../../test/testqueues.c" 1
 547 01f4 83F31188 		msr     BASEPRI, r3
 548              	@ 0 "" 2
 549              		.thumb
 550              	.LBE120:
 551              	.LBB121:
 552              		.loc 1 136 0
 553 01f8 2023     		movs	r3, #32
 554              	@ 136 "../../test/testqueues.c" 1
 555 01fa 83F31188 		msr     BASEPRI, r3
 556              	@ 0 "" 2
 557              		.thumb
 558              	.LBE121:
 559              		.loc 1 137 0
 560 01fe 40F20000 		movw	r0, #:lower16:.LANCHOR0
 561 0202 0021     		movs	r1, #0
 562 0204 C0F20000 		movt	r0, #:upper16:.LANCHOR0
 563 0208 FFF7FEFF 		bl	chIQPutI
ARM GAS  /tmp/cclC0EF6.s 			page 11


 564              	.LVL41:
 565              		.loc 1 138 0
 566 020c 40F20000 		movw	r0, #:lower16:.LANCHOR0
 567 0210 C0F20000 		movt	r0, #:upper16:.LANCHOR0
 568 0214 FFF7FEFF 		bl	chIQResetI
 569              	.LVL42:
 570              	.LBB122:
 571              		.loc 1 139 0
 572 0218 0023     		movs	r3, #0
 573              	@ 139 "../../test/testqueues.c" 1
 574 021a 83F31188 		msr     BASEPRI, r3
 575              	@ 0 "" 2
 576              		.thumb
 577              	.LBE122:
 578              	.LBB123:
 579              		.loc 1 140 0
 580 021e 2023     		movs	r3, #32
 581              	@ 140 "../../test/testqueues.c" 1
 582 0220 83F31188 		msr     BASEPRI, r3
 583              	@ 0 "" 2
 584              		.thumb
 585              	.LBE123:
 586 0224 A968     		ldr	r1, [r5, #8]
 587 0226 D1F10101 		rsbs	r1, r1, #1
 588 022a 4FF00B00 		mov	r0, #11
 589 022e 38BF     		it	cc
 590 0230 0021     		movcc	r1, #0
 591 0232 FFF7FEFF 		bl	_test_assert
 592              	.LVL43:
 593 0236 0346     		mov	r3, r0
 594 0238 0028     		cmp	r0, #0
 595 023a 7FF41AAF 		bne	.L27
 596              	.LBB124:
 597              	@ 140 "../../test/testqueues.c" 1
 598 023e 83F31188 		msr     BASEPRI, r3
 599              	@ 0 "" 2
 600              		.thumb
 601              	.LBE124:
 602              		.loc 1 141 0
 603 0242 40F20003 		movw	r3, #:lower16:rlist
 604 0246 C0F20003 		movt	r3, #:upper16:rlist
 605 024a 0021     		movs	r1, #0
 606 024c 9B69     		ldr	r3, [r3, #24]
 607 024e 2068     		ldr	r0, [r4]
 608 0250 9A68     		ldr	r2, [r3, #8]
 609 0252 0091     		str	r1, [sp]
 610 0254 40F20003 		movw	r3, #:lower16:thread1
 611 0258 0132     		adds	r2, r2, #1
 612 025a C0F20003 		movt	r3, #:upper16:thread1
 613 025e 4FF4A871 		mov	r1, #336
 614 0262 FFF7FEFF 		bl	chThdCreateStatic
 615              	.LVL44:
 616 0266 40F20002 		movw	r2, #:lower16:threads
 617 026a C0F20002 		movt	r2, #:upper16:threads
 618              	.LBB125:
 619              		.loc 1 142 0
 620 026e 2023     		movs	r3, #32
ARM GAS  /tmp/cclC0EF6.s 			page 12


 621              	.LBE125:
 622              		.loc 1 141 0
 623 0270 1060     		str	r0, [r2]
 624              	.LBB126:
 625              		.loc 1 142 0
 626              	@ 142 "../../test/testqueues.c" 1
 627 0272 83F31188 		msr     BASEPRI, r3
 628              	@ 0 "" 2
 629              		.thumb
 630              	.LBE126:
 631 0276 A968     		ldr	r1, [r5, #8]
 632 0278 D1F10101 		rsbs	r1, r1, #1
 633 027c 4FF00C00 		mov	r0, #12
 634 0280 38BF     		it	cc
 635 0282 0021     		movcc	r1, #0
 636 0284 FFF7FEFF 		bl	_test_assert
 637              	.LVL45:
 638 0288 0346     		mov	r3, r0
 639 028a 0028     		cmp	r0, #0
 640 028c 7FF4F1AE 		bne	.L27
 641              	.LBB127:
 642              	@ 142 "../../test/testqueues.c" 1
 643 0290 83F31188 		msr     BASEPRI, r3
 644              	@ 0 "" 2
 645              		.thumb
 646              	.LBE127:
 647              		.loc 1 143 0
 648 0294 FFF7FEFF 		bl	test_wait_threads
 649              	.LVL46:
 650              		.loc 1 146 0
 651 0298 40F20000 		movw	r0, #:lower16:.LANCHOR0
 652 029c 0A21     		movs	r1, #10
 653 029e C0F20000 		movt	r0, #:upper16:.LANCHOR0
 654 02a2 FFF7FEFF 		bl	chIQGetTimeout
 655              	.LVL47:
 656 02a6 B0F1FF33 		subs	r3, r0, #-1
 657 02aa 5942     		rsbs	r1, r3, #0
 658 02ac 5941     		adcs	r1, r1, r3
 659 02ae 0D20     		movs	r0, #13
 660              	.LBE128:
 661              	.LBE130:
 662              		.loc 1 147 0
 663 02b0 02B0     		add	sp, sp, #8
 664              		@ sp needed
 665 02b2 BDE87040 		pop	{r4, r5, r6, lr}
 666              	.LBB131:
 667              	.LBB129:
 668              		.loc 1 146 0
 669 02b6 FFF7FEBF 		b	_test_assert
 670              	.LVL48:
 671              	.L29:
 672              		.loc 1 102 0
 673 02ba 9E68     		ldr	r6, [r3, #8]
 674 02bc 0036     		adds	r6, r6, #0
 675 02be 18BF     		it	ne
 676 02c0 0126     		movne	r6, #1
 677 02c2 D1E6     		b	.L11
ARM GAS  /tmp/cclC0EF6.s 			page 13


 678              	.LBE129:
 679              	.LBE131:
 680              		.cfi_endproc
 681              	.LFE10:
 682              		.size	queues1_execute, .-queues1_execute
 683 02c4 AFF30080 		.section	.text.queues2_execute,"ax",%progbits
 683      AFF30080 
 683      AFF30080 
 684              		.align	2
 685              		.p2align 4,,15
 686              		.thumb
 687              		.thumb_func
 688              		.type	queues2_execute, %function
 689              	queues2_execute:
 690              	.LFB13:
 691              		.loc 1 177 0
 692              		.cfi_startproc
 693              		@ args = 0, pretend = 0, frame = 0
 694              		@ frame_needed = 0, uses_anonymous_args = 0
 695 0000 70B5     		push	{r4, r5, r6, lr}
 696              		.cfi_def_cfa_offset 16
 697              		.cfi_offset 4, -16
 698              		.cfi_offset 5, -12
 699              		.cfi_offset 6, -8
 700              		.cfi_offset 14, -4
 701              	.LBB165:
 702              		.loc 1 182 0
 703 0002 2023     		movs	r3, #32
 704              	.LBE165:
 705              		.loc 1 177 0
 706 0004 82B0     		sub	sp, sp, #8
 707              		.cfi_def_cfa_offset 24
 708              	.LBB166:
 709              		.loc 1 182 0
 710              	@ 182 "../../test/testqueues.c" 1
 711 0006 83F31188 		msr     BASEPRI, r3
 712              	@ 0 "" 2
 713              		.thumb
 714              	.LBE166:
 715 000a 40F20005 		movw	r5, #:lower16:.LANCHOR1
 716 000e C0F20005 		movt	r5, #:upper16:.LANCHOR1
 717 0012 6A69     		ldr	r2, [r5, #20]
 718 0014 AB69     		ldr	r3, [r5, #24]
 719 0016 9A42     		cmp	r2, r3
 720 0018 18BF     		it	ne
 721 001a 0021     		movne	r1, #0
 722 001c 00F01981 		beq	.L50
 723              	.L31:
 724              		.loc 1 182 0 is_stmt 0 discriminator 4
 725 0020 0120     		movs	r0, #1
 726 0022 FFF7FEFF 		bl	_test_assert
 727              	.LVL49:
 728 0026 0028     		cmp	r0, #0
 729 0028 44D1     		bne	.L49
 730              	.LBB167:
 731              	.LBB168:
 732              	.LBB169:
ARM GAS  /tmp/cclC0EF6.s 			page 14


 733              		.loc 1 182 0
 734 002a 0346     		mov	r3, r0
 735              	@ 182 "../../test/testqueues.c" 1
 736 002c 83F31188 		msr     BASEPRI, r3
 737              	@ 0 "" 2
 738              	.LVL50:
 739              		.thumb
 740 0030 4124     		movs	r4, #65
 741              	.LVL51:
 742              	.L35:
 743              	.LBE169:
 744              		.loc 1 186 0 is_stmt 1
 745 0032 2146     		mov	r1, r4
 746 0034 40F20000 		movw	r0, #:lower16:.LANCHOR1
 747 0038 0134     		adds	r4, r4, #1
 748 003a C0F20000 		movt	r0, #:upper16:.LANCHOR1
 749 003e 4FF0FF32 		mov	r2, #-1
 750 0042 E4B2     		uxtb	r4, r4
 751 0044 FFF7FEFF 		bl	chOQPutTimeout
 752              	.LVL52:
 753              		.loc 1 185 0
 754 0048 452C     		cmp	r4, #69
 755 004a F2D1     		bne	.L35
 756              	.LBB170:
 757              		.loc 1 187 0
 758 004c 2023     		movs	r3, #32
 759              	@ 187 "../../test/testqueues.c" 1
 760 004e 83F31188 		msr     BASEPRI, r3
 761              	@ 0 "" 2
 762              		.thumb
 763              	.LBE170:
 764 0052 A968     		ldr	r1, [r5, #8]
 765 0054 D1F10101 		rsbs	r1, r1, #1
 766 0058 4FF00200 		mov	r0, #2
 767 005c 38BF     		it	cc
 768 005e 0021     		movcc	r1, #0
 769 0060 FFF7FEFF 		bl	_test_assert
 770              	.LVL53:
 771 0064 0646     		mov	r6, r0
 772 0066 28BB     		cbnz	r0, .L49
 773              	.LBB171:
 774 0068 0346     		mov	r3, r0
 775              	@ 187 "../../test/testqueues.c" 1
 776 006a 83F31188 		msr     BASEPRI, r3
 777              	@ 0 "" 2
 778              	.LVL54:
 779              		.thumb
 780 006e 0424     		movs	r4, #4
 781              	.LVL55:
 782              	.L38:
 783              	.LBE171:
 784              	.LBB172:
 785              	.LBB173:
 786              		.loc 1 193 0
 787 0070 2023     		movs	r3, #32
 788              	@ 193 "../../test/testqueues.c" 1
 789 0072 83F31188 		msr     BASEPRI, r3
ARM GAS  /tmp/cclC0EF6.s 			page 15


 790              	@ 0 "" 2
 791              		.thumb
 792              	.LBE173:
 793              		.loc 1 194 0
 794 0076 40F20000 		movw	r0, #:lower16:.LANCHOR1
 795 007a C0F20000 		movt	r0, #:upper16:.LANCHOR1
 796 007e FFF7FEFF 		bl	chOQGetI
 797              	.LVL56:
 798              	.LBB174:
 799              		.loc 1 195 0
 800 0082 0023     		movs	r3, #0
 801              	@ 195 "../../test/testqueues.c" 1
 802 0084 83F31188 		msr     BASEPRI, r3
 803              	@ 0 "" 2
 804              		.thumb
 805              	.LBE174:
 806              		.loc 1 196 0
 807 0088 C0B2     		uxtb	r0, r0
 808              	.LVL57:
 809 008a FFF7FEFF 		bl	test_emit_token
 810              	.LVL58:
 811              	.LBE172:
 812              		.loc 1 190 0
 813 008e 013C     		subs	r4, r4, #1
 814              	.LVL59:
 815 0090 EED1     		bne	.L38
 816              	.LBB175:
 817              		.loc 1 198 0
 818 0092 2023     		movs	r3, #32
 819              	@ 198 "../../test/testqueues.c" 1
 820 0094 83F31188 		msr     BASEPRI, r3
 821              	@ 0 "" 2
 822              		.thumb
 823              	.LBE175:
 824 0098 6969     		ldr	r1, [r5, #20]
 825 009a AA69     		ldr	r2, [r5, #24]
 826 009c 40F20003 		movw	r3, #:lower16:.LANCHOR1
 827 00a0 9142     		cmp	r1, r2
 828 00a2 C0F20003 		movt	r3, #:upper16:.LANCHOR1
 829 00a6 00F0D980 		beq	.L51
 830              	.L39:
 831 00aa 3146     		mov	r1, r6
 832 00ac 0320     		movs	r0, #3
 833 00ae FFF7FEFF 		bl	_test_assert
 834              	.LVL60:
 835 00b2 20B1     		cbz	r0, .L40
 836              	.LVL61:
 837              	.L49:
 838              	.LBB176:
 839              		.loc 1 214 0
 840 00b4 0023     		movs	r3, #0
 841              	@ 214 "../../test/testqueues.c" 1
 842 00b6 83F31188 		msr     BASEPRI, r3
 843              	@ 0 "" 2
 844              		.thumb
 845              	.L30:
 846              	.LBE176:
ARM GAS  /tmp/cclC0EF6.s 			page 16


 847              	.LBE168:
 848              	.LBE167:
 849              		.loc 1 225 0
 850 00ba 02B0     		add	sp, sp, #8
 851              		@ sp needed
 852 00bc 70BD     		pop	{r4, r5, r6, pc}
 853              	.LVL62:
 854              	.L40:
 855              	.LBB196:
 856              	.LBB193:
 857              	.LBB177:
 858              		.loc 1 198 0
 859 00be 0346     		mov	r3, r0
 860              	@ 198 "../../test/testqueues.c" 1
 861 00c0 83F31188 		msr     BASEPRI, r3
 862              	@ 0 "" 2
 863              		.thumb
 864              	.LBE177:
 865              		.loc 1 199 0
 866 00c4 40F20001 		movw	r1, #:lower16:.LC0
 867 00c8 C0F20001 		movt	r1, #:upper16:.LC0
 868 00cc 0420     		movs	r0, #4
 869 00ce FFF7FEFF 		bl	_test_assert_sequence
 870              	.LVL63:
 871 00d2 0028     		cmp	r0, #0
 872 00d4 F1D1     		bne	.L30
 873              	.LBB178:
 874              		.loc 1 200 0
 875 00d6 2023     		movs	r3, #32
 876              	@ 200 "../../test/testqueues.c" 1
 877 00d8 83F31188 		msr     BASEPRI, r3
 878              	@ 0 "" 2
 879              		.thumb
 880              	.LBE178:
 881 00dc 40F20000 		movw	r0, #:lower16:.LANCHOR1
 882 00e0 C0F20000 		movt	r0, #:upper16:.LANCHOR1
 883 00e4 FFF7FEFF 		bl	chOQGetI
 884              	.LVL64:
 885 00e8 0330     		adds	r0, r0, #3
 886 00ea 14BF     		ite	ne
 887 00ec 0021     		movne	r1, #0
 888 00ee 0121     		moveq	r1, #1
 889 00f0 0520     		movs	r0, #5
 890 00f2 FFF7FEFF 		bl	_test_assert
 891              	.LVL65:
 892 00f6 0028     		cmp	r0, #0
 893 00f8 DCD1     		bne	.L49
 894              	.LBB179:
 895 00fa 0346     		mov	r3, r0
 896              	@ 200 "../../test/testqueues.c" 1
 897 00fc 83F31188 		msr     BASEPRI, r3
 898              	@ 0 "" 2
 899              		.thumb
 900              	.LBE179:
 901              		.loc 1 203 0
 902 0100 40F20004 		movw	r4, #:lower16:wa
 903              	.LVL66:
ARM GAS  /tmp/cclC0EF6.s 			page 17


 904 0104 C0F20004 		movt	r4, #:upper16:wa
 905 0108 40F20000 		movw	r0, #:lower16:.LANCHOR1
 906 010c 6168     		ldr	r1, [r4, #4]
 907 010e C0F20000 		movt	r0, #:upper16:.LANCHOR1
 908 0112 0822     		movs	r2, #8
 909 0114 0023     		movs	r3, #0
 910 0116 FFF7FEFF 		bl	chOQWriteTimeout
 911              	.LVL67:
 912              		.loc 1 204 0
 913 011a 061F     		subs	r6, r0, #4
 914 011c 7142     		rsbs	r1, r6, #0
 915 011e 7141     		adcs	r1, r1, r6
 916 0120 0620     		movs	r0, #6
 917              	.LVL68:
 918 0122 FFF7FEFF 		bl	_test_assert
 919              	.LVL69:
 920 0126 0028     		cmp	r0, #0
 921 0128 C7D1     		bne	.L30
 922              	.LBB180:
 923              		.loc 1 205 0
 924 012a 2023     		movs	r3, #32
 925              	@ 205 "../../test/testqueues.c" 1
 926 012c 83F31188 		msr     BASEPRI, r3
 927              	@ 0 "" 2
 928              		.thumb
 929              	.LBE180:
 930 0130 A968     		ldr	r1, [r5, #8]
 931 0132 D1F10101 		rsbs	r1, r1, #1
 932 0136 38BF     		it	cc
 933 0138 0021     		movcc	r1, #0
 934 013a 0720     		movs	r0, #7
 935 013c FFF7FEFF 		bl	_test_assert
 936              	.LVL70:
 937 0140 0028     		cmp	r0, #0
 938 0142 B7D1     		bne	.L49
 939              	.LBB181:
 940 0144 0346     		mov	r3, r0
 941              	@ 205 "../../test/testqueues.c" 1
 942 0146 83F31188 		msr     BASEPRI, r3
 943              	@ 0 "" 2
 944              		.thumb
 945              	.LBE181:
 946              		.loc 1 206 0
 947 014a 40F20003 		movw	r3, #:lower16:rlist
 948 014e C0F20003 		movt	r3, #:upper16:rlist
 949 0152 0021     		movs	r1, #0
 950 0154 9B69     		ldr	r3, [r3, #24]
 951 0156 2068     		ldr	r0, [r4]
 952 0158 9A68     		ldr	r2, [r3, #8]
 953 015a 0091     		str	r1, [sp]
 954 015c 40F20003 		movw	r3, #:lower16:thread2
 955 0160 0132     		adds	r2, r2, #1
 956 0162 C0F20003 		movt	r3, #:upper16:thread2
 957 0166 4FF4A871 		mov	r1, #336
 958 016a FFF7FEFF 		bl	chThdCreateStatic
 959              	.LVL71:
 960 016e 40F20002 		movw	r2, #:lower16:threads
ARM GAS  /tmp/cclC0EF6.s 			page 18


 961 0172 C0F20002 		movt	r2, #:upper16:threads
 962              	.LBB182:
 963              		.loc 1 207 0
 964 0176 2023     		movs	r3, #32
 965              	.LBE182:
 966              		.loc 1 206 0
 967 0178 1060     		str	r0, [r2]
 968              	.LBB183:
 969              		.loc 1 207 0
 970              	@ 207 "../../test/testqueues.c" 1
 971 017a 83F31188 		msr     BASEPRI, r3
 972              	@ 0 "" 2
 973              		.thumb
 974              	.LBE183:
 975 017e 2969     		ldr	r1, [r5, #16]
 976 0180 EA68     		ldr	r2, [r5, #12]
 977 0182 AB68     		ldr	r3, [r5, #8]
 978 0184 8A1A     		subs	r2, r1, r2
 979 0186 D11A     		subs	r1, r2, r3
 980 0188 081F     		subs	r0, r1, #4
 981 018a 4142     		rsbs	r1, r0, #0
 982 018c 4141     		adcs	r1, r1, r0
 983 018e 0820     		movs	r0, #8
 984 0190 FFF7FEFF 		bl	_test_assert
 985              	.LVL72:
 986 0194 0346     		mov	r3, r0
 987 0196 0028     		cmp	r0, #0
 988 0198 8CD1     		bne	.L49
 989              	.LBB184:
 990              	@ 207 "../../test/testqueues.c" 1
 991 019a 83F31188 		msr     BASEPRI, r3
 992              	@ 0 "" 2
 993              		.thumb
 994              	.LBE184:
 995              		.loc 1 208 0
 996 019e FFF7FEFF 		bl	test_wait_threads
 997              	.LVL73:
 998              	.LBB185:
 999              		.loc 1 211 0
 1000 01a2 2023     		movs	r3, #32
 1001              	@ 211 "../../test/testqueues.c" 1
 1002 01a4 83F31188 		msr     BASEPRI, r3
 1003              	@ 0 "" 2
 1004              		.thumb
 1005              	.LBE185:
 1006              		.loc 1 212 0
 1007 01a8 40F20000 		movw	r0, #:lower16:.LANCHOR1
 1008 01ac C0F20000 		movt	r0, #:upper16:.LANCHOR1
 1009 01b0 FFF7FEFF 		bl	chOQResetI
 1010              	.LVL74:
 1011              	.LBB186:
 1012              		.loc 1 213 0
 1013 01b4 0023     		movs	r3, #0
 1014              	@ 213 "../../test/testqueues.c" 1
 1015 01b6 83F31188 		msr     BASEPRI, r3
 1016              	@ 0 "" 2
 1017              		.thumb
ARM GAS  /tmp/cclC0EF6.s 			page 19


 1018              	.LBE186:
 1019              	.LBB187:
 1020              		.loc 1 214 0
 1021 01ba 2023     		movs	r3, #32
 1022              	@ 214 "../../test/testqueues.c" 1
 1023 01bc 83F31188 		msr     BASEPRI, r3
 1024              	@ 0 "" 2
 1025              		.thumb
 1026              	.LBE187:
 1027 01c0 EA68     		ldr	r2, [r5, #12]
 1028 01c2 2969     		ldr	r1, [r5, #16]
 1029 01c4 AB68     		ldr	r3, [r5, #8]
 1030 01c6 891A     		subs	r1, r1, r2
 1031 01c8 CA1A     		subs	r2, r1, r3
 1032 01ca 5142     		rsbs	r1, r2, #0
 1033 01cc 5141     		adcs	r1, r1, r2
 1034 01ce 0920     		movs	r0, #9
 1035 01d0 FFF7FEFF 		bl	_test_assert
 1036              	.LVL75:
 1037 01d4 0346     		mov	r3, r0
 1038 01d6 0028     		cmp	r0, #0
 1039 01d8 7FF46CAF 		bne	.L49
 1040              	.LBB188:
 1041              	@ 214 "../../test/testqueues.c" 1
 1042 01dc 83F31188 		msr     BASEPRI, r3
 1043              	@ 0 "" 2
 1044              		.thumb
 1045              	.LBE188:
 1046              		.loc 1 217 0
 1047 01e0 6468     		ldr	r4, [r4, #4]
 1048 01e2 40F20000 		movw	r0, #:lower16:.LANCHOR1
 1049 01e6 2146     		mov	r1, r4
 1050 01e8 0222     		movs	r2, #2
 1051 01ea 0023     		movs	r3, #0
 1052 01ec C0F20000 		movt	r0, #:upper16:.LANCHOR1
 1053 01f0 FFF7FEFF 		bl	chOQWriteTimeout
 1054              	.LVL76:
 1055              		.loc 1 218 0
 1056 01f4 831E     		subs	r3, r0, #2
 1057 01f6 5942     		rsbs	r1, r3, #0
 1058 01f8 5941     		adcs	r1, r1, r3
 1059 01fa 0A20     		movs	r0, #10
 1060              	.LVL77:
 1061 01fc FFF7FEFF 		bl	_test_assert
 1062              	.LVL78:
 1063 0200 0346     		mov	r3, r0
 1064 0202 0028     		cmp	r0, #0
 1065 0204 7FF459AF 		bne	.L30
 1066              		.loc 1 219 0
 1067 0208 40F20000 		movw	r0, #:lower16:.LANCHOR1
 1068 020c 2146     		mov	r1, r4
 1069 020e C0F20000 		movt	r0, #:upper16:.LANCHOR1
 1070 0212 0222     		movs	r2, #2
 1071 0214 FFF7FEFF 		bl	chOQWriteTimeout
 1072              	.LVL79:
 1073              		.loc 1 220 0
 1074 0218 B0F1020C 		subs	ip, r0, #2
ARM GAS  /tmp/cclC0EF6.s 			page 20


 1075 021c DCF10001 		rsbs	r1, ip, #0
 1076 0220 51EB0C01 		adcs	r1, r1, ip
 1077 0224 0B20     		movs	r0, #11
 1078              	.LVL80:
 1079 0226 FFF7FEFF 		bl	_test_assert
 1080              	.LVL81:
 1081 022a 0028     		cmp	r0, #0
 1082 022c 7FF445AF 		bne	.L30
 1083              	.LBB189:
 1084              		.loc 1 221 0
 1085 0230 2023     		movs	r3, #32
 1086              	@ 221 "../../test/testqueues.c" 1
 1087 0232 83F31188 		msr     BASEPRI, r3
 1088              	@ 0 "" 2
 1089              		.thumb
 1090              	.LBE189:
 1091 0236 A968     		ldr	r1, [r5, #8]
 1092 0238 D1F10101 		rsbs	r1, r1, #1
 1093 023c 4FF00C00 		mov	r0, #12
 1094 0240 38BF     		it	cc
 1095 0242 0021     		movcc	r1, #0
 1096 0244 FFF7FEFF 		bl	_test_assert
 1097              	.LVL82:
 1098              	.LBB190:
 1099 0248 0023     		movs	r3, #0
 1100              	.LBE190:
 1101 024a 60B1     		cbz	r0, .L47
 1102              	.LBB191:
 1103              	@ 221 "../../test/testqueues.c" 1
 1104 024c 83F31188 		msr     BASEPRI, r3
 1105              	@ 0 "" 2
 1106              		.thumb
 1107 0250 33E7     		b	.L30
 1108              	.L50:
 1109              	.LBE191:
 1110              	.LBE193:
 1111              	.LBE196:
 1112              		.loc 1 182 0 discriminator 1
 1113 0252 A968     		ldr	r1, [r5, #8]
 1114 0254 0031     		adds	r1, r1, #0
 1115 0256 18BF     		it	ne
 1116 0258 0121     		movne	r1, #1
 1117 025a E1E6     		b	.L31
 1118              	.LVL83:
 1119              	.L51:
 1120              	.LBB197:
 1121              	.LBB194:
 1122              		.loc 1 198 0
 1123 025c 9E68     		ldr	r6, [r3, #8]
 1124 025e 0036     		adds	r6, r6, #0
 1125 0260 18BF     		it	ne
 1126 0262 0126     		movne	r6, #1
 1127 0264 21E7     		b	.L39
 1128              	.LVL84:
 1129              	.L47:
 1130              	.LBB192:
 1131              		.loc 1 221 0
ARM GAS  /tmp/cclC0EF6.s 			page 21


 1132              	@ 221 "../../test/testqueues.c" 1
 1133 0266 83F31188 		msr     BASEPRI, r3
 1134              	@ 0 "" 2
 1135              		.thumb
 1136              	.LBE192:
 1137              		.loc 1 224 0
 1138 026a 40F20000 		movw	r0, #:lower16:.LANCHOR1
 1139 026e 0021     		movs	r1, #0
 1140 0270 0A22     		movs	r2, #10
 1141 0272 C0F20000 		movt	r0, #:upper16:.LANCHOR1
 1142 0276 FFF7FEFF 		bl	chOQPutTimeout
 1143              	.LVL85:
 1144 027a B0F1FF3E 		subs	lr, r0, #-1
 1145 027e DEF10001 		rsbs	r1, lr, #0
 1146 0282 51EB0E01 		adcs	r1, r1, lr
 1147 0286 0D20     		movs	r0, #13
 1148              	.LBE194:
 1149              	.LBE197:
 1150              		.loc 1 225 0
 1151 0288 02B0     		add	sp, sp, #8
 1152              		@ sp needed
 1153 028a BDE87040 		pop	{r4, r5, r6, lr}
 1154              	.LBB198:
 1155              	.LBB195:
 1156              		.loc 1 224 0
 1157 028e FFF7FEBF 		b	_test_assert
 1158              	.LVL86:
 1159              	.LBE195:
 1160              	.LBE198:
 1161              		.cfi_endproc
 1162              	.LFE13:
 1163              		.size	queues2_execute, .-queues2_execute
 1164              		.global	patternqueues
 1165              		.global	testqueues2
 1166              		.global	testqueues1
 1167 0292 00BFAFF3 		.section	.rodata.testqueues1,"a",%progbits
 1167      0080AFF3 
 1167      0080AFF3 
 1167      0080
 1168              		.align	2
 1169              		.type	testqueues1, %object
 1170              		.size	testqueues1, 16
 1171              	testqueues1:
 1172 0000 20000000 		.word	.LC2
 1173 0004 00000000 		.word	queues1_setup
 1174 0008 00000000 		.word	0
 1175 000c 00000000 		.word	queues1_execute
 1176              		.section	.rodata.testqueues2,"a",%progbits
 1177              		.align	2
 1178              		.type	testqueues2, %object
 1179              		.size	testqueues2, 16
 1180              	testqueues2:
 1181 0000 08000000 		.word	.LC1
 1182 0004 00000000 		.word	queues2_setup
 1183 0008 00000000 		.word	0
 1184 000c 00000000 		.word	queues2_execute
 1185              		.section	.rodata.str1.4,"aMS",%progbits,1
ARM GAS  /tmp/cclC0EF6.s 			page 22


 1186              		.align	2
 1187              	.LC0:
 1188 0000 41424344 		.ascii	"ABCD\000"
 1188      00
 1189 0005 000000   		.space	3
 1190              	.LC1:
 1191 0008 51756575 		.ascii	"Queues, output queues\000"
 1191      65732C20 
 1191      6F757470 
 1191      75742071 
 1191      75657565 
 1192 001e 0000     		.space	2
 1193              	.LC2:
 1194 0020 51756575 		.ascii	"Queues, input queues\000"
 1194      65732C20 
 1194      696E7075 
 1194      74207175 
 1194      65756573 
 1195 0035 000000   		.section	.rodata.patternqueues,"a",%progbits
 1196              		.align	2
 1197              		.type	patternqueues, %object
 1198              		.size	patternqueues, 12
 1199              	patternqueues:
 1200 0000 00000000 		.word	testqueues1
 1201 0004 00000000 		.word	testqueues2
 1202 0008 00000000 		.word	0
 1203              		.section	.data.oq,"aw",%progbits
 1204              		.align	2
 1205              		.set	.LANCHOR1,. + 0
 1206              		.type	oq, %object
 1207              		.size	oq, 36
 1208              	oq:
 1209 0000 00000000 		.word	oq
 1210 0004 00000000 		.word	oq
 1211 0008 04000000 		.word	4
 1212 000c 50010000 		.word	test+336
 1213 0010 54010000 		.word	test+340
 1214 0014 50010000 		.word	test+336
 1215 0018 50010000 		.word	test+336
 1216 001c 00000000 		.word	notify
 1217 0020 00000000 		.word	0
 1218              		.section	.data.iq,"aw",%progbits
 1219              		.align	2
 1220              		.set	.LANCHOR0,. + 0
 1221              		.type	iq, %object
 1222              		.size	iq, 36
 1223              	iq:
 1224 0000 00000000 		.word	iq
 1225 0004 00000000 		.word	iq
 1226 0008 00000000 		.word	0
 1227 000c 00000000 		.word	test
 1228 0010 04000000 		.word	test+4
 1229 0014 00000000 		.word	test
 1230 0018 00000000 		.word	test
 1231 001c 00000000 		.word	notify
 1232 0020 00000000 		.word	0
 1233              		.text
ARM GAS  /tmp/cclC0EF6.s 			page 23


 1234              	.Letext0:
 1235              		.file 2 "/usr/lib/gcc/arm-none-eabi/4.8.2/include/stddef.h"
 1236              		.file 3 "/usr/include/newlib/machine/_default_types.h"
 1237              		.file 4 "/usr/include/newlib/stdint.h"
 1238              		.file 5 "../../os/ports/GCC/ARMCMx/chtypes.h"
 1239              		.file 6 "../../os/kernel/include/chlists.h"
 1240              		.file 7 "../../os/kernel/include/chthreads.h"
 1241              		.file 8 "../../os/ports/GCC/ARMCMx/chcore_v7m.h"
 1242              		.file 9 "../../os/kernel/include/chschd.h"
 1243              		.file 10 "../../os/kernel/include/chmtx.h"
 1244              		.file 11 "../../os/kernel/include/chqueues.h"
 1245              		.file 12 "../../test/test.h"