ARM GAS  /tmp/ccNJe4yq.s 			page 1


   1              		.syntax unified
   2              		.cpu cortex-m4
   3              		.fpu softvfp
   4              		.eabi_attribute 20, 1
   5              		.eabi_attribute 21, 1
   6              		.eabi_attribute 23, 3
   7              		.eabi_attribute 24, 1
   8              		.eabi_attribute 25, 1
   9              		.eabi_attribute 26, 1
  10              		.eabi_attribute 30, 2
  11              		.eabi_attribute 34, 1
  12              		.eabi_attribute 18, 4
  13              		.thumb
  14              		.file	"testthd.c"
  15              		.text
  16              	.Ltext0:
  17              		.cfi_sections	.debug_frame
  18              		.section	.text.thd1_execute,"ax",%progbits
  19              		.align	2
  20              		.p2align 4,,15
  21              		.thumb
  22              		.thumb_func
  23              		.type	thd1_execute, %function
  24              	thd1_execute:
  25              	.LFB8:
  26              		.file 1 "../../test/testthd.c"
  27              		.loc 1 66 0
  28              		.cfi_startproc
  29              		@ args = 0, pretend = 0, frame = 0
  30              		@ frame_needed = 0, uses_anonymous_args = 0
  31 0000 F0B5     		push	{r4, r5, r6, r7, lr}
  32              		.cfi_def_cfa_offset 20
  33              		.cfi_offset 4, -20
  34              		.cfi_offset 5, -16
  35              		.cfi_offset 6, -12
  36              		.cfi_offset 7, -8
  37              		.cfi_offset 14, -4
  38              		.loc 1 68 0
  39 0002 40F20007 		movw	r7, #:lower16:rlist
  40 0006 C0F20007 		movt	r7, #:upper16:rlist
  41 000a 40F20006 		movw	r6, #:lower16:wa
  42 000e BB69     		ldr	r3, [r7, #24]
  43              		.loc 1 66 0
  44 0010 83B0     		sub	sp, sp, #12
  45              		.cfi_def_cfa_offset 32
  46              		.loc 1 68 0
  47 0012 C0F20006 		movt	r6, #:upper16:wa
  48 0016 9A68     		ldr	r2, [r3, #8]
  49 0018 3068     		ldr	r0, [r6]
  50 001a 40F20005 		movw	r5, #:lower16:thread
  51 001e 40F20001 		movw	r1, #:lower16:.LC0
  52 0022 C0F20005 		movt	r5, #:upper16:thread
  53 0026 C0F20001 		movt	r1, #:upper16:.LC0
  54 002a 2B46     		mov	r3, r5
  55 002c 0091     		str	r1, [sp]
  56 002e 053A     		subs	r2, r2, #5
  57 0030 4FF4A871 		mov	r1, #336
ARM GAS  /tmp/ccNJe4yq.s 			page 2


  58 0034 FFF7FEFF 		bl	chThdCreateStatic
  59              	.LVL0:
  60              		.loc 1 69 0
  61 0038 BA69     		ldr	r2, [r7, #24]
  62 003a 7368     		ldr	r3, [r6, #4]
  63 003c 9268     		ldr	r2, [r2, #8]
  64              		.loc 1 68 0
  65 003e 40F20004 		movw	r4, #:lower16:threads
  66 0042 C0F20004 		movt	r4, #:upper16:threads
  67              		.loc 1 69 0
  68 0046 40F20001 		movw	r1, #:lower16:.LC1
  69 004a C0F20001 		movt	r1, #:upper16:.LC1
  70              		.loc 1 68 0
  71 004e 2060     		str	r0, [r4]
  72              		.loc 1 69 0
  73 0050 0091     		str	r1, [sp]
  74 0052 043A     		subs	r2, r2, #4
  75 0054 1846     		mov	r0, r3
  76 0056 4FF4A871 		mov	r1, #336
  77 005a 2B46     		mov	r3, r5
  78 005c FFF7FEFF 		bl	chThdCreateStatic
  79              	.LVL1:
  80              		.loc 1 70 0
  81 0060 BA69     		ldr	r2, [r7, #24]
  82 0062 B368     		ldr	r3, [r6, #8]
  83 0064 9268     		ldr	r2, [r2, #8]
  84              		.loc 1 69 0
  85 0066 6060     		str	r0, [r4, #4]
  86              		.loc 1 70 0
  87 0068 40F20001 		movw	r1, #:lower16:.LC2
  88 006c C0F20001 		movt	r1, #:upper16:.LC2
  89 0070 0091     		str	r1, [sp]
  90 0072 033A     		subs	r2, r2, #3
  91 0074 1846     		mov	r0, r3
  92 0076 4FF4A871 		mov	r1, #336
  93 007a 2B46     		mov	r3, r5
  94 007c FFF7FEFF 		bl	chThdCreateStatic
  95              	.LVL2:
  96              		.loc 1 71 0
  97 0080 BA69     		ldr	r2, [r7, #24]
  98 0082 F368     		ldr	r3, [r6, #12]
  99 0084 9268     		ldr	r2, [r2, #8]
 100              		.loc 1 70 0
 101 0086 A060     		str	r0, [r4, #8]
 102              		.loc 1 71 0
 103 0088 40F20001 		movw	r1, #:lower16:.LC3
 104 008c C0F20001 		movt	r1, #:upper16:.LC3
 105 0090 0091     		str	r1, [sp]
 106 0092 023A     		subs	r2, r2, #2
 107 0094 1846     		mov	r0, r3
 108 0096 4FF4A871 		mov	r1, #336
 109 009a 2B46     		mov	r3, r5
 110 009c FFF7FEFF 		bl	chThdCreateStatic
 111              	.LVL3:
 112              		.loc 1 72 0
 113 00a0 BA69     		ldr	r2, [r7, #24]
 114 00a2 3369     		ldr	r3, [r6, #16]
ARM GAS  /tmp/ccNJe4yq.s 			page 3


 115 00a4 9268     		ldr	r2, [r2, #8]
 116              		.loc 1 71 0
 117 00a6 E060     		str	r0, [r4, #12]
 118              		.loc 1 72 0
 119 00a8 40F20001 		movw	r1, #:lower16:.LC4
 120 00ac C0F20001 		movt	r1, #:upper16:.LC4
 121 00b0 013A     		subs	r2, r2, #1
 122 00b2 0091     		str	r1, [sp]
 123 00b4 1846     		mov	r0, r3
 124 00b6 4FF4A871 		mov	r1, #336
 125 00ba 2B46     		mov	r3, r5
 126 00bc FFF7FEFF 		bl	chThdCreateStatic
 127              	.LVL4:
 128 00c0 2061     		str	r0, [r4, #16]
 129              		.loc 1 73 0
 130 00c2 FFF7FEFF 		bl	test_wait_threads
 131              	.LVL5:
 132              		.loc 1 74 0
 133 00c6 40F20001 		movw	r1, #:lower16:.LC5
 134 00ca C0F20001 		movt	r1, #:upper16:.LC5
 135 00ce 0120     		movs	r0, #1
 136              		.loc 1 75 0
 137 00d0 03B0     		add	sp, sp, #12
 138              		@ sp needed
 139 00d2 BDE8F040 		pop	{r4, r5, r6, r7, lr}
 140              		.loc 1 74 0
 141 00d6 FFF7FEBF 		b	_test_assert_sequence
 142              	.LVL6:
 143              		.cfi_endproc
 144              	.LFE8:
 145              		.size	thd1_execute, .-thd1_execute
 146 00da 00BFAFF3 		.section	.text.thread,"ax",%progbits
 146      0080
 147              		.align	2
 148              		.p2align 4,,15
 149              		.thumb
 150              		.thumb_func
 151              		.type	thread, %function
 152              	thread:
 153              	.LFB7:
 154              		.loc 1 60 0
 155              		.cfi_startproc
 156              		@ args = 0, pretend = 0, frame = 0
 157              		@ frame_needed = 0, uses_anonymous_args = 0
 158              	.LVL7:
 159 0000 08B5     		push	{r3, lr}
 160              		.cfi_def_cfa_offset 8
 161              		.cfi_offset 3, -8
 162              		.cfi_offset 14, -4
 163              		.loc 1 62 0
 164 0002 0078     		ldrb	r0, [r0]	@ zero_extendqisi2
 165              	.LVL8:
 166 0004 FFF7FEFF 		bl	test_emit_token
 167              	.LVL9:
 168              		.loc 1 64 0
 169 0008 0020     		movs	r0, #0
 170 000a 08BD     		pop	{r3, pc}
ARM GAS  /tmp/ccNJe4yq.s 			page 4


 171              		.cfi_endproc
 172              	.LFE7:
 173              		.size	thread, .-thread
 174 000c AFF30080 		.section	.text.thd2_execute,"ax",%progbits
 175              		.align	2
 176              		.p2align 4,,15
 177              		.thumb
 178              		.thumb_func
 179              		.type	thd2_execute, %function
 180              	thd2_execute:
 181              	.LFB9:
 182              		.loc 1 94 0
 183              		.cfi_startproc
 184              		@ args = 0, pretend = 0, frame = 0
 185              		@ frame_needed = 0, uses_anonymous_args = 0
 186 0000 F0B5     		push	{r4, r5, r6, r7, lr}
 187              		.cfi_def_cfa_offset 20
 188              		.cfi_offset 4, -20
 189              		.cfi_offset 5, -16
 190              		.cfi_offset 6, -12
 191              		.cfi_offset 7, -8
 192              		.cfi_offset 14, -4
 193              		.loc 1 96 0
 194 0002 40F20007 		movw	r7, #:lower16:rlist
 195 0006 C0F20007 		movt	r7, #:upper16:rlist
 196 000a 40F20006 		movw	r6, #:lower16:wa
 197 000e BB69     		ldr	r3, [r7, #24]
 198              		.loc 1 94 0
 199 0010 83B0     		sub	sp, sp, #12
 200              		.cfi_def_cfa_offset 32
 201              		.loc 1 96 0
 202 0012 C0F20006 		movt	r6, #:upper16:wa
 203 0016 9A68     		ldr	r2, [r3, #8]
 204 0018 7068     		ldr	r0, [r6, #4]
 205 001a 40F20005 		movw	r5, #:lower16:thread
 206 001e 40F20001 		movw	r1, #:lower16:.LC1
 207 0022 C0F20005 		movt	r5, #:upper16:thread
 208 0026 C0F20001 		movt	r1, #:upper16:.LC1
 209 002a 2B46     		mov	r3, r5
 210 002c 0091     		str	r1, [sp]
 211 002e 043A     		subs	r2, r2, #4
 212 0030 4FF4A871 		mov	r1, #336
 213 0034 FFF7FEFF 		bl	chThdCreateStatic
 214              	.LVL10:
 215              		.loc 1 97 0
 216 0038 BA69     		ldr	r2, [r7, #24]
 217 003a 3368     		ldr	r3, [r6]
 218 003c 9268     		ldr	r2, [r2, #8]
 219              		.loc 1 96 0
 220 003e 40F20004 		movw	r4, #:lower16:threads
 221 0042 C0F20004 		movt	r4, #:upper16:threads
 222              		.loc 1 97 0
 223 0046 40F20001 		movw	r1, #:lower16:.LC0
 224 004a C0F20001 		movt	r1, #:upper16:.LC0
 225              		.loc 1 96 0
 226 004e 6060     		str	r0, [r4, #4]
 227              		.loc 1 97 0
ARM GAS  /tmp/ccNJe4yq.s 			page 5


 228 0050 0091     		str	r1, [sp]
 229 0052 053A     		subs	r2, r2, #5
 230 0054 1846     		mov	r0, r3
 231 0056 4FF4A871 		mov	r1, #336
 232 005a 2B46     		mov	r3, r5
 233 005c FFF7FEFF 		bl	chThdCreateStatic
 234              	.LVL11:
 235              		.loc 1 98 0
 236 0060 BA69     		ldr	r2, [r7, #24]
 237 0062 3369     		ldr	r3, [r6, #16]
 238 0064 9268     		ldr	r2, [r2, #8]
 239              		.loc 1 97 0
 240 0066 2060     		str	r0, [r4]
 241              		.loc 1 98 0
 242 0068 40F20001 		movw	r1, #:lower16:.LC4
 243 006c C0F20001 		movt	r1, #:upper16:.LC4
 244 0070 0091     		str	r1, [sp]
 245 0072 013A     		subs	r2, r2, #1
 246 0074 1846     		mov	r0, r3
 247 0076 4FF4A871 		mov	r1, #336
 248 007a 2B46     		mov	r3, r5
 249 007c FFF7FEFF 		bl	chThdCreateStatic
 250              	.LVL12:
 251              		.loc 1 99 0
 252 0080 BA69     		ldr	r2, [r7, #24]
 253 0082 F368     		ldr	r3, [r6, #12]
 254 0084 9268     		ldr	r2, [r2, #8]
 255              		.loc 1 98 0
 256 0086 2061     		str	r0, [r4, #16]
 257              		.loc 1 99 0
 258 0088 40F20001 		movw	r1, #:lower16:.LC3
 259 008c C0F20001 		movt	r1, #:upper16:.LC3
 260 0090 0091     		str	r1, [sp]
 261 0092 023A     		subs	r2, r2, #2
 262 0094 1846     		mov	r0, r3
 263 0096 4FF4A871 		mov	r1, #336
 264 009a 2B46     		mov	r3, r5
 265 009c FFF7FEFF 		bl	chThdCreateStatic
 266              	.LVL13:
 267              	.LBB2:
 268              		.loc 1 101 0
 269 00a0 2023     		movs	r3, #32
 270              	.LBE2:
 271              		.loc 1 99 0
 272 00a2 E060     		str	r0, [r4, #12]
 273              	.LBB3:
 274              		.loc 1 101 0
 275              	@ 101 "../../test/testthd.c" 1
 276 00a4 83F31188 		msr     BASEPRI, r3
 277              	@ 0 "" 2
 278              		.thumb
 279              	.LBE3:
 280              		.loc 1 102 0
 281 00a8 40F20002 		movw	r2, #:lower16:rlist
 282 00ac C0F20002 		movt	r2, #:upper16:rlist
 283 00b0 40F20003 		movw	r3, #:lower16:wa
 284 00b4 9269     		ldr	r2, [r2, #24]
ARM GAS  /tmp/ccNJe4yq.s 			page 6


 285 00b6 C0F20003 		movt	r3, #:upper16:wa
 286 00ba 9268     		ldr	r2, [r2, #8]
 287 00bc 9868     		ldr	r0, [r3, #8]
 288 00be 40F20001 		movw	r1, #:lower16:.LC2
 289 00c2 C0F20001 		movt	r1, #:upper16:.LC2
 290 00c6 40F20003 		movw	r3, #:lower16:thread
 291 00ca 0091     		str	r1, [sp]
 292 00cc 033A     		subs	r2, r2, #3
 293 00ce C0F20003 		movt	r3, #:upper16:thread
 294 00d2 4FF4A871 		mov	r1, #336
 295 00d6 FFF7FEFF 		bl	chThdCreateI
 296              	.LVL14:
 297 00da 40F20002 		movw	r2, #:lower16:threads
 298 00de C0F20002 		movt	r2, #:upper16:threads
 299              	.LBB4:
 300              		.loc 1 103 0
 301 00e2 0023     		movs	r3, #0
 302              	.LBE4:
 303              		.loc 1 102 0
 304 00e4 9060     		str	r0, [r2, #8]
 305              	.LBB5:
 306              		.loc 1 103 0
 307              	@ 103 "../../test/testthd.c" 1
 308 00e6 83F31188 		msr     BASEPRI, r3
 309              	@ 0 "" 2
 310              		.thumb
 311              	.LBE5:
 312              		.loc 1 104 0
 313 00ea 40F20003 		movw	r3, #:lower16:threads
 314 00ee C0F20003 		movt	r3, #:upper16:threads
 315 00f2 9868     		ldr	r0, [r3, #8]
 316 00f4 FFF7FEFF 		bl	chThdResume
 317              	.LVL15:
 318              		.loc 1 105 0
 319 00f8 FFF7FEFF 		bl	test_wait_threads
 320              	.LVL16:
 321              		.loc 1 106 0
 322 00fc 40F20001 		movw	r1, #:lower16:.LC5
 323 0100 C0F20001 		movt	r1, #:upper16:.LC5
 324 0104 0120     		movs	r0, #1
 325              		.loc 1 107 0
 326 0106 03B0     		add	sp, sp, #12
 327              		@ sp needed
 328 0108 BDE8F040 		pop	{r4, r5, r6, r7, lr}
 329              		.loc 1 106 0
 330 010c FFF7FEBF 		b	_test_assert_sequence
 331              	.LVL17:
 332              		.cfi_endproc
 333              	.LFE9:
 334              		.size	thd2_execute, .-thd2_execute
 335              		.section	.text.thd3_execute,"ax",%progbits
 336              		.align	2
 337              		.p2align 4,,15
 338              		.thumb
 339              		.thumb_func
 340              		.type	thd3_execute, %function
 341              	thd3_execute:
ARM GAS  /tmp/ccNJe4yq.s 			page 7


 342              	.LFB10:
 343              		.loc 1 126 0
 344              		.cfi_startproc
 345              		@ args = 0, pretend = 0, frame = 0
 346              		@ frame_needed = 0, uses_anonymous_args = 0
 347 0000 F8B5     		push	{r3, r4, r5, r6, r7, lr}
 348              		.cfi_def_cfa_offset 24
 349              		.cfi_offset 3, -24
 350              		.cfi_offset 4, -20
 351              		.cfi_offset 5, -16
 352              		.cfi_offset 6, -12
 353              		.cfi_offset 7, -8
 354              		.cfi_offset 14, -4
 355              		.loc 1 129 0
 356 0002 40F20004 		movw	r4, #:lower16:rlist
 357 0006 C0F20004 		movt	r4, #:upper16:rlist
 358 000a A369     		ldr	r3, [r4, #24]
 359 000c 9D68     		ldr	r5, [r3, #8]
 360              	.LVL18:
 361              		.loc 1 130 0
 362 000e 6E1C     		adds	r6, r5, #1
 363 0010 3046     		mov	r0, r6
 364 0012 FFF7FEFF 		bl	chThdSetPriority
 365              	.LVL19:
 366              		.loc 1 131 0
 367 0016 B0EB050C 		subs	ip, r0, r5
 368 001a DCF10001 		rsbs	r1, ip, #0
 369              		.loc 1 130 0
 370 001e 0746     		mov	r7, r0
 371              	.LVL20:
 372              		.loc 1 131 0
 373 0020 51EB0C01 		adcs	r1, r1, ip
 374 0024 0120     		movs	r0, #1
 375              	.LVL21:
 376 0026 FFF7FEFF 		bl	_test_assert
 377              	.LVL22:
 378 002a 00B1     		cbz	r0, .L9
 379              	.LVL23:
 380              	.L4:
 381 002c F8BD     		pop	{r3, r4, r5, r6, r7, pc}
 382              	.LVL24:
 383              	.L9:
 384              		.loc 1 133 0
 385 002e A369     		ldr	r3, [r4, #24]
 386 0030 9968     		ldr	r1, [r3, #8]
 387 0032 B6EB010E 		subs	lr, r6, r1
 388 0036 DEF10001 		rsbs	r1, lr, #0
 389 003a 51EB0E01 		adcs	r1, r1, lr
 390 003e 0220     		movs	r0, #2
 391 0040 FFF7FEFF 		bl	_test_assert
 392              	.LVL25:
 393 0044 0028     		cmp	r0, #0
 394 0046 F1D1     		bne	.L4
 395              		.loc 1 135 0
 396 0048 3846     		mov	r0, r7
 397 004a FFF7FEFF 		bl	chThdSetPriority
 398              	.LVL26:
ARM GAS  /tmp/ccNJe4yq.s 			page 8


 399              		.loc 1 136 0
 400 004e 301A     		subs	r0, r6, r0
 401              	.LVL27:
 402 0050 4142     		rsbs	r1, r0, #0
 403 0052 4141     		adcs	r1, r1, r0
 404 0054 0320     		movs	r0, #3
 405 0056 FFF7FEFF 		bl	_test_assert
 406              	.LVL28:
 407 005a 0028     		cmp	r0, #0
 408 005c E6D1     		bne	.L4
 409              		.loc 1 138 0
 410 005e A369     		ldr	r3, [r4, #24]
 411 0060 9968     		ldr	r1, [r3, #8]
 412 0062 4A1B     		subs	r2, r1, r5
 413 0064 5142     		rsbs	r1, r2, #0
 414 0066 5141     		adcs	r1, r1, r2
 415 0068 0420     		movs	r0, #4
 416 006a FFF7FEFF 		bl	_test_assert
 417              	.LVL29:
 418 006e 0028     		cmp	r0, #0
 419 0070 DCD1     		bne	.L4
 420              	.LBB6:
 421              		.loc 1 143 0
 422 0072 2023     		movs	r3, #32
 423              	@ 143 "../../test/testthd.c" 1
 424 0074 83F31188 		msr     BASEPRI, r3
 425              	@ 0 "" 2
 426              		.thumb
 427              	.LBE6:
 428              		.loc 1 144 0
 429 0078 A369     		ldr	r3, [r4, #24]
 430 007a 9A68     		ldr	r2, [r3, #8]
 431 007c 0232     		adds	r2, r2, #2
 432 007e 9A60     		str	r2, [r3, #8]
 433              	.LBB7:
 434              		.loc 1 145 0
 435 0080 0023     		movs	r3, #0
 436              	@ 145 "../../test/testthd.c" 1
 437 0082 83F31188 		msr     BASEPRI, r3
 438              	@ 0 "" 2
 439              		.thumb
 440              	.LBE7:
 441              		.loc 1 146 0
 442 0086 40F20004 		movw	r4, #:lower16:rlist
 443 008a C0F20004 		movt	r4, #:upper16:rlist
 444 008e AF1C     		adds	r7, r5, #2
 445 0090 A369     		ldr	r3, [r4, #24]
 446 0092 9968     		ldr	r1, [r3, #8]
 447 0094 CB1B     		subs	r3, r1, r7
 448 0096 5942     		rsbs	r1, r3, #0
 449 0098 5941     		adcs	r1, r1, r3
 450 009a 0520     		movs	r0, #5
 451 009c FFF7FEFF 		bl	_test_assert
 452              	.LVL30:
 453 00a0 0028     		cmp	r0, #0
 454 00a2 C3D1     		bne	.L4
 455              		.loc 1 150 0
ARM GAS  /tmp/ccNJe4yq.s 			page 9


 456 00a4 3046     		mov	r0, r6
 457 00a6 FFF7FEFF 		bl	chThdSetPriority
 458              	.LVL31:
 459              		.loc 1 151 0
 460 00aa B0EB050C 		subs	ip, r0, r5
 461 00ae DCF10001 		rsbs	r1, ip, #0
 462 00b2 51EB0C01 		adcs	r1, r1, ip
 463 00b6 0620     		movs	r0, #6
 464              	.LVL32:
 465 00b8 FFF7FEFF 		bl	_test_assert
 466              	.LVL33:
 467 00bc 0028     		cmp	r0, #0
 468 00be B5D1     		bne	.L4
 469              		.loc 1 153 0
 470 00c0 A369     		ldr	r3, [r4, #24]
 471 00c2 9968     		ldr	r1, [r3, #8]
 472 00c4 B7EB010E 		subs	lr, r7, r1
 473 00c8 DEF10001 		rsbs	r1, lr, #0
 474 00cc 51EB0E01 		adcs	r1, r1, lr
 475 00d0 0720     		movs	r0, #7
 476 00d2 FFF7FEFF 		bl	_test_assert
 477              	.LVL34:
 478 00d6 0028     		cmp	r0, #0
 479 00d8 A8D1     		bne	.L4
 480              		.loc 1 155 0
 481 00da A369     		ldr	r3, [r4, #24]
 482 00dc 196C     		ldr	r1, [r3, #64]
 483 00de 771A     		subs	r7, r6, r1
 484 00e0 7942     		rsbs	r1, r7, #0
 485 00e2 7941     		adcs	r1, r1, r7
 486 00e4 0820     		movs	r0, #8
 487 00e6 FFF7FEFF 		bl	_test_assert
 488              	.LVL35:
 489 00ea 0028     		cmp	r0, #0
 490 00ec 9ED1     		bne	.L4
 491              		.loc 1 159 0
 492 00ee EF1C     		adds	r7, r5, #3
 493 00f0 3846     		mov	r0, r7
 494 00f2 FFF7FEFF 		bl	chThdSetPriority
 495              	.LVL36:
 496              		.loc 1 160 0
 497 00f6 301A     		subs	r0, r6, r0
 498              	.LVL37:
 499 00f8 4142     		rsbs	r1, r0, #0
 500 00fa 4141     		adcs	r1, r1, r0
 501 00fc 0920     		movs	r0, #9
 502 00fe FFF7FEFF 		bl	_test_assert
 503              	.LVL38:
 504 0102 0028     		cmp	r0, #0
 505 0104 92D1     		bne	.L4
 506              		.loc 1 162 0
 507 0106 A369     		ldr	r3, [r4, #24]
 508 0108 9968     		ldr	r1, [r3, #8]
 509 010a 7A1A     		subs	r2, r7, r1
 510 010c 5142     		rsbs	r1, r2, #0
 511 010e 5141     		adcs	r1, r1, r2
 512 0110 0A20     		movs	r0, #10
ARM GAS  /tmp/ccNJe4yq.s 			page 10


 513 0112 FFF7FEFF 		bl	_test_assert
 514              	.LVL39:
 515 0116 0028     		cmp	r0, #0
 516 0118 88D1     		bne	.L4
 517              		.loc 1 164 0
 518 011a A369     		ldr	r3, [r4, #24]
 519 011c 196C     		ldr	r1, [r3, #64]
 520 011e 7B1A     		subs	r3, r7, r1
 521 0120 5942     		rsbs	r1, r3, #0
 522 0122 5941     		adcs	r1, r1, r3
 523 0124 0B20     		movs	r0, #11
 524 0126 FFF7FEFF 		bl	_test_assert
 525              	.LVL40:
 526 012a 0028     		cmp	r0, #0
 527 012c 7FF47EAF 		bne	.L4
 528              	.LBB8:
 529              		.loc 1 167 0
 530 0130 2023     		movs	r3, #32
 531              	@ 167 "../../test/testthd.c" 1
 532 0132 83F31188 		msr     BASEPRI, r3
 533              	@ 0 "" 2
 534              		.thumb
 535              	.LBE8:
 536              		.loc 1 168 0
 537 0136 A269     		ldr	r2, [r4, #24]
 538              	.LBB9:
 539              		.loc 1 170 0
 540 0138 0023     		movs	r3, #0
 541              	.LBE9:
 542              		.loc 1 168 0
 543 013a 9560     		str	r5, [r2, #8]
 544              		.loc 1 169 0
 545 013c 1564     		str	r5, [r2, #64]
 546              	.LBB10:
 547              		.loc 1 170 0
 548              	@ 170 "../../test/testthd.c" 1
 549 013e 83F31188 		msr     BASEPRI, r3
 550              	@ 0 "" 2
 551              		.thumb
 552 0142 73E7     		b	.L4
 553              	.LBE10:
 554              		.cfi_endproc
 555              	.LFE10:
 556              		.size	thd3_execute, .-thd3_execute
 557 0144 AFF30080 		.section	.text.thd4_execute,"ax",%progbits
 557      AFF30080 
 557      AFF30080 
 558              		.align	2
 559              		.p2align 4,,15
 560              		.thumb
 561              		.thumb_func
 562              		.type	thd4_execute, %function
 563              	thd4_execute:
 564              	.LFB11:
 565              		.loc 1 189 0
 566              		.cfi_startproc
 567              		@ args = 0, pretend = 0, frame = 0
ARM GAS  /tmp/ccNJe4yq.s 			page 11


 568              		@ frame_needed = 0, uses_anonymous_args = 0
 569 0000 38B5     		push	{r3, r4, r5, lr}
 570              		.cfi_def_cfa_offset 16
 571              		.cfi_offset 3, -16
 572              		.cfi_offset 4, -12
 573              		.cfi_offset 5, -8
 574              		.cfi_offset 14, -4
 575              		.loc 1 195 0
 576 0002 40F20004 		movw	r4, #:lower16:vtlist
 577 0006 C0F20004 		movt	r4, #:upper16:vtlist
 578              		.loc 1 192 0
 579 000a FFF7FEFF 		bl	test_wait_tick
 580              	.LVL41:
 581              		.loc 1 195 0
 582 000e E568     		ldr	r5, [r4, #12]
 583              	.LVL42:
 584              		.loc 1 196 0
 585 0010 6420     		movs	r0, #100
 586 0012 FFF7FEFF 		bl	chThdSleep
 587              	.LVL43:
 588              		.loc 1 197 0
 589 0016 05F16401 		add	r1, r5, #100
 590 001a 05F16502 		add	r2, r5, #101
 591 001e 0120     		movs	r0, #1
 592 0020 FFF7FEFF 		bl	_test_assert_time_window
 593              	.LVL44:
 594 0024 00B1     		cbz	r0, .L14
 595              	.LVL45:
 596              	.L10:
 597 0026 38BD     		pop	{r3, r4, r5, pc}
 598              	.LVL46:
 599              	.L14:
 600              		.loc 1 200 0
 601 0028 E568     		ldr	r5, [r4, #12]
 602              	.LVL47:
 603              		.loc 1 201 0
 604 002a 6420     		movs	r0, #100
 605 002c FFF7FEFF 		bl	chThdSleep
 606              	.LVL48:
 607              		.loc 1 202 0
 608 0030 05F16401 		add	r1, r5, #100
 609 0034 05F16502 		add	r2, r5, #101
 610 0038 0220     		movs	r0, #2
 611 003a FFF7FEFF 		bl	_test_assert_time_window
 612              	.LVL49:
 613 003e 0028     		cmp	r0, #0
 614 0040 F1D1     		bne	.L10
 615              	.LBB13:
 616              	.LBB14:
 617              		.loc 1 205 0
 618 0042 E568     		ldr	r5, [r4, #12]
 619              	.LVL50:
 620              		.loc 1 206 0
 621 0044 4FF47A70 		mov	r0, #1000
 622 0048 FFF7FEFF 		bl	chThdSleep
 623              	.LVL51:
 624              		.loc 1 207 0
ARM GAS  /tmp/ccNJe4yq.s 			page 12


 625 004c 05F57A71 		add	r1, r5, #1000
 626 0050 05F2E932 		addw	r2, r5, #1001
 627 0054 0320     		movs	r0, #3
 628 0056 FFF7FEFF 		bl	_test_assert_time_window
 629              	.LVL52:
 630 005a 0028     		cmp	r0, #0
 631 005c E3D1     		bne	.L10
 632              		.loc 1 210 0
 633 005e E468     		ldr	r4, [r4, #12]
 634 0060 04F16405 		add	r5, r4, #100
 635              	.LVL53:
 636              		.loc 1 211 0
 637 0064 2846     		mov	r0, r5
 638 0066 FFF7FEFF 		bl	chThdSleepUntil
 639              	.LVL54:
 640              		.loc 1 212 0
 641 006a 2946     		mov	r1, r5
 642 006c 04F16502 		add	r2, r4, #101
 643 0070 0420     		movs	r0, #4
 644              	.LBE14:
 645              	.LBE13:
 646              		.loc 1 213 0
 647 0072 BDE83840 		pop	{r3, r4, r5, lr}
 648              	.LVL55:
 649              	.LBB16:
 650              	.LBB15:
 651              		.loc 1 212 0
 652 0076 FFF7FEBF 		b	_test_assert_time_window
 653              	.LVL56:
 654              	.LBE15:
 655              	.LBE16:
 656              		.cfi_endproc
 657              	.LFE11:
 658              		.size	thd4_execute, .-thd4_execute
 659              		.global	patternthd
 660              		.global	testthd4
 661              		.global	testthd3
 662              		.global	testthd2
 663              		.global	testthd1
 664 007a 00BFAFF3 		.section	.rodata.testthd1,"a",%progbits
 664      0080
 665              		.align	2
 666              		.type	testthd1, %object
 667              		.size	testthd1, 16
 668              	testthd1:
 669 0000 64000000 		.word	.LC9
 670 0004 00000000 		.word	0
 671 0008 00000000 		.word	0
 672 000c 00000000 		.word	thd1_execute
 673              		.section	.rodata.testthd2,"a",%progbits
 674              		.align	2
 675              		.type	testthd2, %object
 676              		.size	testthd2, 16
 677              	testthd2:
 678 0000 48000000 		.word	.LC8
 679 0004 00000000 		.word	0
 680 0008 00000000 		.word	0
ARM GAS  /tmp/ccNJe4yq.s 			page 13


 681 000c 00000000 		.word	thd2_execute
 682              		.section	.rodata.testthd3,"a",%progbits
 683              		.align	2
 684              		.type	testthd3, %object
 685              		.size	testthd3, 16
 686              	testthd3:
 687 0000 2C000000 		.word	.LC7
 688 0004 00000000 		.word	0
 689 0008 00000000 		.word	0
 690 000c 00000000 		.word	thd3_execute
 691              		.section	.rodata.testthd4,"a",%progbits
 692              		.align	2
 693              		.type	testthd4, %object
 694              		.size	testthd4, 16
 695              	testthd4:
 696 0000 1C000000 		.word	.LC6
 697 0004 00000000 		.word	0
 698 0008 00000000 		.word	0
 699 000c 00000000 		.word	thd4_execute
 700              		.section	.rodata.patternthd,"a",%progbits
 701              		.align	2
 702              		.type	patternthd, %object
 703              		.size	patternthd, 20
 704              	patternthd:
 705 0000 00000000 		.word	testthd1
 706 0004 00000000 		.word	testthd2
 707 0008 00000000 		.word	testthd3
 708 000c 00000000 		.word	testthd4
 709 0010 00000000 		.word	0
 710              		.section	.rodata.str1.4,"aMS",%progbits,1
 711              		.align	2
 712              	.LC0:
 713 0000 4500     		.ascii	"E\000"
 714 0002 0000     		.space	2
 715              	.LC1:
 716 0004 4400     		.ascii	"D\000"
 717 0006 0000     		.space	2
 718              	.LC2:
 719 0008 4300     		.ascii	"C\000"
 720 000a 0000     		.space	2
 721              	.LC3:
 722 000c 4200     		.ascii	"B\000"
 723 000e 0000     		.space	2
 724              	.LC4:
 725 0010 4100     		.ascii	"A\000"
 726 0012 0000     		.space	2
 727              	.LC5:
 728 0014 41424344 		.ascii	"ABCDE\000"
 728      4500
 729 001a 0000     		.space	2
 730              	.LC6:
 731 001c 54687265 		.ascii	"Threads, delays\000"
 731      6164732C 
 731      2064656C 
 731      61797300 
 732              	.LC7:
 733 002c 54687265 		.ascii	"Threads, priority change\000"
ARM GAS  /tmp/ccNJe4yq.s 			page 14


 733      6164732C 
 733      20707269 
 733      6F726974 
 733      79206368 
 734 0045 000000   		.space	3
 735              	.LC8:
 736 0048 54687265 		.ascii	"Threads, enqueuing test #2\000"
 736      6164732C 
 736      20656E71 
 736      75657569 
 736      6E672074 
 737 0063 00       		.space	1
 738              	.LC9:
 739 0064 54687265 		.ascii	"Threads, enqueuing test #1\000"
 739      6164732C 
 739      20656E71 
 739      75657569 
 739      6E672074 
 740 007f 00       		.text
 741              	.Letext0:
 742              		.file 2 "/usr/lib/gcc/arm-none-eabi/4.8.2/include/stddef.h"
 743              		.file 3 "/usr/include/newlib/machine/_default_types.h"
 744              		.file 4 "/usr/include/newlib/stdint.h"
 745              		.file 5 "../../os/ports/GCC/ARMCMx/chtypes.h"
 746              		.file 6 "../../os/kernel/include/chlists.h"
 747              		.file 7 "../../os/kernel/include/chthreads.h"
 748              		.file 8 "../../os/ports/GCC/ARMCMx/chcore_v7m.h"
 749              		.file 9 "../../os/kernel/include/chvt.h"
 750              		.file 10 "../../os/kernel/include/chschd.h"
 751              		.file 11 "../../os/kernel/include/chmtx.h"
 752              		.file 12 "../../test/test.h"
 753              		.section	.debug_info,"",%progbits
 754              	.Ldebug_info0:
 755 0000 7E0C0000 		.4byte	0xc7e
 756 0004 0400     		.2byte	0x4
 757 0006 00000000 		.4byte	.Ldebug_abbrev0
 758 000a 04       		.byte	0x4
 759 000b 01       		.uleb128 0x1
 760 000c 32000000 		.4byte	.LASF105
 761 0010 01       		.byte	0x1
 762 0011 78030000 		.4byte	.LASF106
 763 0015 48020000 		.4byte	.LASF107
 764 0019 60000000 		.4byte	.Ldebug_ranges0+0x60
 765 001d 00000000 		.4byte	0
 766 0021 00000000 		.4byte	.Ldebug_line0
 767 0025 02       		.uleb128 0x2
 768 0026 04       		.byte	0x4
 769 0027 05       		.byte	0x5
 770 0028 696E7400 		.ascii	"int\000"
 771 002c 03       		.uleb128 0x3
 772 002d 0E000000 		.4byte	.LASF2
 773 0031 02       		.byte	0x2
 774 0032 D4       		.byte	0xd4
 775 0033 37000000 		.4byte	0x37
 776 0037 04       		.uleb128 0x4
 777 0038 04       		.byte	0x4
 778 0039 07       		.byte	0x7
ARM GAS  /tmp/ccNJe4yq.s 			page 15


 779 003a BB010000 		.4byte	.LASF0
 780 003e 04       		.uleb128 0x4
 781 003f 01       		.byte	0x1
 782 0040 06       		.byte	0x6
 783 0041 04010000 		.4byte	.LASF1
 784 0045 03       		.uleb128 0x3
 785 0046 21000000 		.4byte	.LASF3
 786 004a 03       		.byte	0x3
 787 004b 1C       		.byte	0x1c
 788 004c 50000000 		.4byte	0x50
 789 0050 04       		.uleb128 0x4
 790 0051 01       		.byte	0x1
 791 0052 08       		.byte	0x8
 792 0053 CE030000 		.4byte	.LASF4
 793 0057 04       		.uleb128 0x4
 794 0058 02       		.byte	0x2
 795 0059 05       		.byte	0x5
 796 005a F5030000 		.4byte	.LASF5
 797 005e 04       		.uleb128 0x4
 798 005f 02       		.byte	0x2
 799 0060 07       		.byte	0x7
 800 0061 01020000 		.4byte	.LASF6
 801 0065 03       		.uleb128 0x3
 802 0066 A8040000 		.4byte	.LASF7
 803 006a 03       		.byte	0x3
 804 006b 37       		.byte	0x37
 805 006c 70000000 		.4byte	0x70
 806 0070 04       		.uleb128 0x4
 807 0071 04       		.byte	0x4
 808 0072 05       		.byte	0x5
 809 0073 4E010000 		.4byte	.LASF8
 810 0077 03       		.uleb128 0x3
 811 0078 92010000 		.4byte	.LASF9
 812 007c 03       		.byte	0x3
 813 007d 38       		.byte	0x38
 814 007e 82000000 		.4byte	0x82
 815 0082 04       		.uleb128 0x4
 816 0083 04       		.byte	0x4
 817 0084 07       		.byte	0x7
 818 0085 D0010000 		.4byte	.LASF10
 819 0089 04       		.uleb128 0x4
 820 008a 08       		.byte	0x8
 821 008b 05       		.byte	0x5
 822 008c F6000000 		.4byte	.LASF11
 823 0090 04       		.uleb128 0x4
 824 0091 08       		.byte	0x8
 825 0092 07       		.byte	0x7
 826 0093 CF000000 		.4byte	.LASF12
 827 0097 03       		.uleb128 0x3
 828 0098 F4040000 		.4byte	.LASF13
 829 009c 04       		.byte	0x4
 830 009d 2A       		.byte	0x2a
 831 009e 45000000 		.4byte	0x45
 832 00a2 03       		.uleb128 0x3
 833 00a3 C6030000 		.4byte	.LASF14
 834 00a7 04       		.byte	0x4
 835 00a8 41       		.byte	0x41
ARM GAS  /tmp/ccNJe4yq.s 			page 16


 836 00a9 65000000 		.4byte	0x65
 837 00ad 03       		.uleb128 0x3
 838 00ae 51040000 		.4byte	.LASF15
 839 00b2 04       		.byte	0x4
 840 00b3 42       		.byte	0x42
 841 00b4 77000000 		.4byte	0x77
 842 00b8 03       		.uleb128 0x3
 843 00b9 18010000 		.4byte	.LASF16
 844 00bd 05       		.byte	0x5
 845 00be 2B       		.byte	0x2b
 846 00bf C3000000 		.4byte	0xc3
 847 00c3 04       		.uleb128 0x4
 848 00c4 01       		.byte	0x1
 849 00c5 02       		.byte	0x2
 850 00c6 C0030000 		.4byte	.LASF17
 851 00ca 03       		.uleb128 0x3
 852 00cb 22020000 		.4byte	.LASF18
 853 00cf 05       		.byte	0x5
 854 00d0 2C       		.byte	0x2c
 855 00d1 97000000 		.4byte	0x97
 856 00d5 03       		.uleb128 0x3
 857 00d6 57010000 		.4byte	.LASF19
 858 00da 05       		.byte	0x5
 859 00db 2D       		.byte	0x2d
 860 00dc 97000000 		.4byte	0x97
 861 00e0 03       		.uleb128 0x3
 862 00e1 8D030000 		.4byte	.LASF20
 863 00e5 05       		.byte	0x5
 864 00e6 2E       		.byte	0x2e
 865 00e7 97000000 		.4byte	0x97
 866 00eb 03       		.uleb128 0x3
 867 00ec 37010000 		.4byte	.LASF21
 868 00f0 05       		.byte	0x5
 869 00f1 2F       		.byte	0x2f
 870 00f2 97000000 		.4byte	0x97
 871 00f6 03       		.uleb128 0x3
 872 00f7 B1030000 		.4byte	.LASF22
 873 00fb 05       		.byte	0x5
 874 00fc 30       		.byte	0x30
 875 00fd AD000000 		.4byte	0xad
 876 0101 03       		.uleb128 0x3
 877 0102 14020000 		.4byte	.LASF23
 878 0106 05       		.byte	0x5
 879 0107 31       		.byte	0x31
 880 0108 A2000000 		.4byte	0xa2
 881 010c 03       		.uleb128 0x3
 882 010d 36020000 		.4byte	.LASF24
 883 0111 05       		.byte	0x5
 884 0112 33       		.byte	0x33
 885 0113 AD000000 		.4byte	0xad
 886 0117 03       		.uleb128 0x3
 887 0118 93040000 		.4byte	.LASF25
 888 011c 05       		.byte	0x5
 889 011d 35       		.byte	0x35
 890 011e AD000000 		.4byte	0xad
 891 0122 03       		.uleb128 0x3
 892 0123 36040000 		.4byte	.LASF26
ARM GAS  /tmp/ccNJe4yq.s 			page 17


 893 0127 06       		.byte	0x6
 894 0128 2A       		.byte	0x2a
 895 0129 2D010000 		.4byte	0x12d
 896 012d 05       		.uleb128 0x5
 897 012e 36040000 		.4byte	.LASF26
 898 0132 48       		.byte	0x48
 899 0133 07       		.byte	0x7
 900 0134 5E       		.byte	0x5e
 901 0135 2A020000 		.4byte	0x22a
 902 0139 06       		.uleb128 0x6
 903 013a 27040000 		.4byte	.LASF27
 904 013e 07       		.byte	0x7
 905 013f 5F       		.byte	0x5f
 906 0140 4B020000 		.4byte	0x24b
 907 0144 00       		.byte	0
 908 0145 06       		.uleb128 0x6
 909 0146 A2030000 		.4byte	.LASF28
 910 014a 07       		.byte	0x7
 911 014b 61       		.byte	0x61
 912 014c 4B020000 		.4byte	0x24b
 913 0150 04       		.byte	0x4
 914 0151 06       		.uleb128 0x6
 915 0152 EF000000 		.4byte	.LASF29
 916 0156 07       		.byte	0x7
 917 0157 63       		.byte	0x63
 918 0158 F6000000 		.4byte	0xf6
 919 015c 08       		.byte	0x8
 920 015d 06       		.uleb128 0x6
 921 015e 31050000 		.4byte	.LASF30
 922 0162 07       		.byte	0x7
 923 0163 64       		.byte	0x64
 924 0164 05030000 		.4byte	0x305
 925 0168 0C       		.byte	0xc
 926 0169 06       		.uleb128 0x6
 927 016a 79010000 		.4byte	.LASF31
 928 016e 07       		.byte	0x7
 929 016f 66       		.byte	0x66
 930 0170 4B020000 		.4byte	0x24b
 931 0174 10       		.byte	0x10
 932 0175 06       		.uleb128 0x6
 933 0176 1A030000 		.4byte	.LASF32
 934 017a 07       		.byte	0x7
 935 017b 67       		.byte	0x67
 936 017c 4B020000 		.4byte	0x24b
 937 0180 14       		.byte	0x14
 938 0181 06       		.uleb128 0x6
 939 0182 03050000 		.4byte	.LASF33
 940 0186 07       		.byte	0x7
 941 0187 6E       		.byte	0x6e
 942 0188 BF040000 		.4byte	0x4bf
 943 018c 18       		.byte	0x18
 944 018d 06       		.uleb128 0x6
 945 018e FF030000 		.4byte	.LASF34
 946 0192 07       		.byte	0x7
 947 0193 79       		.byte	0x79
 948 0194 D5000000 		.4byte	0xd5
 949 0198 1C       		.byte	0x1c
ARM GAS  /tmp/ccNJe4yq.s 			page 18


 950 0199 06       		.uleb128 0x6
 951 019a 2E040000 		.4byte	.LASF35
 952 019e 07       		.byte	0x7
 953 019f 7D       		.byte	0x7d
 954 01a0 CA000000 		.4byte	0xca
 955 01a4 1D       		.byte	0x1d
 956 01a5 06       		.uleb128 0x6
 957 01a6 DD040000 		.4byte	.LASF36
 958 01aa 07       		.byte	0x7
 959 01ab 82       		.byte	0x82
 960 01ac E0000000 		.4byte	0xe0
 961 01b0 1E       		.byte	0x1e
 962 01b1 06       		.uleb128 0x6
 963 01b2 07040000 		.4byte	.LASF37
 964 01b6 07       		.byte	0x7
 965 01b7 88       		.byte	0x88
 966 01b8 EB000000 		.4byte	0xeb
 967 01bc 1F       		.byte	0x1f
 968 01bd 06       		.uleb128 0x6
 969 01be B2040000 		.4byte	.LASF38
 970 01c2 07       		.byte	0x7
 971 01c3 8F       		.byte	0x8f
 972 01c4 DC030000 		.4byte	0x3dc
 973 01c8 20       		.byte	0x20
 974 01c9 07       		.uleb128 0x7
 975 01ca 705F7500 		.ascii	"p_u\000"
 976 01ce 07       		.byte	0x7
 977 01cf B4       		.byte	0xb4
 978 01d0 8A040000 		.4byte	0x48a
 979 01d4 24       		.byte	0x24
 980 01d5 06       		.uleb128 0x6
 981 01d6 37050000 		.4byte	.LASF39
 982 01da 07       		.byte	0x7
 983 01db B9       		.byte	0xb9
 984 01dc 71020000 		.4byte	0x271
 985 01e0 28       		.byte	0x28
 986 01e1 06       		.uleb128 0x6
 987 01e2 C0040000 		.4byte	.LASF40
 988 01e6 07       		.byte	0x7
 989 01e7 BF       		.byte	0xbf
 990 01e8 51020000 		.4byte	0x251
 991 01ec 2C       		.byte	0x2c
 992 01ed 06       		.uleb128 0x6
 993 01ee 08000000 		.4byte	.LASF41
 994 01f2 07       		.byte	0x7
 995 01f3 C3       		.byte	0xc3
 996 01f4 01010000 		.4byte	0x101
 997 01f8 34       		.byte	0x34
 998 01f9 06       		.uleb128 0x6
 999 01fa 46040000 		.4byte	.LASF42
 1000 01fe 07       		.byte	0x7
 1001 01ff C9       		.byte	0xc9
 1002 0200 0C010000 		.4byte	0x10c
 1003 0204 38       		.byte	0x38
 1004 0205 06       		.uleb128 0x6
 1005 0206 EB030000 		.4byte	.LASF43
 1006 020a 07       		.byte	0x7
ARM GAS  /tmp/ccNJe4yq.s 			page 19


 1007 020b D0       		.byte	0xd0
 1008 020c D1040000 		.4byte	0x4d1
 1009 0210 3C       		.byte	0x3c
 1010 0211 06       		.uleb128 0x6
 1011 0212 9D040000 		.4byte	.LASF44
 1012 0216 07       		.byte	0x7
 1013 0217 D4       		.byte	0xd4
 1014 0218 F6000000 		.4byte	0xf6
 1015 021c 40       		.byte	0x40
 1016 021d 06       		.uleb128 0x6
 1017 021e 10010000 		.4byte	.LASF45
 1018 0222 07       		.byte	0x7
 1019 0223 DA       		.byte	0xda
 1020 0224 87020000 		.4byte	0x287
 1021 0228 44       		.byte	0x44
 1022 0229 00       		.byte	0
 1023 022a 08       		.uleb128 0x8
 1024 022b 08       		.byte	0x8
 1025 022c 06       		.byte	0x6
 1026 022d 61       		.byte	0x61
 1027 022e 4B020000 		.4byte	0x24b
 1028 0232 06       		.uleb128 0x6
 1029 0233 27040000 		.4byte	.LASF27
 1030 0237 06       		.byte	0x6
 1031 0238 62       		.byte	0x62
 1032 0239 4B020000 		.4byte	0x24b
 1033 023d 00       		.byte	0
 1034 023e 06       		.uleb128 0x6
 1035 023f A2030000 		.4byte	.LASF28
 1036 0243 06       		.byte	0x6
 1037 0244 64       		.byte	0x64
 1038 0245 4B020000 		.4byte	0x24b
 1039 0249 04       		.byte	0x4
 1040 024a 00       		.byte	0
 1041 024b 09       		.uleb128 0x9
 1042 024c 04       		.byte	0x4
 1043 024d 22010000 		.4byte	0x122
 1044 0251 03       		.uleb128 0x3
 1045 0252 28030000 		.4byte	.LASF46
 1046 0256 06       		.byte	0x6
 1047 0257 66       		.byte	0x66
 1048 0258 2A020000 		.4byte	0x22a
 1049 025c 08       		.uleb128 0x8
 1050 025d 04       		.byte	0x4
 1051 025e 06       		.byte	0x6
 1052 025f 6B       		.byte	0x6b
 1053 0260 71020000 		.4byte	0x271
 1054 0264 06       		.uleb128 0x6
 1055 0265 27040000 		.4byte	.LASF27
 1056 0269 06       		.byte	0x6
 1057 026a 6D       		.byte	0x6d
 1058 026b 4B020000 		.4byte	0x24b
 1059 026f 00       		.byte	0
 1060 0270 00       		.byte	0
 1061 0271 03       		.uleb128 0x3
 1062 0272 2A020000 		.4byte	.LASF47
 1063 0276 06       		.byte	0x6
ARM GAS  /tmp/ccNJe4yq.s 			page 20


 1064 0277 70       		.byte	0x70
 1065 0278 5C020000 		.4byte	0x25c
 1066 027c 03       		.uleb128 0x3
 1067 027d 9D010000 		.4byte	.LASF48
 1068 0281 08       		.byte	0x8
 1069 0282 E5       		.byte	0xe5
 1070 0283 87020000 		.4byte	0x287
 1071 0287 0A       		.uleb128 0xa
 1072 0288 04       		.byte	0x4
 1073 0289 0B       		.uleb128 0xb
 1074 028a B9040000 		.4byte	.LASF49
 1075 028e 24       		.byte	0x24
 1076 028f 08       		.byte	0x8
 1077 0290 0C01     		.2byte	0x10c
 1078 0292 05030000 		.4byte	0x305
 1079 0296 0C       		.uleb128 0xc
 1080 0297 723400   		.ascii	"r4\000"
 1081 029a 08       		.byte	0x8
 1082 029b 1F01     		.2byte	0x11f
 1083 029d 7C020000 		.4byte	0x27c
 1084 02a1 00       		.byte	0
 1085 02a2 0C       		.uleb128 0xc
 1086 02a3 723500   		.ascii	"r5\000"
 1087 02a6 08       		.byte	0x8
 1088 02a7 2001     		.2byte	0x120
 1089 02a9 7C020000 		.4byte	0x27c
 1090 02ad 04       		.byte	0x4
 1091 02ae 0C       		.uleb128 0xc
 1092 02af 723600   		.ascii	"r6\000"
 1093 02b2 08       		.byte	0x8
 1094 02b3 2101     		.2byte	0x121
 1095 02b5 7C020000 		.4byte	0x27c
 1096 02b9 08       		.byte	0x8
 1097 02ba 0C       		.uleb128 0xc
 1098 02bb 723700   		.ascii	"r7\000"
 1099 02be 08       		.byte	0x8
 1100 02bf 2201     		.2byte	0x122
 1101 02c1 7C020000 		.4byte	0x27c
 1102 02c5 0C       		.byte	0xc
 1103 02c6 0C       		.uleb128 0xc
 1104 02c7 723800   		.ascii	"r8\000"
 1105 02ca 08       		.byte	0x8
 1106 02cb 2301     		.2byte	0x123
 1107 02cd 7C020000 		.4byte	0x27c
 1108 02d1 10       		.byte	0x10
 1109 02d2 0C       		.uleb128 0xc
 1110 02d3 723900   		.ascii	"r9\000"
 1111 02d6 08       		.byte	0x8
 1112 02d7 2401     		.2byte	0x124
 1113 02d9 7C020000 		.4byte	0x27c
 1114 02dd 14       		.byte	0x14
 1115 02de 0C       		.uleb128 0xc
 1116 02df 72313000 		.ascii	"r10\000"
 1117 02e3 08       		.byte	0x8
 1118 02e4 2501     		.2byte	0x125
 1119 02e6 7C020000 		.4byte	0x27c
 1120 02ea 18       		.byte	0x18
ARM GAS  /tmp/ccNJe4yq.s 			page 21


 1121 02eb 0C       		.uleb128 0xc
 1122 02ec 72313100 		.ascii	"r11\000"
 1123 02f0 08       		.byte	0x8
 1124 02f1 2601     		.2byte	0x126
 1125 02f3 7C020000 		.4byte	0x27c
 1126 02f7 1C       		.byte	0x1c
 1127 02f8 0C       		.uleb128 0xc
 1128 02f9 6C7200   		.ascii	"lr\000"
 1129 02fc 08       		.byte	0x8
 1130 02fd 2701     		.2byte	0x127
 1131 02ff 7C020000 		.4byte	0x27c
 1132 0303 20       		.byte	0x20
 1133 0304 00       		.byte	0
 1134 0305 0B       		.uleb128 0xb
 1135 0306 F9010000 		.4byte	.LASF50
 1136 030a 04       		.byte	0x4
 1137 030b 08       		.byte	0x8
 1138 030c 3101     		.2byte	0x131
 1139 030e 20030000 		.4byte	0x320
 1140 0312 0C       		.uleb128 0xc
 1141 0313 72313300 		.ascii	"r13\000"
 1142 0317 08       		.byte	0x8
 1143 0318 3201     		.2byte	0x132
 1144 031a 20030000 		.4byte	0x320
 1145 031e 00       		.byte	0
 1146 031f 00       		.byte	0
 1147 0320 09       		.uleb128 0x9
 1148 0321 04       		.byte	0x4
 1149 0322 89020000 		.4byte	0x289
 1150 0326 04       		.uleb128 0x4
 1151 0327 04       		.byte	0x4
 1152 0328 07       		.byte	0x7
 1153 0329 C7020000 		.4byte	.LASF51
 1154 032d 03       		.uleb128 0x3
 1155 032e EB010000 		.4byte	.LASF52
 1156 0332 09       		.byte	0x9
 1157 0333 58       		.byte	0x58
 1158 0334 38030000 		.4byte	0x338
 1159 0338 09       		.uleb128 0x9
 1160 0339 04       		.byte	0x4
 1161 033a 3E030000 		.4byte	0x33e
 1162 033e 0D       		.uleb128 0xd
 1163 033f 49030000 		.4byte	0x349
 1164 0343 0E       		.uleb128 0xe
 1165 0344 87020000 		.4byte	0x287
 1166 0348 00       		.byte	0
 1167 0349 03       		.uleb128 0x3
 1168 034a 62040000 		.4byte	.LASF53
 1169 034e 09       		.byte	0x9
 1170 034f 5D       		.byte	0x5d
 1171 0350 54030000 		.4byte	0x354
 1172 0354 05       		.uleb128 0x5
 1173 0355 62040000 		.4byte	.LASF53
 1174 0359 14       		.byte	0x14
 1175 035a 09       		.byte	0x9
 1176 035b 64       		.byte	0x64
 1177 035c 9D030000 		.4byte	0x39d
ARM GAS  /tmp/ccNJe4yq.s 			page 22


 1178 0360 06       		.uleb128 0x6
 1179 0361 C8010000 		.4byte	.LASF54
 1180 0365 09       		.byte	0x9
 1181 0366 65       		.byte	0x65
 1182 0367 9D030000 		.4byte	0x39d
 1183 036b 00       		.byte	0
 1184 036c 06       		.uleb128 0x6
 1185 036d A6010000 		.4byte	.LASF55
 1186 0371 09       		.byte	0x9
 1187 0372 67       		.byte	0x67
 1188 0373 9D030000 		.4byte	0x39d
 1189 0377 04       		.byte	0x4
 1190 0378 06       		.uleb128 0x6
 1191 0379 BF020000 		.4byte	.LASF56
 1192 037d 09       		.byte	0x9
 1193 037e 69       		.byte	0x69
 1194 037f 17010000 		.4byte	0x117
 1195 0383 08       		.byte	0x8
 1196 0384 06       		.uleb128 0x6
 1197 0385 F4020000 		.4byte	.LASF57
 1198 0389 09       		.byte	0x9
 1199 038a 6A       		.byte	0x6a
 1200 038b 2D030000 		.4byte	0x32d
 1201 038f 0C       		.byte	0xc
 1202 0390 06       		.uleb128 0x6
 1203 0391 CB040000 		.4byte	.LASF58
 1204 0395 09       		.byte	0x9
 1205 0396 6C       		.byte	0x6c
 1206 0397 87020000 		.4byte	0x287
 1207 039b 10       		.byte	0x10
 1208 039c 00       		.byte	0
 1209 039d 09       		.uleb128 0x9
 1210 039e 04       		.byte	0x4
 1211 039f 49030000 		.4byte	0x349
 1212 03a3 08       		.uleb128 0x8
 1213 03a4 10       		.byte	0x10
 1214 03a5 09       		.byte	0x9
 1215 03a6 76       		.byte	0x76
 1216 03a7 DC030000 		.4byte	0x3dc
 1217 03ab 06       		.uleb128 0x6
 1218 03ac C8010000 		.4byte	.LASF54
 1219 03b0 09       		.byte	0x9
 1220 03b1 77       		.byte	0x77
 1221 03b2 9D030000 		.4byte	0x39d
 1222 03b6 00       		.byte	0
 1223 03b7 06       		.uleb128 0x6
 1224 03b8 A6010000 		.4byte	.LASF55
 1225 03bc 09       		.byte	0x9
 1226 03bd 79       		.byte	0x79
 1227 03be 9D030000 		.4byte	0x39d
 1228 03c2 04       		.byte	0x4
 1229 03c3 06       		.uleb128 0x6
 1230 03c4 BF020000 		.4byte	.LASF56
 1231 03c8 09       		.byte	0x9
 1232 03c9 7B       		.byte	0x7b
 1233 03ca 17010000 		.4byte	0x117
 1234 03ce 08       		.byte	0x8
ARM GAS  /tmp/ccNJe4yq.s 			page 23


 1235 03cf 06       		.uleb128 0x6
 1236 03d0 17050000 		.4byte	.LASF59
 1237 03d4 09       		.byte	0x9
 1238 03d5 7C       		.byte	0x7c
 1239 03d6 DC030000 		.4byte	0x3dc
 1240 03da 0C       		.byte	0xc
 1241 03db 00       		.byte	0
 1242 03dc 0F       		.uleb128 0xf
 1243 03dd 17010000 		.4byte	0x117
 1244 03e1 03       		.uleb128 0x3
 1245 03e2 22050000 		.4byte	.LASF60
 1246 03e6 09       		.byte	0x9
 1247 03e7 7D       		.byte	0x7d
 1248 03e8 A3030000 		.4byte	0x3a3
 1249 03ec 08       		.uleb128 0x8
 1250 03ed 1C       		.byte	0x1c
 1251 03ee 0A       		.byte	0xa
 1252 03ef 5E       		.byte	0x5e
 1253 03f0 3D040000 		.4byte	0x43d
 1254 03f4 06       		.uleb128 0x6
 1255 03f5 5A040000 		.4byte	.LASF61
 1256 03f9 0A       		.byte	0xa
 1257 03fa 5F       		.byte	0x5f
 1258 03fb 51020000 		.4byte	0x251
 1259 03ff 00       		.byte	0
 1260 0400 06       		.uleb128 0x6
 1261 0401 19040000 		.4byte	.LASF62
 1262 0405 0A       		.byte	0xa
 1263 0406 60       		.byte	0x60
 1264 0407 F6000000 		.4byte	0xf6
 1265 040b 08       		.byte	0x8
 1266 040c 06       		.uleb128 0x6
 1267 040d 22030000 		.4byte	.LASF63
 1268 0411 0A       		.byte	0xa
 1269 0412 62       		.byte	0x62
 1270 0413 05030000 		.4byte	0x305
 1271 0417 0C       		.byte	0xc
 1272 0418 06       		.uleb128 0x6
 1273 0419 1A020000 		.4byte	.LASF64
 1274 041d 0A       		.byte	0xa
 1275 041e 65       		.byte	0x65
 1276 041f 4B020000 		.4byte	0x24b
 1277 0423 10       		.byte	0x10
 1278 0424 06       		.uleb128 0x6
 1279 0425 60030000 		.4byte	.LASF65
 1280 0429 0A       		.byte	0xa
 1281 042a 66       		.byte	0x66
 1282 042b 4B020000 		.4byte	0x24b
 1283 042f 14       		.byte	0x14
 1284 0430 06       		.uleb128 0x6
 1285 0431 56030000 		.4byte	.LASF66
 1286 0435 0A       		.byte	0xa
 1287 0436 69       		.byte	0x69
 1288 0437 4B020000 		.4byte	0x24b
 1289 043b 18       		.byte	0x18
 1290 043c 00       		.byte	0
 1291 043d 03       		.uleb128 0x3
ARM GAS  /tmp/ccNJe4yq.s 			page 24


 1292 043e E4040000 		.4byte	.LASF67
 1293 0442 0A       		.byte	0xa
 1294 0443 6B       		.byte	0x6b
 1295 0444 EC030000 		.4byte	0x3ec
 1296 0448 05       		.uleb128 0x5
 1297 0449 42020000 		.4byte	.LASF68
 1298 044d 10       		.byte	0x10
 1299 044e 0B       		.byte	0xb
 1300 044f 2C       		.byte	0x2c
 1301 0450 79040000 		.4byte	0x479
 1302 0454 06       		.uleb128 0x6
 1303 0455 1F010000 		.4byte	.LASF69
 1304 0459 0B       		.byte	0xb
 1305 045a 2D       		.byte	0x2d
 1306 045b 51020000 		.4byte	0x251
 1307 045f 00       		.byte	0
 1308 0460 06       		.uleb128 0x6
 1309 0461 29050000 		.4byte	.LASF70
 1310 0465 0B       		.byte	0xb
 1311 0466 2F       		.byte	0x2f
 1312 0467 4B020000 		.4byte	0x24b
 1313 046b 08       		.byte	0x8
 1314 046c 06       		.uleb128 0x6
 1315 046d 8C040000 		.4byte	.LASF71
 1316 0471 0B       		.byte	0xb
 1317 0472 31       		.byte	0x31
 1318 0473 79040000 		.4byte	0x479
 1319 0477 0C       		.byte	0xc
 1320 0478 00       		.byte	0
 1321 0479 09       		.uleb128 0x9
 1322 047a 04       		.byte	0x4
 1323 047b 48040000 		.4byte	0x448
 1324 047f 03       		.uleb128 0x3
 1325 0480 42020000 		.4byte	.LASF68
 1326 0484 0B       		.byte	0xb
 1327 0485 33       		.byte	0x33
 1328 0486 48040000 		.4byte	0x448
 1329 048a 10       		.uleb128 0x10
 1330 048b 04       		.byte	0x4
 1331 048c 07       		.byte	0x7
 1332 048d 96       		.byte	0x96
 1333 048e BF040000 		.4byte	0x4bf
 1334 0492 11       		.uleb128 0x11
 1335 0493 1A000000 		.4byte	.LASF72
 1336 0497 07       		.byte	0x7
 1337 0498 9D       		.byte	0x9d
 1338 0499 01010000 		.4byte	0x101
 1339 049d 11       		.uleb128 0x11
 1340 049e E6000000 		.4byte	.LASF73
 1341 04a2 07       		.byte	0x7
 1342 04a3 A4       		.byte	0xa4
 1343 04a4 01010000 		.4byte	0x101
 1344 04a8 11       		.uleb128 0x11
 1345 04a9 FC040000 		.4byte	.LASF74
 1346 04ad 07       		.byte	0x7
 1347 04ae AB       		.byte	0xab
 1348 04af 87020000 		.4byte	0x287
ARM GAS  /tmp/ccNJe4yq.s 			page 25


 1349 04b3 11       		.uleb128 0x11
 1350 04b4 20040000 		.4byte	.LASF75
 1351 04b8 07       		.byte	0x7
 1352 04b9 B2       		.byte	0xb2
 1353 04ba 0C010000 		.4byte	0x10c
 1354 04be 00       		.byte	0
 1355 04bf 09       		.uleb128 0x9
 1356 04c0 04       		.byte	0x4
 1357 04c1 C5040000 		.4byte	0x4c5
 1358 04c5 12       		.uleb128 0x12
 1359 04c6 CA040000 		.4byte	0x4ca
 1360 04ca 04       		.uleb128 0x4
 1361 04cb 01       		.byte	0x1
 1362 04cc 08       		.byte	0x8
 1363 04cd 6F040000 		.4byte	.LASF76
 1364 04d1 09       		.uleb128 0x9
 1365 04d2 04       		.byte	0x4
 1366 04d3 7F040000 		.4byte	0x47f
 1367 04d7 03       		.uleb128 0x3
 1368 04d8 00000000 		.4byte	.LASF77
 1369 04dc 07       		.byte	0x7
 1370 04dd E5       		.byte	0xe5
 1371 04de E2040000 		.4byte	0x4e2
 1372 04e2 09       		.uleb128 0x9
 1373 04e3 04       		.byte	0x4
 1374 04e4 E8040000 		.4byte	0x4e8
 1375 04e8 13       		.uleb128 0x13
 1376 04e9 01010000 		.4byte	0x101
 1377 04ed F7040000 		.4byte	0x4f7
 1378 04f1 0E       		.uleb128 0xe
 1379 04f2 87020000 		.4byte	0x287
 1380 04f6 00       		.byte	0
 1381 04f7 05       		.uleb128 0x5
 1382 04f8 3D040000 		.4byte	.LASF78
 1383 04fc 10       		.byte	0x10
 1384 04fd 0C       		.byte	0xc
 1385 04fe 3B       		.byte	0x3b
 1386 04ff 34050000 		.4byte	0x534
 1387 0503 06       		.uleb128 0x6
 1388 0504 F4010000 		.4byte	.LASF79
 1389 0508 0C       		.byte	0xc
 1390 0509 3C       		.byte	0x3c
 1391 050a BF040000 		.4byte	0x4bf
 1392 050e 00       		.byte	0
 1393 050f 06       		.uleb128 0x6
 1394 0510 35030000 		.4byte	.LASF80
 1395 0514 0C       		.byte	0xc
 1396 0515 3D       		.byte	0x3d
 1397 0516 35050000 		.4byte	0x535
 1398 051a 04       		.byte	0x4
 1399 051b 06       		.uleb128 0x6
 1400 051c E2010000 		.4byte	.LASF81
 1401 0520 0C       		.byte	0xc
 1402 0521 3E       		.byte	0x3e
 1403 0522 35050000 		.4byte	0x535
 1404 0526 08       		.byte	0x8
 1405 0527 06       		.uleb128 0x6
ARM GAS  /tmp/ccNJe4yq.s 			page 26


 1406 0528 A9030000 		.4byte	.LASF82
 1407 052c 0C       		.byte	0xc
 1408 052d 3F       		.byte	0x3f
 1409 052e 35050000 		.4byte	0x535
 1410 0532 0C       		.byte	0xc
 1411 0533 00       		.byte	0
 1412 0534 14       		.uleb128 0x14
 1413 0535 09       		.uleb128 0x9
 1414 0536 04       		.byte	0x4
 1415 0537 34050000 		.4byte	0x534
 1416 053b 15       		.uleb128 0x15
 1417 053c 74040000 		.4byte	.LASF108
 1418 0540 01       		.byte	0x1
 1419 0541 BD       		.byte	0xbd
 1420 0542 01       		.byte	0x1
 1421 0543 53050000 		.4byte	0x553
 1422 0547 16       		.uleb128 0x16
 1423 0548 51030000 		.4byte	.LASF109
 1424 054c 01       		.byte	0x1
 1425 054d BE       		.byte	0xbe
 1426 054e 17010000 		.4byte	0x117
 1427 0552 00       		.byte	0
 1428 0553 17       		.uleb128 0x17
 1429 0554 AE010000 		.4byte	.LASF83
 1430 0558 01       		.byte	0x1
 1431 0559 42       		.byte	0x42
 1432 055a 00000000 		.4byte	.LFB8
 1433 055e DA000000 		.4byte	.LFE8-.LFB8
 1434 0562 01       		.uleb128 0x1
 1435 0563 9C       		.byte	0x9c
 1436 0564 66060000 		.4byte	0x666
 1437 0568 18       		.uleb128 0x18
 1438 0569 38000000 		.4byte	.LVL0
 1439 056d 610B0000 		.4byte	0xb61
 1440 0571 94050000 		.4byte	0x594
 1441 0575 19       		.uleb128 0x19
 1442 0576 01       		.uleb128 0x1
 1443 0577 53       		.byte	0x53
 1444 0578 02       		.uleb128 0x2
 1445 0579 75       		.byte	0x75
 1446 057a 00       		.sleb128 0
 1447 057b 19       		.uleb128 0x19
 1448 057c 01       		.uleb128 0x1
 1449 057d 51       		.byte	0x51
 1450 057e 03       		.uleb128 0x3
 1451 057f 0A       		.byte	0xa
 1452 0580 5001     		.2byte	0x150
 1453 0582 19       		.uleb128 0x19
 1454 0583 01       		.uleb128 0x1
 1455 0584 50       		.byte	0x50
 1456 0585 03       		.uleb128 0x3
 1457 0586 76       		.byte	0x76
 1458 0587 00       		.sleb128 0
 1459 0588 06       		.byte	0x6
 1460 0589 19       		.uleb128 0x19
 1461 058a 02       		.uleb128 0x2
 1462 058b 7D       		.byte	0x7d
ARM GAS  /tmp/ccNJe4yq.s 			page 27


 1463 058c 00       		.sleb128 0
 1464 058d 05       		.uleb128 0x5
 1465 058e 03       		.byte	0x3
 1466 058f 00000000 		.4byte	.LC0
 1467 0593 00       		.byte	0
 1468 0594 18       		.uleb128 0x18
 1469 0595 60000000 		.4byte	.LVL1
 1470 0599 610B0000 		.4byte	0xb61
 1471 059d C0050000 		.4byte	0x5c0
 1472 05a1 19       		.uleb128 0x19
 1473 05a2 01       		.uleb128 0x1
 1474 05a3 53       		.byte	0x53
 1475 05a4 02       		.uleb128 0x2
 1476 05a5 75       		.byte	0x75
 1477 05a6 00       		.sleb128 0
 1478 05a7 19       		.uleb128 0x19
 1479 05a8 01       		.uleb128 0x1
 1480 05a9 51       		.byte	0x51
 1481 05aa 03       		.uleb128 0x3
 1482 05ab 0A       		.byte	0xa
 1483 05ac 5001     		.2byte	0x150
 1484 05ae 19       		.uleb128 0x19
 1485 05af 01       		.uleb128 0x1
 1486 05b0 50       		.byte	0x50
 1487 05b1 03       		.uleb128 0x3
 1488 05b2 76       		.byte	0x76
 1489 05b3 04       		.sleb128 4
 1490 05b4 06       		.byte	0x6
 1491 05b5 19       		.uleb128 0x19
 1492 05b6 02       		.uleb128 0x2
 1493 05b7 7D       		.byte	0x7d
 1494 05b8 00       		.sleb128 0
 1495 05b9 05       		.uleb128 0x5
 1496 05ba 03       		.byte	0x3
 1497 05bb 04000000 		.4byte	.LC1
 1498 05bf 00       		.byte	0
 1499 05c0 18       		.uleb128 0x18
 1500 05c1 80000000 		.4byte	.LVL2
 1501 05c5 610B0000 		.4byte	0xb61
 1502 05c9 EC050000 		.4byte	0x5ec
 1503 05cd 19       		.uleb128 0x19
 1504 05ce 01       		.uleb128 0x1
 1505 05cf 53       		.byte	0x53
 1506 05d0 02       		.uleb128 0x2
 1507 05d1 75       		.byte	0x75
 1508 05d2 00       		.sleb128 0
 1509 05d3 19       		.uleb128 0x19
 1510 05d4 01       		.uleb128 0x1
 1511 05d5 51       		.byte	0x51
 1512 05d6 03       		.uleb128 0x3
 1513 05d7 0A       		.byte	0xa
 1514 05d8 5001     		.2byte	0x150
 1515 05da 19       		.uleb128 0x19
 1516 05db 01       		.uleb128 0x1
 1517 05dc 50       		.byte	0x50
 1518 05dd 03       		.uleb128 0x3
 1519 05de 76       		.byte	0x76
ARM GAS  /tmp/ccNJe4yq.s 			page 28


 1520 05df 08       		.sleb128 8
 1521 05e0 06       		.byte	0x6
 1522 05e1 19       		.uleb128 0x19
 1523 05e2 02       		.uleb128 0x2
 1524 05e3 7D       		.byte	0x7d
 1525 05e4 00       		.sleb128 0
 1526 05e5 05       		.uleb128 0x5
 1527 05e6 03       		.byte	0x3
 1528 05e7 08000000 		.4byte	.LC2
 1529 05eb 00       		.byte	0
 1530 05ec 18       		.uleb128 0x18
 1531 05ed A0000000 		.4byte	.LVL3
 1532 05f1 610B0000 		.4byte	0xb61
 1533 05f5 18060000 		.4byte	0x618
 1534 05f9 19       		.uleb128 0x19
 1535 05fa 01       		.uleb128 0x1
 1536 05fb 53       		.byte	0x53
 1537 05fc 02       		.uleb128 0x2
 1538 05fd 75       		.byte	0x75
 1539 05fe 00       		.sleb128 0
 1540 05ff 19       		.uleb128 0x19
 1541 0600 01       		.uleb128 0x1
 1542 0601 51       		.byte	0x51
 1543 0602 03       		.uleb128 0x3
 1544 0603 0A       		.byte	0xa
 1545 0604 5001     		.2byte	0x150
 1546 0606 19       		.uleb128 0x19
 1547 0607 01       		.uleb128 0x1
 1548 0608 50       		.byte	0x50
 1549 0609 03       		.uleb128 0x3
 1550 060a 76       		.byte	0x76
 1551 060b 0C       		.sleb128 12
 1552 060c 06       		.byte	0x6
 1553 060d 19       		.uleb128 0x19
 1554 060e 02       		.uleb128 0x2
 1555 060f 7D       		.byte	0x7d
 1556 0610 00       		.sleb128 0
 1557 0611 05       		.uleb128 0x5
 1558 0612 03       		.byte	0x3
 1559 0613 0C000000 		.4byte	.LC3
 1560 0617 00       		.byte	0
 1561 0618 18       		.uleb128 0x18
 1562 0619 C0000000 		.4byte	.LVL4
 1563 061d 610B0000 		.4byte	0xb61
 1564 0621 44060000 		.4byte	0x644
 1565 0625 19       		.uleb128 0x19
 1566 0626 01       		.uleb128 0x1
 1567 0627 53       		.byte	0x53
 1568 0628 02       		.uleb128 0x2
 1569 0629 75       		.byte	0x75
 1570 062a 00       		.sleb128 0
 1571 062b 19       		.uleb128 0x19
 1572 062c 01       		.uleb128 0x1
 1573 062d 51       		.byte	0x51
 1574 062e 03       		.uleb128 0x3
 1575 062f 0A       		.byte	0xa
 1576 0630 5001     		.2byte	0x150
ARM GAS  /tmp/ccNJe4yq.s 			page 29


 1577 0632 19       		.uleb128 0x19
 1578 0633 01       		.uleb128 0x1
 1579 0634 50       		.byte	0x50
 1580 0635 03       		.uleb128 0x3
 1581 0636 76       		.byte	0x76
 1582 0637 10       		.sleb128 16
 1583 0638 06       		.byte	0x6
 1584 0639 19       		.uleb128 0x19
 1585 063a 02       		.uleb128 0x2
 1586 063b 7D       		.byte	0x7d
 1587 063c 00       		.sleb128 0
 1588 063d 05       		.uleb128 0x5
 1589 063e 03       		.byte	0x3
 1590 063f 10000000 		.4byte	.LC4
 1591 0643 00       		.byte	0
 1592 0644 1A       		.uleb128 0x1a
 1593 0645 C6000000 		.4byte	.LVL5
 1594 0649 8B0B0000 		.4byte	0xb8b
 1595 064d 1B       		.uleb128 0x1b
 1596 064e DA000000 		.4byte	.LVL6
 1597 0652 920B0000 		.4byte	0xb92
 1598 0656 19       		.uleb128 0x19
 1599 0657 01       		.uleb128 0x1
 1600 0658 51       		.byte	0x51
 1601 0659 05       		.uleb128 0x5
 1602 065a 03       		.byte	0x3
 1603 065b 14000000 		.4byte	.LC5
 1604 065f 19       		.uleb128 0x19
 1605 0660 01       		.uleb128 0x1
 1606 0661 50       		.byte	0x50
 1607 0662 01       		.uleb128 0x1
 1608 0663 31       		.byte	0x31
 1609 0664 00       		.byte	0
 1610 0665 00       		.byte	0
 1611 0666 1C       		.uleb128 0x1c
 1612 0667 B9030000 		.4byte	.LASF110
 1613 066b 01       		.byte	0x1
 1614 066c 3C       		.byte	0x3c
 1615 066d 01010000 		.4byte	0x101
 1616 0671 00000000 		.4byte	.LFB7
 1617 0675 0C000000 		.4byte	.LFE7-.LFB7
 1618 0679 01       		.uleb128 0x1
 1619 067a 9C       		.byte	0x9c
 1620 067b 96060000 		.4byte	0x696
 1621 067f 1D       		.uleb128 0x1d
 1622 0680 7000     		.ascii	"p\000"
 1623 0682 01       		.byte	0x1
 1624 0683 3C       		.byte	0x3c
 1625 0684 87020000 		.4byte	0x287
 1626 0688 00000000 		.4byte	.LLST0
 1627 068c 1A       		.uleb128 0x1a
 1628 068d 08000000 		.4byte	.LVL9
 1629 0691 B20B0000 		.4byte	0xbb2
 1630 0695 00       		.byte	0
 1631 0696 17       		.uleb128 0x17
 1632 0697 A0020000 		.4byte	.LASF84
 1633 069b 01       		.byte	0x1
ARM GAS  /tmp/ccNJe4yq.s 			page 30


 1634 069c 5E       		.byte	0x5e
 1635 069d 00000000 		.4byte	.LFB9
 1636 06a1 10010000 		.4byte	.LFE9-.LFB9
 1637 06a5 01       		.uleb128 0x1
 1638 06a6 9C       		.byte	0x9c
 1639 06a7 E0070000 		.4byte	0x7e0
 1640 06ab 1E       		.uleb128 0x1e
 1641 06ac 00000000 		.4byte	.Ldebug_ranges0+0
 1642 06b0 C2060000 		.4byte	0x6c2
 1643 06b4 1F       		.uleb128 0x1f
 1644 06b5 746D7000 		.ascii	"tmp\000"
 1645 06b9 01       		.byte	0x1
 1646 06ba 65       		.byte	0x65
 1647 06bb AD000000 		.4byte	0xad
 1648 06bf 01       		.uleb128 0x1
 1649 06c0 53       		.byte	0x53
 1650 06c1 00       		.byte	0
 1651 06c2 1E       		.uleb128 0x1e
 1652 06c3 18000000 		.4byte	.Ldebug_ranges0+0x18
 1653 06c7 D9060000 		.4byte	0x6d9
 1654 06cb 1F       		.uleb128 0x1f
 1655 06cc 746D7000 		.ascii	"tmp\000"
 1656 06d0 01       		.byte	0x1
 1657 06d1 67       		.byte	0x67
 1658 06d2 AD000000 		.4byte	0xad
 1659 06d6 01       		.uleb128 0x1
 1660 06d7 53       		.byte	0x53
 1661 06d8 00       		.byte	0
 1662 06d9 18       		.uleb128 0x18
 1663 06da 38000000 		.4byte	.LVL10
 1664 06de 610B0000 		.4byte	0xb61
 1665 06e2 05070000 		.4byte	0x705
 1666 06e6 19       		.uleb128 0x19
 1667 06e7 01       		.uleb128 0x1
 1668 06e8 53       		.byte	0x53
 1669 06e9 02       		.uleb128 0x2
 1670 06ea 75       		.byte	0x75
 1671 06eb 00       		.sleb128 0
 1672 06ec 19       		.uleb128 0x19
 1673 06ed 01       		.uleb128 0x1
 1674 06ee 51       		.byte	0x51
 1675 06ef 03       		.uleb128 0x3
 1676 06f0 0A       		.byte	0xa
 1677 06f1 5001     		.2byte	0x150
 1678 06f3 19       		.uleb128 0x19
 1679 06f4 01       		.uleb128 0x1
 1680 06f5 50       		.byte	0x50
 1681 06f6 03       		.uleb128 0x3
 1682 06f7 76       		.byte	0x76
 1683 06f8 04       		.sleb128 4
 1684 06f9 06       		.byte	0x6
 1685 06fa 19       		.uleb128 0x19
 1686 06fb 02       		.uleb128 0x2
 1687 06fc 7D       		.byte	0x7d
 1688 06fd 00       		.sleb128 0
 1689 06fe 05       		.uleb128 0x5
 1690 06ff 03       		.byte	0x3
ARM GAS  /tmp/ccNJe4yq.s 			page 31


 1691 0700 04000000 		.4byte	.LC1
 1692 0704 00       		.byte	0
 1693 0705 18       		.uleb128 0x18
 1694 0706 60000000 		.4byte	.LVL11
 1695 070a 610B0000 		.4byte	0xb61
 1696 070e 31070000 		.4byte	0x731
 1697 0712 19       		.uleb128 0x19
 1698 0713 01       		.uleb128 0x1
 1699 0714 53       		.byte	0x53
 1700 0715 02       		.uleb128 0x2
 1701 0716 75       		.byte	0x75
 1702 0717 00       		.sleb128 0
 1703 0718 19       		.uleb128 0x19
 1704 0719 01       		.uleb128 0x1
 1705 071a 51       		.byte	0x51
 1706 071b 03       		.uleb128 0x3
 1707 071c 0A       		.byte	0xa
 1708 071d 5001     		.2byte	0x150
 1709 071f 19       		.uleb128 0x19
 1710 0720 01       		.uleb128 0x1
 1711 0721 50       		.byte	0x50
 1712 0722 03       		.uleb128 0x3
 1713 0723 76       		.byte	0x76
 1714 0724 00       		.sleb128 0
 1715 0725 06       		.byte	0x6
 1716 0726 19       		.uleb128 0x19
 1717 0727 02       		.uleb128 0x2
 1718 0728 7D       		.byte	0x7d
 1719 0729 00       		.sleb128 0
 1720 072a 05       		.uleb128 0x5
 1721 072b 03       		.byte	0x3
 1722 072c 00000000 		.4byte	.LC0
 1723 0730 00       		.byte	0
 1724 0731 18       		.uleb128 0x18
 1725 0732 80000000 		.4byte	.LVL12
 1726 0736 610B0000 		.4byte	0xb61
 1727 073a 5D070000 		.4byte	0x75d
 1728 073e 19       		.uleb128 0x19
 1729 073f 01       		.uleb128 0x1
 1730 0740 53       		.byte	0x53
 1731 0741 02       		.uleb128 0x2
 1732 0742 75       		.byte	0x75
 1733 0743 00       		.sleb128 0
 1734 0744 19       		.uleb128 0x19
 1735 0745 01       		.uleb128 0x1
 1736 0746 51       		.byte	0x51
 1737 0747 03       		.uleb128 0x3
 1738 0748 0A       		.byte	0xa
 1739 0749 5001     		.2byte	0x150
 1740 074b 19       		.uleb128 0x19
 1741 074c 01       		.uleb128 0x1
 1742 074d 50       		.byte	0x50
 1743 074e 03       		.uleb128 0x3
 1744 074f 76       		.byte	0x76
 1745 0750 10       		.sleb128 16
 1746 0751 06       		.byte	0x6
 1747 0752 19       		.uleb128 0x19
ARM GAS  /tmp/ccNJe4yq.s 			page 32


 1748 0753 02       		.uleb128 0x2
 1749 0754 7D       		.byte	0x7d
 1750 0755 00       		.sleb128 0
 1751 0756 05       		.uleb128 0x5
 1752 0757 03       		.byte	0x3
 1753 0758 10000000 		.4byte	.LC4
 1754 075c 00       		.byte	0
 1755 075d 18       		.uleb128 0x18
 1756 075e A0000000 		.4byte	.LVL13
 1757 0762 610B0000 		.4byte	0xb61
 1758 0766 89070000 		.4byte	0x789
 1759 076a 19       		.uleb128 0x19
 1760 076b 01       		.uleb128 0x1
 1761 076c 53       		.byte	0x53
 1762 076d 02       		.uleb128 0x2
 1763 076e 75       		.byte	0x75
 1764 076f 00       		.sleb128 0
 1765 0770 19       		.uleb128 0x19
 1766 0771 01       		.uleb128 0x1
 1767 0772 51       		.byte	0x51
 1768 0773 03       		.uleb128 0x3
 1769 0774 0A       		.byte	0xa
 1770 0775 5001     		.2byte	0x150
 1771 0777 19       		.uleb128 0x19
 1772 0778 01       		.uleb128 0x1
 1773 0779 50       		.byte	0x50
 1774 077a 03       		.uleb128 0x3
 1775 077b 76       		.byte	0x76
 1776 077c 0C       		.sleb128 12
 1777 077d 06       		.byte	0x6
 1778 077e 19       		.uleb128 0x19
 1779 077f 02       		.uleb128 0x2
 1780 0780 7D       		.byte	0x7d
 1781 0781 00       		.sleb128 0
 1782 0782 05       		.uleb128 0x5
 1783 0783 03       		.byte	0x3
 1784 0784 0C000000 		.4byte	.LC3
 1785 0788 00       		.byte	0
 1786 0789 18       		.uleb128 0x18
 1787 078a DA000000 		.4byte	.LVL14
 1788 078e C30B0000 		.4byte	0xbc3
 1789 0792 B5070000 		.4byte	0x7b5
 1790 0796 19       		.uleb128 0x19
 1791 0797 01       		.uleb128 0x1
 1792 0798 53       		.byte	0x53
 1793 0799 02       		.uleb128 0x2
 1794 079a 75       		.byte	0x75
 1795 079b 00       		.sleb128 0
 1796 079c 19       		.uleb128 0x19
 1797 079d 01       		.uleb128 0x1
 1798 079e 51       		.byte	0x51
 1799 079f 03       		.uleb128 0x3
 1800 07a0 0A       		.byte	0xa
 1801 07a1 5001     		.2byte	0x150
 1802 07a3 19       		.uleb128 0x19
 1803 07a4 01       		.uleb128 0x1
 1804 07a5 50       		.byte	0x50
ARM GAS  /tmp/ccNJe4yq.s 			page 33


 1805 07a6 03       		.uleb128 0x3
 1806 07a7 76       		.byte	0x76
 1807 07a8 08       		.sleb128 8
 1808 07a9 06       		.byte	0x6
 1809 07aa 19       		.uleb128 0x19
 1810 07ab 02       		.uleb128 0x2
 1811 07ac 7D       		.byte	0x7d
 1812 07ad 00       		.sleb128 0
 1813 07ae 05       		.uleb128 0x5
 1814 07af 03       		.byte	0x3
 1815 07b0 08000000 		.4byte	.LC2
 1816 07b4 00       		.byte	0
 1817 07b5 1A       		.uleb128 0x1a
 1818 07b6 F8000000 		.4byte	.LVL15
 1819 07ba ED0B0000 		.4byte	0xbed
 1820 07be 1A       		.uleb128 0x1a
 1821 07bf FC000000 		.4byte	.LVL16
 1822 07c3 8B0B0000 		.4byte	0xb8b
 1823 07c7 1B       		.uleb128 0x1b
 1824 07c8 10010000 		.4byte	.LVL17
 1825 07cc 920B0000 		.4byte	0xb92
 1826 07d0 19       		.uleb128 0x19
 1827 07d1 01       		.uleb128 0x1
 1828 07d2 51       		.byte	0x51
 1829 07d3 05       		.uleb128 0x5
 1830 07d4 03       		.byte	0x3
 1831 07d5 14000000 		.4byte	.LC5
 1832 07d9 19       		.uleb128 0x19
 1833 07da 01       		.uleb128 0x1
 1834 07db 50       		.byte	0x50
 1835 07dc 01       		.uleb128 0x1
 1836 07dd 31       		.byte	0x31
 1837 07de 00       		.byte	0
 1838 07df 00       		.byte	0
 1839 07e0 17       		.uleb128 0x17
 1840 07e1 95030000 		.4byte	.LASF85
 1841 07e5 01       		.byte	0x1
 1842 07e6 7E       		.byte	0x7e
 1843 07e7 00000000 		.4byte	.LFB10
 1844 07eb 44010000 		.4byte	.LFE10-.LFB10
 1845 07ef 01       		.uleb128 0x1
 1846 07f0 9C       		.byte	0x9c
 1847 07f1 A9090000 		.4byte	0x9a9
 1848 07f5 20       		.uleb128 0x20
 1849 07f6 15000000 		.4byte	.LASF86
 1850 07fa 01       		.byte	0x1
 1851 07fb 7F       		.byte	0x7f
 1852 07fc F6000000 		.4byte	0xf6
 1853 0800 01       		.uleb128 0x1
 1854 0801 55       		.byte	0x55
 1855 0802 21       		.uleb128 0x21
 1856 0803 703100   		.ascii	"p1\000"
 1857 0806 01       		.byte	0x1
 1858 0807 7F       		.byte	0x7f
 1859 0808 F6000000 		.4byte	0xf6
 1860 080c 21000000 		.4byte	.LLST1
 1861 0810 22       		.uleb128 0x22
ARM GAS  /tmp/ccNJe4yq.s 			page 34


 1862 0811 72000000 		.4byte	.LBB6
 1863 0815 06000000 		.4byte	.LBE6-.LBB6
 1864 0819 2B080000 		.4byte	0x82b
 1865 081d 1F       		.uleb128 0x1f
 1866 081e 746D7000 		.ascii	"tmp\000"
 1867 0822 01       		.byte	0x1
 1868 0823 8F       		.byte	0x8f
 1869 0824 AD000000 		.4byte	0xad
 1870 0828 01       		.uleb128 0x1
 1871 0829 53       		.byte	0x53
 1872 082a 00       		.byte	0
 1873 082b 22       		.uleb128 0x22
 1874 082c 80000000 		.4byte	.LBB7
 1875 0830 06000000 		.4byte	.LBE7-.LBB7
 1876 0834 46080000 		.4byte	0x846
 1877 0838 1F       		.uleb128 0x1f
 1878 0839 746D7000 		.ascii	"tmp\000"
 1879 083d 01       		.byte	0x1
 1880 083e 91       		.byte	0x91
 1881 083f AD000000 		.4byte	0xad
 1882 0843 01       		.uleb128 0x1
 1883 0844 53       		.byte	0x53
 1884 0845 00       		.byte	0
 1885 0846 22       		.uleb128 0x22
 1886 0847 30010000 		.4byte	.LBB8
 1887 084b 06000000 		.4byte	.LBE8-.LBB8
 1888 084f 61080000 		.4byte	0x861
 1889 0853 1F       		.uleb128 0x1f
 1890 0854 746D7000 		.ascii	"tmp\000"
 1891 0858 01       		.byte	0x1
 1892 0859 A7       		.byte	0xa7
 1893 085a AD000000 		.4byte	0xad
 1894 085e 01       		.uleb128 0x1
 1895 085f 53       		.byte	0x53
 1896 0860 00       		.byte	0
 1897 0861 1E       		.uleb128 0x1e
 1898 0862 30000000 		.4byte	.Ldebug_ranges0+0x30
 1899 0866 78080000 		.4byte	0x878
 1900 086a 1F       		.uleb128 0x1f
 1901 086b 746D7000 		.ascii	"tmp\000"
 1902 086f 01       		.byte	0x1
 1903 0870 AA       		.byte	0xaa
 1904 0871 AD000000 		.4byte	0xad
 1905 0875 01       		.uleb128 0x1
 1906 0876 53       		.byte	0x53
 1907 0877 00       		.byte	0
 1908 0878 18       		.uleb128 0x18
 1909 0879 16000000 		.4byte	.LVL19
 1910 087d 030C0000 		.4byte	0xc03
 1911 0881 8C080000 		.4byte	0x88c
 1912 0885 19       		.uleb128 0x19
 1913 0886 01       		.uleb128 0x1
 1914 0887 50       		.byte	0x50
 1915 0888 02       		.uleb128 0x2
 1916 0889 76       		.byte	0x76
 1917 088a 00       		.sleb128 0
 1918 088b 00       		.byte	0
ARM GAS  /tmp/ccNJe4yq.s 			page 35


 1919 088c 18       		.uleb128 0x18
 1920 088d 2A000000 		.4byte	.LVL22
 1921 0891 190C0000 		.4byte	0xc19
 1922 0895 AA080000 		.4byte	0x8aa
 1923 0899 19       		.uleb128 0x19
 1924 089a 01       		.uleb128 0x1
 1925 089b 51       		.byte	0x51
 1926 089c 07       		.uleb128 0x7
 1927 089d 77       		.byte	0x77
 1928 089e 00       		.sleb128 0
 1929 089f 75       		.byte	0x75
 1930 08a0 00       		.sleb128 0
 1931 08a1 1C       		.byte	0x1c
 1932 08a2 30       		.byte	0x30
 1933 08a3 29       		.byte	0x29
 1934 08a4 19       		.uleb128 0x19
 1935 08a5 01       		.uleb128 0x1
 1936 08a6 50       		.byte	0x50
 1937 08a7 01       		.uleb128 0x1
 1938 08a8 31       		.byte	0x31
 1939 08a9 00       		.byte	0
 1940 08aa 18       		.uleb128 0x18
 1941 08ab 44000000 		.4byte	.LVL25
 1942 08af 190C0000 		.4byte	0xc19
 1943 08b3 BD080000 		.4byte	0x8bd
 1944 08b7 19       		.uleb128 0x19
 1945 08b8 01       		.uleb128 0x1
 1946 08b9 50       		.byte	0x50
 1947 08ba 01       		.uleb128 0x1
 1948 08bb 32       		.byte	0x32
 1949 08bc 00       		.byte	0
 1950 08bd 18       		.uleb128 0x18
 1951 08be 4E000000 		.4byte	.LVL26
 1952 08c2 030C0000 		.4byte	0xc03
 1953 08c6 D1080000 		.4byte	0x8d1
 1954 08ca 19       		.uleb128 0x19
 1955 08cb 01       		.uleb128 0x1
 1956 08cc 50       		.byte	0x50
 1957 08cd 02       		.uleb128 0x2
 1958 08ce 77       		.byte	0x77
 1959 08cf 00       		.sleb128 0
 1960 08d0 00       		.byte	0
 1961 08d1 18       		.uleb128 0x18
 1962 08d2 5A000000 		.4byte	.LVL28
 1963 08d6 190C0000 		.4byte	0xc19
 1964 08da E4080000 		.4byte	0x8e4
 1965 08de 19       		.uleb128 0x19
 1966 08df 01       		.uleb128 0x1
 1967 08e0 50       		.byte	0x50
 1968 08e1 01       		.uleb128 0x1
 1969 08e2 33       		.byte	0x33
 1970 08e3 00       		.byte	0
 1971 08e4 18       		.uleb128 0x18
 1972 08e5 6E000000 		.4byte	.LVL29
 1973 08e9 190C0000 		.4byte	0xc19
 1974 08ed F7080000 		.4byte	0x8f7
 1975 08f1 19       		.uleb128 0x19
ARM GAS  /tmp/ccNJe4yq.s 			page 36


 1976 08f2 01       		.uleb128 0x1
 1977 08f3 50       		.byte	0x50
 1978 08f4 01       		.uleb128 0x1
 1979 08f5 34       		.byte	0x34
 1980 08f6 00       		.byte	0
 1981 08f7 18       		.uleb128 0x18
 1982 08f8 A0000000 		.4byte	.LVL30
 1983 08fc 190C0000 		.4byte	0xc19
 1984 0900 0A090000 		.4byte	0x90a
 1985 0904 19       		.uleb128 0x19
 1986 0905 01       		.uleb128 0x1
 1987 0906 50       		.byte	0x50
 1988 0907 01       		.uleb128 0x1
 1989 0908 35       		.byte	0x35
 1990 0909 00       		.byte	0
 1991 090a 18       		.uleb128 0x18
 1992 090b AA000000 		.4byte	.LVL31
 1993 090f 030C0000 		.4byte	0xc03
 1994 0913 1E090000 		.4byte	0x91e
 1995 0917 19       		.uleb128 0x19
 1996 0918 01       		.uleb128 0x1
 1997 0919 50       		.byte	0x50
 1998 091a 02       		.uleb128 0x2
 1999 091b 76       		.byte	0x76
 2000 091c 00       		.sleb128 0
 2001 091d 00       		.byte	0
 2002 091e 18       		.uleb128 0x18
 2003 091f BC000000 		.4byte	.LVL33
 2004 0923 190C0000 		.4byte	0xc19
 2005 0927 31090000 		.4byte	0x931
 2006 092b 19       		.uleb128 0x19
 2007 092c 01       		.uleb128 0x1
 2008 092d 50       		.byte	0x50
 2009 092e 01       		.uleb128 0x1
 2010 092f 36       		.byte	0x36
 2011 0930 00       		.byte	0
 2012 0931 18       		.uleb128 0x18
 2013 0932 D6000000 		.4byte	.LVL34
 2014 0936 190C0000 		.4byte	0xc19
 2015 093a 44090000 		.4byte	0x944
 2016 093e 19       		.uleb128 0x19
 2017 093f 01       		.uleb128 0x1
 2018 0940 50       		.byte	0x50
 2019 0941 01       		.uleb128 0x1
 2020 0942 37       		.byte	0x37
 2021 0943 00       		.byte	0
 2022 0944 18       		.uleb128 0x18
 2023 0945 EA000000 		.4byte	.LVL35
 2024 0949 190C0000 		.4byte	0xc19
 2025 094d 5F090000 		.4byte	0x95f
 2026 0951 19       		.uleb128 0x19
 2027 0952 01       		.uleb128 0x1
 2028 0953 51       		.byte	0x51
 2029 0954 04       		.uleb128 0x4
 2030 0955 77       		.byte	0x77
 2031 0956 00       		.sleb128 0
 2032 0957 30       		.byte	0x30
ARM GAS  /tmp/ccNJe4yq.s 			page 37


 2033 0958 29       		.byte	0x29
 2034 0959 19       		.uleb128 0x19
 2035 095a 01       		.uleb128 0x1
 2036 095b 50       		.byte	0x50
 2037 095c 01       		.uleb128 0x1
 2038 095d 38       		.byte	0x38
 2039 095e 00       		.byte	0
 2040 095f 18       		.uleb128 0x18
 2041 0960 F6000000 		.4byte	.LVL36
 2042 0964 030C0000 		.4byte	0xc03
 2043 0968 73090000 		.4byte	0x973
 2044 096c 19       		.uleb128 0x19
 2045 096d 01       		.uleb128 0x1
 2046 096e 50       		.byte	0x50
 2047 096f 02       		.uleb128 0x2
 2048 0970 77       		.byte	0x77
 2049 0971 00       		.sleb128 0
 2050 0972 00       		.byte	0
 2051 0973 18       		.uleb128 0x18
 2052 0974 02010000 		.4byte	.LVL38
 2053 0978 190C0000 		.4byte	0xc19
 2054 097c 86090000 		.4byte	0x986
 2055 0980 19       		.uleb128 0x19
 2056 0981 01       		.uleb128 0x1
 2057 0982 50       		.byte	0x50
 2058 0983 01       		.uleb128 0x1
 2059 0984 39       		.byte	0x39
 2060 0985 00       		.byte	0
 2061 0986 18       		.uleb128 0x18
 2062 0987 16010000 		.4byte	.LVL39
 2063 098b 190C0000 		.4byte	0xc19
 2064 098f 99090000 		.4byte	0x999
 2065 0993 19       		.uleb128 0x19
 2066 0994 01       		.uleb128 0x1
 2067 0995 50       		.byte	0x50
 2068 0996 01       		.uleb128 0x1
 2069 0997 3A       		.byte	0x3a
 2070 0998 00       		.byte	0
 2071 0999 23       		.uleb128 0x23
 2072 099a 2A010000 		.4byte	.LVL40
 2073 099e 190C0000 		.4byte	0xc19
 2074 09a2 19       		.uleb128 0x19
 2075 09a3 01       		.uleb128 0x1
 2076 09a4 50       		.byte	0x50
 2077 09a5 01       		.uleb128 0x1
 2078 09a6 3B       		.byte	0x3b
 2079 09a7 00       		.byte	0
 2080 09a8 00       		.byte	0
 2081 09a9 24       		.uleb128 0x24
 2082 09aa 3B050000 		.4byte	0x53b
 2083 09ae 00000000 		.4byte	.LFB11
 2084 09b2 7A000000 		.4byte	.LFE11-.LFB11
 2085 09b6 01       		.uleb128 0x1
 2086 09b7 9C       		.byte	0x9c
 2087 09b8 A10A0000 		.4byte	0xaa1
 2088 09bc 25       		.uleb128 0x25
 2089 09bd 47050000 		.4byte	0x547
ARM GAS  /tmp/ccNJe4yq.s 			page 38


 2090 09c1 6B000000 		.4byte	.LLST2
 2091 09c5 1E       		.uleb128 0x1e
 2092 09c6 48000000 		.4byte	.Ldebug_ranges0+0x48
 2093 09ca 310A0000 		.4byte	0xa31
 2094 09ce 25       		.uleb128 0x25
 2095 09cf 47050000 		.4byte	0x547
 2096 09d3 89000000 		.4byte	.LLST3
 2097 09d7 18       		.uleb128 0x18
 2098 09d8 4C000000 		.4byte	.LVL51
 2099 09dc 330C0000 		.4byte	0xc33
 2100 09e0 EC090000 		.4byte	0x9ec
 2101 09e4 19       		.uleb128 0x19
 2102 09e5 01       		.uleb128 0x1
 2103 09e6 50       		.byte	0x50
 2104 09e7 03       		.uleb128 0x3
 2105 09e8 0A       		.byte	0xa
 2106 09e9 E803     		.2byte	0x3e8
 2107 09eb 00       		.byte	0
 2108 09ec 18       		.uleb128 0x18
 2109 09ed 5A000000 		.4byte	.LVL52
 2110 09f1 450C0000 		.4byte	0xc45
 2111 09f5 0D0A0000 		.4byte	0xa0d
 2112 09f9 19       		.uleb128 0x19
 2113 09fa 01       		.uleb128 0x1
 2114 09fb 52       		.byte	0x52
 2115 09fc 03       		.uleb128 0x3
 2116 09fd 75       		.byte	0x75
 2117 09fe E907     		.sleb128 1001
 2118 0a00 19       		.uleb128 0x19
 2119 0a01 01       		.uleb128 0x1
 2120 0a02 51       		.byte	0x51
 2121 0a03 03       		.uleb128 0x3
 2122 0a04 75       		.byte	0x75
 2123 0a05 E807     		.sleb128 1000
 2124 0a07 19       		.uleb128 0x19
 2125 0a08 01       		.uleb128 0x1
 2126 0a09 50       		.byte	0x50
 2127 0a0a 01       		.uleb128 0x1
 2128 0a0b 33       		.byte	0x33
 2129 0a0c 00       		.byte	0
 2130 0a0d 18       		.uleb128 0x18
 2131 0a0e 6A000000 		.4byte	.LVL54
 2132 0a12 640C0000 		.4byte	0xc64
 2133 0a16 210A0000 		.4byte	0xa21
 2134 0a1a 19       		.uleb128 0x19
 2135 0a1b 01       		.uleb128 0x1
 2136 0a1c 50       		.byte	0x50
 2137 0a1d 02       		.uleb128 0x2
 2138 0a1e 75       		.byte	0x75
 2139 0a1f 00       		.sleb128 0
 2140 0a20 00       		.byte	0
 2141 0a21 1B       		.uleb128 0x1b
 2142 0a22 7A000000 		.4byte	.LVL56
 2143 0a26 450C0000 		.4byte	0xc45
 2144 0a2a 19       		.uleb128 0x19
 2145 0a2b 01       		.uleb128 0x1
 2146 0a2c 50       		.byte	0x50
ARM GAS  /tmp/ccNJe4yq.s 			page 39


 2147 0a2d 01       		.uleb128 0x1
 2148 0a2e 34       		.byte	0x34
 2149 0a2f 00       		.byte	0
 2150 0a30 00       		.byte	0
 2151 0a31 1A       		.uleb128 0x1a
 2152 0a32 0E000000 		.4byte	.LVL41
 2153 0a36 760C0000 		.4byte	0xc76
 2154 0a3a 18       		.uleb128 0x18
 2155 0a3b 16000000 		.4byte	.LVL43
 2156 0a3f 330C0000 		.4byte	0xc33
 2157 0a43 4E0A0000 		.4byte	0xa4e
 2158 0a47 19       		.uleb128 0x19
 2159 0a48 01       		.uleb128 0x1
 2160 0a49 50       		.byte	0x50
 2161 0a4a 02       		.uleb128 0x2
 2162 0a4b 08       		.byte	0x8
 2163 0a4c 64       		.byte	0x64
 2164 0a4d 00       		.byte	0
 2165 0a4e 18       		.uleb128 0x18
 2166 0a4f 24000000 		.4byte	.LVL44
 2167 0a53 450C0000 		.4byte	0xc45
 2168 0a57 6F0A0000 		.4byte	0xa6f
 2169 0a5b 19       		.uleb128 0x19
 2170 0a5c 01       		.uleb128 0x1
 2171 0a5d 52       		.byte	0x52
 2172 0a5e 03       		.uleb128 0x3
 2173 0a5f 75       		.byte	0x75
 2174 0a60 E500     		.sleb128 101
 2175 0a62 19       		.uleb128 0x19
 2176 0a63 01       		.uleb128 0x1
 2177 0a64 51       		.byte	0x51
 2178 0a65 03       		.uleb128 0x3
 2179 0a66 75       		.byte	0x75
 2180 0a67 E400     		.sleb128 100
 2181 0a69 19       		.uleb128 0x19
 2182 0a6a 01       		.uleb128 0x1
 2183 0a6b 50       		.byte	0x50
 2184 0a6c 01       		.uleb128 0x1
 2185 0a6d 31       		.byte	0x31
 2186 0a6e 00       		.byte	0
 2187 0a6f 18       		.uleb128 0x18
 2188 0a70 30000000 		.4byte	.LVL48
 2189 0a74 330C0000 		.4byte	0xc33
 2190 0a78 830A0000 		.4byte	0xa83
 2191 0a7c 19       		.uleb128 0x19
 2192 0a7d 01       		.uleb128 0x1
 2193 0a7e 50       		.byte	0x50
 2194 0a7f 02       		.uleb128 0x2
 2195 0a80 08       		.byte	0x8
 2196 0a81 64       		.byte	0x64
 2197 0a82 00       		.byte	0
 2198 0a83 23       		.uleb128 0x23
 2199 0a84 3E000000 		.4byte	.LVL49
 2200 0a88 450C0000 		.4byte	0xc45
 2201 0a8c 19       		.uleb128 0x19
 2202 0a8d 01       		.uleb128 0x1
 2203 0a8e 52       		.byte	0x52
ARM GAS  /tmp/ccNJe4yq.s 			page 40


 2204 0a8f 03       		.uleb128 0x3
 2205 0a90 75       		.byte	0x75
 2206 0a91 E500     		.sleb128 101
 2207 0a93 19       		.uleb128 0x19
 2208 0a94 01       		.uleb128 0x1
 2209 0a95 51       		.byte	0x51
 2210 0a96 03       		.uleb128 0x3
 2211 0a97 75       		.byte	0x75
 2212 0a98 E400     		.sleb128 100
 2213 0a9a 19       		.uleb128 0x19
 2214 0a9b 01       		.uleb128 0x1
 2215 0a9c 50       		.byte	0x50
 2216 0a9d 01       		.uleb128 0x1
 2217 0a9e 32       		.byte	0x32
 2218 0a9f 00       		.byte	0
 2219 0aa0 00       		.byte	0
 2220 0aa1 26       		.uleb128 0x26
 2221 0aa2 2B000000 		.4byte	.LASF87
 2222 0aa6 09       		.byte	0x9
 2223 0aa7 F5       		.byte	0xf5
 2224 0aa8 E1030000 		.4byte	0x3e1
 2225 0aac 26       		.uleb128 0x26
 2226 0aad EE040000 		.4byte	.LASF88
 2227 0ab1 0A       		.byte	0xa
 2228 0ab2 6F       		.byte	0x6f
 2229 0ab3 3D040000 		.4byte	0x43d
 2230 0ab7 27       		.uleb128 0x27
 2231 0ab8 4B020000 		.4byte	0x24b
 2232 0abc C70A0000 		.4byte	0xac7
 2233 0ac0 28       		.uleb128 0x28
 2234 0ac1 26030000 		.4byte	0x326
 2235 0ac5 04       		.byte	0x4
 2236 0ac6 00       		.byte	0
 2237 0ac7 26       		.uleb128 0x26
 2238 0ac8 11040000 		.4byte	.LASF89
 2239 0acc 0C       		.byte	0xc
 2240 0acd A5       		.byte	0xa5
 2241 0ace B70A0000 		.4byte	0xab7
 2242 0ad2 27       		.uleb128 0x27
 2243 0ad3 87020000 		.4byte	0x287
 2244 0ad7 DD0A0000 		.4byte	0xadd
 2245 0adb 29       		.uleb128 0x29
 2246 0adc 00       		.byte	0
 2247 0add 2A       		.uleb128 0x2a
 2248 0ade 776100   		.ascii	"wa\000"
 2249 0ae1 0C       		.byte	0xc
 2250 0ae2 A7       		.byte	0xa7
 2251 0ae3 E70A0000 		.4byte	0xae7
 2252 0ae7 12       		.uleb128 0x12
 2253 0ae8 D20A0000 		.4byte	0xad2
 2254 0aec 2B       		.uleb128 0x2b
 2255 0aed D0020000 		.4byte	.LASF90
 2256 0af1 01       		.byte	0x1
 2257 0af2 4D       		.byte	0x4d
 2258 0af3 FD0A0000 		.4byte	0xafd
 2259 0af7 05       		.uleb128 0x5
 2260 0af8 03       		.byte	0x3
ARM GAS  /tmp/ccNJe4yq.s 			page 41


 2261 0af9 00000000 		.4byte	testthd1
 2262 0afd 12       		.uleb128 0x12
 2263 0afe F7040000 		.4byte	0x4f7
 2264 0b02 2B       		.uleb128 0x2b
 2265 0b03 D9020000 		.4byte	.LASF91
 2266 0b07 01       		.byte	0x1
 2267 0b08 6D       		.byte	0x6d
 2268 0b09 FD0A0000 		.4byte	0xafd
 2269 0b0d 05       		.uleb128 0x5
 2270 0b0e 03       		.byte	0x3
 2271 0b0f 00000000 		.4byte	testthd2
 2272 0b13 2B       		.uleb128 0x2b
 2273 0b14 E2020000 		.4byte	.LASF92
 2274 0b18 01       		.byte	0x1
 2275 0b19 AE       		.byte	0xae
 2276 0b1a FD0A0000 		.4byte	0xafd
 2277 0b1e 05       		.uleb128 0x5
 2278 0b1f 03       		.byte	0x3
 2279 0b20 00000000 		.4byte	testthd3
 2280 0b24 2B       		.uleb128 0x2b
 2281 0b25 EB020000 		.4byte	.LASF93
 2282 0b29 01       		.byte	0x1
 2283 0b2a D7       		.byte	0xd7
 2284 0b2b FD0A0000 		.4byte	0xafd
 2285 0b2f 05       		.uleb128 0x5
 2286 0b30 03       		.byte	0x3
 2287 0b31 00000000 		.4byte	testthd4
 2288 0b35 27       		.uleb128 0x27
 2289 0b36 450B0000 		.4byte	0xb45
 2290 0b3a 450B0000 		.4byte	0xb45
 2291 0b3e 28       		.uleb128 0x28
 2292 0b3f 26030000 		.4byte	0x326
 2293 0b43 04       		.byte	0x4
 2294 0b44 00       		.byte	0
 2295 0b45 09       		.uleb128 0x9
 2296 0b46 04       		.byte	0x4
 2297 0b47 FD0A0000 		.4byte	0xafd
 2298 0b4b 2B       		.uleb128 0x2b
 2299 0b4c 81040000 		.4byte	.LASF94
 2300 0b50 01       		.byte	0x1
 2301 0b51 E1       		.byte	0xe1
 2302 0b52 5C0B0000 		.4byte	0xb5c
 2303 0b56 05       		.uleb128 0x5
 2304 0b57 03       		.byte	0x3
 2305 0b58 00000000 		.4byte	patternthd
 2306 0b5c 12       		.uleb128 0x12
 2307 0b5d 350B0000 		.4byte	0xb35
 2308 0b61 2C       		.uleb128 0x2c
 2309 0b62 AD020000 		.4byte	.LASF95
 2310 0b66 07       		.byte	0x7
 2311 0b67 7001     		.2byte	0x170
 2312 0b69 4B020000 		.4byte	0x24b
 2313 0b6d 8B0B0000 		.4byte	0xb8b
 2314 0b71 0E       		.uleb128 0xe
 2315 0b72 87020000 		.4byte	0x287
 2316 0b76 0E       		.uleb128 0xe
 2317 0b77 2C000000 		.4byte	0x2c
ARM GAS  /tmp/ccNJe4yq.s 			page 42


 2318 0b7b 0E       		.uleb128 0xe
 2319 0b7c F6000000 		.4byte	0xf6
 2320 0b80 0E       		.uleb128 0xe
 2321 0b81 D7040000 		.4byte	0x4d7
 2322 0b85 0E       		.uleb128 0xe
 2323 0b86 87020000 		.4byte	0x287
 2324 0b8a 00       		.byte	0
 2325 0b8b 2D       		.uleb128 0x2d
 2326 0b8c 08030000 		.4byte	.LASF111
 2327 0b90 0C       		.byte	0xc
 2328 0b91 5C       		.byte	0x5c
 2329 0b92 2E       		.uleb128 0x2e
 2330 0b93 3B030000 		.4byte	.LASF96
 2331 0b97 0C       		.byte	0xc
 2332 0b98 59       		.byte	0x59
 2333 0b99 B8000000 		.4byte	0xb8
 2334 0b9d AC0B0000 		.4byte	0xbac
 2335 0ba1 0E       		.uleb128 0xe
 2336 0ba2 37000000 		.4byte	0x37
 2337 0ba6 0E       		.uleb128 0xe
 2338 0ba7 AC0B0000 		.4byte	0xbac
 2339 0bab 00       		.byte	0
 2340 0bac 09       		.uleb128 0x9
 2341 0bad 04       		.byte	0x4
 2342 0bae CA040000 		.4byte	0x4ca
 2343 0bb2 2F       		.uleb128 0x2f
 2344 0bb3 27010000 		.4byte	.LASF101
 2345 0bb7 0C       		.byte	0xc
 2346 0bb8 56       		.byte	0x56
 2347 0bb9 C30B0000 		.4byte	0xbc3
 2348 0bbd 0E       		.uleb128 0xe
 2349 0bbe CA040000 		.4byte	0x4ca
 2350 0bc2 00       		.byte	0
 2351 0bc3 2C       		.uleb128 0x2c
 2352 0bc4 41010000 		.4byte	.LASF97
 2353 0bc8 07       		.byte	0x7
 2354 0bc9 6E01     		.2byte	0x16e
 2355 0bcb 4B020000 		.4byte	0x24b
 2356 0bcf ED0B0000 		.4byte	0xbed
 2357 0bd3 0E       		.uleb128 0xe
 2358 0bd4 87020000 		.4byte	0x287
 2359 0bd8 0E       		.uleb128 0xe
 2360 0bd9 2C000000 		.4byte	0x2c
 2361 0bdd 0E       		.uleb128 0xe
 2362 0bde F6000000 		.4byte	0xf6
 2363 0be2 0E       		.uleb128 0xe
 2364 0be3 D7040000 		.4byte	0x4d7
 2365 0be7 0E       		.uleb128 0xe
 2366 0be8 87020000 		.4byte	0x287
 2367 0bec 00       		.byte	0
 2368 0bed 2C       		.uleb128 0x2c
 2369 0bee FC020000 		.4byte	.LASF98
 2370 0bf2 07       		.byte	0x7
 2371 0bf3 7301     		.2byte	0x173
 2372 0bf5 4B020000 		.4byte	0x24b
 2373 0bf9 030C0000 		.4byte	0xc03
 2374 0bfd 0E       		.uleb128 0xe
ARM GAS  /tmp/ccNJe4yq.s 			page 43


 2375 0bfe 4B020000 		.4byte	0x24b
 2376 0c02 00       		.byte	0
 2377 0c03 2C       		.uleb128 0x2c
 2378 0c04 81010000 		.4byte	.LASF99
 2379 0c08 07       		.byte	0x7
 2380 0c09 7201     		.2byte	0x172
 2381 0c0b F6000000 		.4byte	0xf6
 2382 0c0f 190C0000 		.4byte	0xc19
 2383 0c13 0E       		.uleb128 0xe
 2384 0c14 F6000000 		.4byte	0xf6
 2385 0c18 00       		.byte	0
 2386 0c19 2E       		.uleb128 0x2e
 2387 0c1a 0A050000 		.4byte	.LASF100
 2388 0c1e 0C       		.byte	0xc
 2389 0c1f 58       		.byte	0x58
 2390 0c20 B8000000 		.4byte	0xb8
 2391 0c24 330C0000 		.4byte	0xc33
 2392 0c28 0E       		.uleb128 0xe
 2393 0c29 37000000 		.4byte	0x37
 2394 0c2d 0E       		.uleb128 0xe
 2395 0c2e B8000000 		.4byte	0xb8
 2396 0c32 00       		.byte	0
 2397 0c33 30       		.uleb128 0x30
 2398 0c34 D2040000 		.4byte	.LASF102
 2399 0c38 07       		.byte	0x7
 2400 0c39 7501     		.2byte	0x175
 2401 0c3b 450C0000 		.4byte	0xc45
 2402 0c3f 0E       		.uleb128 0xe
 2403 0c40 17010000 		.4byte	0x117
 2404 0c44 00       		.byte	0
 2405 0c45 2E       		.uleb128 0x2e
 2406 0c46 60010000 		.4byte	.LASF103
 2407 0c4a 0C       		.byte	0xc
 2408 0c4b 5A       		.byte	0x5a
 2409 0c4c B8000000 		.4byte	0xb8
 2410 0c50 640C0000 		.4byte	0xc64
 2411 0c54 0E       		.uleb128 0xe
 2412 0c55 37000000 		.4byte	0x37
 2413 0c59 0E       		.uleb128 0xe
 2414 0c5a 17010000 		.4byte	0x117
 2415 0c5e 0E       		.uleb128 0xe
 2416 0c5f 17010000 		.4byte	0x117
 2417 0c63 00       		.byte	0
 2418 0c64 30       		.uleb128 0x30
 2419 0c65 68030000 		.4byte	.LASF104
 2420 0c69 07       		.byte	0x7
 2421 0c6a 7601     		.2byte	0x176
 2422 0c6c 760C0000 		.4byte	0xc76
 2423 0c70 0E       		.uleb128 0xe
 2424 0c71 17010000 		.4byte	0x117
 2425 0c75 00       		.byte	0
 2426 0c76 31       		.uleb128 0x31
 2427 0c77 DC030000 		.4byte	.LASF112
 2428 0c7b 0C       		.byte	0xc
 2429 0c7c 5D       		.byte	0x5d
 2430 0c7d 17010000 		.4byte	0x117
 2431 0c81 00       		.byte	0
ARM GAS  /tmp/ccNJe4yq.s 			page 44


 2432              		.section	.debug_abbrev,"",%progbits
 2433              	.Ldebug_abbrev0:
 2434 0000 01       		.uleb128 0x1
 2435 0001 11       		.uleb128 0x11
 2436 0002 01       		.byte	0x1
 2437 0003 25       		.uleb128 0x25
 2438 0004 0E       		.uleb128 0xe
 2439 0005 13       		.uleb128 0x13
 2440 0006 0B       		.uleb128 0xb
 2441 0007 03       		.uleb128 0x3
 2442 0008 0E       		.uleb128 0xe
 2443 0009 1B       		.uleb128 0x1b
 2444 000a 0E       		.uleb128 0xe
 2445 000b 55       		.uleb128 0x55
 2446 000c 17       		.uleb128 0x17
 2447 000d 11       		.uleb128 0x11
 2448 000e 01       		.uleb128 0x1
 2449 000f 10       		.uleb128 0x10
 2450 0010 17       		.uleb128 0x17
 2451 0011 00       		.byte	0
 2452 0012 00       		.byte	0
 2453 0013 02       		.uleb128 0x2
 2454 0014 24       		.uleb128 0x24
 2455 0015 00       		.byte	0
 2456 0016 0B       		.uleb128 0xb
 2457 0017 0B       		.uleb128 0xb
 2458 0018 3E       		.uleb128 0x3e
 2459 0019 0B       		.uleb128 0xb
 2460 001a 03       		.uleb128 0x3
 2461 001b 08       		.uleb128 0x8
 2462 001c 00       		.byte	0
 2463 001d 00       		.byte	0
 2464 001e 03       		.uleb128 0x3
 2465 001f 16       		.uleb128 0x16
 2466 0020 00       		.byte	0
 2467 0021 03       		.uleb128 0x3
 2468 0022 0E       		.uleb128 0xe
 2469 0023 3A       		.uleb128 0x3a
 2470 0024 0B       		.uleb128 0xb
 2471 0025 3B       		.uleb128 0x3b
 2472 0026 0B       		.uleb128 0xb
 2473 0027 49       		.uleb128 0x49
 2474 0028 13       		.uleb128 0x13
 2475 0029 00       		.byte	0
 2476 002a 00       		.byte	0
 2477 002b 04       		.uleb128 0x4
 2478 002c 24       		.uleb128 0x24
 2479 002d 00       		.byte	0
 2480 002e 0B       		.uleb128 0xb
 2481 002f 0B       		.uleb128 0xb
 2482 0030 3E       		.uleb128 0x3e
 2483 0031 0B       		.uleb128 0xb
 2484 0032 03       		.uleb128 0x3
 2485 0033 0E       		.uleb128 0xe
 2486 0034 00       		.byte	0
 2487 0035 00       		.byte	0
 2488 0036 05       		.uleb128 0x5
ARM GAS  /tmp/ccNJe4yq.s 			page 45


 2489 0037 13       		.uleb128 0x13
 2490 0038 01       		.byte	0x1
 2491 0039 03       		.uleb128 0x3
 2492 003a 0E       		.uleb128 0xe
 2493 003b 0B       		.uleb128 0xb
 2494 003c 0B       		.uleb128 0xb
 2495 003d 3A       		.uleb128 0x3a
 2496 003e 0B       		.uleb128 0xb
 2497 003f 3B       		.uleb128 0x3b
 2498 0040 0B       		.uleb128 0xb
 2499 0041 01       		.uleb128 0x1
 2500 0042 13       		.uleb128 0x13
 2501 0043 00       		.byte	0
 2502 0044 00       		.byte	0
 2503 0045 06       		.uleb128 0x6
 2504 0046 0D       		.uleb128 0xd
 2505 0047 00       		.byte	0
 2506 0048 03       		.uleb128 0x3
 2507 0049 0E       		.uleb128 0xe
 2508 004a 3A       		.uleb128 0x3a
 2509 004b 0B       		.uleb128 0xb
 2510 004c 3B       		.uleb128 0x3b
 2511 004d 0B       		.uleb128 0xb
 2512 004e 49       		.uleb128 0x49
 2513 004f 13       		.uleb128 0x13
 2514 0050 38       		.uleb128 0x38
 2515 0051 0B       		.uleb128 0xb
 2516 0052 00       		.byte	0
 2517 0053 00       		.byte	0
 2518 0054 07       		.uleb128 0x7
 2519 0055 0D       		.uleb128 0xd
 2520 0056 00       		.byte	0
 2521 0057 03       		.uleb128 0x3
 2522 0058 08       		.uleb128 0x8
 2523 0059 3A       		.uleb128 0x3a
 2524 005a 0B       		.uleb128 0xb
 2525 005b 3B       		.uleb128 0x3b
 2526 005c 0B       		.uleb128 0xb
 2527 005d 49       		.uleb128 0x49
 2528 005e 13       		.uleb128 0x13
 2529 005f 38       		.uleb128 0x38
 2530 0060 0B       		.uleb128 0xb
 2531 0061 00       		.byte	0
 2532 0062 00       		.byte	0
 2533 0063 08       		.uleb128 0x8
 2534 0064 13       		.uleb128 0x13
 2535 0065 01       		.byte	0x1
 2536 0066 0B       		.uleb128 0xb
 2537 0067 0B       		.uleb128 0xb
 2538 0068 3A       		.uleb128 0x3a
 2539 0069 0B       		.uleb128 0xb
 2540 006a 3B       		.uleb128 0x3b
 2541 006b 0B       		.uleb128 0xb
 2542 006c 01       		.uleb128 0x1
 2543 006d 13       		.uleb128 0x13
 2544 006e 00       		.byte	0
 2545 006f 00       		.byte	0
ARM GAS  /tmp/ccNJe4yq.s 			page 46


 2546 0070 09       		.uleb128 0x9
 2547 0071 0F       		.uleb128 0xf
 2548 0072 00       		.byte	0
 2549 0073 0B       		.uleb128 0xb
 2550 0074 0B       		.uleb128 0xb
 2551 0075 49       		.uleb128 0x49
 2552 0076 13       		.uleb128 0x13
 2553 0077 00       		.byte	0
 2554 0078 00       		.byte	0
 2555 0079 0A       		.uleb128 0xa
 2556 007a 0F       		.uleb128 0xf
 2557 007b 00       		.byte	0
 2558 007c 0B       		.uleb128 0xb
 2559 007d 0B       		.uleb128 0xb
 2560 007e 00       		.byte	0
 2561 007f 00       		.byte	0
 2562 0080 0B       		.uleb128 0xb
 2563 0081 13       		.uleb128 0x13
 2564 0082 01       		.byte	0x1
 2565 0083 03       		.uleb128 0x3
 2566 0084 0E       		.uleb128 0xe
 2567 0085 0B       		.uleb128 0xb
 2568 0086 0B       		.uleb128 0xb
 2569 0087 3A       		.uleb128 0x3a
 2570 0088 0B       		.uleb128 0xb
 2571 0089 3B       		.uleb128 0x3b
 2572 008a 05       		.uleb128 0x5
 2573 008b 01       		.uleb128 0x1
 2574 008c 13       		.uleb128 0x13
 2575 008d 00       		.byte	0
 2576 008e 00       		.byte	0
 2577 008f 0C       		.uleb128 0xc
 2578 0090 0D       		.uleb128 0xd
 2579 0091 00       		.byte	0
 2580 0092 03       		.uleb128 0x3
 2581 0093 08       		.uleb128 0x8
 2582 0094 3A       		.uleb128 0x3a
 2583 0095 0B       		.uleb128 0xb
 2584 0096 3B       		.uleb128 0x3b
 2585 0097 05       		.uleb128 0x5
 2586 0098 49       		.uleb128 0x49
 2587 0099 13       		.uleb128 0x13
 2588 009a 38       		.uleb128 0x38
 2589 009b 0B       		.uleb128 0xb
 2590 009c 00       		.byte	0
 2591 009d 00       		.byte	0
 2592 009e 0D       		.uleb128 0xd
 2593 009f 15       		.uleb128 0x15
 2594 00a0 01       		.byte	0x1
 2595 00a1 27       		.uleb128 0x27
 2596 00a2 19       		.uleb128 0x19
 2597 00a3 01       		.uleb128 0x1
 2598 00a4 13       		.uleb128 0x13
 2599 00a5 00       		.byte	0
 2600 00a6 00       		.byte	0
 2601 00a7 0E       		.uleb128 0xe
 2602 00a8 05       		.uleb128 0x5
ARM GAS  /tmp/ccNJe4yq.s 			page 47


 2603 00a9 00       		.byte	0
 2604 00aa 49       		.uleb128 0x49
 2605 00ab 13       		.uleb128 0x13
 2606 00ac 00       		.byte	0
 2607 00ad 00       		.byte	0
 2608 00ae 0F       		.uleb128 0xf
 2609 00af 35       		.uleb128 0x35
 2610 00b0 00       		.byte	0
 2611 00b1 49       		.uleb128 0x49
 2612 00b2 13       		.uleb128 0x13
 2613 00b3 00       		.byte	0
 2614 00b4 00       		.byte	0
 2615 00b5 10       		.uleb128 0x10
 2616 00b6 17       		.uleb128 0x17
 2617 00b7 01       		.byte	0x1
 2618 00b8 0B       		.uleb128 0xb
 2619 00b9 0B       		.uleb128 0xb
 2620 00ba 3A       		.uleb128 0x3a
 2621 00bb 0B       		.uleb128 0xb
 2622 00bc 3B       		.uleb128 0x3b
 2623 00bd 0B       		.uleb128 0xb
 2624 00be 01       		.uleb128 0x1
 2625 00bf 13       		.uleb128 0x13
 2626 00c0 00       		.byte	0
 2627 00c1 00       		.byte	0
 2628 00c2 11       		.uleb128 0x11
 2629 00c3 0D       		.uleb128 0xd
 2630 00c4 00       		.byte	0
 2631 00c5 03       		.uleb128 0x3
 2632 00c6 0E       		.uleb128 0xe
 2633 00c7 3A       		.uleb128 0x3a
 2634 00c8 0B       		.uleb128 0xb
 2635 00c9 3B       		.uleb128 0x3b
 2636 00ca 0B       		.uleb128 0xb
 2637 00cb 49       		.uleb128 0x49
 2638 00cc 13       		.uleb128 0x13
 2639 00cd 00       		.byte	0
 2640 00ce 00       		.byte	0
 2641 00cf 12       		.uleb128 0x12
 2642 00d0 26       		.uleb128 0x26
 2643 00d1 00       		.byte	0
 2644 00d2 49       		.uleb128 0x49
 2645 00d3 13       		.uleb128 0x13
 2646 00d4 00       		.byte	0
 2647 00d5 00       		.byte	0
 2648 00d6 13       		.uleb128 0x13
 2649 00d7 15       		.uleb128 0x15
 2650 00d8 01       		.byte	0x1
 2651 00d9 27       		.uleb128 0x27
 2652 00da 19       		.uleb128 0x19
 2653 00db 49       		.uleb128 0x49
 2654 00dc 13       		.uleb128 0x13
 2655 00dd 01       		.uleb128 0x1
 2656 00de 13       		.uleb128 0x13
 2657 00df 00       		.byte	0
 2658 00e0 00       		.byte	0
 2659 00e1 14       		.uleb128 0x14
ARM GAS  /tmp/ccNJe4yq.s 			page 48


 2660 00e2 15       		.uleb128 0x15
 2661 00e3 00       		.byte	0
 2662 00e4 27       		.uleb128 0x27
 2663 00e5 19       		.uleb128 0x19
 2664 00e6 00       		.byte	0
 2665 00e7 00       		.byte	0
 2666 00e8 15       		.uleb128 0x15
 2667 00e9 2E       		.uleb128 0x2e
 2668 00ea 01       		.byte	0x1
 2669 00eb 03       		.uleb128 0x3
 2670 00ec 0E       		.uleb128 0xe
 2671 00ed 3A       		.uleb128 0x3a
 2672 00ee 0B       		.uleb128 0xb
 2673 00ef 3B       		.uleb128 0x3b
 2674 00f0 0B       		.uleb128 0xb
 2675 00f1 27       		.uleb128 0x27
 2676 00f2 19       		.uleb128 0x19
 2677 00f3 20       		.uleb128 0x20
 2678 00f4 0B       		.uleb128 0xb
 2679 00f5 01       		.uleb128 0x1
 2680 00f6 13       		.uleb128 0x13
 2681 00f7 00       		.byte	0
 2682 00f8 00       		.byte	0
 2683 00f9 16       		.uleb128 0x16
 2684 00fa 34       		.uleb128 0x34
 2685 00fb 00       		.byte	0
 2686 00fc 03       		.uleb128 0x3
 2687 00fd 0E       		.uleb128 0xe
 2688 00fe 3A       		.uleb128 0x3a
 2689 00ff 0B       		.uleb128 0xb
 2690 0100 3B       		.uleb128 0x3b
 2691 0101 0B       		.uleb128 0xb
 2692 0102 49       		.uleb128 0x49
 2693 0103 13       		.uleb128 0x13
 2694 0104 00       		.byte	0
 2695 0105 00       		.byte	0
 2696 0106 17       		.uleb128 0x17
 2697 0107 2E       		.uleb128 0x2e
 2698 0108 01       		.byte	0x1
 2699 0109 03       		.uleb128 0x3
 2700 010a 0E       		.uleb128 0xe
 2701 010b 3A       		.uleb128 0x3a
 2702 010c 0B       		.uleb128 0xb
 2703 010d 3B       		.uleb128 0x3b
 2704 010e 0B       		.uleb128 0xb
 2705 010f 27       		.uleb128 0x27
 2706 0110 19       		.uleb128 0x19
 2707 0111 11       		.uleb128 0x11
 2708 0112 01       		.uleb128 0x1
 2709 0113 12       		.uleb128 0x12
 2710 0114 06       		.uleb128 0x6
 2711 0115 40       		.uleb128 0x40
 2712 0116 18       		.uleb128 0x18
 2713 0117 9742     		.uleb128 0x2117
 2714 0119 19       		.uleb128 0x19
 2715 011a 01       		.uleb128 0x1
 2716 011b 13       		.uleb128 0x13
ARM GAS  /tmp/ccNJe4yq.s 			page 49


 2717 011c 00       		.byte	0
 2718 011d 00       		.byte	0
 2719 011e 18       		.uleb128 0x18
 2720 011f 898201   		.uleb128 0x4109
 2721 0122 01       		.byte	0x1
 2722 0123 11       		.uleb128 0x11
 2723 0124 01       		.uleb128 0x1
 2724 0125 31       		.uleb128 0x31
 2725 0126 13       		.uleb128 0x13
 2726 0127 01       		.uleb128 0x1
 2727 0128 13       		.uleb128 0x13
 2728 0129 00       		.byte	0
 2729 012a 00       		.byte	0
 2730 012b 19       		.uleb128 0x19
 2731 012c 8A8201   		.uleb128 0x410a
 2732 012f 00       		.byte	0
 2733 0130 02       		.uleb128 0x2
 2734 0131 18       		.uleb128 0x18
 2735 0132 9142     		.uleb128 0x2111
 2736 0134 18       		.uleb128 0x18
 2737 0135 00       		.byte	0
 2738 0136 00       		.byte	0
 2739 0137 1A       		.uleb128 0x1a
 2740 0138 898201   		.uleb128 0x4109
 2741 013b 00       		.byte	0
 2742 013c 11       		.uleb128 0x11
 2743 013d 01       		.uleb128 0x1
 2744 013e 31       		.uleb128 0x31
 2745 013f 13       		.uleb128 0x13
 2746 0140 00       		.byte	0
 2747 0141 00       		.byte	0
 2748 0142 1B       		.uleb128 0x1b
 2749 0143 898201   		.uleb128 0x4109
 2750 0146 01       		.byte	0x1
 2751 0147 11       		.uleb128 0x11
 2752 0148 01       		.uleb128 0x1
 2753 0149 9542     		.uleb128 0x2115
 2754 014b 19       		.uleb128 0x19
 2755 014c 31       		.uleb128 0x31
 2756 014d 13       		.uleb128 0x13
 2757 014e 00       		.byte	0
 2758 014f 00       		.byte	0
 2759 0150 1C       		.uleb128 0x1c
 2760 0151 2E       		.uleb128 0x2e
 2761 0152 01       		.byte	0x1
 2762 0153 03       		.uleb128 0x3
 2763 0154 0E       		.uleb128 0xe
 2764 0155 3A       		.uleb128 0x3a
 2765 0156 0B       		.uleb128 0xb
 2766 0157 3B       		.uleb128 0x3b
 2767 0158 0B       		.uleb128 0xb
 2768 0159 27       		.uleb128 0x27
 2769 015a 19       		.uleb128 0x19
 2770 015b 49       		.uleb128 0x49
 2771 015c 13       		.uleb128 0x13
 2772 015d 11       		.uleb128 0x11
 2773 015e 01       		.uleb128 0x1
ARM GAS  /tmp/ccNJe4yq.s 			page 50


 2774 015f 12       		.uleb128 0x12
 2775 0160 06       		.uleb128 0x6
 2776 0161 40       		.uleb128 0x40
 2777 0162 18       		.uleb128 0x18
 2778 0163 9742     		.uleb128 0x2117
 2779 0165 19       		.uleb128 0x19
 2780 0166 01       		.uleb128 0x1
 2781 0167 13       		.uleb128 0x13
 2782 0168 00       		.byte	0
 2783 0169 00       		.byte	0
 2784 016a 1D       		.uleb128 0x1d
 2785 016b 05       		.uleb128 0x5
 2786 016c 00       		.byte	0
 2787 016d 03       		.uleb128 0x3
 2788 016e 08       		.uleb128 0x8
 2789 016f 3A       		.uleb128 0x3a
 2790 0170 0B       		.uleb128 0xb
 2791 0171 3B       		.uleb128 0x3b
 2792 0172 0B       		.uleb128 0xb
 2793 0173 49       		.uleb128 0x49
 2794 0174 13       		.uleb128 0x13
 2795 0175 02       		.uleb128 0x2
 2796 0176 17       		.uleb128 0x17
 2797 0177 00       		.byte	0
 2798 0178 00       		.byte	0
 2799 0179 1E       		.uleb128 0x1e
 2800 017a 0B       		.uleb128 0xb
 2801 017b 01       		.byte	0x1
 2802 017c 55       		.uleb128 0x55
 2803 017d 17       		.uleb128 0x17
 2804 017e 01       		.uleb128 0x1
 2805 017f 13       		.uleb128 0x13
 2806 0180 00       		.byte	0
 2807 0181 00       		.byte	0
 2808 0182 1F       		.uleb128 0x1f
 2809 0183 34       		.uleb128 0x34
 2810 0184 00       		.byte	0
 2811 0185 03       		.uleb128 0x3
 2812 0186 08       		.uleb128 0x8
 2813 0187 3A       		.uleb128 0x3a
 2814 0188 0B       		.uleb128 0xb
 2815 0189 3B       		.uleb128 0x3b
 2816 018a 0B       		.uleb128 0xb
 2817 018b 49       		.uleb128 0x49
 2818 018c 13       		.uleb128 0x13
 2819 018d 02       		.uleb128 0x2
 2820 018e 18       		.uleb128 0x18
 2821 018f 00       		.byte	0
 2822 0190 00       		.byte	0
 2823 0191 20       		.uleb128 0x20
 2824 0192 34       		.uleb128 0x34
 2825 0193 00       		.byte	0
 2826 0194 03       		.uleb128 0x3
 2827 0195 0E       		.uleb128 0xe
 2828 0196 3A       		.uleb128 0x3a
 2829 0197 0B       		.uleb128 0xb
 2830 0198 3B       		.uleb128 0x3b
ARM GAS  /tmp/ccNJe4yq.s 			page 51


 2831 0199 0B       		.uleb128 0xb
 2832 019a 49       		.uleb128 0x49
 2833 019b 13       		.uleb128 0x13
 2834 019c 02       		.uleb128 0x2
 2835 019d 18       		.uleb128 0x18
 2836 019e 00       		.byte	0
 2837 019f 00       		.byte	0
 2838 01a0 21       		.uleb128 0x21
 2839 01a1 34       		.uleb128 0x34
 2840 01a2 00       		.byte	0
 2841 01a3 03       		.uleb128 0x3
 2842 01a4 08       		.uleb128 0x8
 2843 01a5 3A       		.uleb128 0x3a
 2844 01a6 0B       		.uleb128 0xb
 2845 01a7 3B       		.uleb128 0x3b
 2846 01a8 0B       		.uleb128 0xb
 2847 01a9 49       		.uleb128 0x49
 2848 01aa 13       		.uleb128 0x13
 2849 01ab 02       		.uleb128 0x2
 2850 01ac 17       		.uleb128 0x17
 2851 01ad 00       		.byte	0
 2852 01ae 00       		.byte	0
 2853 01af 22       		.uleb128 0x22
 2854 01b0 0B       		.uleb128 0xb
 2855 01b1 01       		.byte	0x1
 2856 01b2 11       		.uleb128 0x11
 2857 01b3 01       		.uleb128 0x1
 2858 01b4 12       		.uleb128 0x12
 2859 01b5 06       		.uleb128 0x6
 2860 01b6 01       		.uleb128 0x1
 2861 01b7 13       		.uleb128 0x13
 2862 01b8 00       		.byte	0
 2863 01b9 00       		.byte	0
 2864 01ba 23       		.uleb128 0x23
 2865 01bb 898201   		.uleb128 0x4109
 2866 01be 01       		.byte	0x1
 2867 01bf 11       		.uleb128 0x11
 2868 01c0 01       		.uleb128 0x1
 2869 01c1 31       		.uleb128 0x31
 2870 01c2 13       		.uleb128 0x13
 2871 01c3 00       		.byte	0
 2872 01c4 00       		.byte	0
 2873 01c5 24       		.uleb128 0x24
 2874 01c6 2E       		.uleb128 0x2e
 2875 01c7 01       		.byte	0x1
 2876 01c8 31       		.uleb128 0x31
 2877 01c9 13       		.uleb128 0x13
 2878 01ca 11       		.uleb128 0x11
 2879 01cb 01       		.uleb128 0x1
 2880 01cc 12       		.uleb128 0x12
 2881 01cd 06       		.uleb128 0x6
 2882 01ce 40       		.uleb128 0x40
 2883 01cf 18       		.uleb128 0x18
 2884 01d0 9742     		.uleb128 0x2117
 2885 01d2 19       		.uleb128 0x19
 2886 01d3 01       		.uleb128 0x1
 2887 01d4 13       		.uleb128 0x13
ARM GAS  /tmp/ccNJe4yq.s 			page 52


 2888 01d5 00       		.byte	0
 2889 01d6 00       		.byte	0
 2890 01d7 25       		.uleb128 0x25
 2891 01d8 34       		.uleb128 0x34
 2892 01d9 00       		.byte	0
 2893 01da 31       		.uleb128 0x31
 2894 01db 13       		.uleb128 0x13
 2895 01dc 02       		.uleb128 0x2
 2896 01dd 17       		.uleb128 0x17
 2897 01de 00       		.byte	0
 2898 01df 00       		.byte	0
 2899 01e0 26       		.uleb128 0x26
 2900 01e1 34       		.uleb128 0x34
 2901 01e2 00       		.byte	0
 2902 01e3 03       		.uleb128 0x3
 2903 01e4 0E       		.uleb128 0xe
 2904 01e5 3A       		.uleb128 0x3a
 2905 01e6 0B       		.uleb128 0xb
 2906 01e7 3B       		.uleb128 0x3b
 2907 01e8 0B       		.uleb128 0xb
 2908 01e9 49       		.uleb128 0x49
 2909 01ea 13       		.uleb128 0x13
 2910 01eb 3F       		.uleb128 0x3f
 2911 01ec 19       		.uleb128 0x19
 2912 01ed 3C       		.uleb128 0x3c
 2913 01ee 19       		.uleb128 0x19
 2914 01ef 00       		.byte	0
 2915 01f0 00       		.byte	0
 2916 01f1 27       		.uleb128 0x27
 2917 01f2 01       		.uleb128 0x1
 2918 01f3 01       		.byte	0x1
 2919 01f4 49       		.uleb128 0x49
 2920 01f5 13       		.uleb128 0x13
 2921 01f6 01       		.uleb128 0x1
 2922 01f7 13       		.uleb128 0x13
 2923 01f8 00       		.byte	0
 2924 01f9 00       		.byte	0
 2925 01fa 28       		.uleb128 0x28
 2926 01fb 21       		.uleb128 0x21
 2927 01fc 00       		.byte	0
 2928 01fd 49       		.uleb128 0x49
 2929 01fe 13       		.uleb128 0x13
 2930 01ff 2F       		.uleb128 0x2f
 2931 0200 0B       		.uleb128 0xb
 2932 0201 00       		.byte	0
 2933 0202 00       		.byte	0
 2934 0203 29       		.uleb128 0x29
 2935 0204 21       		.uleb128 0x21
 2936 0205 00       		.byte	0
 2937 0206 00       		.byte	0
 2938 0207 00       		.byte	0
 2939 0208 2A       		.uleb128 0x2a
 2940 0209 34       		.uleb128 0x34
 2941 020a 00       		.byte	0
 2942 020b 03       		.uleb128 0x3
 2943 020c 08       		.uleb128 0x8
 2944 020d 3A       		.uleb128 0x3a
ARM GAS  /tmp/ccNJe4yq.s 			page 53


 2945 020e 0B       		.uleb128 0xb
 2946 020f 3B       		.uleb128 0x3b
 2947 0210 0B       		.uleb128 0xb
 2948 0211 49       		.uleb128 0x49
 2949 0212 13       		.uleb128 0x13
 2950 0213 3F       		.uleb128 0x3f
 2951 0214 19       		.uleb128 0x19
 2952 0215 3C       		.uleb128 0x3c
 2953 0216 19       		.uleb128 0x19
 2954 0217 00       		.byte	0
 2955 0218 00       		.byte	0
 2956 0219 2B       		.uleb128 0x2b
 2957 021a 34       		.uleb128 0x34
 2958 021b 00       		.byte	0
 2959 021c 03       		.uleb128 0x3
 2960 021d 0E       		.uleb128 0xe
 2961 021e 3A       		.uleb128 0x3a
 2962 021f 0B       		.uleb128 0xb
 2963 0220 3B       		.uleb128 0x3b
 2964 0221 0B       		.uleb128 0xb
 2965 0222 49       		.uleb128 0x49
 2966 0223 13       		.uleb128 0x13
 2967 0224 3F       		.uleb128 0x3f
 2968 0225 19       		.uleb128 0x19
 2969 0226 02       		.uleb128 0x2
 2970 0227 18       		.uleb128 0x18
 2971 0228 00       		.byte	0
 2972 0229 00       		.byte	0
 2973 022a 2C       		.uleb128 0x2c
 2974 022b 2E       		.uleb128 0x2e
 2975 022c 01       		.byte	0x1
 2976 022d 3F       		.uleb128 0x3f
 2977 022e 19       		.uleb128 0x19
 2978 022f 03       		.uleb128 0x3
 2979 0230 0E       		.uleb128 0xe
 2980 0231 3A       		.uleb128 0x3a
 2981 0232 0B       		.uleb128 0xb
 2982 0233 3B       		.uleb128 0x3b
 2983 0234 05       		.uleb128 0x5
 2984 0235 27       		.uleb128 0x27
 2985 0236 19       		.uleb128 0x19
 2986 0237 49       		.uleb128 0x49
 2987 0238 13       		.uleb128 0x13
 2988 0239 3C       		.uleb128 0x3c
 2989 023a 19       		.uleb128 0x19
 2990 023b 01       		.uleb128 0x1
 2991 023c 13       		.uleb128 0x13
 2992 023d 00       		.byte	0
 2993 023e 00       		.byte	0
 2994 023f 2D       		.uleb128 0x2d
 2995 0240 2E       		.uleb128 0x2e
 2996 0241 00       		.byte	0
 2997 0242 3F       		.uleb128 0x3f
 2998 0243 19       		.uleb128 0x19
 2999 0244 03       		.uleb128 0x3
 3000 0245 0E       		.uleb128 0xe
 3001 0246 3A       		.uleb128 0x3a
ARM GAS  /tmp/ccNJe4yq.s 			page 54


 3002 0247 0B       		.uleb128 0xb
 3003 0248 3B       		.uleb128 0x3b
 3004 0249 0B       		.uleb128 0xb
 3005 024a 27       		.uleb128 0x27
 3006 024b 19       		.uleb128 0x19
 3007 024c 3C       		.uleb128 0x3c
 3008 024d 19       		.uleb128 0x19
 3009 024e 00       		.byte	0
 3010 024f 00       		.byte	0
 3011 0250 2E       		.uleb128 0x2e
 3012 0251 2E       		.uleb128 0x2e
 3013 0252 01       		.byte	0x1
 3014 0253 3F       		.uleb128 0x3f
 3015 0254 19       		.uleb128 0x19
 3016 0255 03       		.uleb128 0x3
 3017 0256 0E       		.uleb128 0xe
 3018 0257 3A       		.uleb128 0x3a
 3019 0258 0B       		.uleb128 0xb
 3020 0259 3B       		.uleb128 0x3b
 3021 025a 0B       		.uleb128 0xb
 3022 025b 27       		.uleb128 0x27
 3023 025c 19       		.uleb128 0x19
 3024 025d 49       		.uleb128 0x49
 3025 025e 13       		.uleb128 0x13
 3026 025f 3C       		.uleb128 0x3c
 3027 0260 19       		.uleb128 0x19
 3028 0261 01       		.uleb128 0x1
 3029 0262 13       		.uleb128 0x13
 3030 0263 00       		.byte	0
 3031 0264 00       		.byte	0
 3032 0265 2F       		.uleb128 0x2f
 3033 0266 2E       		.uleb128 0x2e
 3034 0267 01       		.byte	0x1
 3035 0268 3F       		.uleb128 0x3f
 3036 0269 19       		.uleb128 0x19
 3037 026a 03       		.uleb128 0x3
 3038 026b 0E       		.uleb128 0xe
 3039 026c 3A       		.uleb128 0x3a
 3040 026d 0B       		.uleb128 0xb
 3041 026e 3B       		.uleb128 0x3b
 3042 026f 0B       		.uleb128 0xb
 3043 0270 27       		.uleb128 0x27
 3044 0271 19       		.uleb128 0x19
 3045 0272 3C       		.uleb128 0x3c
 3046 0273 19       		.uleb128 0x19
 3047 0274 01       		.uleb128 0x1
 3048 0275 13       		.uleb128 0x13
 3049 0276 00       		.byte	0
 3050 0277 00       		.byte	0
 3051 0278 30       		.uleb128 0x30
 3052 0279 2E       		.uleb128 0x2e
 3053 027a 01       		.byte	0x1
 3054 027b 3F       		.uleb128 0x3f
 3055 027c 19       		.uleb128 0x19
 3056 027d 03       		.uleb128 0x3
 3057 027e 0E       		.uleb128 0xe
 3058 027f 3A       		.uleb128 0x3a
ARM GAS  /tmp/ccNJe4yq.s 			page 55


 3059 0280 0B       		.uleb128 0xb
 3060 0281 3B       		.uleb128 0x3b
 3061 0282 05       		.uleb128 0x5
 3062 0283 27       		.uleb128 0x27
 3063 0284 19       		.uleb128 0x19
 3064 0285 3C       		.uleb128 0x3c
 3065 0286 19       		.uleb128 0x19
 3066 0287 01       		.uleb128 0x1
 3067 0288 13       		.uleb128 0x13
 3068 0289 00       		.byte	0
 3069 028a 00       		.byte	0
 3070 028b 31       		.uleb128 0x31
 3071 028c 2E       		.uleb128 0x2e
 3072 028d 00       		.byte	0
 3073 028e 3F       		.uleb128 0x3f
 3074 028f 19       		.uleb128 0x19
 3075 0290 03       		.uleb128 0x3
 3076 0291 0E       		.uleb128 0xe
 3077 0292 3A       		.uleb128 0x3a
 3078 0293 0B       		.uleb128 0xb
 3079 0294 3B       		.uleb128 0x3b
 3080 0295 0B       		.uleb128 0xb
 3081 0296 27       		.uleb128 0x27
 3082 0297 19       		.uleb128 0x19
 3083 0298 49       		.uleb128 0x49
 3084 0299 13       		.uleb128 0x13
 3085 029a 3C       		.uleb128 0x3c
 3086 029b 19       		.uleb128 0x19
 3087 029c 00       		.byte	0
 3088 029d 00       		.byte	0
 3089 029e 00       		.byte	0
 3090              		.section	.debug_loc,"",%progbits
 3091              	.Ldebug_loc0:
 3092              	.LLST0:
 3093 0000 00000000 		.4byte	.LVL7
 3094 0004 04000000 		.4byte	.LVL8
 3095 0008 0100     		.2byte	0x1
 3096 000a 50       		.byte	0x50
 3097 000b 04000000 		.4byte	.LVL8
 3098 000f 0C000000 		.4byte	.LFE7
 3099 0013 0400     		.2byte	0x4
 3100 0015 F3       		.byte	0xf3
 3101 0016 01       		.uleb128 0x1
 3102 0017 50       		.byte	0x50
 3103 0018 9F       		.byte	0x9f
 3104 0019 00000000 		.4byte	0
 3105 001d 00000000 		.4byte	0
 3106              	.LLST1:
 3107 0021 20000000 		.4byte	.LVL20
 3108 0025 26000000 		.4byte	.LVL21
 3109 0029 0100     		.2byte	0x1
 3110 002b 50       		.byte	0x50
 3111 002c 26000000 		.4byte	.LVL21
 3112 0030 2C000000 		.4byte	.LVL23
 3113 0034 0100     		.2byte	0x1
 3114 0036 57       		.byte	0x57
 3115 0037 2E000000 		.4byte	.LVL24
ARM GAS  /tmp/ccNJe4yq.s 			page 56


 3116 003b 4E000000 		.4byte	.LVL26
 3117 003f 0100     		.2byte	0x1
 3118 0041 57       		.byte	0x57
 3119 0042 4E000000 		.4byte	.LVL26
 3120 0046 50000000 		.4byte	.LVL27
 3121 004a 0100     		.2byte	0x1
 3122 004c 50       		.byte	0x50
 3123 004d AA000000 		.4byte	.LVL31
 3124 0051 B8000000 		.4byte	.LVL32
 3125 0055 0100     		.2byte	0x1
 3126 0057 50       		.byte	0x50
 3127 0058 F6000000 		.4byte	.LVL36
 3128 005c F8000000 		.4byte	.LVL37
 3129 0060 0100     		.2byte	0x1
 3130 0062 50       		.byte	0x50
 3131 0063 00000000 		.4byte	0
 3132 0067 00000000 		.4byte	0
 3133              	.LLST2:
 3134 006b 10000000 		.4byte	.LVL42
 3135 006f 26000000 		.4byte	.LVL45
 3136 0073 0100     		.2byte	0x1
 3137 0075 55       		.byte	0x55
 3138 0076 28000000 		.4byte	.LVL46
 3139 007a 44000000 		.4byte	.LVL50
 3140 007e 0100     		.2byte	0x1
 3141 0080 55       		.byte	0x55
 3142 0081 00000000 		.4byte	0
 3143 0085 00000000 		.4byte	0
 3144              	.LLST3:
 3145 0089 44000000 		.4byte	.LVL50
 3146 008d 76000000 		.4byte	.LVL55
 3147 0091 0100     		.2byte	0x1
 3148 0093 55       		.byte	0x55
 3149 0094 76000000 		.4byte	.LVL55
 3150 0098 79000000 		.4byte	.LVL56-1
 3151 009c 0100     		.2byte	0x1
 3152 009e 51       		.byte	0x51
 3153 009f 00000000 		.4byte	0
 3154 00a3 00000000 		.4byte	0
 3155              		.section	.debug_aranges,"",%progbits
 3156 0000 3C000000 		.4byte	0x3c
 3157 0004 0200     		.2byte	0x2
 3158 0006 00000000 		.4byte	.Ldebug_info0
 3159 000a 04       		.byte	0x4
 3160 000b 00       		.byte	0
 3161 000c 0000     		.2byte	0
 3162 000e 0000     		.2byte	0
 3163 0010 00000000 		.4byte	.LFB8
 3164 0014 DA000000 		.4byte	.LFE8-.LFB8
 3165 0018 00000000 		.4byte	.LFB7
 3166 001c 0C000000 		.4byte	.LFE7-.LFB7
 3167 0020 00000000 		.4byte	.LFB9
 3168 0024 10010000 		.4byte	.LFE9-.LFB9
 3169 0028 00000000 		.4byte	.LFB10
 3170 002c 44010000 		.4byte	.LFE10-.LFB10
 3171 0030 00000000 		.4byte	.LFB11
 3172 0034 7A000000 		.4byte	.LFE11-.LFB11
ARM GAS  /tmp/ccNJe4yq.s 			page 57


 3173 0038 00000000 		.4byte	0
 3174 003c 00000000 		.4byte	0
 3175              		.section	.debug_ranges,"",%progbits
 3176              	.Ldebug_ranges0:
 3177 0000 A0000000 		.4byte	.LBB2
 3178 0004 A2000000 		.4byte	.LBE2
 3179 0008 A4000000 		.4byte	.LBB3
 3180 000c A8000000 		.4byte	.LBE3
 3181 0010 00000000 		.4byte	0
 3182 0014 00000000 		.4byte	0
 3183 0018 E2000000 		.4byte	.LBB4
 3184 001c E4000000 		.4byte	.LBE4
 3185 0020 E6000000 		.4byte	.LBB5
 3186 0024 EA000000 		.4byte	.LBE5
 3187 0028 00000000 		.4byte	0
 3188 002c 00000000 		.4byte	0
 3189 0030 38010000 		.4byte	.LBB9
 3190 0034 3A010000 		.4byte	.LBE9
 3191 0038 3E010000 		.4byte	.LBB10
 3192 003c 44010000 		.4byte	.LBE10
 3193 0040 00000000 		.4byte	0
 3194 0044 00000000 		.4byte	0
 3195 0048 42000000 		.4byte	.LBB14
 3196 004c 72000000 		.4byte	.LBE14
 3197 0050 76000000 		.4byte	.LBB15
 3198 0054 7A000000 		.4byte	.LBE15
 3199 0058 00000000 		.4byte	0
 3200 005c 00000000 		.4byte	0
 3201 0060 00000000 		.4byte	.LFB8
 3202 0064 DA000000 		.4byte	.LFE8
 3203 0068 00000000 		.4byte	.LFB7
 3204 006c 0C000000 		.4byte	.LFE7
 3205 0070 00000000 		.4byte	.LFB9
 3206 0074 10010000 		.4byte	.LFE9
 3207 0078 00000000 		.4byte	.LFB10
 3208 007c 44010000 		.4byte	.LFE10
 3209 0080 00000000 		.4byte	.LFB11
 3210 0084 7A000000 		.4byte	.LFE11
 3211 0088 00000000 		.4byte	0
 3212 008c 00000000 		.4byte	0
 3213              		.section	.debug_line,"",%progbits
 3214              	.Ldebug_line0:
 3215 0000 FA010000 		.section	.debug_str,"MS",%progbits,1
 3215      02004601 
 3215      00000201 
 3215      FB0E0D00 
 3215      01010101 
 3216              	.LASF77:
 3217 0000 7466756E 		.ascii	"tfunc_t\000"
 3217      635F7400 
 3218              	.LASF41:
 3219 0008 705F6D73 		.ascii	"p_msg\000"
 3219      6700
 3220              	.LASF2:
 3221 000e 73697A65 		.ascii	"size_t\000"
 3221      5F7400
 3222              	.LASF86:
ARM GAS  /tmp/ccNJe4yq.s 			page 58


 3223 0015 7072696F 		.ascii	"prio\000"
 3223      00
 3224              	.LASF72:
 3225 001a 7264796D 		.ascii	"rdymsg\000"
 3225      736700
 3226              	.LASF3:
 3227 0021 5F5F7569 		.ascii	"__uint8_t\000"
 3227      6E74385F 
 3227      7400
 3228              	.LASF87:
 3229 002b 76746C69 		.ascii	"vtlist\000"
 3229      737400
 3230              	.LASF105:
 3231 0032 474E5520 		.ascii	"GNU C 4.8.2 -mcpu=cortex-m4 -mno-thumb-interwork -m"
 3231      4320342E 
 3231      382E3220 
 3231      2D6D6370 
 3231      753D636F 
 3232 0065 7468756D 		.ascii	"thumb -ggdb -O2 -fomit-frame-pointer -falign-functi"
 3232      62202D67 
 3232      67646220 
 3232      2D4F3220 
 3232      2D666F6D 
 3233 0098 6F6E733D 		.ascii	"ons=16 -ffunction-sections -fdata-sections -fno-com"
 3233      3136202D 
 3233      6666756E 
 3233      6374696F 
 3233      6E2D7365 
 3234 00cb 6D6F6E00 		.ascii	"mon\000"
 3235              	.LASF12:
 3236 00cf 6C6F6E67 		.ascii	"long long unsigned int\000"
 3236      206C6F6E 
 3236      6720756E 
 3236      7369676E 
 3236      65642069 
 3237              	.LASF73:
 3238 00e6 65786974 		.ascii	"exitcode\000"
 3238      636F6465 
 3238      00
 3239              	.LASF29:
 3240 00ef 705F7072 		.ascii	"p_prio\000"
 3240      696F00
 3241              	.LASF11:
 3242 00f6 6C6F6E67 		.ascii	"long long int\000"
 3242      206C6F6E 
 3242      6720696E 
 3242      7400
 3243              	.LASF1:
 3244 0104 7369676E 		.ascii	"signed char\000"
 3244      65642063 
 3244      68617200 
 3245              	.LASF45:
 3246 0110 705F6D70 		.ascii	"p_mpool\000"
 3246      6F6F6C00 
 3247              	.LASF16:
 3248 0118 626F6F6C 		.ascii	"bool_t\000"
 3248      5F7400
ARM GAS  /tmp/ccNJe4yq.s 			page 59


 3249              	.LASF69:
 3250 011f 6D5F7175 		.ascii	"m_queue\000"
 3250      65756500 
 3251              	.LASF101:
 3252 0127 74657374 		.ascii	"test_emit_token\000"
 3252      5F656D69 
 3252      745F746F 
 3252      6B656E00 
 3253              	.LASF21:
 3254 0137 74736C69 		.ascii	"tslices_t\000"
 3254      6365735F 
 3254      7400
 3255              	.LASF97:
 3256 0141 63685468 		.ascii	"chThdCreateI\000"
 3256      64437265 
 3256      61746549 
 3256      00
 3257              	.LASF8:
 3258 014e 6C6F6E67 		.ascii	"long int\000"
 3258      20696E74 
 3258      00
 3259              	.LASF19:
 3260 0157 74737461 		.ascii	"tstate_t\000"
 3260      74655F74 
 3260      00
 3261              	.LASF103:
 3262 0160 5F746573 		.ascii	"_test_assert_time_window\000"
 3262      745F6173 
 3262      73657274 
 3262      5F74696D 
 3262      655F7769 
 3263              	.LASF31:
 3264 0179 705F6E65 		.ascii	"p_newer\000"
 3264      77657200 
 3265              	.LASF99:
 3266 0181 63685468 		.ascii	"chThdSetPriority\000"
 3266      64536574 
 3266      5072696F 
 3266      72697479 
 3266      00
 3267              	.LASF9:
 3268 0192 5F5F7569 		.ascii	"__uint32_t\000"
 3268      6E743332 
 3268      5F7400
 3269              	.LASF48:
 3270 019d 72656761 		.ascii	"regarm_t\000"
 3270      726D5F74 
 3270      00
 3271              	.LASF55:
 3272 01a6 76745F70 		.ascii	"vt_prev\000"
 3272      72657600 
 3273              	.LASF83:
 3274 01ae 74686431 		.ascii	"thd1_execute\000"
 3274      5F657865 
 3274      63757465 
 3274      00
 3275              	.LASF0:
ARM GAS  /tmp/ccNJe4yq.s 			page 60


 3276 01bb 756E7369 		.ascii	"unsigned int\000"
 3276      676E6564 
 3276      20696E74 
 3276      00
 3277              	.LASF54:
 3278 01c8 76745F6E 		.ascii	"vt_next\000"
 3278      65787400 
 3279              	.LASF10:
 3280 01d0 6C6F6E67 		.ascii	"long unsigned int\000"
 3280      20756E73 
 3280      69676E65 
 3280      6420696E 
 3280      7400
 3281              	.LASF81:
 3282 01e2 74656172 		.ascii	"teardown\000"
 3282      646F776E 
 3282      00
 3283              	.LASF52:
 3284 01eb 76746675 		.ascii	"vtfunc_t\000"
 3284      6E635F74 
 3284      00
 3285              	.LASF79:
 3286 01f4 6E616D65 		.ascii	"name\000"
 3286      00
 3287              	.LASF50:
 3288 01f9 636F6E74 		.ascii	"context\000"
 3288      65787400 
 3289              	.LASF6:
 3290 0201 73686F72 		.ascii	"short unsigned int\000"
 3290      7420756E 
 3290      7369676E 
 3290      65642069 
 3290      6E7400
 3291              	.LASF23:
 3292 0214 6D73675F 		.ascii	"msg_t\000"
 3292      7400
 3293              	.LASF64:
 3294 021a 725F6E65 		.ascii	"r_newer\000"
 3294      77657200 
 3295              	.LASF18:
 3296 0222 746D6F64 		.ascii	"tmode_t\000"
 3296      655F7400 
 3297              	.LASF47:
 3298 022a 54687265 		.ascii	"ThreadsList\000"
 3298      6164734C 
 3298      69737400 
 3299              	.LASF24:
 3300 0236 6576656E 		.ascii	"eventmask_t\000"
 3300      746D6173 
 3300      6B5F7400 
 3301              	.LASF68:
 3302 0242 4D757465 		.ascii	"Mutex\000"
 3302      7800
 3303              	.LASF107:
 3304 0248 2F686F6D 		.ascii	"/home/mo/ARMProjects/ChibiOS_Sample/ChibiOS_2.6.5/d"
 3304      652F6D6F 
 3304      2F41524D 
ARM GAS  /tmp/ccNJe4yq.s 			page 61


 3304      50726F6A 
 3304      65637473 
 3305 027b 656D6F73 		.ascii	"emos/ARMCM4-STM32F407-DISCOVERY-MEMS\000"
 3305      2F41524D 
 3305      434D342D 
 3305      53544D33 
 3305      32463430 
 3306              	.LASF84:
 3307 02a0 74686432 		.ascii	"thd2_execute\000"
 3307      5F657865 
 3307      63757465 
 3307      00
 3308              	.LASF95:
 3309 02ad 63685468 		.ascii	"chThdCreateStatic\000"
 3309      64437265 
 3309      61746553 
 3309      74617469 
 3309      6300
 3310              	.LASF56:
 3311 02bf 76745F74 		.ascii	"vt_time\000"
 3311      696D6500 
 3312              	.LASF51:
 3313 02c7 73697A65 		.ascii	"sizetype\000"
 3313      74797065 
 3313      00
 3314              	.LASF90:
 3315 02d0 74657374 		.ascii	"testthd1\000"
 3315      74686431 
 3315      00
 3316              	.LASF91:
 3317 02d9 74657374 		.ascii	"testthd2\000"
 3317      74686432 
 3317      00
 3318              	.LASF92:
 3319 02e2 74657374 		.ascii	"testthd3\000"
 3319      74686433 
 3319      00
 3320              	.LASF93:
 3321 02eb 74657374 		.ascii	"testthd4\000"
 3321      74686434 
 3321      00
 3322              	.LASF57:
 3323 02f4 76745F66 		.ascii	"vt_func\000"
 3323      756E6300 
 3324              	.LASF98:
 3325 02fc 63685468 		.ascii	"chThdResume\000"
 3325      64526573 
 3325      756D6500 
 3326              	.LASF111:
 3327 0308 74657374 		.ascii	"test_wait_threads\000"
 3327      5F776169 
 3327      745F7468 
 3327      72656164 
 3327      7300
 3328              	.LASF32:
 3329 031a 705F6F6C 		.ascii	"p_older\000"
 3329      64657200 
ARM GAS  /tmp/ccNJe4yq.s 			page 62


 3330              	.LASF63:
 3331 0322 725F6374 		.ascii	"r_ctx\000"
 3331      7800
 3332              	.LASF46:
 3333 0328 54687265 		.ascii	"ThreadsQueue\000"
 3333      61647351 
 3333      75657565 
 3333      00
 3334              	.LASF80:
 3335 0335 73657475 		.ascii	"setup\000"
 3335      7000
 3336              	.LASF96:
 3337 033b 5F746573 		.ascii	"_test_assert_sequence\000"
 3337      745F6173 
 3337      73657274 
 3337      5F736571 
 3337      75656E63 
 3338              	.LASF109:
 3339 0351 74696D65 		.ascii	"time\000"
 3339      00
 3340              	.LASF66:
 3341 0356 725F6375 		.ascii	"r_current\000"
 3341      7272656E 
 3341      7400
 3342              	.LASF65:
 3343 0360 725F6F6C 		.ascii	"r_older\000"
 3343      64657200 
 3344              	.LASF104:
 3345 0368 63685468 		.ascii	"chThdSleepUntil\000"
 3345      64536C65 
 3345      6570556E 
 3345      74696C00 
 3346              	.LASF106:
 3347 0378 2E2E2F2E 		.ascii	"../../test/testthd.c\000"
 3347      2E2F7465 
 3347      73742F74 
 3347      65737474 
 3347      68642E63 
 3348              	.LASF20:
 3349 038d 74726566 		.ascii	"trefs_t\000"
 3349      735F7400 
 3350              	.LASF85:
 3351 0395 74686433 		.ascii	"thd3_execute\000"
 3351      5F657865 
 3351      63757465 
 3351      00
 3352              	.LASF28:
 3353 03a2 705F7072 		.ascii	"p_prev\000"
 3353      657600
 3354              	.LASF82:
 3355 03a9 65786563 		.ascii	"execute\000"
 3355      75746500 
 3356              	.LASF22:
 3357 03b1 74707269 		.ascii	"tprio_t\000"
 3357      6F5F7400 
 3358              	.LASF110:
 3359 03b9 74687265 		.ascii	"thread\000"
ARM GAS  /tmp/ccNJe4yq.s 			page 63


 3359      616400
 3360              	.LASF17:
 3361 03c0 5F426F6F 		.ascii	"_Bool\000"
 3361      6C00
 3362              	.LASF14:
 3363 03c6 696E7433 		.ascii	"int32_t\000"
 3363      325F7400 
 3364              	.LASF4:
 3365 03ce 756E7369 		.ascii	"unsigned char\000"
 3365      676E6564 
 3365      20636861 
 3365      7200
 3366              	.LASF112:
 3367 03dc 74657374 		.ascii	"test_wait_tick\000"
 3367      5F776169 
 3367      745F7469 
 3367      636B00
 3368              	.LASF43:
 3369 03eb 705F6D74 		.ascii	"p_mtxlist\000"
 3369      786C6973 
 3369      7400
 3370              	.LASF5:
 3371 03f5 73686F72 		.ascii	"short int\000"
 3371      7420696E 
 3371      7400
 3372              	.LASF34:
 3373 03ff 705F7374 		.ascii	"p_state\000"
 3373      61746500 
 3374              	.LASF37:
 3375 0407 705F7072 		.ascii	"p_preempt\000"
 3375      65656D70 
 3375      7400
 3376              	.LASF89:
 3377 0411 74687265 		.ascii	"threads\000"
 3377      61647300 
 3378              	.LASF62:
 3379 0419 725F7072 		.ascii	"r_prio\000"
 3379      696F00
 3380              	.LASF75:
 3381 0420 65776D61 		.ascii	"ewmask\000"
 3381      736B00
 3382              	.LASF27:
 3383 0427 705F6E65 		.ascii	"p_next\000"
 3383      787400
 3384              	.LASF35:
 3385 042e 705F666C 		.ascii	"p_flags\000"
 3385      61677300 
 3386              	.LASF26:
 3387 0436 54687265 		.ascii	"Thread\000"
 3387      616400
 3388              	.LASF78:
 3389 043d 74657374 		.ascii	"testcase\000"
 3389      63617365 
 3389      00
 3390              	.LASF42:
 3391 0446 705F6570 		.ascii	"p_epending\000"
 3391      656E6469 
ARM GAS  /tmp/ccNJe4yq.s 			page 64


 3391      6E6700
 3392              	.LASF15:
 3393 0451 75696E74 		.ascii	"uint32_t\000"
 3393      33325F74 
 3393      00
 3394              	.LASF61:
 3395 045a 725F7175 		.ascii	"r_queue\000"
 3395      65756500 
 3396              	.LASF53:
 3397 0462 56697274 		.ascii	"VirtualTimer\000"
 3397      75616C54 
 3397      696D6572 
 3397      00
 3398              	.LASF76:
 3399 046f 63686172 		.ascii	"char\000"
 3399      00
 3400              	.LASF108:
 3401 0474 74686434 		.ascii	"thd4_execute\000"
 3401      5F657865 
 3401      63757465 
 3401      00
 3402              	.LASF94:
 3403 0481 70617474 		.ascii	"patternthd\000"
 3403      65726E74 
 3403      686400
 3404              	.LASF71:
 3405 048c 6D5F6E65 		.ascii	"m_next\000"
 3405      787400
 3406              	.LASF25:
 3407 0493 73797374 		.ascii	"systime_t\000"
 3407      696D655F 
 3407      7400
 3408              	.LASF44:
 3409 049d 705F7265 		.ascii	"p_realprio\000"
 3409      616C7072 
 3409      696F00
 3410              	.LASF7:
 3411 04a8 5F5F696E 		.ascii	"__int32_t\000"
 3411      7433325F 
 3411      7400
 3412              	.LASF38:
 3413 04b2 705F7469 		.ascii	"p_time\000"
 3413      6D6500
 3414              	.LASF49:
 3415 04b9 696E7463 		.ascii	"intctx\000"
 3415      747800
 3416              	.LASF40:
 3417 04c0 705F6D73 		.ascii	"p_msgqueue\000"
 3417      67717565 
 3417      756500
 3418              	.LASF58:
 3419 04cb 76745F70 		.ascii	"vt_par\000"
 3419      617200
 3420              	.LASF102:
 3421 04d2 63685468 		.ascii	"chThdSleep\000"
 3421      64536C65 
 3421      657000
ARM GAS  /tmp/ccNJe4yq.s 			page 65


 3422              	.LASF36:
 3423 04dd 705F7265 		.ascii	"p_refs\000"
 3423      667300
 3424              	.LASF67:
 3425 04e4 52656164 		.ascii	"ReadyList\000"
 3425      794C6973 
 3425      7400
 3426              	.LASF88:
 3427 04ee 726C6973 		.ascii	"rlist\000"
 3427      7400
 3428              	.LASF13:
 3429 04f4 75696E74 		.ascii	"uint8_t\000"
 3429      385F7400 
 3430              	.LASF74:
 3431 04fc 77746F62 		.ascii	"wtobjp\000"
 3431      6A7000
 3432              	.LASF33:
 3433 0503 705F6E61 		.ascii	"p_name\000"
 3433      6D6500
 3434              	.LASF100:
 3435 050a 5F746573 		.ascii	"_test_assert\000"
 3435      745F6173 
 3435      73657274 
 3435      00
 3436              	.LASF59:
 3437 0517 76745F73 		.ascii	"vt_systime\000"
 3437      79737469 
 3437      6D6500
 3438              	.LASF60:
 3439 0522 56544C69 		.ascii	"VTList\000"
 3439      737400
 3440              	.LASF70:
 3441 0529 6D5F6F77 		.ascii	"m_owner\000"
 3441      6E657200 
 3442              	.LASF30:
 3443 0531 705F6374 		.ascii	"p_ctx\000"
 3443      7800
 3444              	.LASF39:
 3445 0537 705F7761 		.ascii	"p_waiting\000"
 3445      6974696E 
 3445      6700
 3446              		.ident	"GCC: (4.8.2-14ubuntu1+6) 4.8.2"
ARM GAS  /tmp/ccNJe4yq.s 			page 66


DEFINED SYMBOLS
                            *ABS*:0000000000000000 testthd.c
     /tmp/ccNJe4yq.s:19     .text.thd1_execute:0000000000000000 $t
     /tmp/ccNJe4yq.s:24     .text.thd1_execute:0000000000000000 thd1_execute
     /tmp/ccNJe4yq.s:152    .text.thread:0000000000000000 thread
     /tmp/ccNJe4yq.s:712    .rodata.str1.4:0000000000000000 .LC0
     /tmp/ccNJe4yq.s:715    .rodata.str1.4:0000000000000004 .LC1
     /tmp/ccNJe4yq.s:718    .rodata.str1.4:0000000000000008 .LC2
     /tmp/ccNJe4yq.s:721    .rodata.str1.4:000000000000000c .LC3
     /tmp/ccNJe4yq.s:724    .rodata.str1.4:0000000000000010 .LC4
     /tmp/ccNJe4yq.s:727    .rodata.str1.4:0000000000000014 .LC5
     /tmp/ccNJe4yq.s:147    .text.thread:0000000000000000 $t
     /tmp/ccNJe4yq.s:175    .text.thd2_execute:0000000000000000 $t
     /tmp/ccNJe4yq.s:180    .text.thd2_execute:0000000000000000 thd2_execute
     /tmp/ccNJe4yq.s:336    .text.thd3_execute:0000000000000000 $t
     /tmp/ccNJe4yq.s:341    .text.thd3_execute:0000000000000000 thd3_execute
     /tmp/ccNJe4yq.s:558    .text.thd4_execute:0000000000000000 $t
     /tmp/ccNJe4yq.s:563    .text.thd4_execute:0000000000000000 thd4_execute
     /tmp/ccNJe4yq.s:704    .rodata.patternthd:0000000000000000 patternthd
     /tmp/ccNJe4yq.s:695    .rodata.testthd4:0000000000000000 testthd4
     /tmp/ccNJe4yq.s:686    .rodata.testthd3:0000000000000000 testthd3
     /tmp/ccNJe4yq.s:677    .rodata.testthd2:0000000000000000 testthd2
     /tmp/ccNJe4yq.s:668    .rodata.testthd1:0000000000000000 testthd1
     /tmp/ccNJe4yq.s:665    .rodata.testthd1:0000000000000000 $d
     /tmp/ccNJe4yq.s:674    .rodata.testthd2:0000000000000000 $d
     /tmp/ccNJe4yq.s:683    .rodata.testthd3:0000000000000000 $d
     /tmp/ccNJe4yq.s:692    .rodata.testthd4:0000000000000000 $d
     /tmp/ccNJe4yq.s:701    .rodata.patternthd:0000000000000000 $d
     /tmp/ccNJe4yq.s:711    .rodata.str1.4:0000000000000000 $d
                     .debug_frame:0000000000000010 $d

UNDEFINED SYMBOLS
rlist
wa
chThdCreateStatic
threads
test_wait_threads
_test_assert_sequence
test_emit_token
chThdCreateI
chThdResume
chThdSetPriority
_test_assert
vtlist
test_wait_tick
chThdSleep
_test_assert_time_window
chThdSleepUntil
