ARM GAS  /tmp/ccJzCOYD.s 			page 1


   1              		.syntax unified
   2              		.cpu cortex-m4
   3              		.fpu softvfp
   4              		.eabi_attribute 20, 1
   5              		.eabi_attribute 21, 1
   6              		.eabi_attribute 23, 3
   7              		.eabi_attribute 24, 1
   8              		.eabi_attribute 25, 1
   9              		.eabi_attribute 26, 1
  10              		.eabi_attribute 30, 2
  11              		.eabi_attribute 34, 1
  12              		.eabi_attribute 18, 4
  13              		.thumb
  14              		.file	"testmtx.c"
  15              		.text
  16              	.Ltext0:
  17              		.cfi_sections	.debug_frame
  18              		.section	.text.mtx1_execute,"ax",%progbits
  19              		.align	2
  20              		.p2align 4,,15
  21              		.thumb
  22              		.thumb_func
  23              		.type	mtx1_execute, %function
  24              	mtx1_execute:
  25              	.LFB9:
  26              		.file 1 "../../test/testmtx.c"
  27              		.loc 1 97 0
  28              		.cfi_startproc
  29              		@ args = 0, pretend = 0, frame = 8
  30              		@ frame_needed = 0, uses_anonymous_args = 0
  31 0000 F0B5     		push	{r4, r5, r6, r7, lr}
  32              		.cfi_def_cfa_offset 20
  33              		.cfi_offset 4, -20
  34              		.cfi_offset 5, -16
  35              		.cfi_offset 6, -12
  36              		.cfi_offset 7, -8
  37              		.cfi_offset 14, -4
  38              		.loc 1 99 0
  39 0002 40F20007 		movw	r7, #:lower16:rlist
  40 0006 C0F20007 		movt	r7, #:upper16:rlist
  41              		.loc 1 100 0
  42 000a 40F20000 		movw	r0, #:lower16:.LANCHOR0
  43              		.loc 1 99 0
  44 000e BB69     		ldr	r3, [r7, #24]
  45              		.loc 1 97 0
  46 0010 85B0     		sub	sp, sp, #20
  47              		.cfi_def_cfa_offset 40
  48              		.loc 1 100 0
  49 0012 C0F20000 		movt	r0, #:upper16:.LANCHOR0
  50              		.loc 1 101 0
  51 0016 40F20005 		movw	r5, #:lower16:wa
  52              		.loc 1 99 0
  53 001a 9E68     		ldr	r6, [r3, #8]
  54              	.LVL0:
  55              		.loc 1 101 0
  56 001c C0F20005 		movt	r5, #:upper16:wa
  57              		.loc 1 100 0
ARM GAS  /tmp/ccJzCOYD.s 			page 2


  58 0020 FFF7FEFF 		bl	chMtxLock
  59              	.LVL1:
  60              		.loc 1 101 0
  61 0024 40F20001 		movw	r1, #:lower16:.LC0
  62 0028 C0F20001 		movt	r1, #:upper16:.LC0
  63 002c 40F20003 		movw	r3, #:lower16:thread1
  64 0030 721C     		adds	r2, r6, #1
  65 0032 0091     		str	r1, [sp]
  66 0034 C0F20003 		movt	r3, #:upper16:thread1
  67 0038 4FF4A871 		mov	r1, #336
  68 003c 2868     		ldr	r0, [r5]
  69 003e FFF7FEFF 		bl	chThdCreateStatic
  70              	.LVL2:
  71 0042 40F20004 		movw	r4, #:lower16:threads
  72              		.loc 1 102 0
  73 0046 6B68     		ldr	r3, [r5, #4]
  74              		.loc 1 101 0
  75 0048 C0F20004 		movt	r4, #:upper16:threads
  76              		.loc 1 102 0
  77 004c 40F20001 		movw	r1, #:lower16:.LC1
  78 0050 0393     		str	r3, [sp, #12]
  79 0052 C0F20001 		movt	r1, #:upper16:.LC1
  80 0056 40F20003 		movw	r3, #:lower16:thread1
  81              		.loc 1 101 0
  82 005a 2060     		str	r0, [r4]
  83              		.loc 1 102 0
  84 005c B21C     		adds	r2, r6, #2
  85 005e 0091     		str	r1, [sp]
  86 0060 C0F20003 		movt	r3, #:upper16:thread1
  87 0064 4FF4A871 		mov	r1, #336
  88 0068 0398     		ldr	r0, [sp, #12]
  89 006a FFF7FEFF 		bl	chThdCreateStatic
  90              	.LVL3:
  91              		.loc 1 103 0
  92 006e AB68     		ldr	r3, [r5, #8]
  93              		.loc 1 102 0
  94 0070 6060     		str	r0, [r4, #4]
  95              		.loc 1 103 0
  96 0072 40F20001 		movw	r1, #:lower16:.LC2
  97 0076 0393     		str	r3, [sp, #12]
  98 0078 C0F20001 		movt	r1, #:upper16:.LC2
  99 007c 40F20003 		movw	r3, #:lower16:thread1
 100 0080 F21C     		adds	r2, r6, #3
 101 0082 0091     		str	r1, [sp]
 102 0084 C0F20003 		movt	r3, #:upper16:thread1
 103 0088 4FF4A871 		mov	r1, #336
 104 008c 0398     		ldr	r0, [sp, #12]
 105 008e FFF7FEFF 		bl	chThdCreateStatic
 106              	.LVL4:
 107              		.loc 1 104 0
 108 0092 EB68     		ldr	r3, [r5, #12]
 109              		.loc 1 103 0
 110 0094 A060     		str	r0, [r4, #8]
 111              		.loc 1 104 0
 112 0096 40F20001 		movw	r1, #:lower16:.LC3
 113 009a 0393     		str	r3, [sp, #12]
 114 009c C0F20001 		movt	r1, #:upper16:.LC3
ARM GAS  /tmp/ccJzCOYD.s 			page 3


 115 00a0 40F20003 		movw	r3, #:lower16:thread1
 116 00a4 321D     		adds	r2, r6, #4
 117 00a6 0091     		str	r1, [sp]
 118 00a8 C0F20003 		movt	r3, #:upper16:thread1
 119 00ac 4FF4A871 		mov	r1, #336
 120 00b0 0398     		ldr	r0, [sp, #12]
 121 00b2 FFF7FEFF 		bl	chThdCreateStatic
 122              	.LVL5:
 123              		.loc 1 105 0
 124 00b6 2A69     		ldr	r2, [r5, #16]
 125              		.loc 1 104 0
 126 00b8 E060     		str	r0, [r4, #12]
 127              		.loc 1 105 0
 128 00ba 40F20001 		movw	r1, #:lower16:.LC4
 129 00be C0F20001 		movt	r1, #:upper16:.LC4
 130 00c2 40F20003 		movw	r3, #:lower16:thread1
 131 00c6 C0F20003 		movt	r3, #:upper16:thread1
 132 00ca 1046     		mov	r0, r2
 133 00cc 0091     		str	r1, [sp]
 134 00ce 721D     		adds	r2, r6, #5
 135 00d0 4FF4A871 		mov	r1, #336
 136 00d4 FFF7FEFF 		bl	chThdCreateStatic
 137              	.LVL6:
 138 00d8 2061     		str	r0, [r4, #16]
 139              		.loc 1 106 0
 140 00da FFF7FEFF 		bl	chMtxUnlock
 141              	.LVL7:
 142              		.loc 1 107 0
 143 00de FFF7FEFF 		bl	test_wait_threads
 144              	.LVL8:
 145              		.loc 1 108 0
 146 00e2 BB69     		ldr	r3, [r7, #24]
 147 00e4 9968     		ldr	r1, [r3, #8]
 148 00e6 8B1B     		subs	r3, r1, r6
 149 00e8 5942     		rsbs	r1, r3, #0
 150 00ea 5941     		adcs	r1, r1, r3
 151 00ec 0120     		movs	r0, #1
 152 00ee FFF7FEFF 		bl	_test_assert
 153              	.LVL9:
 154 00f2 08B1     		cbz	r0, .L4
 155              		.loc 1 110 0
 156 00f4 05B0     		add	sp, sp, #20
 157              		@ sp needed
 158 00f6 F0BD     		pop	{r4, r5, r6, r7, pc}
 159              	.LVL10:
 160              	.L4:
 161              		.loc 1 109 0
 162 00f8 40F20001 		movw	r1, #:lower16:.LC5
 163 00fc C0F20001 		movt	r1, #:upper16:.LC5
 164 0100 0220     		movs	r0, #2
 165              		.loc 1 110 0
 166 0102 05B0     		add	sp, sp, #20
 167              		@ sp needed
 168 0104 BDE8F040 		pop	{r4, r5, r6, r7, lr}
 169              	.LVL11:
 170              		.loc 1 109 0
 171 0108 FFF7FEBF 		b	_test_assert_sequence
ARM GAS  /tmp/ccJzCOYD.s 			page 4


 172              	.LVL12:
 173              		.cfi_endproc
 174              	.LFE9:
 175              		.size	mtx1_execute, .-mtx1_execute
 176 010c AFF30080 		.section	.text.thread1,"ax",%progbits
 177              		.align	2
 178              		.p2align 4,,15
 179              		.thumb
 180              		.thumb_func
 181              		.type	thread1, %function
 182              	thread1:
 183              	.LFB8:
 184              		.loc 1 89 0
 185              		.cfi_startproc
 186              		@ args = 0, pretend = 0, frame = 0
 187              		@ frame_needed = 0, uses_anonymous_args = 0
 188              	.LVL13:
 189 0000 10B5     		push	{r4, lr}
 190              		.cfi_def_cfa_offset 8
 191              		.cfi_offset 4, -8
 192              		.cfi_offset 14, -4
 193              		.loc 1 89 0
 194 0002 0446     		mov	r4, r0
 195              		.loc 1 91 0
 196 0004 40F20000 		movw	r0, #:lower16:.LANCHOR0
 197              	.LVL14:
 198 0008 C0F20000 		movt	r0, #:upper16:.LANCHOR0
 199 000c FFF7FEFF 		bl	chMtxLock
 200              	.LVL15:
 201              		.loc 1 92 0
 202 0010 2078     		ldrb	r0, [r4]	@ zero_extendqisi2
 203 0012 FFF7FEFF 		bl	test_emit_token
 204              	.LVL16:
 205              		.loc 1 93 0
 206 0016 FFF7FEFF 		bl	chMtxUnlock
 207              	.LVL17:
 208              		.loc 1 95 0
 209 001a 0020     		movs	r0, #0
 210 001c 10BD     		pop	{r4, pc}
 211              		.cfi_endproc
 212              	.LFE8:
 213              		.size	thread1, .-thread1
 214 001e 00BF     		.section	.text.thread12,"ax",%progbits
 215              		.align	2
 216              		.p2align 4,,15
 217              		.thumb
 218              		.thumb_func
 219              		.type	thread12, %function
 220              	thread12:
 221              	.LFB35:
 222              		.loc 1 588 0
 223              		.cfi_startproc
 224              		@ args = 0, pretend = 0, frame = 0
 225              		@ frame_needed = 0, uses_anonymous_args = 0
 226              	.LVL18:
 227 0000 10B5     		push	{r4, lr}
 228              		.cfi_def_cfa_offset 8
ARM GAS  /tmp/ccJzCOYD.s 			page 5


 229              		.cfi_offset 4, -8
 230              		.cfi_offset 14, -4
 231              		.loc 1 588 0
 232 0002 0446     		mov	r4, r0
 233              		.loc 1 590 0
 234 0004 40F20000 		movw	r0, #:lower16:.LANCHOR1
 235              	.LVL19:
 236 0008 C0F20000 		movt	r0, #:upper16:.LANCHOR1
 237 000c FFF7FEFF 		bl	chMtxLock
 238              	.LVL20:
 239              		.loc 1 591 0
 240 0010 2078     		ldrb	r0, [r4]	@ zero_extendqisi2
 241 0012 FFF7FEFF 		bl	test_emit_token
 242              	.LVL21:
 243              		.loc 1 592 0
 244 0016 FFF7FEFF 		bl	chMtxUnlock
 245              	.LVL22:
 246              		.loc 1 594 0
 247 001a 0020     		movs	r0, #0
 248 001c 10BD     		pop	{r4, pc}
 249              		.cfi_endproc
 250              	.LFE35:
 251              		.size	thread12, .-thread12
 252 001e 00BF     		.section	.text.mtx1_setup,"ax",%progbits
 253              		.align	2
 254              		.p2align 4,,15
 255              		.thumb
 256              		.thumb_func
 257              		.type	mtx1_setup, %function
 258              	mtx1_setup:
 259              	.LFB7:
 260              		.loc 1 84 0
 261              		.cfi_startproc
 262              		@ args = 0, pretend = 0, frame = 0
 263              		@ frame_needed = 0, uses_anonymous_args = 0
 264              		@ link register save eliminated.
 265              		.loc 1 86 0
 266 0000 40F20000 		movw	r0, #:lower16:.LANCHOR0
 267 0004 C0F20000 		movt	r0, #:upper16:.LANCHOR0
 268 0008 FFF7FEBF 		b	chMtxInit
 269              	.LVL23:
 270              		.cfi_endproc
 271              	.LFE7:
 272              		.size	mtx1_setup, .-mtx1_setup
 273 000c AFF30080 		.section	.text.mtx2_setup,"ax",%progbits
 274              		.align	2
 275              		.p2align 4,,15
 276              		.thumb
 277              		.thumb_func
 278              		.type	mtx2_setup, %function
 279              	mtx2_setup:
 280              	.LFB10:
 281              		.loc 1 151 0
 282              		.cfi_startproc
 283              		@ args = 0, pretend = 0, frame = 0
 284              		@ frame_needed = 0, uses_anonymous_args = 0
 285              		@ link register save eliminated.
ARM GAS  /tmp/ccJzCOYD.s 			page 6


 286              		.loc 1 153 0
 287 0000 40F20000 		movw	r0, #:lower16:.LANCHOR0
 288 0004 C0F20000 		movt	r0, #:upper16:.LANCHOR0
 289 0008 FFF7FEBF 		b	chMtxInit
 290              	.LVL24:
 291              		.cfi_endproc
 292              	.LFE10:
 293              		.size	mtx2_setup, .-mtx2_setup
 294 000c AFF30080 		.section	.text.mtx3_setup,"ax",%progbits
 295              		.align	2
 296              		.p2align 4,,15
 297              		.thumb
 298              		.thumb_func
 299              		.type	mtx3_setup, %function
 300              	mtx3_setup:
 301              	.LFB15:
 302              		.loc 1 241 0
 303              		.cfi_startproc
 304              		@ args = 0, pretend = 0, frame = 0
 305              		@ frame_needed = 0, uses_anonymous_args = 0
 306 0000 08B5     		push	{r3, lr}
 307              		.cfi_def_cfa_offset 8
 308              		.cfi_offset 3, -8
 309              		.cfi_offset 14, -4
 310              		.loc 1 243 0
 311 0002 40F20000 		movw	r0, #:lower16:.LANCHOR0
 312 0006 C0F20000 		movt	r0, #:upper16:.LANCHOR0
 313 000a FFF7FEFF 		bl	chMtxInit
 314              	.LVL25:
 315              		.loc 1 244 0
 316 000e 40F20000 		movw	r0, #:lower16:.LANCHOR1
 317 0012 C0F20000 		movt	r0, #:upper16:.LANCHOR1
 318              		.loc 1 245 0
 319 0016 BDE80840 		pop	{r3, lr}
 320              		.loc 1 244 0
 321 001a FFF7FEBF 		b	chMtxInit
 322              	.LVL26:
 323              		.cfi_endproc
 324              	.LFE15:
 325              		.size	mtx3_setup, .-mtx3_setup
 326 001e 00BF     		.section	.text.mtx4_setup,"ax",%progbits
 327              		.align	2
 328              		.p2align 4,,15
 329              		.thumb
 330              		.thumb_func
 331              		.type	mtx4_setup, %function
 332              	mtx4_setup:
 333              	.LFB22:
 334              		.loc 1 341 0
 335              		.cfi_startproc
 336              		@ args = 0, pretend = 0, frame = 0
 337              		@ frame_needed = 0, uses_anonymous_args = 0
 338 0000 08B5     		push	{r3, lr}
 339              		.cfi_def_cfa_offset 8
 340              		.cfi_offset 3, -8
 341              		.cfi_offset 14, -4
 342              		.loc 1 343 0
ARM GAS  /tmp/ccJzCOYD.s 			page 7


 343 0002 40F20000 		movw	r0, #:lower16:.LANCHOR0
 344 0006 C0F20000 		movt	r0, #:upper16:.LANCHOR0
 345 000a FFF7FEFF 		bl	chMtxInit
 346              	.LVL27:
 347              		.loc 1 344 0
 348 000e 40F20000 		movw	r0, #:lower16:.LANCHOR1
 349 0012 C0F20000 		movt	r0, #:upper16:.LANCHOR1
 350              		.loc 1 345 0
 351 0016 BDE80840 		pop	{r3, lr}
 352              		.loc 1 344 0
 353 001a FFF7FEBF 		b	chMtxInit
 354              	.LVL28:
 355              		.cfi_endproc
 356              	.LFE22:
 357              		.size	mtx4_setup, .-mtx4_setup
 358 001e 00BF     		.section	.text.mtx5_setup,"ax",%progbits
 359              		.align	2
 360              		.p2align 4,,15
 361              		.thumb
 362              		.thumb_func
 363              		.type	mtx5_setup, %function
 364              	mtx5_setup:
 365              	.LFB26:
 366              		.loc 1 429 0
 367              		.cfi_startproc
 368              		@ args = 0, pretend = 0, frame = 0
 369              		@ frame_needed = 0, uses_anonymous_args = 0
 370              		@ link register save eliminated.
 371              		.loc 1 431 0
 372 0000 40F20000 		movw	r0, #:lower16:.LANCHOR0
 373 0004 C0F20000 		movt	r0, #:upper16:.LANCHOR0
 374 0008 FFF7FEBF 		b	chMtxInit
 375              	.LVL29:
 376              		.cfi_endproc
 377              	.LFE26:
 378              		.size	mtx5_setup, .-mtx5_setup
 379 000c AFF30080 		.section	.text.mtx2_execute,"ax",%progbits
 380              		.align	2
 381              		.p2align 4,,15
 382              		.thumb
 383              		.thumb_func
 384              		.type	mtx2_execute, %function
 385              	mtx2_execute:
 386              	.LFB14:
 387              		.loc 1 190 0
 388              		.cfi_startproc
 389              		@ args = 0, pretend = 0, frame = 0
 390              		@ frame_needed = 0, uses_anonymous_args = 0
 391 0000 2DE9F041 		push	{r4, r5, r6, r7, r8, lr}
 392              		.cfi_def_cfa_offset 24
 393              		.cfi_offset 4, -24
 394              		.cfi_offset 5, -20
 395              		.cfi_offset 6, -16
 396              		.cfi_offset 7, -12
 397              		.cfi_offset 8, -8
 398              		.cfi_offset 14, -4
 399              		.loc 1 195 0
ARM GAS  /tmp/ccJzCOYD.s 			page 8


 400 0004 40F20006 		movw	r6, #:lower16:rlist
 401 0008 C0F20006 		movt	r6, #:upper16:rlist
 402              		.loc 1 190 0
 403 000c 82B0     		sub	sp, sp, #8
 404              		.cfi_def_cfa_offset 32
 405              		.loc 1 193 0
 406 000e FFF7FEFF 		bl	test_wait_tick
 407              	.LVL30:
 408              		.loc 1 195 0
 409 0012 B369     		ldr	r3, [r6, #24]
 410 0014 40F20005 		movw	r5, #:lower16:wa
 411 0018 9A68     		ldr	r2, [r3, #8]
 412 001a C0F20005 		movt	r5, #:upper16:wa
 413              		.loc 1 194 0
 414 001e 40F20004 		movw	r4, #:lower16:vtlist
 415              		.loc 1 195 0
 416 0022 0027     		movs	r7, #0
 417              		.loc 1 194 0
 418 0024 C0F20004 		movt	r4, #:upper16:vtlist
 419              		.loc 1 195 0
 420 0028 40F20003 		movw	r3, #:lower16:thread2H
 421 002c 013A     		subs	r2, r2, #1
 422 002e 0097     		str	r7, [sp]
 423 0030 C0F20003 		movt	r3, #:upper16:thread2H
 424 0034 4FF4A871 		mov	r1, #336
 425 0038 2868     		ldr	r0, [r5]
 426              		.loc 1 194 0
 427 003a D4F80C80 		ldr	r8, [r4, #12]
 428              	.LVL31:
 429              		.loc 1 195 0
 430 003e FFF7FEFF 		bl	chThdCreateStatic
 431              	.LVL32:
 432              		.loc 1 196 0
 433 0042 B369     		ldr	r3, [r6, #24]
 434 0044 6968     		ldr	r1, [r5, #4]
 435 0046 9A68     		ldr	r2, [r3, #8]
 436 0048 0097     		str	r7, [sp]
 437              		.loc 1 195 0
 438 004a 40F20004 		movw	r4, #:lower16:threads
 439 004e C0F20004 		movt	r4, #:upper16:threads
 440              		.loc 1 196 0
 441 0052 40F20003 		movw	r3, #:lower16:thread2M
 442              		.loc 1 195 0
 443 0056 2060     		str	r0, [r4]
 444              		.loc 1 196 0
 445 0058 023A     		subs	r2, r2, #2
 446 005a 0846     		mov	r0, r1
 447 005c C0F20003 		movt	r3, #:upper16:thread2M
 448 0060 4FF4A871 		mov	r1, #336
 449 0064 FFF7FEFF 		bl	chThdCreateStatic
 450              	.LVL33:
 451              		.loc 1 197 0
 452 0068 B369     		ldr	r3, [r6, #24]
 453 006a A968     		ldr	r1, [r5, #8]
 454 006c 9A68     		ldr	r2, [r3, #8]
 455              		.loc 1 196 0
 456 006e 6060     		str	r0, [r4, #4]
ARM GAS  /tmp/ccJzCOYD.s 			page 9


 457              		.loc 1 197 0
 458 0070 40F20003 		movw	r3, #:lower16:thread2L
 459 0074 033A     		subs	r2, r2, #3
 460 0076 0846     		mov	r0, r1
 461 0078 C0F20003 		movt	r3, #:upper16:thread2L
 462 007c 4FF4A871 		mov	r1, #336
 463 0080 0097     		str	r7, [sp]
 464 0082 FFF7FEFF 		bl	chThdCreateStatic
 465              	.LVL34:
 466 0086 A060     		str	r0, [r4, #8]
 467              		.loc 1 198 0
 468 0088 FFF7FEFF 		bl	test_wait_threads
 469              	.LVL35:
 470              		.loc 1 199 0
 471 008c 40F20001 		movw	r1, #:lower16:.LC6
 472 0090 C0F20001 		movt	r1, #:upper16:.LC6
 473 0094 0120     		movs	r0, #1
 474 0096 FFF7FEFF 		bl	_test_assert_sequence
 475              	.LVL36:
 476 009a 10B1     		cbz	r0, .L14
 477              		.loc 1 201 0
 478 009c 02B0     		add	sp, sp, #8
 479              		@ sp needed
 480 009e BDE8F081 		pop	{r4, r5, r6, r7, r8, pc}
 481              	.LVL37:
 482              	.L14:
 483              		.loc 1 200 0
 484 00a2 0220     		movs	r0, #2
 485 00a4 08F16401 		add	r1, r8, #100
 486 00a8 08F16902 		add	r2, r8, #105
 487              		.loc 1 201 0
 488 00ac 02B0     		add	sp, sp, #8
 489              		@ sp needed
 490 00ae BDE8F041 		pop	{r4, r5, r6, r7, r8, lr}
 491              	.LVL38:
 492              		.loc 1 200 0
 493 00b2 FFF7FEBF 		b	_test_assert_time_window
 494              	.LVL39:
 495              		.cfi_endproc
 496              	.LFE14:
 497              		.size	mtx2_execute, .-mtx2_execute
 498 00b6 00BFAFF3 		.section	.text.mtx3_execute,"ax",%progbits
 498      0080AFF3 
 498      0080
 499              		.align	2
 500              		.p2align 4,,15
 501              		.thumb
 502              		.thumb_func
 503              		.type	mtx3_execute, %function
 504              	mtx3_execute:
 505              	.LFB21:
 506              		.loc 1 308 0
 507              		.cfi_startproc
 508              		@ args = 0, pretend = 0, frame = 0
 509              		@ frame_needed = 0, uses_anonymous_args = 0
 510 0000 2DE9F041 		push	{r4, r5, r6, r7, r8, lr}
 511              		.cfi_def_cfa_offset 24
ARM GAS  /tmp/ccJzCOYD.s 			page 10


 512              		.cfi_offset 4, -24
 513              		.cfi_offset 5, -20
 514              		.cfi_offset 6, -16
 515              		.cfi_offset 7, -12
 516              		.cfi_offset 8, -8
 517              		.cfi_offset 14, -4
 518              		.loc 1 313 0
 519 0004 40F20006 		movw	r6, #:lower16:rlist
 520 0008 C0F20006 		movt	r6, #:upper16:rlist
 521              		.loc 1 308 0
 522 000c 82B0     		sub	sp, sp, #8
 523              		.cfi_def_cfa_offset 32
 524              		.loc 1 311 0
 525 000e FFF7FEFF 		bl	test_wait_tick
 526              	.LVL40:
 527              		.loc 1 313 0
 528 0012 B369     		ldr	r3, [r6, #24]
 529 0014 40F20005 		movw	r5, #:lower16:wa
 530 0018 C0F20005 		movt	r5, #:upper16:wa
 531 001c 9A68     		ldr	r2, [r3, #8]
 532 001e 2868     		ldr	r0, [r5]
 533              		.loc 1 312 0
 534 0020 40F20004 		movw	r4, #:lower16:vtlist
 535              		.loc 1 313 0
 536 0024 0027     		movs	r7, #0
 537              		.loc 1 312 0
 538 0026 C0F20004 		movt	r4, #:upper16:vtlist
 539              		.loc 1 313 0
 540 002a 40F20003 		movw	r3, #:lower16:thread3LL
 541 002e 053A     		subs	r2, r2, #5
 542 0030 0097     		str	r7, [sp]
 543 0032 C0F20003 		movt	r3, #:upper16:thread3LL
 544 0036 4FF4A871 		mov	r1, #336
 545              		.loc 1 312 0
 546 003a D4F80C80 		ldr	r8, [r4, #12]
 547              	.LVL41:
 548              		.loc 1 313 0
 549 003e FFF7FEFF 		bl	chThdCreateStatic
 550              	.LVL42:
 551              		.loc 1 314 0
 552 0042 B369     		ldr	r3, [r6, #24]
 553 0044 6968     		ldr	r1, [r5, #4]
 554 0046 9A68     		ldr	r2, [r3, #8]
 555 0048 0097     		str	r7, [sp]
 556              		.loc 1 313 0
 557 004a 40F20004 		movw	r4, #:lower16:threads
 558 004e C0F20004 		movt	r4, #:upper16:threads
 559              		.loc 1 314 0
 560 0052 40F20003 		movw	r3, #:lower16:thread3L
 561              		.loc 1 313 0
 562 0056 2060     		str	r0, [r4]
 563              		.loc 1 314 0
 564 0058 043A     		subs	r2, r2, #4
 565 005a 0846     		mov	r0, r1
 566 005c C0F20003 		movt	r3, #:upper16:thread3L
 567 0060 4FF4A871 		mov	r1, #336
 568 0064 FFF7FEFF 		bl	chThdCreateStatic
ARM GAS  /tmp/ccJzCOYD.s 			page 11


 569              	.LVL43:
 570              		.loc 1 315 0
 571 0068 B369     		ldr	r3, [r6, #24]
 572 006a A968     		ldr	r1, [r5, #8]
 573 006c 9A68     		ldr	r2, [r3, #8]
 574              		.loc 1 314 0
 575 006e 6060     		str	r0, [r4, #4]
 576              		.loc 1 315 0
 577 0070 40F20003 		movw	r3, #:lower16:thread3M
 578 0074 033A     		subs	r2, r2, #3
 579 0076 0846     		mov	r0, r1
 580 0078 C0F20003 		movt	r3, #:upper16:thread3M
 581 007c 4FF4A871 		mov	r1, #336
 582 0080 0097     		str	r7, [sp]
 583 0082 FFF7FEFF 		bl	chThdCreateStatic
 584              	.LVL44:
 585              		.loc 1 316 0
 586 0086 B369     		ldr	r3, [r6, #24]
 587 0088 E968     		ldr	r1, [r5, #12]
 588 008a 9A68     		ldr	r2, [r3, #8]
 589              		.loc 1 315 0
 590 008c A060     		str	r0, [r4, #8]
 591              		.loc 1 316 0
 592 008e 40F20003 		movw	r3, #:lower16:thread3H
 593 0092 023A     		subs	r2, r2, #2
 594 0094 0846     		mov	r0, r1
 595 0096 C0F20003 		movt	r3, #:upper16:thread3H
 596 009a 4FF4A871 		mov	r1, #336
 597 009e 0097     		str	r7, [sp]
 598 00a0 FFF7FEFF 		bl	chThdCreateStatic
 599              	.LVL45:
 600              		.loc 1 317 0
 601 00a4 B369     		ldr	r3, [r6, #24]
 602 00a6 2969     		ldr	r1, [r5, #16]
 603 00a8 9A68     		ldr	r2, [r3, #8]
 604              		.loc 1 316 0
 605 00aa E060     		str	r0, [r4, #12]
 606              		.loc 1 317 0
 607 00ac 40F20003 		movw	r3, #:lower16:thread3HH
 608 00b0 013A     		subs	r2, r2, #1
 609 00b2 0846     		mov	r0, r1
 610 00b4 C0F20003 		movt	r3, #:upper16:thread3HH
 611 00b8 4FF4A871 		mov	r1, #336
 612 00bc 0097     		str	r7, [sp]
 613 00be FFF7FEFF 		bl	chThdCreateStatic
 614              	.LVL46:
 615 00c2 2061     		str	r0, [r4, #16]
 616              		.loc 1 318 0
 617 00c4 FFF7FEFF 		bl	test_wait_threads
 618              	.LVL47:
 619              		.loc 1 319 0
 620 00c8 40F20001 		movw	r1, #:lower16:.LC5
 621 00cc C0F20001 		movt	r1, #:upper16:.LC5
 622 00d0 0120     		movs	r0, #1
 623 00d2 FFF7FEFF 		bl	_test_assert_sequence
 624              	.LVL48:
 625 00d6 10B1     		cbz	r0, .L17
ARM GAS  /tmp/ccJzCOYD.s 			page 12


 626              		.loc 1 321 0
 627 00d8 02B0     		add	sp, sp, #8
 628              		@ sp needed
 629 00da BDE8F081 		pop	{r4, r5, r6, r7, r8, pc}
 630              	.LVL49:
 631              	.L17:
 632              		.loc 1 320 0
 633 00de 0220     		movs	r0, #2
 634 00e0 08F16E01 		add	r1, r8, #110
 635 00e4 08F17302 		add	r2, r8, #115
 636              		.loc 1 321 0
 637 00e8 02B0     		add	sp, sp, #8
 638              		@ sp needed
 639 00ea BDE8F041 		pop	{r4, r5, r6, r7, r8, lr}
 640              	.LVL50:
 641              		.loc 1 320 0
 642 00ee FFF7FEBF 		b	_test_assert_time_window
 643              	.LVL51:
 644              		.cfi_endproc
 645              	.LFE21:
 646              		.size	mtx3_execute, .-mtx3_execute
 647 00f2 00BFAFF3 		.section	.text.thread2L,"ax",%progbits
 647      0080AFF3 
 647      0080AFF3 
 647      0080
 648              		.align	2
 649              		.p2align 4,,15
 650              		.thumb
 651              		.thumb_func
 652              		.type	thread2L, %function
 653              	thread2L:
 654              	.LFB11:
 655              		.loc 1 157 0
 656              		.cfi_startproc
 657              		@ args = 0, pretend = 0, frame = 0
 658              		@ frame_needed = 0, uses_anonymous_args = 0
 659              	.LVL52:
 660 0000 08B5     		push	{r3, lr}
 661              		.cfi_def_cfa_offset 8
 662              		.cfi_offset 3, -8
 663              		.cfi_offset 14, -4
 664              		.loc 1 160 0
 665 0002 40F20000 		movw	r0, #:lower16:.LANCHOR0
 666              	.LVL53:
 667 0006 C0F20000 		movt	r0, #:upper16:.LANCHOR0
 668 000a FFF7FEFF 		bl	chMtxLock
 669              	.LVL54:
 670              		.loc 1 161 0
 671 000e 2820     		movs	r0, #40
 672 0010 FFF7FEFF 		bl	test_cpu_pulse
 673              	.LVL55:
 674              		.loc 1 162 0
 675 0014 FFF7FEFF 		bl	chMtxUnlock
 676              	.LVL56:
 677              		.loc 1 163 0
 678 0018 0A20     		movs	r0, #10
 679 001a FFF7FEFF 		bl	test_cpu_pulse
ARM GAS  /tmp/ccJzCOYD.s 			page 13


 680              	.LVL57:
 681              		.loc 1 164 0
 682 001e 4320     		movs	r0, #67
 683 0020 FFF7FEFF 		bl	test_emit_token
 684              	.LVL58:
 685              		.loc 1 166 0
 686 0024 0020     		movs	r0, #0
 687 0026 08BD     		pop	{r3, pc}
 688              		.cfi_endproc
 689              	.LFE11:
 690              		.size	thread2L, .-thread2L
 691 0028 AFF30080 		.section	.text.thread3LL,"ax",%progbits
 691      AFF30080 
 692              		.align	2
 693              		.p2align 4,,15
 694              		.thumb
 695              		.thumb_func
 696              		.type	thread3LL, %function
 697              	thread3LL:
 698              	.LFB16:
 699              		.loc 1 248 0
 700              		.cfi_startproc
 701              		@ args = 0, pretend = 0, frame = 0
 702              		@ frame_needed = 0, uses_anonymous_args = 0
 703              	.LVL59:
 704 0000 08B5     		push	{r3, lr}
 705              		.cfi_def_cfa_offset 8
 706              		.cfi_offset 3, -8
 707              		.cfi_offset 14, -4
 708              		.loc 1 251 0
 709 0002 40F20000 		movw	r0, #:lower16:.LANCHOR0
 710              	.LVL60:
 711 0006 C0F20000 		movt	r0, #:upper16:.LANCHOR0
 712 000a FFF7FEFF 		bl	chMtxLock
 713              	.LVL61:
 714              		.loc 1 252 0
 715 000e 1E20     		movs	r0, #30
 716 0010 FFF7FEFF 		bl	test_cpu_pulse
 717              	.LVL62:
 718              		.loc 1 253 0
 719 0014 FFF7FEFF 		bl	chMtxUnlock
 720              	.LVL63:
 721              		.loc 1 254 0
 722 0018 4520     		movs	r0, #69
 723 001a FFF7FEFF 		bl	test_emit_token
 724              	.LVL64:
 725              		.loc 1 256 0
 726 001e 0020     		movs	r0, #0
 727 0020 08BD     		pop	{r3, pc}
 728              		.cfi_endproc
 729              	.LFE16:
 730              		.size	thread3LL, .-thread3LL
 731 0022 00BFAFF3 		.section	.text.thread2M,"ax",%progbits
 731      0080AFF3 
 731      0080AFF3 
 731      0080
 732              		.align	2
ARM GAS  /tmp/ccJzCOYD.s 			page 14


 733              		.p2align 4,,15
 734              		.thumb
 735              		.thumb_func
 736              		.type	thread2M, %function
 737              	thread2M:
 738              	.LFB12:
 739              		.loc 1 169 0
 740              		.cfi_startproc
 741              		@ args = 0, pretend = 0, frame = 0
 742              		@ frame_needed = 0, uses_anonymous_args = 0
 743              	.LVL65:
 744 0000 08B5     		push	{r3, lr}
 745              		.cfi_def_cfa_offset 8
 746              		.cfi_offset 3, -8
 747              		.cfi_offset 14, -4
 748              		.loc 1 172 0
 749 0002 1420     		movs	r0, #20
 750              	.LVL66:
 751 0004 FFF7FEFF 		bl	chThdSleep
 752              	.LVL67:
 753              		.loc 1 173 0
 754 0008 2820     		movs	r0, #40
 755 000a FFF7FEFF 		bl	test_cpu_pulse
 756              	.LVL68:
 757              		.loc 1 174 0
 758 000e 4220     		movs	r0, #66
 759 0010 FFF7FEFF 		bl	test_emit_token
 760              	.LVL69:
 761              		.loc 1 176 0
 762 0014 0020     		movs	r0, #0
 763 0016 08BD     		pop	{r3, pc}
 764              		.cfi_endproc
 765              	.LFE12:
 766              		.size	thread2M, .-thread2M
 767 0018 AFF30080 		.section	.text.thread2H,"ax",%progbits
 767      AFF30080 
 768              		.align	2
 769              		.p2align 4,,15
 770              		.thumb
 771              		.thumb_func
 772              		.type	thread2H, %function
 773              	thread2H:
 774              	.LFB13:
 775              		.loc 1 179 0
 776              		.cfi_startproc
 777              		@ args = 0, pretend = 0, frame = 0
 778              		@ frame_needed = 0, uses_anonymous_args = 0
 779              	.LVL70:
 780 0000 08B5     		push	{r3, lr}
 781              		.cfi_def_cfa_offset 8
 782              		.cfi_offset 3, -8
 783              		.cfi_offset 14, -4
 784              		.loc 1 182 0
 785 0002 2820     		movs	r0, #40
 786              	.LVL71:
 787 0004 FFF7FEFF 		bl	chThdSleep
 788              	.LVL72:
ARM GAS  /tmp/ccJzCOYD.s 			page 15


 789              		.loc 1 183 0
 790 0008 40F20000 		movw	r0, #:lower16:.LANCHOR0
 791 000c C0F20000 		movt	r0, #:upper16:.LANCHOR0
 792 0010 FFF7FEFF 		bl	chMtxLock
 793              	.LVL73:
 794              		.loc 1 184 0
 795 0014 0A20     		movs	r0, #10
 796 0016 FFF7FEFF 		bl	test_cpu_pulse
 797              	.LVL74:
 798              		.loc 1 185 0
 799 001a FFF7FEFF 		bl	chMtxUnlock
 800              	.LVL75:
 801              		.loc 1 186 0
 802 001e 4120     		movs	r0, #65
 803 0020 FFF7FEFF 		bl	test_emit_token
 804              	.LVL76:
 805              		.loc 1 188 0
 806 0024 0020     		movs	r0, #0
 807 0026 08BD     		pop	{r3, pc}
 808              		.cfi_endproc
 809              	.LFE13:
 810              		.size	thread2H, .-thread2H
 811 0028 AFF30080 		.section	.text.thread3HH,"ax",%progbits
 811      AFF30080 
 812              		.align	2
 813              		.p2align 4,,15
 814              		.thumb
 815              		.thumb_func
 816              		.type	thread3HH, %function
 817              	thread3HH:
 818              	.LFB20:
 819              		.loc 1 297 0
 820              		.cfi_startproc
 821              		@ args = 0, pretend = 0, frame = 0
 822              		@ frame_needed = 0, uses_anonymous_args = 0
 823              	.LVL77:
 824 0000 08B5     		push	{r3, lr}
 825              		.cfi_def_cfa_offset 8
 826              		.cfi_offset 3, -8
 827              		.cfi_offset 14, -4
 828              		.loc 1 300 0
 829 0002 3220     		movs	r0, #50
 830              	.LVL78:
 831 0004 FFF7FEFF 		bl	chThdSleep
 832              	.LVL79:
 833              		.loc 1 301 0
 834 0008 40F20000 		movw	r0, #:lower16:.LANCHOR1
 835 000c C0F20000 		movt	r0, #:upper16:.LANCHOR1
 836 0010 FFF7FEFF 		bl	chMtxLock
 837              	.LVL80:
 838              		.loc 1 302 0
 839 0014 0A20     		movs	r0, #10
 840 0016 FFF7FEFF 		bl	test_cpu_pulse
 841              	.LVL81:
 842              		.loc 1 303 0
 843 001a FFF7FEFF 		bl	chMtxUnlock
 844              	.LVL82:
ARM GAS  /tmp/ccJzCOYD.s 			page 16


 845              		.loc 1 304 0
 846 001e 4120     		movs	r0, #65
 847 0020 FFF7FEFF 		bl	test_emit_token
 848              	.LVL83:
 849              		.loc 1 306 0
 850 0024 0020     		movs	r0, #0
 851 0026 08BD     		pop	{r3, pc}
 852              		.cfi_endproc
 853              	.LFE20:
 854              		.size	thread3HH, .-thread3HH
 855 0028 AFF30080 		.section	.text.thread3H,"ax",%progbits
 855      AFF30080 
 856              		.align	2
 857              		.p2align 4,,15
 858              		.thumb
 859              		.thumb_func
 860              		.type	thread3H, %function
 861              	thread3H:
 862              	.LFB19:
 863              		.loc 1 287 0
 864              		.cfi_startproc
 865              		@ args = 0, pretend = 0, frame = 0
 866              		@ frame_needed = 0, uses_anonymous_args = 0
 867              	.LVL84:
 868 0000 08B5     		push	{r3, lr}
 869              		.cfi_def_cfa_offset 8
 870              		.cfi_offset 3, -8
 871              		.cfi_offset 14, -4
 872              		.loc 1 290 0
 873 0002 2820     		movs	r0, #40
 874              	.LVL85:
 875 0004 FFF7FEFF 		bl	chThdSleep
 876              	.LVL86:
 877              		.loc 1 291 0
 878 0008 1420     		movs	r0, #20
 879 000a FFF7FEFF 		bl	test_cpu_pulse
 880              	.LVL87:
 881              		.loc 1 292 0
 882 000e 4220     		movs	r0, #66
 883 0010 FFF7FEFF 		bl	test_emit_token
 884              	.LVL88:
 885              		.loc 1 294 0
 886 0014 0020     		movs	r0, #0
 887 0016 08BD     		pop	{r3, pc}
 888              		.cfi_endproc
 889              	.LFE19:
 890              		.size	thread3H, .-thread3H
 891 0018 AFF30080 		.section	.text.thread3M,"ax",%progbits
 891      AFF30080 
 892              		.align	2
 893              		.p2align 4,,15
 894              		.thumb
 895              		.thumb_func
 896              		.type	thread3M, %function
 897              	thread3M:
 898              	.LFB18:
 899              		.loc 1 275 0
ARM GAS  /tmp/ccJzCOYD.s 			page 17


 900              		.cfi_startproc
 901              		@ args = 0, pretend = 0, frame = 0
 902              		@ frame_needed = 0, uses_anonymous_args = 0
 903              	.LVL89:
 904 0000 08B5     		push	{r3, lr}
 905              		.cfi_def_cfa_offset 8
 906              		.cfi_offset 3, -8
 907              		.cfi_offset 14, -4
 908              		.loc 1 278 0
 909 0002 1420     		movs	r0, #20
 910              	.LVL90:
 911 0004 FFF7FEFF 		bl	chThdSleep
 912              	.LVL91:
 913              		.loc 1 279 0
 914 0008 40F20000 		movw	r0, #:lower16:.LANCHOR1
 915 000c C0F20000 		movt	r0, #:upper16:.LANCHOR1
 916 0010 FFF7FEFF 		bl	chMtxLock
 917              	.LVL92:
 918              		.loc 1 280 0
 919 0014 0A20     		movs	r0, #10
 920 0016 FFF7FEFF 		bl	test_cpu_pulse
 921              	.LVL93:
 922              		.loc 1 281 0
 923 001a FFF7FEFF 		bl	chMtxUnlock
 924              	.LVL94:
 925              		.loc 1 282 0
 926 001e 4320     		movs	r0, #67
 927 0020 FFF7FEFF 		bl	test_emit_token
 928              	.LVL95:
 929              		.loc 1 284 0
 930 0024 0020     		movs	r0, #0
 931 0026 08BD     		pop	{r3, pc}
 932              		.cfi_endproc
 933              	.LFE18:
 934              		.size	thread3M, .-thread3M
 935 0028 AFF30080 		.section	.text.thread3L,"ax",%progbits
 935      AFF30080 
 936              		.align	2
 937              		.p2align 4,,15
 938              		.thumb
 939              		.thumb_func
 940              		.type	thread3L, %function
 941              	thread3L:
 942              	.LFB17:
 943              		.loc 1 259 0
 944              		.cfi_startproc
 945              		@ args = 0, pretend = 0, frame = 0
 946              		@ frame_needed = 0, uses_anonymous_args = 0
 947              	.LVL96:
 948 0000 08B5     		push	{r3, lr}
 949              		.cfi_def_cfa_offset 8
 950              		.cfi_offset 3, -8
 951              		.cfi_offset 14, -4
 952              		.loc 1 262 0
 953 0002 0A20     		movs	r0, #10
 954              	.LVL97:
 955 0004 FFF7FEFF 		bl	chThdSleep
ARM GAS  /tmp/ccJzCOYD.s 			page 18


 956              	.LVL98:
 957              		.loc 1 263 0
 958 0008 40F20000 		movw	r0, #:lower16:.LANCHOR1
 959 000c C0F20000 		movt	r0, #:upper16:.LANCHOR1
 960 0010 FFF7FEFF 		bl	chMtxLock
 961              	.LVL99:
 962              		.loc 1 264 0
 963 0014 1420     		movs	r0, #20
 964 0016 FFF7FEFF 		bl	test_cpu_pulse
 965              	.LVL100:
 966              		.loc 1 265 0
 967 001a 40F20000 		movw	r0, #:lower16:.LANCHOR0
 968 001e C0F20000 		movt	r0, #:upper16:.LANCHOR0
 969 0022 FFF7FEFF 		bl	chMtxLock
 970              	.LVL101:
 971              		.loc 1 266 0
 972 0026 0A20     		movs	r0, #10
 973 0028 FFF7FEFF 		bl	test_cpu_pulse
 974              	.LVL102:
 975              		.loc 1 267 0
 976 002c FFF7FEFF 		bl	chMtxUnlock
 977              	.LVL103:
 978              		.loc 1 268 0
 979 0030 0A20     		movs	r0, #10
 980 0032 FFF7FEFF 		bl	test_cpu_pulse
 981              	.LVL104:
 982              		.loc 1 269 0
 983 0036 FFF7FEFF 		bl	chMtxUnlock
 984              	.LVL105:
 985              		.loc 1 270 0
 986 003a 4420     		movs	r0, #68
 987 003c FFF7FEFF 		bl	test_emit_token
 988              	.LVL106:
 989              		.loc 1 272 0
 990 0040 0020     		movs	r0, #0
 991 0042 08BD     		pop	{r3, pc}
 992              		.cfi_endproc
 993              	.LFE17:
 994              		.size	thread3L, .-thread3L
 995 0044 AFF30080 		.section	.text.thread4b,"ax",%progbits
 995      AFF30080 
 995      AFF30080 
 996              		.align	2
 997              		.p2align 4,,15
 998              		.thumb
 999              		.thumb_func
 1000              		.type	thread4b, %function
 1001              	thread4b:
 1002              	.LFB24:
 1003              		.loc 1 356 0
 1004              		.cfi_startproc
 1005              		@ args = 0, pretend = 0, frame = 0
 1006              		@ frame_needed = 0, uses_anonymous_args = 0
 1007              	.LVL107:
 1008 0000 08B5     		push	{r3, lr}
 1009              		.cfi_def_cfa_offset 8
 1010              		.cfi_offset 3, -8
ARM GAS  /tmp/ccJzCOYD.s 			page 19


 1011              		.cfi_offset 14, -4
 1012              		.loc 1 359 0
 1013 0002 9620     		movs	r0, #150
 1014              	.LVL108:
 1015 0004 FFF7FEFF 		bl	chThdSleep
 1016              	.LVL109:
 1017              		.loc 1 360 0
 1018 0008 40F20000 		movw	r0, #:lower16:.LANCHOR0
 1019 000c C0F20000 		movt	r0, #:upper16:.LANCHOR0
 1020 0010 FFF7FEFF 		bl	chMtxLock
 1021              	.LVL110:
 1022              		.loc 1 361 0
 1023 0014 FFF7FEFF 		bl	chMtxUnlock
 1024              	.LVL111:
 1025              		.loc 1 363 0
 1026 0018 0020     		movs	r0, #0
 1027 001a 08BD     		pop	{r3, pc}
 1028              		.cfi_endproc
 1029              	.LFE24:
 1030              		.size	thread4b, .-thread4b
 1031 001c AFF30080 		.section	.text.thread4a,"ax",%progbits
 1032              		.align	2
 1033              		.p2align 4,,15
 1034              		.thumb
 1035              		.thumb_func
 1036              		.type	thread4a, %function
 1037              	thread4a:
 1038              	.LFB23:
 1039              		.loc 1 347 0
 1040              		.cfi_startproc
 1041              		@ args = 0, pretend = 0, frame = 0
 1042              		@ frame_needed = 0, uses_anonymous_args = 0
 1043              	.LVL112:
 1044 0000 08B5     		push	{r3, lr}
 1045              		.cfi_def_cfa_offset 8
 1046              		.cfi_offset 3, -8
 1047              		.cfi_offset 14, -4
 1048              		.loc 1 350 0
 1049 0002 3220     		movs	r0, #50
 1050              	.LVL113:
 1051 0004 FFF7FEFF 		bl	chThdSleep
 1052              	.LVL114:
 1053              		.loc 1 351 0
 1054 0008 40F20000 		movw	r0, #:lower16:.LANCHOR1
 1055 000c C0F20000 		movt	r0, #:upper16:.LANCHOR1
 1056 0010 FFF7FEFF 		bl	chMtxLock
 1057              	.LVL115:
 1058              		.loc 1 352 0
 1059 0014 FFF7FEFF 		bl	chMtxUnlock
 1060              	.LVL116:
 1061              		.loc 1 354 0
 1062 0018 0020     		movs	r0, #0
 1063 001a 08BD     		pop	{r3, pc}
 1064              		.cfi_endproc
 1065              	.LFE23:
 1066              		.size	thread4a, .-thread4a
 1067 001c AFF30080 		.section	.text.mtx4_execute,"ax",%progbits
ARM GAS  /tmp/ccJzCOYD.s 			page 20


 1068              		.align	2
 1069              		.p2align 4,,15
 1070              		.thumb
 1071              		.thumb_func
 1072              		.type	mtx4_execute, %function
 1073              	mtx4_execute:
 1074              	.LFB25:
 1075              		.loc 1 365 0
 1076              		.cfi_startproc
 1077              		@ args = 0, pretend = 0, frame = 8
 1078              		@ frame_needed = 0, uses_anonymous_args = 0
 1079 0000 2DE9F046 		push	{r4, r5, r6, r7, r9, r10, lr}
 1080              		.cfi_def_cfa_offset 28
 1081              		.cfi_offset 4, -28
 1082              		.cfi_offset 5, -24
 1083              		.cfi_offset 6, -20
 1084              		.cfi_offset 7, -16
 1085              		.cfi_offset 9, -12
 1086              		.cfi_offset 10, -8
 1087              		.cfi_offset 14, -4
 1088              		.loc 1 368 0
 1089 0004 40F20004 		movw	r4, #:lower16:rlist
 1090 0008 C0F20004 		movt	r4, #:upper16:rlist
 1091              		.loc 1 371 0
 1092 000c 40F20006 		movw	r6, #:lower16:wa
 1093              		.loc 1 368 0
 1094 0010 A369     		ldr	r3, [r4, #24]
 1095              		.loc 1 371 0
 1096 0012 C0F20006 		movt	r6, #:upper16:wa
 1097              		.loc 1 365 0
 1098 0016 85B0     		sub	sp, sp, #20
 1099              		.cfi_def_cfa_offset 48
 1100              		.loc 1 368 0
 1101 0018 9F68     		ldr	r7, [r3, #8]
 1102              	.LVL117:
 1103              		.loc 1 371 0
 1104 001a 3368     		ldr	r3, [r6]
 1105 001c 40F20001 		movw	r1, #:lower16:.LC3
 1106 0020 0393     		str	r3, [sp, #12]
 1107 0022 C0F20001 		movt	r1, #:upper16:.LC3
 1108              		.loc 1 369 0
 1109 0026 07F10109 		add	r9, r7, #1
 1110              	.LVL118:
 1111              		.loc 1 371 0
 1112 002a 40F20003 		movw	r3, #:lower16:thread4a
 1113 002e 4A46     		mov	r2, r9
 1114 0030 0091     		str	r1, [sp]
 1115 0032 C0F20003 		movt	r3, #:upper16:thread4a
 1116 0036 4FF4A871 		mov	r1, #336
 1117 003a 0398     		ldr	r0, [sp, #12]
 1118 003c FFF7FEFF 		bl	chThdCreateStatic
 1119              	.LVL119:
 1120 0040 40F20005 		movw	r5, #:lower16:threads
 1121              		.loc 1 372 0
 1122 0044 7668     		ldr	r6, [r6, #4]
 1123              		.loc 1 371 0
 1124 0046 C0F20005 		movt	r5, #:upper16:threads
ARM GAS  /tmp/ccJzCOYD.s 			page 21


 1125              		.loc 1 372 0
 1126 004a 40F20001 		movw	r1, #:lower16:.LC4
 1127 004e C0F20001 		movt	r1, #:upper16:.LC4
 1128              		.loc 1 370 0
 1129 0052 07F1020A 		add	r10, r7, #2
 1130              	.LVL120:
 1131              		.loc 1 372 0
 1132 0056 40F20003 		movw	r3, #:lower16:thread4b
 1133              		.loc 1 371 0
 1134 005a 2860     		str	r0, [r5]
 1135              		.loc 1 372 0
 1136 005c C0F20003 		movt	r3, #:upper16:thread4b
 1137 0060 5246     		mov	r2, r10
 1138 0062 0091     		str	r1, [sp]
 1139 0064 3046     		mov	r0, r6
 1140 0066 4FF4A871 		mov	r1, #336
 1141 006a FFF7FEFF 		bl	chThdCreateStatic
 1142              	.LVL121:
 1143 006e 6860     		str	r0, [r5, #4]
 1144              		.loc 1 373 0
 1145 0070 40F20000 		movw	r0, #:lower16:.LANCHOR1
 1146 0074 C0F20000 		movt	r0, #:upper16:.LANCHOR1
 1147 0078 FFF7FEFF 		bl	chMtxLock
 1148              	.LVL122:
 1149              		.loc 1 374 0
 1150 007c A369     		ldr	r3, [r4, #24]
 1151 007e 9968     		ldr	r1, [r3, #8]
 1152 0080 CB1B     		subs	r3, r1, r7
 1153 0082 5942     		rsbs	r1, r3, #0
 1154 0084 5941     		adcs	r1, r1, r3
 1155 0086 0120     		movs	r0, #1
 1156 0088 FFF7FEFF 		bl	_test_assert
 1157              	.LVL123:
 1158 008c 10B1     		cbz	r0, .L32
 1159              	.L28:
 1160              		.loc 1 410 0
 1161 008e 05B0     		add	sp, sp, #20
 1162              		@ sp needed
 1163 0090 BDE8F086 		pop	{r4, r5, r6, r7, r9, r10, pc}
 1164              	.LVL124:
 1165              	.L32:
 1166              		.loc 1 375 0
 1167 0094 6420     		movs	r0, #100
 1168 0096 FFF7FEFF 		bl	chThdSleep
 1169              	.LVL125:
 1170              		.loc 1 376 0
 1171 009a A369     		ldr	r3, [r4, #24]
 1172 009c 9968     		ldr	r1, [r3, #8]
 1173 009e B1EB090C 		subs	ip, r1, r9
 1174 00a2 DCF10001 		rsbs	r1, ip, #0
 1175 00a6 51EB0C01 		adcs	r1, r1, ip
 1176 00aa 0220     		movs	r0, #2
 1177 00ac FFF7FEFF 		bl	_test_assert
 1178              	.LVL126:
 1179 00b0 0028     		cmp	r0, #0
 1180 00b2 ECD1     		bne	.L28
 1181              		.loc 1 377 0
ARM GAS  /tmp/ccJzCOYD.s 			page 22


 1182 00b4 40F20000 		movw	r0, #:lower16:.LANCHOR0
 1183 00b8 C0F20000 		movt	r0, #:upper16:.LANCHOR0
 1184 00bc FFF7FEFF 		bl	chMtxLock
 1185              	.LVL127:
 1186              		.loc 1 378 0
 1187 00c0 A369     		ldr	r3, [r4, #24]
 1188 00c2 9968     		ldr	r1, [r3, #8]
 1189 00c4 B1EB090E 		subs	lr, r1, r9
 1190 00c8 DEF10001 		rsbs	r1, lr, #0
 1191 00cc 51EB0E01 		adcs	r1, r1, lr
 1192 00d0 0320     		movs	r0, #3
 1193 00d2 FFF7FEFF 		bl	_test_assert
 1194              	.LVL128:
 1195 00d6 0028     		cmp	r0, #0
 1196 00d8 D9D1     		bne	.L28
 1197              		.loc 1 379 0
 1198 00da 6420     		movs	r0, #100
 1199 00dc FFF7FEFF 		bl	chThdSleep
 1200              	.LVL129:
 1201              		.loc 1 380 0
 1202 00e0 A369     		ldr	r3, [r4, #24]
 1203 00e2 9968     		ldr	r1, [r3, #8]
 1204 00e4 B1EB0A02 		subs	r2, r1, r10
 1205 00e8 5142     		rsbs	r1, r2, #0
 1206 00ea 5141     		adcs	r1, r1, r2
 1207 00ec 0420     		movs	r0, #4
 1208 00ee FFF7FEFF 		bl	_test_assert
 1209              	.LVL130:
 1210 00f2 0028     		cmp	r0, #0
 1211 00f4 CBD1     		bne	.L28
 1212              		.loc 1 381 0
 1213 00f6 FFF7FEFF 		bl	chMtxUnlock
 1214              	.LVL131:
 1215              		.loc 1 382 0
 1216 00fa A369     		ldr	r3, [r4, #24]
 1217 00fc 9968     		ldr	r1, [r3, #8]
 1218 00fe B1EB0903 		subs	r3, r1, r9
 1219 0102 5942     		rsbs	r1, r3, #0
 1220 0104 5941     		adcs	r1, r1, r3
 1221 0106 0520     		movs	r0, #5
 1222 0108 FFF7FEFF 		bl	_test_assert
 1223              	.LVL132:
 1224 010c 0028     		cmp	r0, #0
 1225 010e BED1     		bne	.L28
 1226              		.loc 1 383 0
 1227 0110 6420     		movs	r0, #100
 1228 0112 FFF7FEFF 		bl	chThdSleep
 1229              	.LVL133:
 1230              		.loc 1 384 0
 1231 0116 A369     		ldr	r3, [r4, #24]
 1232 0118 9968     		ldr	r1, [r3, #8]
 1233 011a B1EB090C 		subs	ip, r1, r9
 1234 011e DCF10001 		rsbs	r1, ip, #0
 1235 0122 51EB0C01 		adcs	r1, r1, ip
 1236 0126 0620     		movs	r0, #6
 1237 0128 FFF7FEFF 		bl	_test_assert
 1238              	.LVL134:
ARM GAS  /tmp/ccJzCOYD.s 			page 23


 1239 012c 0028     		cmp	r0, #0
 1240 012e AED1     		bne	.L28
 1241              		.loc 1 385 0
 1242 0130 FFF7FEFF 		bl	chMtxUnlockAll
 1243              	.LVL135:
 1244              		.loc 1 386 0
 1245 0134 A369     		ldr	r3, [r4, #24]
 1246 0136 9968     		ldr	r1, [r3, #8]
 1247 0138 B1EB070E 		subs	lr, r1, r7
 1248 013c DEF10001 		rsbs	r1, lr, #0
 1249 0140 51EB0E01 		adcs	r1, r1, lr
 1250 0144 0720     		movs	r0, #7
 1251 0146 FFF7FEFF 		bl	_test_assert
 1252              	.LVL136:
 1253 014a 0028     		cmp	r0, #0
 1254 014c 9FD1     		bne	.L28
 1255              		.loc 1 387 0
 1256 014e FFF7FEFF 		bl	test_wait_threads
 1257              	.LVL137:
 1258              		.loc 1 390 0
 1259 0152 40F20002 		movw	r2, #:lower16:.LC1
 1260 0156 C0F20002 		movt	r2, #:upper16:.LC1
 1261 015a 40F20003 		movw	r3, #:lower16:thread4a
 1262 015e 0092     		str	r2, [sp]
 1263 0160 C0F20003 		movt	r3, #:upper16:thread4a
 1264 0164 4FF4A871 		mov	r1, #336
 1265 0168 4A46     		mov	r2, r9
 1266 016a 0398     		ldr	r0, [sp, #12]
 1267 016c FFF7FEFF 		bl	chThdCreateStatic
 1268              	.LVL138:
 1269              		.loc 1 391 0
 1270 0170 40F20002 		movw	r2, #:lower16:.LC2
 1271 0174 C0F20002 		movt	r2, #:upper16:.LC2
 1272 0178 40F20003 		movw	r3, #:lower16:thread4b
 1273              		.loc 1 390 0
 1274 017c 2860     		str	r0, [r5]
 1275              		.loc 1 391 0
 1276 017e C0F20003 		movt	r3, #:upper16:thread4b
 1277 0182 4FF4A871 		mov	r1, #336
 1278 0186 0092     		str	r2, [sp]
 1279 0188 3046     		mov	r0, r6
 1280 018a 5246     		mov	r2, r10
 1281 018c FFF7FEFF 		bl	chThdCreateStatic
 1282              	.LVL139:
 1283 0190 6860     		str	r0, [r5, #4]
 1284              		.loc 1 392 0
 1285 0192 40F20000 		movw	r0, #:lower16:.LANCHOR1
 1286 0196 C0F20000 		movt	r0, #:upper16:.LANCHOR1
 1287 019a FFF7FEFF 		bl	chMtxLock
 1288              	.LVL140:
 1289              		.loc 1 393 0
 1290 019e A369     		ldr	r3, [r4, #24]
 1291 01a0 9968     		ldr	r1, [r3, #8]
 1292 01a2 CA1B     		subs	r2, r1, r7
 1293 01a4 5142     		rsbs	r1, r2, #0
 1294 01a6 5141     		adcs	r1, r1, r2
 1295 01a8 0820     		movs	r0, #8
ARM GAS  /tmp/ccJzCOYD.s 			page 24


 1296 01aa FFF7FEFF 		bl	_test_assert
 1297              	.LVL141:
 1298 01ae 0028     		cmp	r0, #0
 1299 01b0 7FF46DAF 		bne	.L28
 1300              		.loc 1 394 0
 1301 01b4 6420     		movs	r0, #100
 1302 01b6 FFF7FEFF 		bl	chThdSleep
 1303              	.LVL142:
 1304              		.loc 1 395 0
 1305 01ba A369     		ldr	r3, [r4, #24]
 1306 01bc 9968     		ldr	r1, [r3, #8]
 1307 01be B1EB0903 		subs	r3, r1, r9
 1308 01c2 5942     		rsbs	r1, r3, #0
 1309 01c4 5941     		adcs	r1, r1, r3
 1310 01c6 0920     		movs	r0, #9
 1311 01c8 FFF7FEFF 		bl	_test_assert
 1312              	.LVL143:
 1313 01cc 0028     		cmp	r0, #0
 1314 01ce 7FF45EAF 		bne	.L28
 1315              		.loc 1 396 0
 1316 01d2 40F20000 		movw	r0, #:lower16:.LANCHOR0
 1317 01d6 C0F20000 		movt	r0, #:upper16:.LANCHOR0
 1318 01da FFF7FEFF 		bl	chMtxLock
 1319              	.LVL144:
 1320              		.loc 1 397 0
 1321 01de A369     		ldr	r3, [r4, #24]
 1322 01e0 9968     		ldr	r1, [r3, #8]
 1323 01e2 B1EB090C 		subs	ip, r1, r9
 1324 01e6 DCF10001 		rsbs	r1, ip, #0
 1325 01ea 51EB0C01 		adcs	r1, r1, ip
 1326 01ee 0A20     		movs	r0, #10
 1327 01f0 FFF7FEFF 		bl	_test_assert
 1328              	.LVL145:
 1329 01f4 0028     		cmp	r0, #0
 1330 01f6 7FF44AAF 		bne	.L28
 1331              		.loc 1 398 0
 1332 01fa 6420     		movs	r0, #100
 1333 01fc FFF7FEFF 		bl	chThdSleep
 1334              	.LVL146:
 1335              		.loc 1 399 0
 1336 0200 A369     		ldr	r3, [r4, #24]
 1337 0202 9968     		ldr	r1, [r3, #8]
 1338 0204 B1EB0A0E 		subs	lr, r1, r10
 1339 0208 DEF10001 		rsbs	r1, lr, #0
 1340 020c 51EB0E01 		adcs	r1, r1, lr
 1341 0210 0B20     		movs	r0, #11
 1342 0212 FFF7FEFF 		bl	_test_assert
 1343              	.LVL147:
 1344 0216 0028     		cmp	r0, #0
 1345 0218 7FF439AF 		bne	.L28
 1346              	.LBB2:
 1347              		.loc 1 400 0
 1348 021c 2023     		movs	r3, #32
 1349              	@ 400 "../../test/testmtx.c" 1
 1350 021e 83F31188 		msr     BASEPRI, r3
 1351              	@ 0 "" 2
 1352              		.thumb
ARM GAS  /tmp/ccJzCOYD.s 			page 25


 1353              	.LBE2:
 1354              		.loc 1 401 0
 1355 0222 FFF7FEFF 		bl	chMtxUnlockS
 1356              	.LVL148:
 1357              		.loc 1 402 0
 1358 0226 FFF7FEFF 		bl	chSchRescheduleS
 1359              	.LVL149:
 1360              	.LBB3:
 1361              		.loc 1 403 0
 1362 022a 0023     		movs	r3, #0
 1363              	@ 403 "../../test/testmtx.c" 1
 1364 022c 83F31188 		msr     BASEPRI, r3
 1365              	@ 0 "" 2
 1366              		.thumb
 1367              	.LBE3:
 1368              		.loc 1 404 0
 1369 0230 A369     		ldr	r3, [r4, #24]
 1370 0232 9968     		ldr	r1, [r3, #8]
 1371 0234 B1EB0906 		subs	r6, r1, r9
 1372 0238 7142     		rsbs	r1, r6, #0
 1373 023a 40F20004 		movw	r4, #:lower16:rlist
 1374 023e 7141     		adcs	r1, r1, r6
 1375 0240 0C20     		movs	r0, #12
 1376 0242 C0F20004 		movt	r4, #:upper16:rlist
 1377 0246 FFF7FEFF 		bl	_test_assert
 1378              	.LVL150:
 1379 024a 0028     		cmp	r0, #0
 1380 024c 7FF41FAF 		bne	.L28
 1381              		.loc 1 405 0
 1382 0250 6420     		movs	r0, #100
 1383 0252 FFF7FEFF 		bl	chThdSleep
 1384              	.LVL151:
 1385              		.loc 1 406 0
 1386 0256 A369     		ldr	r3, [r4, #24]
 1387 0258 9968     		ldr	r1, [r3, #8]
 1388 025a B1EB0905 		subs	r5, r1, r9
 1389 025e 6942     		rsbs	r1, r5, #0
 1390 0260 6941     		adcs	r1, r1, r5
 1391 0262 0D20     		movs	r0, #13
 1392 0264 FFF7FEFF 		bl	_test_assert
 1393              	.LVL152:
 1394 0268 0028     		cmp	r0, #0
 1395 026a 7FF410AF 		bne	.L28
 1396              		.loc 1 407 0
 1397 026e FFF7FEFF 		bl	chMtxUnlockAll
 1398              	.LVL153:
 1399              		.loc 1 408 0
 1400 0272 A369     		ldr	r3, [r4, #24]
 1401 0274 9968     		ldr	r1, [r3, #8]
 1402 0276 CA1B     		subs	r2, r1, r7
 1403 0278 5142     		rsbs	r1, r2, #0
 1404 027a 5141     		adcs	r1, r1, r2
 1405 027c 0E20     		movs	r0, #14
 1406 027e FFF7FEFF 		bl	_test_assert
 1407              	.LVL154:
 1408 0282 0028     		cmp	r0, #0
 1409 0284 7FF403AF 		bne	.L28
ARM GAS  /tmp/ccJzCOYD.s 			page 26


 1410              		.loc 1 410 0
 1411 0288 05B0     		add	sp, sp, #20
 1412              		@ sp needed
 1413 028a BDE8F046 		pop	{r4, r5, r6, r7, r9, r10, lr}
 1414              	.LVL155:
 1415              		.loc 1 409 0
 1416 028e FFF7FEBF 		b	test_wait_threads
 1417              	.LVL156:
 1418              		.cfi_endproc
 1419              	.LFE25:
 1420              		.size	mtx4_execute, .-mtx4_execute
 1421 0292 00BFAFF3 		.section	.text.mtx5_execute,"ax",%progbits
 1421      0080AFF3 
 1421      0080AFF3 
 1421      0080
 1422              		.align	2
 1423              		.p2align 4,,15
 1424              		.thumb
 1425              		.thumb_func
 1426              		.type	mtx5_execute, %function
 1427              	mtx5_execute:
 1428              	.LFB27:
 1429              		.loc 1 434 0
 1430              		.cfi_startproc
 1431              		@ args = 0, pretend = 0, frame = 0
 1432              		@ frame_needed = 0, uses_anonymous_args = 0
 1433 0000 F8B5     		push	{r3, r4, r5, r6, r7, lr}
 1434              		.cfi_def_cfa_offset 24
 1435              		.cfi_offset 3, -24
 1436              		.cfi_offset 4, -20
 1437              		.cfi_offset 5, -16
 1438              		.cfi_offset 6, -12
 1439              		.cfi_offset 7, -8
 1440              		.cfi_offset 14, -4
 1441              		.loc 1 438 0
 1442 0002 40F20005 		movw	r5, #:lower16:rlist
 1443 0006 C0F20005 		movt	r5, #:upper16:rlist
 1444              		.loc 1 440 0
 1445 000a 40F20004 		movw	r4, #:lower16:.LANCHOR0
 1446              		.loc 1 438 0
 1447 000e AB69     		ldr	r3, [r5, #24]
 1448              		.loc 1 440 0
 1449 0010 C0F20004 		movt	r4, #:upper16:.LANCHOR0
 1450 0014 2046     		mov	r0, r4
 1451              		.loc 1 438 0
 1452 0016 9E68     		ldr	r6, [r3, #8]
 1453              	.LVL157:
 1454              		.loc 1 440 0
 1455 0018 FFF7FEFF 		bl	chMtxTryLock
 1456              	.LVL158:
 1457              		.loc 1 441 0
 1458 001c 0146     		mov	r1, r0
 1459 001e 0120     		movs	r0, #1
 1460              	.LVL159:
 1461 0020 FFF7FEFF 		bl	_test_assert
 1462              	.LVL160:
 1463 0024 00B1     		cbz	r0, .L37
ARM GAS  /tmp/ccJzCOYD.s 			page 27


 1464              	.L33:
 1465 0026 F8BD     		pop	{r3, r4, r5, r6, r7, pc}
 1466              	.LVL161:
 1467              	.L37:
 1468              		.loc 1 443 0
 1469 0028 2046     		mov	r0, r4
 1470 002a FFF7FEFF 		bl	chMtxTryLock
 1471              	.LVL162:
 1472              		.loc 1 444 0
 1473 002e 80F00101 		eor	r1, r0, #1
 1474 0032 C9B2     		uxtb	r1, r1
 1475 0034 0220     		movs	r0, #2
 1476              	.LVL163:
 1477 0036 FFF7FEFF 		bl	_test_assert
 1478              	.LVL164:
 1479 003a 0028     		cmp	r0, #0
 1480 003c F3D1     		bne	.L33
 1481              	.LBB4:
 1482              		.loc 1 446 0
 1483 003e 2023     		movs	r3, #32
 1484              	@ 446 "../../test/testmtx.c" 1
 1485 0040 83F31188 		msr     BASEPRI, r3
 1486              	@ 0 "" 2
 1487              		.thumb
 1488              	.LBE4:
 1489              		.loc 1 447 0
 1490 0044 FFF7FEFF 		bl	chMtxUnlockS
 1491              	.LVL165:
 1492              	.LBB5:
 1493              		.loc 1 448 0
 1494 0048 0023     		movs	r3, #0
 1495              	@ 448 "../../test/testmtx.c" 1
 1496 004a 83F31188 		msr     BASEPRI, r3
 1497              	@ 0 "" 2
 1498              		.thumb
 1499              	.LBE5:
 1500              		.loc 1 450 0
 1501 004e 2168     		ldr	r1, [r4]
 1502 0050 B1EB040E 		subs	lr, r1, r4
 1503 0054 DEF10001 		rsbs	r1, lr, #0
 1504 0058 40F20007 		movw	r7, #:lower16:.LANCHOR0
 1505 005c 51EB0E01 		adcs	r1, r1, lr
 1506 0060 0320     		movs	r0, #3
 1507 0062 C0F20007 		movt	r7, #:upper16:.LANCHOR0
 1508 0066 FFF7FEFF 		bl	_test_assert
 1509              	.LVL166:
 1510 006a 0028     		cmp	r0, #0
 1511 006c DBD1     		bne	.L33
 1512              		.loc 1 451 0
 1513 006e B968     		ldr	r1, [r7, #8]
 1514 0070 D1F10101 		rsbs	r1, r1, #1
 1515 0074 38BF     		it	cc
 1516 0076 0021     		movcc	r1, #0
 1517 0078 0420     		movs	r0, #4
 1518 007a FFF7FEFF 		bl	_test_assert
 1519              	.LVL167:
 1520 007e 0028     		cmp	r0, #0
ARM GAS  /tmp/ccJzCOYD.s 			page 28


 1521 0080 D1D1     		bne	.L33
 1522              		.loc 1 452 0
 1523 0082 AB69     		ldr	r3, [r5, #24]
 1524 0084 9968     		ldr	r1, [r3, #8]
 1525 0086 8C1B     		subs	r4, r1, r6
 1526 0088 6142     		rsbs	r1, r4, #0
 1527 008a 6141     		adcs	r1, r1, r4
 1528 008c 0520     		movs	r0, #5
 1529 008e FFF7FEFF 		bl	_test_assert
 1530              	.LVL168:
 1531 0092 0028     		cmp	r0, #0
 1532 0094 C7D1     		bne	.L33
 1533              		.loc 1 454 0
 1534 0096 3846     		mov	r0, r7
 1535 0098 FFF7FEFF 		bl	chMtxLock
 1536              	.LVL169:
 1537              		.loc 1 455 0
 1538 009c FFF7FEFF 		bl	chMtxUnlockAll
 1539              	.LVL170:
 1540              		.loc 1 456 0
 1541 00a0 3968     		ldr	r1, [r7]
 1542 00a2 CA1B     		subs	r2, r1, r7
 1543 00a4 5142     		rsbs	r1, r2, #0
 1544 00a6 5141     		adcs	r1, r1, r2
 1545 00a8 0620     		movs	r0, #6
 1546 00aa FFF7FEFF 		bl	_test_assert
 1547              	.LVL171:
 1548 00ae 0028     		cmp	r0, #0
 1549 00b0 B9D1     		bne	.L33
 1550              		.loc 1 457 0
 1551 00b2 B968     		ldr	r1, [r7, #8]
 1552 00b4 D1F10101 		rsbs	r1, r1, #1
 1553 00b8 4FF00700 		mov	r0, #7
 1554 00bc 38BF     		it	cc
 1555 00be 0021     		movcc	r1, #0
 1556              		.loc 1 458 0
 1557 00c0 BDE8F840 		pop	{r3, r4, r5, r6, r7, lr}
 1558              	.LVL172:
 1559              		.loc 1 457 0
 1560 00c4 FFF7FEBF 		b	_test_assert
 1561              	.LVL173:
 1562              		.cfi_endproc
 1563              	.LFE27:
 1564              		.size	mtx5_execute, .-mtx5_execute
 1565 00c8 AFF30080 		.section	.text.mtx6_execute,"ax",%progbits
 1565      AFF30080 
 1566              		.align	2
 1567              		.p2align 4,,15
 1568              		.thumb
 1569              		.thumb_func
 1570              		.type	mtx6_execute, %function
 1571              	mtx6_execute:
 1572              	.LFB30:
 1573              		.loc 1 494 0
 1574              		.cfi_startproc
 1575              		@ args = 0, pretend = 0, frame = 0
 1576              		@ frame_needed = 0, uses_anonymous_args = 0
ARM GAS  /tmp/ccJzCOYD.s 			page 29


 1577 0000 F0B5     		push	{r4, r5, r6, r7, lr}
 1578              		.cfi_def_cfa_offset 20
 1579              		.cfi_offset 4, -20
 1580              		.cfi_offset 5, -16
 1581              		.cfi_offset 6, -12
 1582              		.cfi_offset 7, -8
 1583              		.cfi_offset 14, -4
 1584              		.loc 1 496 0
 1585 0002 40F20003 		movw	r3, #:lower16:rlist
 1586 0006 C0F20003 		movt	r3, #:upper16:rlist
 1587              		.loc 1 497 0
 1588 000a 40F20006 		movw	r6, #:lower16:wa
 1589              		.loc 1 496 0
 1590 000e 9B69     		ldr	r3, [r3, #24]
 1591              		.loc 1 494 0
 1592 0010 83B0     		sub	sp, sp, #12
 1593              		.cfi_def_cfa_offset 32
 1594              		.loc 1 496 0
 1595 0012 9F68     		ldr	r7, [r3, #8]
 1596              	.LVL174:
 1597              		.loc 1 497 0
 1598 0014 C0F20006 		movt	r6, #:upper16:wa
 1599 0018 40F20005 		movw	r5, #:lower16:thread10
 1600 001c 40F20001 		movw	r1, #:lower16:.LC0
 1601 0020 C0F20005 		movt	r5, #:upper16:thread10
 1602 0024 C0F20001 		movt	r1, #:upper16:.LC0
 1603 0028 7A1C     		adds	r2, r7, #1
 1604 002a 2B46     		mov	r3, r5
 1605 002c 0091     		str	r1, [sp]
 1606 002e 3068     		ldr	r0, [r6]
 1607 0030 4FF4A871 		mov	r1, #336
 1608 0034 FFF7FEFF 		bl	chThdCreateStatic
 1609              	.LVL175:
 1610 0038 40F20004 		movw	r4, #:lower16:threads
 1611 003c C0F20004 		movt	r4, #:upper16:threads
 1612              		.loc 1 498 0
 1613 0040 7368     		ldr	r3, [r6, #4]
 1614              		.loc 1 497 0
 1615 0042 2060     		str	r0, [r4]
 1616              		.loc 1 498 0
 1617 0044 40F20001 		movw	r1, #:lower16:.LC1
 1618 0048 C0F20001 		movt	r1, #:upper16:.LC1
 1619 004c BA1C     		adds	r2, r7, #2
 1620 004e 0091     		str	r1, [sp]
 1621 0050 1846     		mov	r0, r3
 1622 0052 4FF4A871 		mov	r1, #336
 1623 0056 2B46     		mov	r3, r5
 1624 0058 FFF7FEFF 		bl	chThdCreateStatic
 1625              	.LVL176:
 1626              		.loc 1 499 0
 1627 005c B368     		ldr	r3, [r6, #8]
 1628              		.loc 1 498 0
 1629 005e 6060     		str	r0, [r4, #4]
 1630              		.loc 1 499 0
 1631 0060 40F20001 		movw	r1, #:lower16:.LC2
 1632 0064 C0F20001 		movt	r1, #:upper16:.LC2
 1633 0068 FA1C     		adds	r2, r7, #3
ARM GAS  /tmp/ccJzCOYD.s 			page 30


 1634 006a 0091     		str	r1, [sp]
 1635 006c 1846     		mov	r0, r3
 1636 006e 4FF4A871 		mov	r1, #336
 1637 0072 2B46     		mov	r3, r5
 1638 0074 FFF7FEFF 		bl	chThdCreateStatic
 1639              	.LVL177:
 1640              		.loc 1 500 0
 1641 0078 F368     		ldr	r3, [r6, #12]
 1642              		.loc 1 499 0
 1643 007a A060     		str	r0, [r4, #8]
 1644              		.loc 1 500 0
 1645 007c 40F20001 		movw	r1, #:lower16:.LC3
 1646 0080 C0F20001 		movt	r1, #:upper16:.LC3
 1647 0084 3A1D     		adds	r2, r7, #4
 1648 0086 0091     		str	r1, [sp]
 1649 0088 1846     		mov	r0, r3
 1650 008a 4FF4A871 		mov	r1, #336
 1651 008e 2B46     		mov	r3, r5
 1652 0090 FFF7FEFF 		bl	chThdCreateStatic
 1653              	.LVL178:
 1654              		.loc 1 501 0
 1655 0094 3369     		ldr	r3, [r6, #16]
 1656              		.loc 1 500 0
 1657 0096 E060     		str	r0, [r4, #12]
 1658              		.loc 1 501 0
 1659 0098 40F20001 		movw	r1, #:lower16:.LC4
 1660 009c C0F20001 		movt	r1, #:upper16:.LC4
 1661 00a0 0091     		str	r1, [sp]
 1662 00a2 7A1D     		adds	r2, r7, #5
 1663 00a4 1846     		mov	r0, r3
 1664 00a6 4FF4A871 		mov	r1, #336
 1665 00aa 2B46     		mov	r3, r5
 1666 00ac FFF7FEFF 		bl	chThdCreateStatic
 1667              	.LVL179:
 1668              	.LBB6:
 1669              		.loc 1 502 0
 1670 00b0 2023     		movs	r3, #32
 1671              	.LBE6:
 1672              		.loc 1 501 0
 1673 00b2 2061     		str	r0, [r4, #16]
 1674              	.LBB7:
 1675              		.loc 1 502 0
 1676              	@ 502 "../../test/testmtx.c" 1
 1677 00b4 83F31188 		msr     BASEPRI, r3
 1678              	@ 0 "" 2
 1679              		.thumb
 1680              	.LBE7:
 1681              		.loc 1 503 0
 1682 00b8 40F20004 		movw	r4, #:lower16:.LANCHOR2
 1683 00bc C0F20004 		movt	r4, #:upper16:.LANCHOR2
 1684 00c0 2046     		mov	r0, r4
 1685 00c2 FFF7FEFF 		bl	chCondSignalI
 1686              	.LVL180:
 1687              		.loc 1 504 0
 1688 00c6 2046     		mov	r0, r4
 1689 00c8 FFF7FEFF 		bl	chCondSignalI
 1690              	.LVL181:
ARM GAS  /tmp/ccJzCOYD.s 			page 31


 1691              		.loc 1 505 0
 1692 00cc 2046     		mov	r0, r4
 1693 00ce FFF7FEFF 		bl	chCondSignalI
 1694              	.LVL182:
 1695              		.loc 1 506 0
 1696 00d2 2046     		mov	r0, r4
 1697 00d4 FFF7FEFF 		bl	chCondSignalI
 1698              	.LVL183:
 1699              		.loc 1 507 0
 1700 00d8 2046     		mov	r0, r4
 1701 00da FFF7FEFF 		bl	chCondSignalI
 1702              	.LVL184:
 1703              		.loc 1 508 0
 1704 00de FFF7FEFF 		bl	chSchRescheduleS
 1705              	.LVL185:
 1706              	.LBB8:
 1707              		.loc 1 509 0
 1708 00e2 0023     		movs	r3, #0
 1709              	@ 509 "../../test/testmtx.c" 1
 1710 00e4 83F31188 		msr     BASEPRI, r3
 1711              	@ 0 "" 2
 1712              		.thumb
 1713              	.LBE8:
 1714              		.loc 1 510 0
 1715 00e8 FFF7FEFF 		bl	test_wait_threads
 1716              	.LVL186:
 1717              		.loc 1 511 0
 1718 00ec 40F20001 		movw	r1, #:lower16:.LC5
 1719 00f0 C0F20001 		movt	r1, #:upper16:.LC5
 1720 00f4 0120     		movs	r0, #1
 1721              		.loc 1 512 0
 1722 00f6 03B0     		add	sp, sp, #12
 1723              		@ sp needed
 1724 00f8 BDE8F040 		pop	{r4, r5, r6, r7, lr}
 1725              	.LVL187:
 1726              		.loc 1 511 0
 1727 00fc FFF7FEBF 		b	_test_assert_sequence
 1728              	.LVL188:
 1729              		.cfi_endproc
 1730              	.LFE30:
 1731              		.size	mtx6_execute, .-mtx6_execute
 1732              		.section	.text.thread10,"ax",%progbits
 1733              		.align	2
 1734              		.p2align 4,,15
 1735              		.thumb
 1736              		.thumb_func
 1737              		.type	thread10, %function
 1738              	thread10:
 1739              	.LFB29:
 1740              		.loc 1 485 0
 1741              		.cfi_startproc
 1742              		@ args = 0, pretend = 0, frame = 0
 1743              		@ frame_needed = 0, uses_anonymous_args = 0
 1744              	.LVL189:
 1745 0000 10B5     		push	{r4, lr}
 1746              		.cfi_def_cfa_offset 8
 1747              		.cfi_offset 4, -8
ARM GAS  /tmp/ccJzCOYD.s 			page 32


 1748              		.cfi_offset 14, -4
 1749              		.loc 1 485 0
 1750 0002 0446     		mov	r4, r0
 1751              		.loc 1 487 0
 1752 0004 40F20000 		movw	r0, #:lower16:.LANCHOR0
 1753              	.LVL190:
 1754 0008 C0F20000 		movt	r0, #:upper16:.LANCHOR0
 1755 000c FFF7FEFF 		bl	chMtxLock
 1756              	.LVL191:
 1757              		.loc 1 488 0
 1758 0010 40F20000 		movw	r0, #:lower16:.LANCHOR2
 1759 0014 C0F20000 		movt	r0, #:upper16:.LANCHOR2
 1760 0018 FFF7FEFF 		bl	chCondWait
 1761              	.LVL192:
 1762              		.loc 1 489 0
 1763 001c 2078     		ldrb	r0, [r4]	@ zero_extendqisi2
 1764 001e FFF7FEFF 		bl	test_emit_token
 1765              	.LVL193:
 1766              		.loc 1 490 0
 1767 0022 FFF7FEFF 		bl	chMtxUnlock
 1768              	.LVL194:
 1769              		.loc 1 492 0
 1770 0026 0020     		movs	r0, #0
 1771 0028 10BD     		pop	{r4, pc}
 1772              		.cfi_endproc
 1773              	.LFE29:
 1774              		.size	thread10, .-thread10
 1775 002a 00BFAFF3 		.section	.text.mtx6_setup,"ax",%progbits
 1775      0080
 1776              		.align	2
 1777              		.p2align 4,,15
 1778              		.thumb
 1779              		.thumb_func
 1780              		.type	mtx6_setup, %function
 1781              	mtx6_setup:
 1782              	.LFB28:
 1783              		.loc 1 479 0
 1784              		.cfi_startproc
 1785              		@ args = 0, pretend = 0, frame = 0
 1786              		@ frame_needed = 0, uses_anonymous_args = 0
 1787 0000 08B5     		push	{r3, lr}
 1788              		.cfi_def_cfa_offset 8
 1789              		.cfi_offset 3, -8
 1790              		.cfi_offset 14, -4
 1791              		.loc 1 481 0
 1792 0002 40F20000 		movw	r0, #:lower16:.LANCHOR2
 1793 0006 C0F20000 		movt	r0, #:upper16:.LANCHOR2
 1794 000a FFF7FEFF 		bl	chCondInit
 1795              	.LVL195:
 1796              		.loc 1 482 0
 1797 000e 40F20000 		movw	r0, #:lower16:.LANCHOR0
 1798 0012 C0F20000 		movt	r0, #:upper16:.LANCHOR0
 1799              		.loc 1 483 0
 1800 0016 BDE80840 		pop	{r3, lr}
 1801              		.loc 1 482 0
 1802 001a FFF7FEBF 		b	chMtxInit
 1803              	.LVL196:
ARM GAS  /tmp/ccJzCOYD.s 			page 33


 1804              		.cfi_endproc
 1805              	.LFE28:
 1806              		.size	mtx6_setup, .-mtx6_setup
 1807 001e 00BF     		.section	.text.mtx7_setup,"ax",%progbits
 1808              		.align	2
 1809              		.p2align 4,,15
 1810              		.thumb
 1811              		.thumb_func
 1812              		.type	mtx7_setup, %function
 1813              	mtx7_setup:
 1814              	.LFB31:
 1815              		.loc 1 531 0
 1816              		.cfi_startproc
 1817              		@ args = 0, pretend = 0, frame = 0
 1818              		@ frame_needed = 0, uses_anonymous_args = 0
 1819 0000 08B5     		push	{r3, lr}
 1820              		.cfi_def_cfa_offset 8
 1821              		.cfi_offset 3, -8
 1822              		.cfi_offset 14, -4
 1823              		.loc 1 533 0
 1824 0002 40F20000 		movw	r0, #:lower16:.LANCHOR2
 1825 0006 C0F20000 		movt	r0, #:upper16:.LANCHOR2
 1826 000a FFF7FEFF 		bl	chCondInit
 1827              	.LVL197:
 1828              		.loc 1 534 0
 1829 000e 40F20000 		movw	r0, #:lower16:.LANCHOR0
 1830 0012 C0F20000 		movt	r0, #:upper16:.LANCHOR0
 1831              		.loc 1 535 0
 1832 0016 BDE80840 		pop	{r3, lr}
 1833              		.loc 1 534 0
 1834 001a FFF7FEBF 		b	chMtxInit
 1835              	.LVL198:
 1836              		.cfi_endproc
 1837              	.LFE31:
 1838              		.size	mtx7_setup, .-mtx7_setup
 1839 001e 00BF     		.section	.text.mtx8_setup,"ax",%progbits
 1840              		.align	2
 1841              		.p2align 4,,15
 1842              		.thumb
 1843              		.thumb_func
 1844              		.type	mtx8_setup, %function
 1845              	mtx8_setup:
 1846              	.LFB33:
 1847              		.loc 1 566 0
 1848              		.cfi_startproc
 1849              		@ args = 0, pretend = 0, frame = 0
 1850              		@ frame_needed = 0, uses_anonymous_args = 0
 1851 0000 08B5     		push	{r3, lr}
 1852              		.cfi_def_cfa_offset 8
 1853              		.cfi_offset 3, -8
 1854              		.cfi_offset 14, -4
 1855              		.loc 1 568 0
 1856 0002 40F20000 		movw	r0, #:lower16:.LANCHOR2
 1857 0006 C0F20000 		movt	r0, #:upper16:.LANCHOR2
 1858 000a FFF7FEFF 		bl	chCondInit
 1859              	.LVL199:
 1860              		.loc 1 569 0
ARM GAS  /tmp/ccJzCOYD.s 			page 34


 1861 000e 40F20000 		movw	r0, #:lower16:.LANCHOR0
 1862 0012 C0F20000 		movt	r0, #:upper16:.LANCHOR0
 1863 0016 FFF7FEFF 		bl	chMtxInit
 1864              	.LVL200:
 1865              		.loc 1 570 0
 1866 001a 40F20000 		movw	r0, #:lower16:.LANCHOR1
 1867 001e C0F20000 		movt	r0, #:upper16:.LANCHOR1
 1868              		.loc 1 571 0
 1869 0022 BDE80840 		pop	{r3, lr}
 1870              		.loc 1 570 0
 1871 0026 FFF7FEBF 		b	chMtxInit
 1872              	.LVL201:
 1873              		.cfi_endproc
 1874              	.LFE33:
 1875              		.size	mtx8_setup, .-mtx8_setup
 1876 002a 00BFAFF3 		.section	.text.mtx7_execute,"ax",%progbits
 1876      0080
 1877              		.align	2
 1878              		.p2align 4,,15
 1879              		.thumb
 1880              		.thumb_func
 1881              		.type	mtx7_execute, %function
 1882              	mtx7_execute:
 1883              	.LFB32:
 1884              		.loc 1 537 0
 1885              		.cfi_startproc
 1886              		@ args = 0, pretend = 0, frame = 0
 1887              		@ frame_needed = 0, uses_anonymous_args = 0
 1888 0000 F0B5     		push	{r4, r5, r6, r7, lr}
 1889              		.cfi_def_cfa_offset 20
 1890              		.cfi_offset 4, -20
 1891              		.cfi_offset 5, -16
 1892              		.cfi_offset 6, -12
 1893              		.cfi_offset 7, -8
 1894              		.cfi_offset 14, -4
 1895              		.loc 1 539 0
 1896 0002 40F20003 		movw	r3, #:lower16:rlist
 1897 0006 C0F20003 		movt	r3, #:upper16:rlist
 1898              		.loc 1 540 0
 1899 000a 40F20006 		movw	r6, #:lower16:wa
 1900              		.loc 1 539 0
 1901 000e 9B69     		ldr	r3, [r3, #24]
 1902              		.loc 1 537 0
 1903 0010 83B0     		sub	sp, sp, #12
 1904              		.cfi_def_cfa_offset 32
 1905              		.loc 1 539 0
 1906 0012 9F68     		ldr	r7, [r3, #8]
 1907              	.LVL202:
 1908              		.loc 1 540 0
 1909 0014 C0F20006 		movt	r6, #:upper16:wa
 1910 0018 40F20005 		movw	r5, #:lower16:thread10
 1911 001c 40F20001 		movw	r1, #:lower16:.LC0
 1912 0020 C0F20005 		movt	r5, #:upper16:thread10
 1913 0024 C0F20001 		movt	r1, #:upper16:.LC0
 1914 0028 7A1C     		adds	r2, r7, #1
 1915 002a 2B46     		mov	r3, r5
 1916 002c 0091     		str	r1, [sp]
ARM GAS  /tmp/ccJzCOYD.s 			page 35


 1917 002e 3068     		ldr	r0, [r6]
 1918 0030 4FF4A871 		mov	r1, #336
 1919 0034 FFF7FEFF 		bl	chThdCreateStatic
 1920              	.LVL203:
 1921 0038 40F20004 		movw	r4, #:lower16:threads
 1922 003c C0F20004 		movt	r4, #:upper16:threads
 1923              		.loc 1 541 0
 1924 0040 7368     		ldr	r3, [r6, #4]
 1925              		.loc 1 540 0
 1926 0042 2060     		str	r0, [r4]
 1927              		.loc 1 541 0
 1928 0044 40F20001 		movw	r1, #:lower16:.LC1
 1929 0048 C0F20001 		movt	r1, #:upper16:.LC1
 1930 004c BA1C     		adds	r2, r7, #2
 1931 004e 0091     		str	r1, [sp]
 1932 0050 1846     		mov	r0, r3
 1933 0052 4FF4A871 		mov	r1, #336
 1934 0056 2B46     		mov	r3, r5
 1935 0058 FFF7FEFF 		bl	chThdCreateStatic
 1936              	.LVL204:
 1937              		.loc 1 542 0
 1938 005c B368     		ldr	r3, [r6, #8]
 1939              		.loc 1 541 0
 1940 005e 6060     		str	r0, [r4, #4]
 1941              		.loc 1 542 0
 1942 0060 40F20001 		movw	r1, #:lower16:.LC2
 1943 0064 C0F20001 		movt	r1, #:upper16:.LC2
 1944 0068 FA1C     		adds	r2, r7, #3
 1945 006a 0091     		str	r1, [sp]
 1946 006c 1846     		mov	r0, r3
 1947 006e 4FF4A871 		mov	r1, #336
 1948 0072 2B46     		mov	r3, r5
 1949 0074 FFF7FEFF 		bl	chThdCreateStatic
 1950              	.LVL205:
 1951              		.loc 1 543 0
 1952 0078 F368     		ldr	r3, [r6, #12]
 1953              		.loc 1 542 0
 1954 007a A060     		str	r0, [r4, #8]
 1955              		.loc 1 543 0
 1956 007c 40F20001 		movw	r1, #:lower16:.LC3
 1957 0080 C0F20001 		movt	r1, #:upper16:.LC3
 1958 0084 3A1D     		adds	r2, r7, #4
 1959 0086 0091     		str	r1, [sp]
 1960 0088 1846     		mov	r0, r3
 1961 008a 4FF4A871 		mov	r1, #336
 1962 008e 2B46     		mov	r3, r5
 1963 0090 FFF7FEFF 		bl	chThdCreateStatic
 1964              	.LVL206:
 1965              		.loc 1 544 0
 1966 0094 3369     		ldr	r3, [r6, #16]
 1967              		.loc 1 543 0
 1968 0096 E060     		str	r0, [r4, #12]
 1969              		.loc 1 544 0
 1970 0098 40F20001 		movw	r1, #:lower16:.LC4
 1971 009c C0F20001 		movt	r1, #:upper16:.LC4
 1972 00a0 7A1D     		adds	r2, r7, #5
 1973 00a2 0091     		str	r1, [sp]
ARM GAS  /tmp/ccJzCOYD.s 			page 36


 1974 00a4 1846     		mov	r0, r3
 1975 00a6 4FF4A871 		mov	r1, #336
 1976 00aa 2B46     		mov	r3, r5
 1977 00ac FFF7FEFF 		bl	chThdCreateStatic
 1978              	.LVL207:
 1979 00b0 2061     		str	r0, [r4, #16]
 1980              		.loc 1 545 0
 1981 00b2 40F20000 		movw	r0, #:lower16:.LANCHOR2
 1982 00b6 C0F20000 		movt	r0, #:upper16:.LANCHOR2
 1983 00ba FFF7FEFF 		bl	chCondBroadcast
 1984              	.LVL208:
 1985              		.loc 1 546 0
 1986 00be FFF7FEFF 		bl	test_wait_threads
 1987              	.LVL209:
 1988              		.loc 1 547 0
 1989 00c2 40F20001 		movw	r1, #:lower16:.LC5
 1990 00c6 C0F20001 		movt	r1, #:upper16:.LC5
 1991 00ca 0120     		movs	r0, #1
 1992              		.loc 1 548 0
 1993 00cc 03B0     		add	sp, sp, #12
 1994              		@ sp needed
 1995 00ce BDE8F040 		pop	{r4, r5, r6, r7, lr}
 1996              	.LVL210:
 1997              		.loc 1 547 0
 1998 00d2 FFF7FEBF 		b	_test_assert_sequence
 1999              	.LVL211:
 2000              		.cfi_endproc
 2001              	.LFE32:
 2002              		.size	mtx7_execute, .-mtx7_execute
 2003 00d6 00BFAFF3 		.section	.text.mtx8_execute,"ax",%progbits
 2003      0080AFF3 
 2003      0080
 2004              		.align	2
 2005              		.p2align 4,,15
 2006              		.thumb
 2007              		.thumb_func
 2008              		.type	mtx8_execute, %function
 2009              	mtx8_execute:
 2010              	.LFB36:
 2011              		.loc 1 596 0
 2012              		.cfi_startproc
 2013              		@ args = 0, pretend = 0, frame = 0
 2014              		@ frame_needed = 0, uses_anonymous_args = 0
 2015 0000 F0B5     		push	{r4, r5, r6, r7, lr}
 2016              		.cfi_def_cfa_offset 20
 2017              		.cfi_offset 4, -20
 2018              		.cfi_offset 5, -16
 2019              		.cfi_offset 6, -12
 2020              		.cfi_offset 7, -8
 2021              		.cfi_offset 14, -4
 2022              		.loc 1 598 0
 2023 0002 40F20003 		movw	r3, #:lower16:rlist
 2024 0006 C0F20003 		movt	r3, #:upper16:rlist
 2025              		.loc 1 599 0
 2026 000a 40F20005 		movw	r5, #:lower16:wa
 2027              		.loc 1 598 0
 2028 000e 9B69     		ldr	r3, [r3, #24]
ARM GAS  /tmp/ccJzCOYD.s 			page 37


 2029              		.loc 1 596 0
 2030 0010 83B0     		sub	sp, sp, #12
 2031              		.cfi_def_cfa_offset 32
 2032              		.loc 1 598 0
 2033 0012 9E68     		ldr	r6, [r3, #8]
 2034              	.LVL212:
 2035              		.loc 1 599 0
 2036 0014 C0F20005 		movt	r5, #:upper16:wa
 2037 0018 40F20001 		movw	r1, #:lower16:.LC4
 2038 001c C0F20001 		movt	r1, #:upper16:.LC4
 2039 0020 40F20003 		movw	r3, #:lower16:thread11
 2040 0024 721C     		adds	r2, r6, #1
 2041 0026 0091     		str	r1, [sp]
 2042 0028 2868     		ldr	r0, [r5]
 2043 002a C0F20003 		movt	r3, #:upper16:thread11
 2044 002e 4FF4A871 		mov	r1, #336
 2045 0032 FFF7FEFF 		bl	chThdCreateStatic
 2046              	.LVL213:
 2047 0036 40F20004 		movw	r4, #:lower16:threads
 2048 003a C0F20004 		movt	r4, #:upper16:threads
 2049              		.loc 1 600 0
 2050 003e 6F68     		ldr	r7, [r5, #4]
 2051              		.loc 1 599 0
 2052 0040 2060     		str	r0, [r4]
 2053              		.loc 1 600 0
 2054 0042 40F20001 		movw	r1, #:lower16:.LC2
 2055 0046 C0F20001 		movt	r1, #:upper16:.LC2
 2056 004a 40F20003 		movw	r3, #:lower16:thread10
 2057 004e B21C     		adds	r2, r6, #2
 2058 0050 0091     		str	r1, [sp]
 2059 0052 3846     		mov	r0, r7
 2060 0054 C0F20003 		movt	r3, #:upper16:thread10
 2061 0058 4FF4A871 		mov	r1, #336
 2062 005c FFF7FEFF 		bl	chThdCreateStatic
 2063              	.LVL214:
 2064              		.loc 1 601 0
 2065 0060 AD68     		ldr	r5, [r5, #8]
 2066              		.loc 1 600 0
 2067 0062 6060     		str	r0, [r4, #4]
 2068              		.loc 1 601 0
 2069 0064 40F20001 		movw	r1, #:lower16:.LC3
 2070 0068 C0F20001 		movt	r1, #:upper16:.LC3
 2071 006c 40F20003 		movw	r3, #:lower16:thread12
 2072 0070 F21C     		adds	r2, r6, #3
 2073 0072 C0F20003 		movt	r3, #:upper16:thread12
 2074 0076 0091     		str	r1, [sp]
 2075 0078 2846     		mov	r0, r5
 2076 007a 4FF4A871 		mov	r1, #336
 2077 007e FFF7FEFF 		bl	chThdCreateStatic
 2078              	.LVL215:
 2079              		.loc 1 602 0
 2080 0082 40F20005 		movw	r5, #:lower16:.LANCHOR2
 2081 0086 C0F20005 		movt	r5, #:upper16:.LANCHOR2
 2082              		.loc 1 601 0
 2083 008a A060     		str	r0, [r4, #8]
 2084              		.loc 1 602 0
 2085 008c 2846     		mov	r0, r5
ARM GAS  /tmp/ccJzCOYD.s 			page 38


 2086 008e FFF7FEFF 		bl	chCondSignal
 2087              	.LVL216:
 2088              		.loc 1 603 0
 2089 0092 2846     		mov	r0, r5
 2090 0094 FFF7FEFF 		bl	chCondSignal
 2091              	.LVL217:
 2092              		.loc 1 604 0
 2093 0098 FFF7FEFF 		bl	test_wait_threads
 2094              	.LVL218:
 2095              		.loc 1 605 0
 2096 009c 40F20001 		movw	r1, #:lower16:.LC6
 2097 00a0 C0F20001 		movt	r1, #:upper16:.LC6
 2098 00a4 0120     		movs	r0, #1
 2099              		.loc 1 606 0
 2100 00a6 03B0     		add	sp, sp, #12
 2101              		@ sp needed
 2102 00a8 BDE8F040 		pop	{r4, r5, r6, r7, lr}
 2103              	.LVL219:
 2104              		.loc 1 605 0
 2105 00ac FFF7FEBF 		b	_test_assert_sequence
 2106              	.LVL220:
 2107              		.cfi_endproc
 2108              	.LFE36:
 2109              		.size	mtx8_execute, .-mtx8_execute
 2110              		.section	.text.thread11,"ax",%progbits
 2111              		.align	2
 2112              		.p2align 4,,15
 2113              		.thumb
 2114              		.thumb_func
 2115              		.type	thread11, %function
 2116              	thread11:
 2117              	.LFB34:
 2118              		.loc 1 573 0
 2119              		.cfi_startproc
 2120              		@ args = 0, pretend = 0, frame = 0
 2121              		@ frame_needed = 0, uses_anonymous_args = 0
 2122              	.LVL221:
 2123 0000 10B5     		push	{r4, lr}
 2124              		.cfi_def_cfa_offset 8
 2125              		.cfi_offset 4, -8
 2126              		.cfi_offset 14, -4
 2127              		.loc 1 573 0
 2128 0002 0446     		mov	r4, r0
 2129              		.loc 1 575 0
 2130 0004 40F20000 		movw	r0, #:lower16:.LANCHOR1
 2131              	.LVL222:
 2132 0008 C0F20000 		movt	r0, #:upper16:.LANCHOR1
 2133 000c FFF7FEFF 		bl	chMtxLock
 2134              	.LVL223:
 2135              		.loc 1 576 0
 2136 0010 40F20000 		movw	r0, #:lower16:.LANCHOR0
 2137 0014 C0F20000 		movt	r0, #:upper16:.LANCHOR0
 2138 0018 FFF7FEFF 		bl	chMtxLock
 2139              	.LVL224:
 2140              		.loc 1 578 0
 2141 001c 40F20000 		movw	r0, #:lower16:.LANCHOR2
 2142 0020 4FF0FF31 		mov	r1, #-1
ARM GAS  /tmp/ccJzCOYD.s 			page 39


 2143 0024 C0F20000 		movt	r0, #:upper16:.LANCHOR2
 2144 0028 FFF7FEFF 		bl	chCondWaitTimeout
 2145              	.LVL225:
 2146              		.loc 1 582 0
 2147 002c 2078     		ldrb	r0, [r4]	@ zero_extendqisi2
 2148 002e FFF7FEFF 		bl	test_emit_token
 2149              	.LVL226:
 2150              		.loc 1 583 0
 2151 0032 FFF7FEFF 		bl	chMtxUnlock
 2152              	.LVL227:
 2153              		.loc 1 584 0
 2154 0036 FFF7FEFF 		bl	chMtxUnlock
 2155              	.LVL228:
 2156              		.loc 1 586 0
 2157 003a 0020     		movs	r0, #0
 2158 003c 10BD     		pop	{r4, pc}
 2159              		.cfi_endproc
 2160              	.LFE34:
 2161              		.size	thread11, .-thread11
 2162              		.global	patternmtx
 2163              		.global	testmtx8
 2164              		.global	testmtx7
 2165              		.global	testmtx6
 2166              		.global	testmtx5
 2167              		.global	testmtx4
 2168              		.global	testmtx3
 2169              		.global	testmtx2
 2170              		.global	testmtx1
 2171 003e 00BF     		.section	.rodata.testmtx5,"a",%progbits
 2172              		.align	2
 2173              		.type	testmtx5, %object
 2174              		.size	testmtx5, 16
 2175              	testmtx5:
 2176 0000 64000000 		.word	.LC10
 2177 0004 00000000 		.word	mtx5_setup
 2178 0008 00000000 		.word	0
 2179 000c 00000000 		.word	mtx5_execute
 2180              		.section	.rodata.testmtx6,"a",%progbits
 2181              		.align	2
 2182              		.type	testmtx6, %object
 2183              		.size	testmtx6, 16
 2184              	testmtx6:
 2185 0000 4C000000 		.word	.LC9
 2186 0004 00000000 		.word	mtx6_setup
 2187 0008 00000000 		.word	0
 2188 000c 00000000 		.word	mtx6_execute
 2189              		.section	.rodata.testmtx7,"a",%progbits
 2190              		.align	2
 2191              		.type	testmtx7, %object
 2192              		.size	testmtx7, 16
 2193              	testmtx7:
 2194 0000 34000000 		.word	.LC8
 2195 0004 00000000 		.word	mtx7_setup
 2196 0008 00000000 		.word	0
 2197 000c 00000000 		.word	mtx7_execute
 2198              		.section	.rodata.testmtx8,"a",%progbits
 2199              		.align	2
ARM GAS  /tmp/ccJzCOYD.s 			page 40


 2200              		.type	testmtx8, %object
 2201              		.size	testmtx8, 16
 2202              	testmtx8:
 2203 0000 20000000 		.word	.LC7
 2204 0004 00000000 		.word	mtx8_setup
 2205 0008 00000000 		.word	0
 2206 000c 00000000 		.word	mtx8_execute
 2207              		.section	.data.m1,"aw",%progbits
 2208              		.align	2
 2209              		.set	.LANCHOR0,. + 0
 2210              		.type	m1, %object
 2211              		.size	m1, 16
 2212              	m1:
 2213 0000 00000000 		.word	m1
 2214 0004 00000000 		.word	m1
 2215 0008 00000000 		.word	0
 2216 000c 00000000 		.word	0
 2217              		.section	.data.m2,"aw",%progbits
 2218              		.align	2
 2219              		.set	.LANCHOR1,. + 0
 2220              		.type	m2, %object
 2221              		.size	m2, 16
 2222              	m2:
 2223 0000 00000000 		.word	m2
 2224 0004 00000000 		.word	m2
 2225 0008 00000000 		.word	0
 2226 000c 00000000 		.word	0
 2227              		.section	.rodata.str1.4,"aMS",%progbits,1
 2228              		.align	2
 2229              	.LC0:
 2230 0000 4500     		.ascii	"E\000"
 2231 0002 0000     		.space	2
 2232              	.LC1:
 2233 0004 4400     		.ascii	"D\000"
 2234 0006 0000     		.space	2
 2235              	.LC2:
 2236 0008 4300     		.ascii	"C\000"
 2237 000a 0000     		.space	2
 2238              	.LC3:
 2239 000c 4200     		.ascii	"B\000"
 2240 000e 0000     		.space	2
 2241              	.LC4:
 2242 0010 4100     		.ascii	"A\000"
 2243 0012 0000     		.space	2
 2244              	.LC5:
 2245 0014 41424344 		.ascii	"ABCDE\000"
 2245      4500
 2246 001a 0000     		.space	2
 2247              	.LC6:
 2248 001c 41424300 		.ascii	"ABC\000"
 2249              	.LC7:
 2250 0020 436F6E64 		.ascii	"CondVar, boost test\000"
 2250      5661722C 
 2250      20626F6F 
 2250      73742074 
 2250      65737400 
 2251              	.LC8:
ARM GAS  /tmp/ccJzCOYD.s 			page 41


 2252 0034 436F6E64 		.ascii	"CondVar, broadcast test\000"
 2252      5661722C 
 2252      2062726F 
 2252      61646361 
 2252      73742074 
 2253              	.LC9:
 2254 004c 436F6E64 		.ascii	"CondVar, signal test\000"
 2254      5661722C 
 2254      20736967 
 2254      6E616C20 
 2254      74657374 
 2255 0061 000000   		.space	3
 2256              	.LC10:
 2257 0064 4D757465 		.ascii	"Mutexes, status\000"
 2257      7865732C 
 2257      20737461 
 2257      74757300 
 2258              	.LC11:
 2259 0074 4D757465 		.ascii	"Mutexes, priority return\000"
 2259      7865732C 
 2259      20707269 
 2259      6F726974 
 2259      79207265 
 2260 008d 000000   		.space	3
 2261              	.LC12:
 2262 0090 4D757465 		.ascii	"Mutexes, priority inheritance, complex case\000"
 2262      7865732C 
 2262      20707269 
 2262      6F726974 
 2262      7920696E 
 2263              	.LC13:
 2264 00bc 4D757465 		.ascii	"Mutexes, priority inheritance, simple case\000"
 2264      7865732C 
 2264      20707269 
 2264      6F726974 
 2264      7920696E 
 2265 00e7 00       		.space	1
 2266              	.LC14:
 2267 00e8 4D757465 		.ascii	"Mutexes, priority enqueuing test\000"
 2267      7865732C 
 2267      20707269 
 2267      6F726974 
 2267      7920656E 
 2268 0109 000000   		.section	.rodata.patternmtx,"a",%progbits
 2269              		.align	2
 2270              		.type	patternmtx, %object
 2271              		.size	patternmtx, 36
 2272              	patternmtx:
 2273 0000 00000000 		.word	testmtx1
 2274 0004 00000000 		.word	testmtx2
 2275 0008 00000000 		.word	testmtx3
 2276 000c 00000000 		.word	testmtx4
 2277 0010 00000000 		.word	testmtx5
 2278 0014 00000000 		.word	testmtx6
 2279 0018 00000000 		.word	testmtx7
 2280 001c 00000000 		.word	testmtx8
 2281 0020 00000000 		.word	0
ARM GAS  /tmp/ccJzCOYD.s 			page 42


 2282              		.section	.data.c1,"aw",%progbits
 2283              		.align	2
 2284              		.set	.LANCHOR2,. + 0
 2285              		.type	c1, %object
 2286              		.size	c1, 8
 2287              	c1:
 2288 0000 00000000 		.word	c1
 2289 0004 00000000 		.word	c1
 2290              		.section	.rodata.testmtx1,"a",%progbits
 2291              		.align	2
 2292              		.type	testmtx1, %object
 2293              		.size	testmtx1, 16
 2294              	testmtx1:
 2295 0000 E8000000 		.word	.LC14
 2296 0004 00000000 		.word	mtx1_setup
 2297 0008 00000000 		.word	0
 2298 000c 00000000 		.word	mtx1_execute
 2299              		.section	.rodata.testmtx2,"a",%progbits
 2300              		.align	2
 2301              		.type	testmtx2, %object
 2302              		.size	testmtx2, 16
 2303              	testmtx2:
 2304 0000 BC000000 		.word	.LC13
 2305 0004 00000000 		.word	mtx2_setup
 2306 0008 00000000 		.word	0
 2307 000c 00000000 		.word	mtx2_execute
 2308              		.section	.rodata.testmtx3,"a",%progbits
 2309              		.align	2
 2310              		.type	testmtx3, %object
 2311              		.size	testmtx3, 16
 2312              	testmtx3:
 2313 0000 90000000 		.word	.LC12
 2314 0004 00000000 		.word	mtx3_setup
 2315 0008 00000000 		.word	0
 2316 000c 00000000 		.word	mtx3_execute
 2317              		.section	.rodata.testmtx4,"a",%progbits
 2318              		.align	2
 2319              		.type	testmtx4, %object
 2320              		.size	testmtx4, 16
 2321              	testmtx4:
 2322 0000 74000000 		.word	.LC11
 2323 0004 00000000 		.word	mtx4_setup
 2324 0008 00000000 		.word	0
 2325 000c 00000000 		.word	mtx4_execute
 2326              		.text
 2327              	.Letext0:
 2328              		.file 2 "/usr/lib/gcc/arm-none-eabi/4.8.2/include/stddef.h"
 2329              		.file 3 "/usr/include/newlib/machine/_default_types.h"
 2330              		.file 4 "/usr/include/newlib/stdint.h"
 2331              		.file 5 "../../os/ports/GCC/ARMCMx/chtypes.h"
 2332              		.file 6 "../../os/kernel/include/chlists.h"
 2333              		.file 7 "../../os/kernel/include/chthreads.h"
 2334              		.file 8 "../../os/ports/GCC/ARMCMx/chcore_v7m.h"
 2335              		.file 9 "../../os/kernel/include/chvt.h"
 2336              		.file 10 "../../os/kernel/include/chschd.h"
 2337              		.file 11 "../../os/kernel/include/chmtx.h"
 2338              		.file 12 "../../os/kernel/include/chcond.h"
ARM GAS  /tmp/ccJzCOYD.s 			page 43


 2339              		.file 13 "../../test/test.h"