ARM GAS  /tmp/ccttklIf.s 			page 1


   1              		.syntax unified
   2              		.cpu cortex-m4
   3              		.fpu softvfp
   4              		.eabi_attribute 20, 1
   5              		.eabi_attribute 21, 1
   6              		.eabi_attribute 23, 3
   7              		.eabi_attribute 24, 1
   8              		.eabi_attribute 25, 1
   9              		.eabi_attribute 26, 1
  10              		.eabi_attribute 30, 2
  11              		.eabi_attribute 34, 1
  12              		.eabi_attribute 18, 4
  13              		.thumb
  14              		.file	"test.c"
  15              		.text
  16              	.Ltext0:
  17              		.cfi_sections	.debug_frame
  18              		.section	.text.tmr,"ax",%progbits
  19              		.align	2
  20              		.p2align 4,,15
  21              		.thumb
  22              		.thumb_func
  23              		.type	tmr, %function
  24              	tmr:
  25              	.LFB132:
  26              		.file 1 "../../test/test.c"
  27              		.loc 1 261 0
  28              		.cfi_startproc
  29              		@ args = 0, pretend = 0, frame = 0
  30              		@ frame_needed = 0, uses_anonymous_args = 0
  31              		@ link register save eliminated.
  32              	.LVL0:
  33              		.loc 1 264 0
  34 0000 40F20003 		movw	r3, #:lower16:.LANCHOR0
  35 0004 C0F20003 		movt	r3, #:upper16:.LANCHOR0
  36 0008 0122     		movs	r2, #1
  37 000a 1A70     		strb	r2, [r3]
  38 000c 7047     		bx	lr
  39              		.cfi_endproc
  40              	.LFE132:
  41              		.size	tmr, .-tmr
  42 000e 00BF     		.section	.text.print_line,"ax",%progbits
  43              		.align	2
  44              		.p2align 4,,15
  45              		.thumb
  46              		.thumb_func
  47              		.type	print_line, %function
  48              	print_line:
  49              	.LFB135:
  50              		.loc 1 300 0
  51              		.cfi_startproc
  52              		@ args = 0, pretend = 0, frame = 0
  53              		@ frame_needed = 0, uses_anonymous_args = 0
  54              	.LVL1:
  55 0000 70B5     		push	{r4, r5, r6, lr}
  56              		.cfi_def_cfa_offset 16
  57              		.cfi_offset 4, -16
ARM GAS  /tmp/ccttklIf.s 			page 2


  58              		.cfi_offset 5, -12
  59              		.cfi_offset 6, -8
  60              		.cfi_offset 14, -4
  61 0002 40F20006 		movw	r6, #:lower16:.LANCHOR1
  62 0006 C0F20006 		movt	r6, #:upper16:.LANCHOR1
  63              		.loc 1 300 0
  64 000a 4C25     		movs	r5, #76
  65              	.LVL2:
  66              	.L4:
  67              		.loc 1 304 0 discriminator 2
  68 000c 3068     		ldr	r0, [r6]
  69 000e 0368     		ldr	r3, [r0]
  70 0010 2D21     		movs	r1, #45
  71 0012 9B68     		ldr	r3, [r3, #8]
  72 0014 40F20004 		movw	r4, #:lower16:.LANCHOR1
  73 0018 9847     		blx	r3
  74              	.LVL3:
  75              		.loc 1 303 0 discriminator 2
  76 001a 013D     		subs	r5, r5, #1
  77              	.LVL4:
  78              		.loc 1 304 0 discriminator 2
  79 001c C0F20004 		movt	r4, #:upper16:.LANCHOR1
  80              		.loc 1 303 0 discriminator 2
  81 0020 F4D1     		bne	.L4
  82              		.loc 1 305 0
  83 0022 2068     		ldr	r0, [r4]
  84 0024 0368     		ldr	r3, [r0]
  85 0026 40F20001 		movw	r1, #:lower16:.LC0
  86 002a 1B68     		ldr	r3, [r3]
  87 002c C0F20001 		movt	r1, #:upper16:.LC0
  88 0030 0222     		movs	r2, #2
  89 0032 9847     		blx	r3
  90              	.LVL5:
  91 0034 70BD     		pop	{r4, r5, r6, pc}
  92              		.cfi_endproc
  93              	.LFE135:
  94              		.size	print_line, .-print_line
  95 0036 00BFAFF3 		.section	.text.test_printn,"ax",%progbits
  95      0080AFF3 
  95      0080
  96              		.align	2
  97              		.p2align 4,,15
  98              		.global	test_printn
  99              		.thumb
 100              		.thumb_func
 101              		.type	test_printn, %function
 102              	test_printn:
 103              	.LFB118:
 104              		.loc 1 91 0
 105              		.cfi_startproc
 106              		@ args = 0, pretend = 0, frame = 16
 107              		@ frame_needed = 0, uses_anonymous_args = 0
 108              	.LVL6:
 109 0000 70B5     		push	{r4, r5, r6, lr}
 110              		.cfi_def_cfa_offset 16
 111              		.cfi_offset 4, -16
 112              		.cfi_offset 5, -12
ARM GAS  /tmp/ccttklIf.s 			page 3


 113              		.cfi_offset 6, -8
 114              		.cfi_offset 14, -4
 115 0002 84B0     		sub	sp, sp, #16
 116              		.cfi_def_cfa_offset 32
 117              		.loc 1 94 0
 118 0004 48B3     		cbz	r0, .L14
 119 0006 0DF10105 		add	r5, sp, #1
 120              		.loc 1 99 0
 121 000a 4CF6CD46 		movw	r6, #52429
 122 000e 2B46     		mov	r3, r5
 123 0010 CCF6CC46 		movt	r6, 52428
 124              	.LVL7:
 125              	.L10:
 126 0014 A6FB0012 		umull	r1, r2, r6, r0
 127 0018 D208     		lsrs	r2, r2, #3
 128 001a 02EB8201 		add	r1, r2, r2, lsl #2
 129 001e A0EB4101 		sub	r1, r0, r1, lsl #1
 130 0022 3031     		adds	r1, r1, #48
 131 0024 C9B2     		uxtb	r1, r1
 132 0026 03F8011C 		strb	r1, [r3, #-1]
 133 002a 1C46     		mov	r4, r3
 134              	.LVL8:
 135              		.loc 1 98 0
 136 002c 1046     		mov	r0, r2
 137 002e 0133     		adds	r3, r3, #1
 138              	.LVL9:
 139 0030 002A     		cmp	r2, #0
 140 0032 EFD1     		bne	.L10
 141              		.loc 1 100 0 discriminator 1
 142 0034 6B46     		mov	r3, sp
 143 0036 9C42     		cmp	r4, r3
 144 0038 0DD9     		bls	.L6
 145 003a 40F20006 		movw	r6, #:lower16:.LANCHOR1
 146 003e C0F20006 		movt	r6, #:upper16:.LANCHOR1
 147 0042 02E0     		b	.L13
 148              	.LVL10:
 149              	.L15:
 150 0044 14F8021C 		ldrb	r1, [r4, #-2]	@ zero_extendqisi2
 151 0048 013C     		subs	r4, r4, #1
 152              	.LVL11:
 153              	.L13:
 154              		.loc 1 101 0
 155 004a 3068     		ldr	r0, [r6]
 156              	.LVL12:
 157 004c 0368     		ldr	r3, [r0]
 158 004e 9B68     		ldr	r3, [r3, #8]
 159 0050 9847     		blx	r3
 160              	.LVL13:
 161              		.loc 1 100 0
 162 0052 AC42     		cmp	r4, r5
 163 0054 F6D1     		bne	.L15
 164              	.LVL14:
 165              	.L6:
 166              		.loc 1 103 0
 167 0056 04B0     		add	sp, sp, #16
 168              		@ sp needed
 169 0058 70BD     		pop	{r4, r5, r6, pc}
ARM GAS  /tmp/ccttklIf.s 			page 4


 170              	.LVL15:
 171              	.L14:
 172              	.LBB50:
 173              	.LBB51:
 174              		.loc 1 95 0
 175 005a 40F20003 		movw	r3, #:lower16:.LANCHOR1
 176 005e C0F20003 		movt	r3, #:upper16:.LANCHOR1
 177 0062 3021     		movs	r1, #48
 178 0064 1868     		ldr	r0, [r3]
 179              	.LVL16:
 180 0066 0368     		ldr	r3, [r0]
 181 0068 9B68     		ldr	r3, [r3, #8]
 182 006a 9847     		blx	r3
 183              	.LVL17:
 184              	.LBE51:
 185              	.LBE50:
 186              		.loc 1 103 0
 187 006c 04B0     		add	sp, sp, #16
 188              		@ sp needed
 189 006e 70BD     		pop	{r4, r5, r6, pc}
 190              		.cfi_endproc
 191              	.LFE118:
 192              		.size	test_printn, .-test_printn
 193              		.section	.text.test_print,"ax",%progbits
 194              		.align	2
 195              		.p2align 4,,15
 196              		.global	test_print
 197              		.thumb
 198              		.thumb_func
 199              		.type	test_print, %function
 200              	test_print:
 201              	.LFB119:
 202              		.loc 1 110 0
 203              		.cfi_startproc
 204              		@ args = 0, pretend = 0, frame = 0
 205              		@ frame_needed = 0, uses_anonymous_args = 0
 206              	.LVL18:
 207 0000 38B5     		push	{r3, r4, r5, lr}
 208              		.cfi_def_cfa_offset 16
 209              		.cfi_offset 3, -16
 210              		.cfi_offset 4, -12
 211              		.cfi_offset 5, -8
 212              		.cfi_offset 14, -4
 213              		.loc 1 112 0
 214 0002 0178     		ldrb	r1, [r0]	@ zero_extendqisi2
 215 0004 61B1     		cbz	r1, .L16
 216 0006 40F20005 		movw	r5, #:lower16:.LANCHOR1
 217 000a 0446     		mov	r4, r0
 218 000c C0F20005 		movt	r5, #:upper16:.LANCHOR1
 219              	.LVL19:
 220              	.L19:
 221              		.loc 1 113 0
 222 0010 2868     		ldr	r0, [r5]
 223              	.LVL20:
 224 0012 0368     		ldr	r3, [r0]
 225 0014 9B68     		ldr	r3, [r3, #8]
 226 0016 9847     		blx	r3
ARM GAS  /tmp/ccttklIf.s 			page 5


 227              	.LVL21:
 228              		.loc 1 112 0
 229 0018 14F8011F 		ldrb	r1, [r4, #1]!	@ zero_extendqisi2
 230              	.LVL22:
 231 001c 0029     		cmp	r1, #0
 232 001e F7D1     		bne	.L19
 233              	.LVL23:
 234              	.L16:
 235 0020 38BD     		pop	{r3, r4, r5, pc}
 236              		.cfi_endproc
 237              	.LFE119:
 238              		.size	test_print, .-test_print
 239 0022 00BFAFF3 		.section	.text.test_println,"ax",%progbits
 239      0080AFF3 
 239      0080AFF3 
 239      0080
 240              		.align	2
 241              		.p2align 4,,15
 242              		.global	test_println
 243              		.thumb
 244              		.thumb_func
 245              		.type	test_println, %function
 246              	test_println:
 247              	.LFB120:
 248              		.loc 1 121 0
 249              		.cfi_startproc
 250              		@ args = 0, pretend = 0, frame = 0
 251              		@ frame_needed = 0, uses_anonymous_args = 0
 252              	.LVL24:
 253 0000 38B5     		push	{r3, r4, r5, lr}
 254              		.cfi_def_cfa_offset 16
 255              		.cfi_offset 3, -16
 256              		.cfi_offset 4, -12
 257              		.cfi_offset 5, -8
 258              		.cfi_offset 14, -4
 259              	.LBB52:
 260              	.LBB53:
 261              		.loc 1 112 0
 262 0002 0178     		ldrb	r1, [r0]	@ zero_extendqisi2
 263 0004 40F20005 		movw	r5, #:lower16:.LANCHOR1
 264 0008 A1B1     		cbz	r1, .L31
 265 000a 0446     		mov	r4, r0
 266 000c C0F20005 		movt	r5, #:upper16:.LANCHOR1
 267              	.LVL25:
 268              	.L26:
 269              		.loc 1 113 0
 270 0010 2868     		ldr	r0, [r5]
 271              	.LVL26:
 272 0012 0368     		ldr	r3, [r0]
 273 0014 9B68     		ldr	r3, [r3, #8]
 274 0016 9847     		blx	r3
 275              	.LVL27:
 276              		.loc 1 112 0
 277 0018 14F8011F 		ldrb	r1, [r4, #1]!	@ zero_extendqisi2
 278              	.LVL28:
 279 001c 0029     		cmp	r1, #0
 280 001e F7D1     		bne	.L26
ARM GAS  /tmp/ccttklIf.s 			page 6


 281              	.LVL29:
 282              	.L25:
 283              	.LBE53:
 284              	.LBE52:
 285              		.loc 1 124 0
 286 0020 2868     		ldr	r0, [r5]
 287 0022 0368     		ldr	r3, [r0]
 288 0024 40F20001 		movw	r1, #:lower16:.LC0
 289 0028 1B68     		ldr	r3, [r3]
 290 002a C0F20001 		movt	r1, #:upper16:.LC0
 291 002e 0222     		movs	r2, #2
 292 0030 9847     		blx	r3
 293              	.LVL30:
 294 0032 38BD     		pop	{r3, r4, r5, pc}
 295              	.LVL31:
 296              	.L31:
 297 0034 C0F20005 		movt	r5, #:upper16:.LANCHOR1
 298 0038 F2E7     		b	.L25
 299              		.cfi_endproc
 300              	.LFE120:
 301              		.size	test_println, .-test_println
 302 003a 00BFAFF3 		.section	.text.test_emit_token,"ax",%progbits
 302      0080
 303              		.align	2
 304              		.p2align 4,,15
 305              		.global	test_emit_token
 306              		.thumb
 307              		.thumb_func
 308              		.type	test_emit_token, %function
 309              	test_emit_token:
 310              	.LFB123:
 311              		.loc 1 147 0
 312              		.cfi_startproc
 313              		@ args = 0, pretend = 0, frame = 0
 314              		@ frame_needed = 0, uses_anonymous_args = 0
 315              		@ link register save eliminated.
 316              	.LVL32:
 317 0000 10B4     		push	{r4}
 318              		.cfi_def_cfa_offset 4
 319              		.cfi_offset 4, -4
 320              	.LBB54:
 321              		.loc 1 149 0
 322 0002 2023     		movs	r3, #32
 323              	@ 149 "../../test/test.c" 1
 324 0004 83F31188 		msr     BASEPRI, r3
 325              	@ 0 "" 2
 326              		.thumb
 327              	.LBE54:
 328              		.loc 1 150 0
 329 0008 40F20002 		movw	r2, #:lower16:.LANCHOR2
 330 000c C0F20002 		movt	r2, #:upper16:.LANCHOR2
 331              	.LBB55:
 332              		.loc 1 151 0
 333 0010 0023     		movs	r3, #0
 334              	.LBE55:
 335              		.loc 1 150 0
 336 0012 1168     		ldr	r1, [r2]
ARM GAS  /tmp/ccttklIf.s 			page 7


 337 0014 4C1C     		adds	r4, r1, #1
 338 0016 0870     		strb	r0, [r1]
 339 0018 1460     		str	r4, [r2]
 340              	.LBB56:
 341              		.loc 1 151 0
 342              	@ 151 "../../test/test.c" 1
 343 001a 83F31188 		msr     BASEPRI, r3
 344              	@ 0 "" 2
 345              		.thumb
 346              	.LBE56:
 347              		.loc 1 152 0
 348 001e 5DF8044B 		ldr	r4, [sp], #4
 349 0022 7047     		bx	lr
 350              		.cfi_endproc
 351              	.LFE123:
 352              		.size	test_emit_token, .-test_emit_token
 353 0024 AFF30080 		.section	.text._test_fail,"ax",%progbits
 353      AFF30080 
 353      AFF30080 
 354              		.align	2
 355              		.p2align 4,,15
 356              		.global	_test_fail
 357              		.thumb
 358              		.thumb_func
 359              		.type	_test_fail, %function
 360              	_test_fail:
 361              	.LFB124:
 362              		.loc 1 157 0
 363              		.cfi_startproc
 364              		@ args = 0, pretend = 0, frame = 0
 365              		@ frame_needed = 0, uses_anonymous_args = 0
 366              		@ link register save eliminated.
 367              	.LVL33:
 368 0000 10B4     		push	{r4}
 369              		.cfi_def_cfa_offset 4
 370              		.cfi_offset 4, -4
 371              		.loc 1 159 0
 372 0002 40F20001 		movw	r1, #:lower16:.LANCHOR3
 373              		.loc 1 161 0
 374 0006 40F20004 		movw	r4, #:lower16:.LANCHOR5
 375              		.loc 1 160 0
 376 000a 40F20002 		movw	r2, #:lower16:.LANCHOR4
 377              		.loc 1 161 0
 378 000e C0F20004 		movt	r4, #:upper16:.LANCHOR5
 379              		.loc 1 159 0
 380 0012 C0F20001 		movt	r1, #:upper16:.LANCHOR3
 381              		.loc 1 160 0
 382 0016 C0F20002 		movt	r2, #:upper16:.LANCHOR4
 383              		.loc 1 159 0
 384 001a 0123     		movs	r3, #1
 385              		.loc 1 161 0
 386 001c 2060     		str	r0, [r4]
 387              		.loc 1 159 0
 388 001e 0B70     		strb	r3, [r1]
 389              		.loc 1 163 0
 390 0020 1846     		mov	r0, r3
 391              	.LVL34:
ARM GAS  /tmp/ccttklIf.s 			page 8


 392              		.loc 1 160 0
 393 0022 1370     		strb	r3, [r2]
 394              		.loc 1 163 0
 395 0024 5DF8044B 		ldr	r4, [sp], #4
 396 0028 7047     		bx	lr
 397              		.cfi_endproc
 398              	.LFE124:
 399              		.size	_test_fail, .-_test_fail
 400 002a 00BFAFF3 		.section	.text._test_assert,"ax",%progbits
 400      0080
 401              		.align	2
 402              		.p2align 4,,15
 403              		.global	_test_assert
 404              		.thumb
 405              		.thumb_func
 406              		.type	_test_assert, %function
 407              	_test_assert:
 408              	.LFB125:
 409              		.loc 1 165 0
 410              		.cfi_startproc
 411              		@ args = 0, pretend = 0, frame = 0
 412              		@ frame_needed = 0, uses_anonymous_args = 0
 413              		@ link register save eliminated.
 414              	.LVL35:
 415 0000 10B4     		push	{r4}
 416              		.cfi_def_cfa_offset 4
 417              		.cfi_offset 4, -4
 418              		.loc 1 169 0
 419 0002 0022     		movs	r2, #0
 420              		.loc 1 167 0
 421 0004 79B9     		cbnz	r1, .L35
 422              	.LVL36:
 423              	.LBB57:
 424              	.LBB58:
 425              		.loc 1 159 0
 426 0006 40F20004 		movw	r4, #:lower16:.LANCHOR3
 427              		.loc 1 160 0
 428 000a 40F20001 		movw	r1, #:lower16:.LANCHOR4
 429              	.LVL37:
 430              		.loc 1 161 0
 431 000e 40F20003 		movw	r3, #:lower16:.LANCHOR5
 432              		.loc 1 159 0
 433 0012 C0F20004 		movt	r4, #:upper16:.LANCHOR3
 434              		.loc 1 160 0
 435 0016 C0F20001 		movt	r1, #:upper16:.LANCHOR4
 436              		.loc 1 161 0
 437 001a C0F20003 		movt	r3, #:upper16:.LANCHOR5
 438              		.loc 1 159 0
 439 001e 0122     		movs	r2, #1
 440 0020 2270     		strb	r2, [r4]
 441              		.loc 1 160 0
 442 0022 0A70     		strb	r2, [r1]
 443              		.loc 1 161 0
 444 0024 1860     		str	r0, [r3]
 445              	.LVL38:
 446              	.L35:
 447              	.LBE58:
ARM GAS  /tmp/ccttklIf.s 			page 9


 448              	.LBE57:
 449              		.loc 1 170 0
 450 0026 1046     		mov	r0, r2
 451              	.LVL39:
 452 0028 5DF8044B 		ldr	r4, [sp], #4
 453 002c 7047     		bx	lr
 454              		.cfi_endproc
 455              	.LFE125:
 456              		.size	_test_assert, .-_test_assert
 457 002e 00BF     		.section	.text._test_assert_sequence,"ax",%progbits
 458              		.align	2
 459              		.p2align 4,,15
 460              		.global	_test_assert_sequence
 461              		.thumb
 462              		.thumb_func
 463              		.type	_test_assert_sequence, %function
 464              	_test_assert_sequence:
 465              	.LFB126:
 466              		.loc 1 172 0
 467              		.cfi_startproc
 468              		@ args = 0, pretend = 0, frame = 0
 469              		@ frame_needed = 0, uses_anonymous_args = 0
 470              		@ link register save eliminated.
 471              	.LVL40:
 472 0000 F0B4     		push	{r4, r5, r6, r7}
 473              		.cfi_def_cfa_offset 16
 474              		.cfi_offset 4, -16
 475              		.cfi_offset 5, -12
 476              		.cfi_offset 6, -8
 477              		.cfi_offset 7, -4
 478 0002 40F20006 		movw	r6, #:lower16:.LANCHOR2
 479 0006 C0F20006 		movt	r6, #:upper16:.LANCHOR2
 480              		.loc 1 173 0
 481 000a 40F20007 		movw	r7, #:lower16:.LANCHOR6
 482 000e C0F20007 		movt	r7, #:upper16:.LANCHOR6
 483 0012 3568     		ldr	r5, [r6]
 484 0014 3B46     		mov	r3, r7
 485              		.loc 1 174 0
 486 0016 05E0     		b	.L38
 487              	.LVL41:
 488              	.L41:
 489              		.loc 1 175 0
 490 0018 13F8014B 		ldrb	r4, [r3], #1	@ zero_extendqisi2
 491              	.LVL42:
 492 001c 11F8012B 		ldrb	r2, [r1], #1	@ zero_extendqisi2
 493              	.LVL43:
 494 0020 9442     		cmp	r4, r2
 495 0022 07D1     		bne	.L42
 496              	.LVL44:
 497              	.L38:
 498              		.loc 1 174 0 discriminator 1
 499 0024 AB42     		cmp	r3, r5
 500 0026 F7D3     		bcc	.L41
 501              		.loc 1 178 0
 502 0028 0A78     		ldrb	r2, [r1]	@ zero_extendqisi2
 503 002a 1AB9     		cbnz	r2, .L42
 504              	.LBB59:
ARM GAS  /tmp/ccttklIf.s 			page 10


 505              	.LBB60:
 506              		.loc 1 132 0
 507 002c 3760     		str	r7, [r6]
 508              	.LBE60:
 509              	.LBE59:
 510              		.loc 1 182 0
 511 002e 1046     		mov	r0, r2
 512              	.LVL45:
 513 0030 F0BC     		pop	{r4, r5, r6, r7}
 514 0032 7047     		bx	lr
 515              	.LVL46:
 516              	.L42:
 517              	.LBB61:
 518              	.LBB62:
 519              		.loc 1 159 0
 520 0034 40F20004 		movw	r4, #:lower16:.LANCHOR3
 521              		.loc 1 160 0
 522 0038 40F20001 		movw	r1, #:lower16:.LANCHOR4
 523              		.loc 1 161 0
 524 003c 40F20003 		movw	r3, #:lower16:.LANCHOR5
 525              		.loc 1 159 0
 526 0040 C0F20004 		movt	r4, #:upper16:.LANCHOR3
 527              		.loc 1 160 0
 528 0044 C0F20001 		movt	r1, #:upper16:.LANCHOR4
 529              		.loc 1 161 0
 530 0048 C0F20003 		movt	r3, #:upper16:.LANCHOR5
 531              		.loc 1 159 0
 532 004c 0122     		movs	r2, #1
 533 004e 2270     		strb	r2, [r4]
 534              		.loc 1 161 0
 535 0050 1860     		str	r0, [r3]
 536              		.loc 1 160 0
 537 0052 0A70     		strb	r2, [r1]
 538              	.LBE62:
 539              	.LBE61:
 540              		.loc 1 182 0
 541 0054 1046     		mov	r0, r2
 542              	.LVL47:
 543 0056 F0BC     		pop	{r4, r5, r6, r7}
 544 0058 7047     		bx	lr
 545              		.cfi_endproc
 546              	.LFE126:
 547              		.size	_test_assert_sequence, .-_test_assert_sequence
 548 005a 00BFAFF3 		.section	.text._test_assert_time_window,"ax",%progbits
 548      0080
 549              		.align	2
 550              		.p2align 4,,15
 551              		.global	_test_assert_time_window
 552              		.thumb
 553              		.thumb_func
 554              		.type	_test_assert_time_window, %function
 555              	_test_assert_time_window:
 556              	.LFB127:
 557              		.loc 1 184 0
 558              		.cfi_startproc
 559              		@ args = 0, pretend = 0, frame = 0
 560              		@ frame_needed = 0, uses_anonymous_args = 0
ARM GAS  /tmp/ccttklIf.s 			page 11


 561              		@ link register save eliminated.
 562              	.LVL48:
 563              		.loc 1 186 0
 564 0000 40F20003 		movw	r3, #:lower16:vtlist
 565 0004 C0F20003 		movt	r3, #:upper16:vtlist
 566 0008 521A     		subs	r2, r2, r1
 567              	.LVL49:
 568 000a DB68     		ldr	r3, [r3, #12]
 569 000c 591A     		subs	r1, r3, r1
 570              	.LVL50:
 571              	.LBB63:
 572              	.LBB64:
 573              		.loc 1 167 0
 574 000e 9142     		cmp	r1, r2
 575              	.LBE64:
 576              	.LBE63:
 577              		.loc 1 184 0
 578 0010 10B4     		push	{r4}
 579              		.cfi_def_cfa_offset 4
 580              		.cfi_offset 4, -4
 581              	.LBB68:
 582              	.LBB67:
 583              		.loc 1 169 0
 584 0012 38BF     		it	cc
 585 0014 0022     		movcc	r2, #0
 586              		.loc 1 167 0
 587 0016 0FD3     		bcc	.L44
 588              	.LVL51:
 589              	.LBB65:
 590              	.LBB66:
 591              		.loc 1 159 0
 592 0018 40F20004 		movw	r4, #:lower16:.LANCHOR3
 593              		.loc 1 160 0
 594 001c 40F20001 		movw	r1, #:lower16:.LANCHOR4
 595              		.loc 1 161 0
 596 0020 40F20003 		movw	r3, #:lower16:.LANCHOR5
 597              		.loc 1 159 0
 598 0024 C0F20004 		movt	r4, #:upper16:.LANCHOR3
 599              		.loc 1 160 0
 600 0028 C0F20001 		movt	r1, #:upper16:.LANCHOR4
 601              		.loc 1 161 0
 602 002c C0F20003 		movt	r3, #:upper16:.LANCHOR5
 603              		.loc 1 159 0
 604 0030 0122     		movs	r2, #1
 605 0032 2270     		strb	r2, [r4]
 606              		.loc 1 160 0
 607 0034 0A70     		strb	r2, [r1]
 608              		.loc 1 161 0
 609 0036 1860     		str	r0, [r3]
 610              	.LVL52:
 611              	.L44:
 612              	.LBE66:
 613              	.LBE65:
 614              	.LBE67:
 615              	.LBE68:
 616              		.loc 1 187 0
 617 0038 1046     		mov	r0, r2
ARM GAS  /tmp/ccttklIf.s 			page 12


 618              	.LVL53:
 619 003a 5DF8044B 		ldr	r4, [sp], #4
 620 003e 7047     		bx	lr
 621              		.cfi_endproc
 622              	.LFE127:
 623              		.size	_test_assert_time_window, .-_test_assert_time_window
 624              		.section	.text.test_terminate_threads,"ax",%progbits
 625              		.align	2
 626              		.p2align 4,,15
 627              		.global	test_terminate_threads
 628              		.thumb
 629              		.thumb_func
 630              		.type	test_terminate_threads, %function
 631              	test_terminate_threads:
 632              	.LFB128:
 633              		.loc 1 196 0
 634              		.cfi_startproc
 635              		@ args = 0, pretend = 0, frame = 0
 636              		@ frame_needed = 0, uses_anonymous_args = 0
 637              	.LVL54:
 638 0000 38B5     		push	{r3, r4, r5, lr}
 639              		.cfi_def_cfa_offset 16
 640              		.cfi_offset 3, -16
 641              		.cfi_offset 4, -12
 642              		.cfi_offset 5, -8
 643              		.cfi_offset 14, -4
 644 0002 064C     		ldr	r4, .L53
 645 0004 04F11405 		add	r5, r4, #20
 646              	.LVL55:
 647              	.L49:
 648              		.loc 1 200 0
 649 0008 54F8043F 		ldr	r3, [r4, #4]!
 650              		.loc 1 201 0
 651 000c 1846     		mov	r0, r3
 652              		.loc 1 200 0
 653 000e 0BB1     		cbz	r3, .L47
 654              		.loc 1 201 0
 655 0010 FFF7FEFF 		bl	chThdTerminate
 656              	.LVL56:
 657              	.L47:
 658              		.loc 1 199 0
 659 0014 AC42     		cmp	r4, r5
 660 0016 F7D1     		bne	.L49
 661              		.loc 1 202 0
 662 0018 38BD     		pop	{r3, r4, r5, pc}
 663              	.L54:
 664 001a 00BF     		.align	2
 665              	.L53:
 666 001c FCFFFFFF 		.word	.LANCHOR7-4
 667              		.cfi_endproc
 668              	.LFE128:
 669              		.size	test_terminate_threads, .-test_terminate_threads
 670              		.section	.text.test_wait_threads,"ax",%progbits
 671              		.align	2
 672              		.p2align 4,,15
 673              		.global	test_wait_threads
 674              		.thumb
ARM GAS  /tmp/ccttklIf.s 			page 13


 675              		.thumb_func
 676              		.type	test_wait_threads, %function
 677              	test_wait_threads:
 678              	.LFB129:
 679              		.loc 1 207 0
 680              		.cfi_startproc
 681              		@ args = 0, pretend = 0, frame = 0
 682              		@ frame_needed = 0, uses_anonymous_args = 0
 683              	.LVL57:
 684 0000 70B5     		push	{r4, r5, r6, lr}
 685              		.cfi_def_cfa_offset 16
 686              		.cfi_offset 4, -16
 687              		.cfi_offset 5, -12
 688              		.cfi_offset 6, -8
 689              		.cfi_offset 14, -4
 690 0002 40F20004 		movw	r4, #:lower16:.LANCHOR7
 691 0006 C0F20004 		movt	r4, #:upper16:.LANCHOR7
 692 000a 04F11405 		add	r5, r4, #20
 693              		.loc 1 213 0
 694 000e 0026     		movs	r6, #0
 695              	.LVL58:
 696              	.L58:
 697              		.loc 1 211 0
 698 0010 54F8043B 		ldr	r3, [r4], #4
 699              		.loc 1 212 0
 700 0014 1846     		mov	r0, r3
 701              		.loc 1 211 0
 702 0016 1BB1     		cbz	r3, .L56
 703              		.loc 1 212 0
 704 0018 FFF7FEFF 		bl	chThdWait
 705              	.LVL59:
 706              		.loc 1 213 0
 707 001c 44F8046C 		str	r6, [r4, #-4]
 708              	.L56:
 709              		.loc 1 210 0
 710 0020 AC42     		cmp	r4, r5
 711 0022 F5D1     		bne	.L58
 712              		.loc 1 215 0
 713 0024 70BD     		pop	{r4, r5, r6, pc}
 714              		.cfi_endproc
 715              	.LFE129:
 716              		.size	test_wait_threads, .-test_wait_threads
 717 0026 00BFAFF3 		.section	.text.test_cpu_pulse,"ax",%progbits
 717      0080AFF3 
 717      0080
 718              		.align	2
 719              		.p2align 4,,15
 720              		.global	test_cpu_pulse
 721              		.thumb
 722              		.thumb_func
 723              		.type	test_cpu_pulse, %function
 724              	test_cpu_pulse:
 725              	.LFB130:
 726              		.loc 1 224 0
 727              		.cfi_startproc
 728              		@ args = 0, pretend = 0, frame = 0
 729              		@ frame_needed = 0, uses_anonymous_args = 0
ARM GAS  /tmp/ccttklIf.s 			page 14


 730              		@ link register save eliminated.
 731              	.LVL60:
 732              		.loc 1 227 0
 733 0000 40F20003 		movw	r3, #:lower16:rlist
 734 0004 C0F20003 		movt	r3, #:upper16:rlist
 735              		.loc 1 224 0
 736 0008 30B4     		push	{r4, r5}
 737              		.cfi_def_cfa_offset 8
 738              		.cfi_offset 4, -8
 739              		.cfi_offset 5, -4
 740              		.loc 1 227 0
 741 000a 9C69     		ldr	r4, [r3, #24]
 742              		.loc 1 228 0
 743 000c 4FF47A72 		mov	r2, #1000
 744 0010 02FB00F0 		mul	r0, r2, r0
 745              	.LVL61:
 746 0014 44F6D353 		movw	r3, #19923
 747              		.loc 1 227 0
 748 0018 226A     		ldr	r2, [r4, #32]
 749              	.LVL62:
 750              		.loc 1 228 0
 751 001a 411E     		subs	r1, r0, #1
 752 001c C1F26203 		movt	r3, 4194
 753 0020 501C     		adds	r0, r2, #1
 754 0022 A3FB0151 		umull	r5, r1, r3, r1
 755 0026 00EB9111 		add	r1, r0, r1, lsr #6
 756              	.LVL63:
 757              	.L66:
 758              		.loc 1 235 0
 759 002a 8A42     		cmp	r2, r1
 760              		.loc 1 230 0
 761 002c 236A     		ldr	r3, [r4, #32]
 762              	.LVL64:
 763              		.loc 1 235 0
 764 002e 0AD2     		bcs	.L63
 765              		.loc 1 235 0 is_stmt 0 discriminator 1
 766 0030 8B42     		cmp	r3, r1
 767 0032 2CBF     		ite	cs
 768 0034 0020     		movcs	r0, #0
 769 0036 0120     		movcc	r0, #1
 770 0038 9342     		cmp	r3, r2
 771 003a 38BF     		it	cc
 772 003c 0020     		movcc	r0, #0
 773              		.loc 1 236 0 is_stmt 1 discriminator 1
 774 003e 0028     		cmp	r0, #0
 775 0040 F3D1     		bne	.L66
 776              	.L67:
 777              		.loc 1 237 0
 778 0042 30BC     		pop	{r4, r5}
 779 0044 7047     		bx	lr
 780              	.L63:
 781              		.loc 1 236 0 discriminator 2
 782 0046 9342     		cmp	r3, r2
 783 0048 34BF     		ite	cc
 784 004a 0020     		movcc	r0, #0
 785 004c 0120     		movcs	r0, #1
 786 004e 8B42     		cmp	r3, r1
ARM GAS  /tmp/ccttklIf.s 			page 15


 787 0050 38BF     		it	cc
 788 0052 40F00100 		orrcc	r0, r0, #1
 789 0056 0028     		cmp	r0, #0
 790 0058 E7D1     		bne	.L66
 791 005a F2E7     		b	.L67
 792              		.cfi_endproc
 793              	.LFE130:
 794              		.size	test_cpu_pulse, .-test_cpu_pulse
 795 005c AFF30080 		.section	.text.test_wait_tick,"ax",%progbits
 796              		.align	2
 797              		.p2align 4,,15
 798              		.global	test_wait_tick
 799              		.thumb
 800              		.thumb_func
 801              		.type	test_wait_tick, %function
 802              	test_wait_tick:
 803              	.LFB131:
 804              		.loc 1 245 0
 805              		.cfi_startproc
 806              		@ args = 0, pretend = 0, frame = 0
 807              		@ frame_needed = 0, uses_anonymous_args = 0
 808 0000 08B5     		push	{r3, lr}
 809              		.cfi_def_cfa_offset 8
 810              		.cfi_offset 3, -8
 811              		.cfi_offset 14, -4
 812              		.loc 1 247 0
 813 0002 0120     		movs	r0, #1
 814 0004 FFF7FEFF 		bl	chThdSleep
 815              	.LVL65:
 816              		.loc 1 248 0
 817 0008 40F20003 		movw	r3, #:lower16:vtlist
 818 000c C0F20003 		movt	r3, #:upper16:vtlist
 819 0010 D868     		ldr	r0, [r3, #12]
 820              		.loc 1 249 0
 821 0012 08BD     		pop	{r3, pc}
 822              		.cfi_endproc
 823              	.LFE131:
 824              		.size	test_wait_tick, .-test_wait_tick
 825 0014 AFF30080 		.section	.text.test_start_timer,"ax",%progbits
 825      AFF30080 
 825      AFF30080 
 826              		.align	2
 827              		.p2align 4,,15
 828              		.global	test_start_timer
 829              		.thumb
 830              		.thumb_func
 831              		.type	test_start_timer, %function
 832              	test_start_timer:
 833              	.LFB133:
 834              		.loc 1 272 0
 835              		.cfi_startproc
 836              		@ args = 0, pretend = 0, frame = 0
 837              		@ frame_needed = 0, uses_anonymous_args = 0
 838              	.LVL66:
 839 0000 08B5     		push	{r3, lr}
 840              		.cfi_def_cfa_offset 8
 841              		.cfi_offset 3, -8
ARM GAS  /tmp/ccttklIf.s 			page 16


 842              		.cfi_offset 14, -4
 843              		.loc 1 275 0
 844 0002 40F20003 		movw	r3, #:lower16:.LANCHOR0
 845 0006 C0F20003 		movt	r3, #:upper16:.LANCHOR0
 846 000a 0022     		movs	r2, #0
 847              	.LVL67:
 848 000c 1A70     		strb	r2, [r3]
 849              	.LBB69:
 850              		.loc 1 276 0
 851 000e 2023     		movs	r3, #32
 852              	@ 276 "../../test/test.c" 1
 853 0010 83F31188 		msr     BASEPRI, r3
 854              	@ 0 "" 2
 855              		.thumb
 856              	.LBE69:
 857              		.loc 1 274 0
 858 0014 4FF47A73 		mov	r3, #1000
 859 0018 03FB00F0 		mul	r0, r3, r0
 860              	.LVL68:
 861 001c 44F6D353 		movw	r3, #19923
 862 0020 0138     		subs	r0, r0, #1
 863 0022 C1F26203 		movt	r3, 4194
 864 0026 A3FB0023 		umull	r2, r3, r3, r0
 865 002a 9909     		lsrs	r1, r3, #6
 866              		.loc 1 276 0
 867 002c 40F20000 		movw	r0, #:lower16:.LANCHOR8
 868 0030 40F20002 		movw	r2, #:lower16:tmr
 869 0034 0131     		adds	r1, r1, #1
 870 0036 C0F20000 		movt	r0, #:upper16:.LANCHOR8
 871 003a C0F20002 		movt	r2, #:upper16:tmr
 872 003e 0023     		movs	r3, #0
 873 0040 FFF7FEFF 		bl	chVTSetI
 874              	.LVL69:
 875              	.LBB70:
 876 0044 0023     		movs	r3, #0
 877              	@ 276 "../../test/test.c" 1
 878 0046 83F31188 		msr     BASEPRI, r3
 879              	@ 0 "" 2
 880              		.thumb
 881 004a 08BD     		pop	{r3, pc}
 882              	.LBE70:
 883              		.cfi_endproc
 884              	.LFE133:
 885              		.size	test_start_timer, .-test_start_timer
 886 004c AFF30080 		.section	.text.TestThread,"ax",%progbits
 887              		.align	2
 888              		.p2align 4,,15
 889              		.global	TestThread
 890              		.thumb
 891              		.thumb_func
 892              		.type	TestThread, %function
 893              	TestThread:
 894              	.LFB136:
 895              		.loc 1 314 0
 896              		.cfi_startproc
 897              		@ args = 0, pretend = 0, frame = 16
 898              		@ frame_needed = 0, uses_anonymous_args = 0
ARM GAS  /tmp/ccttklIf.s 			page 17


 899              	.LVL70:
 900 0000 2DE9F04F 		push	{r4, r5, r6, r7, r8, r9, r10, fp, lr}
 901              		.cfi_def_cfa_offset 36
 902              		.cfi_offset 4, -36
 903              		.cfi_offset 5, -32
 904              		.cfi_offset 6, -28
 905              		.cfi_offset 7, -24
 906              		.cfi_offset 8, -20
 907              		.cfi_offset 9, -16
 908              		.cfi_offset 10, -12
 909              		.cfi_offset 11, -8
 910              		.cfi_offset 14, -4
 911              		.loc 1 317 0
 912 0004 40F20004 		movw	r4, #:lower16:.LANCHOR1
 913 0008 C0F20004 		movt	r4, #:upper16:.LANCHOR1
 914              		.loc 1 314 0
 915 000c 85B0     		sub	sp, sp, #20
 916              		.cfi_def_cfa_offset 56
 917              		.loc 1 317 0
 918 000e 2060     		str	r0, [r4]
 919              		.loc 1 318 0
 920 0010 40F20000 		movw	r0, #:lower16:.LC1
 921              	.LVL71:
 922 0014 C0F20000 		movt	r0, #:upper16:.LC1
 923 0018 FFF7FEFF 		bl	test_println
 924              	.LVL72:
 925              		.loc 1 319 0
 926 001c 40F20000 		movw	r0, #:lower16:.LC2
 927 0020 C0F20000 		movt	r0, #:upper16:.LC2
 928 0024 FFF7FEFF 		bl	test_println
 929              	.LVL73:
 930              		.loc 1 320 0
 931 0028 40F20000 		movw	r0, #:lower16:.LC3
 932 002c 40F20005 		movw	r5, #:lower16:.LC4
 933 0030 C0F20000 		movt	r0, #:upper16:.LC3
 934 0034 FFF7FEFF 		bl	test_println
 935              	.LVL74:
 936 0038 C0F20005 		movt	r5, #:upper16:.LC4
 937              	.LBB107:
 938              	.LBB108:
 939              		.loc 1 112 0
 940 003c 2A21     		movs	r1, #42
 941              	.LVL75:
 942              	.L72:
 943              		.loc 1 113 0
 944 003e 2068     		ldr	r0, [r4]
 945              	.LVL76:
 946 0040 0368     		ldr	r3, [r0]
 947 0042 9B68     		ldr	r3, [r3, #8]
 948 0044 9847     		blx	r3
 949              	.LVL77:
 950              		.loc 1 112 0
 951 0046 15F8011F 		ldrb	r1, [r5, #1]!	@ zero_extendqisi2
 952              	.LVL78:
 953 004a 0029     		cmp	r1, #0
 954 004c F7D1     		bne	.L72
 955              	.LBE108:
ARM GAS  /tmp/ccttklIf.s 			page 18


 956              	.LBE107:
 957              		.loc 1 322 0
 958 004e 40F20000 		movw	r0, #:lower16:.LC12
 959 0052 C0F20000 		movt	r0, #:upper16:.LC12
 960 0056 40F20005 		movw	r5, #:lower16:.LC13
 961              	.LVL79:
 962 005a FFF7FEFF 		bl	test_println
 963              	.LVL80:
 964 005e C0F20005 		movt	r5, #:upper16:.LC13
 965              	.LBB109:
 966              	.LBB110:
 967              		.loc 1 112 0
 968 0062 2A21     		movs	r1, #42
 969              	.LVL81:
 970              	.L110:
 971              		.loc 1 113 0
 972 0064 2068     		ldr	r0, [r4]
 973              	.LVL82:
 974 0066 0368     		ldr	r3, [r0]
 975 0068 9B68     		ldr	r3, [r3, #8]
 976 006a 9847     		blx	r3
 977              	.LVL83:
 978              		.loc 1 112 0
 979 006c 15F8011F 		ldrb	r1, [r5, #1]!	@ zero_extendqisi2
 980              	.LVL84:
 981 0070 0029     		cmp	r1, #0
 982 0072 F7D1     		bne	.L110
 983              	.LBE110:
 984              	.LBE109:
 985              		.loc 1 324 0
 986 0074 40F20000 		movw	r0, #:lower16:.LC14
 987 0078 C0F20000 		movt	r0, #:upper16:.LC14
 988 007c 40F20005 		movw	r5, #:lower16:.LC15
 989              	.LVL85:
 990 0080 FFF7FEFF 		bl	test_println
 991              	.LVL86:
 992 0084 C0F20005 		movt	r5, #:upper16:.LC15
 993              	.LBB111:
 994              	.LBB112:
 995              		.loc 1 112 0
 996 0088 2A21     		movs	r1, #42
 997              	.LVL87:
 998              	.L111:
 999              		.loc 1 113 0
 1000 008a 2068     		ldr	r0, [r4]
 1001              	.LVL88:
 1002 008c 0368     		ldr	r3, [r0]
 1003 008e 9B68     		ldr	r3, [r3, #8]
 1004 0090 9847     		blx	r3
 1005              	.LVL89:
 1006              		.loc 1 112 0
 1007 0092 15F8011F 		ldrb	r1, [r5, #1]!	@ zero_extendqisi2
 1008              	.LVL90:
 1009 0096 0029     		cmp	r1, #0
 1010 0098 F7D1     		bne	.L111
 1011              	.LBE112:
 1012              	.LBE111:
ARM GAS  /tmp/ccttklIf.s 			page 19


 1013              		.loc 1 327 0
 1014 009a 40F20000 		movw	r0, #:lower16:.LC16
 1015 009e C0F20000 		movt	r0, #:upper16:.LC16
 1016 00a2 40F20005 		movw	r5, #:lower16:.LC17
 1017              	.LVL91:
 1018 00a6 FFF7FEFF 		bl	test_println
 1019              	.LVL92:
 1020 00aa C0F20005 		movt	r5, #:upper16:.LC17
 1021              	.LBB113:
 1022              	.LBB114:
 1023              		.loc 1 112 0
 1024 00ae 2A21     		movs	r1, #42
 1025              	.LVL93:
 1026              	.L112:
 1027              		.loc 1 113 0
 1028 00b0 2068     		ldr	r0, [r4]
 1029              	.LVL94:
 1030 00b2 0368     		ldr	r3, [r0]
 1031 00b4 9B68     		ldr	r3, [r3, #8]
 1032 00b6 9847     		blx	r3
 1033              	.LVL95:
 1034              		.loc 1 112 0
 1035 00b8 15F8011F 		ldrb	r1, [r5, #1]!	@ zero_extendqisi2
 1036              	.LVL96:
 1037 00bc 0029     		cmp	r1, #0
 1038 00be F7D1     		bne	.L112
 1039              	.LBE114:
 1040              	.LBE113:
 1041              		.loc 1 330 0
 1042 00c0 40F20000 		movw	r0, #:lower16:.LC18
 1043 00c4 C0F20000 		movt	r0, #:upper16:.LC18
 1044 00c8 40F20005 		movw	r5, #:lower16:.LC19
 1045              	.LVL97:
 1046 00cc FFF7FEFF 		bl	test_println
 1047              	.LVL98:
 1048 00d0 C0F20005 		movt	r5, #:upper16:.LC19
 1049              	.LBB115:
 1050              	.LBB116:
 1051              		.loc 1 112 0
 1052 00d4 2A21     		movs	r1, #42
 1053              	.LVL99:
 1054              	.L113:
 1055              		.loc 1 113 0
 1056 00d6 2068     		ldr	r0, [r4]
 1057              	.LVL100:
 1058 00d8 0368     		ldr	r3, [r0]
 1059 00da 9B68     		ldr	r3, [r3, #8]
 1060 00dc 9847     		blx	r3
 1061              	.LVL101:
 1062              		.loc 1 112 0
 1063 00de 15F8011F 		ldrb	r1, [r5, #1]!	@ zero_extendqisi2
 1064              	.LVL102:
 1065 00e2 0029     		cmp	r1, #0
 1066 00e4 F7D1     		bne	.L113
 1067              	.LBE116:
 1068              	.LBE115:
 1069              		.loc 1 333 0
ARM GAS  /tmp/ccttklIf.s 			page 20


 1070 00e6 40F20000 		movw	r0, #:lower16:.LC20
 1071 00ea C0F20000 		movt	r0, #:upper16:.LC20
 1072 00ee 40F20005 		movw	r5, #:lower16:.LC21
 1073              	.LVL103:
 1074 00f2 FFF7FEFF 		bl	test_println
 1075              	.LVL104:
 1076 00f6 C0F20005 		movt	r5, #:upper16:.LC21
 1077              	.LBB117:
 1078              	.LBB118:
 1079              		.loc 1 112 0
 1080 00fa 2A21     		movs	r1, #42
 1081              	.LVL105:
 1082              	.L114:
 1083              		.loc 1 113 0
 1084 00fc 2068     		ldr	r0, [r4]
 1085              	.LVL106:
 1086 00fe 0368     		ldr	r3, [r0]
 1087 0100 9B68     		ldr	r3, [r3, #8]
 1088 0102 9847     		blx	r3
 1089              	.LVL107:
 1090              		.loc 1 112 0
 1091 0104 15F8011F 		ldrb	r1, [r5, #1]!	@ zero_extendqisi2
 1092              	.LVL108:
 1093 0108 0029     		cmp	r1, #0
 1094 010a F7D1     		bne	.L114
 1095              	.LBE118:
 1096              	.LBE117:
 1097              		.loc 1 337 0
 1098 010c 40F20000 		movw	r0, #:lower16:.LC22
 1099 0110 C0F20000 		movt	r0, #:upper16:.LC22
 1100 0114 40F20005 		movw	r5, #:lower16:.LC23
 1101              	.LVL109:
 1102 0118 FFF7FEFF 		bl	test_println
 1103              	.LVL110:
 1104 011c C0F20005 		movt	r5, #:upper16:.LC23
 1105              	.LBB119:
 1106              	.LBB120:
 1107              		.loc 1 112 0
 1108 0120 2A21     		movs	r1, #42
 1109              	.LVL111:
 1110              	.L115:
 1111              		.loc 1 113 0
 1112 0122 2068     		ldr	r0, [r4]
 1113              	.LVL112:
 1114 0124 0368     		ldr	r3, [r0]
 1115 0126 9B68     		ldr	r3, [r3, #8]
 1116 0128 9847     		blx	r3
 1117              	.LVL113:
 1118              		.loc 1 112 0
 1119 012a 15F8011F 		ldrb	r1, [r5, #1]!	@ zero_extendqisi2
 1120              	.LVL114:
 1121 012e 0029     		cmp	r1, #0
 1122 0130 F7D1     		bne	.L115
 1123              	.LBE120:
 1124              	.LBE119:
 1125              		.loc 1 341 0
 1126 0132 40F20000 		movw	r0, #:lower16:.LC24
ARM GAS  /tmp/ccttklIf.s 			page 21


 1127 0136 C0F20000 		movt	r0, #:upper16:.LC24
 1128 013a 40F20005 		movw	r5, #:lower16:.LC25
 1129              	.LVL115:
 1130 013e FFF7FEFF 		bl	test_println
 1131              	.LVL116:
 1132 0142 C0F20005 		movt	r5, #:upper16:.LC25
 1133              	.LBB121:
 1134              	.LBB122:
 1135              		.loc 1 112 0
 1136 0146 2A21     		movs	r1, #42
 1137              	.LVL117:
 1138              	.L116:
 1139              		.loc 1 113 0
 1140 0148 2068     		ldr	r0, [r4]
 1141              	.LVL118:
 1142 014a 0368     		ldr	r3, [r0]
 1143 014c 9B68     		ldr	r3, [r3, #8]
 1144 014e 9847     		blx	r3
 1145              	.LVL119:
 1146              		.loc 1 112 0
 1147 0150 15F8011F 		ldrb	r1, [r5, #1]!	@ zero_extendqisi2
 1148              	.LVL120:
 1149 0154 0029     		cmp	r1, #0
 1150 0156 F7D1     		bne	.L116
 1151              	.LBE122:
 1152              	.LBE121:
 1153              		.loc 1 345 0
 1154 0158 40F20000 		movw	r0, #:lower16:.LC26
 1155 015c C0F20000 		movt	r0, #:upper16:.LC26
 1156 0160 0191     		str	r1, [sp, #4]
 1157 0162 FFF7FEFF 		bl	test_println
 1158              	.LVL121:
 1159              		.loc 1 349 0
 1160 0166 40F20002 		movw	r2, #:lower16:.LANCHOR4
 1161              		.loc 1 347 0
 1162 016a 40F20000 		movw	r0, #:lower16:.LC1
 1163              		.loc 1 349 0
 1164 016e C0F20002 		movt	r2, #:upper16:.LANCHOR4
 1165              		.loc 1 347 0
 1166 0172 C0F20000 		movt	r0, #:upper16:.LC1
 1167              		.loc 1 349 0
 1168 0176 0392     		str	r2, [sp, #12]
 1169              		.loc 1 347 0
 1170 0178 FFF7FEFF 		bl	test_println
 1171              	.LVL122:
 1172              		.loc 1 349 0
 1173 017c 0199     		ldr	r1, [sp, #4]
 1174 017e 039A     		ldr	r2, [sp, #12]
 1175 0180 40F20003 		movw	r3, #:lower16:.LANCHOR9
 1176 0184 40F20007 		movw	r7, #:lower16:patternthd
 1177              	.LBB123:
 1178              	.LBB124:
 1179              	.LBB125:
 1180              	.LBB126:
 1181              		.loc 1 132 0
 1182 0188 40F20005 		movw	r5, #:lower16:.LANCHOR2
 1183              	.LVL123:
ARM GAS  /tmp/ccttklIf.s 			page 22


 1184 018c 40F20009 		movw	r9, #:lower16:.LANCHOR6
 1185 0190 C0F20003 		movt	r3, #:upper16:.LANCHOR9
 1186              	.LBE126:
 1187              	.LBE125:
 1188              	.LBE124:
 1189              	.LBE123:
 1190              		.loc 1 349 0
 1191 0194 1170     		strb	r1, [r2]
 1192              	.LVL124:
 1193              		.loc 1 350 0
 1194 0196 8A46     		mov	r10, r1
 1195 0198 0293     		str	r3, [sp, #8]
 1196              		.loc 1 349 0
 1197 019a C0F20007 		movt	r7, #:upper16:patternthd
 1198              	.LBB134:
 1199              	.LBB131:
 1200              	.LBB129:
 1201              	.LBB127:
 1202              		.loc 1 132 0
 1203 019e C0F20005 		movt	r5, #:upper16:.LANCHOR2
 1204 01a2 C0F20009 		movt	r9, #:upper16:.LANCHOR6
 1205              	.LVL125:
 1206              	.L117:
 1207 01a6 0AF1010A 		add	r10, r10, #1
 1208              	.LVL126:
 1209              	.LBE127:
 1210              	.LBE129:
 1211              	.LBE131:
 1212              	.LBE134:
 1213              	.LBB135:
 1214              	.LBB136:
 1215              		.loc 1 112 0 discriminator 1
 1216 01aa 4FF00008 		mov	r8, #0
 1217              	.L106:
 1218              	.LVL127:
 1219              	.LBE136:
 1220              	.LBE135:
 1221              		.loc 1 353 0 discriminator 1
 1222 01ae 57F8043B 		ldr	r3, [r7], #4
 1223 01b2 002B     		cmp	r3, #0
 1224 01b4 00F0A280 		beq	.L135
 1225              	.L104:
 1226 01b8 40F2000B 		movw	fp, #:lower16:.LC5
 1227              		.loc 1 354 0
 1228 01bc FFF7FEFF 		bl	print_line
 1229              	.LVL128:
 1230 01c0 C0F2000B 		movt	fp, #:upper16:.LC5
 1231              	.LBB138:
 1232              	.LBB139:
 1233              		.loc 1 112 0
 1234 01c4 2D21     		movs	r1, #45
 1235              	.LVL129:
 1236              	.L88:
 1237              		.loc 1 113 0
 1238 01c6 2068     		ldr	r0, [r4]
 1239              	.LVL130:
 1240 01c8 0268     		ldr	r2, [r0]
ARM GAS  /tmp/ccttklIf.s 			page 23


 1241 01ca 9268     		ldr	r2, [r2, #8]
 1242 01cc 9047     		blx	r2
 1243              	.LVL131:
 1244              		.loc 1 112 0
 1245 01ce 1BF8011F 		ldrb	r1, [fp, #1]!	@ zero_extendqisi2
 1246              	.LVL132:
 1247              		.loc 1 113 0
 1248 01d2 40F20006 		movw	r6, #:lower16:.LANCHOR1
 1249 01d6 C0F20006 		movt	r6, #:upper16:.LANCHOR1
 1250              		.loc 1 112 0
 1251 01da 0029     		cmp	r1, #0
 1252 01dc F3D1     		bne	.L88
 1253              	.LBE139:
 1254              	.LBE138:
 1255              		.loc 1 356 0
 1256 01de 5046     		mov	r0, r10
 1257 01e0 FFF7FEFF 		bl	test_printn
 1258              	.LVL133:
 1259              	.LBB140:
 1260              	.LBB141:
 1261              		.loc 1 113 0
 1262 01e4 3068     		ldr	r0, [r6]
 1263              	.LVL134:
 1264 01e6 0368     		ldr	r3, [r0]
 1265 01e8 2E21     		movs	r1, #46
 1266 01ea 9B68     		ldr	r3, [r3, #8]
 1267              	.LBE141:
 1268              	.LBE140:
 1269              		.loc 1 358 0
 1270 01ec 08F10108 		add	r8, r8, #1
 1271              	.LVL135:
 1272              	.LBB143:
 1273              	.LBB142:
 1274              		.loc 1 113 0
 1275 01f0 9847     		blx	r3
 1276              	.LVL136:
 1277 01f2 40F20006 		movw	r6, #:lower16:.LC27
 1278              	.LBE142:
 1279              	.LBE143:
 1280              		.loc 1 358 0
 1281 01f6 4046     		mov	r0, r8
 1282 01f8 FFF7FEFF 		bl	test_printn
 1283              	.LVL137:
 1284 01fc C0F20006 		movt	r6, #:upper16:.LC27
 1285              	.LBB144:
 1286              	.LBB145:
 1287              		.loc 1 112 0
 1288 0200 2021     		movs	r1, #32
 1289              	.LVL138:
 1290              	.L118:
 1291              		.loc 1 113 0
 1292 0202 2068     		ldr	r0, [r4]
 1293              	.LVL139:
 1294 0204 0368     		ldr	r3, [r0]
 1295 0206 9B68     		ldr	r3, [r3, #8]
 1296 0208 9847     		blx	r3
 1297              	.LVL140:
ARM GAS  /tmp/ccttklIf.s 			page 24


 1298              		.loc 1 112 0
 1299 020a 16F8011F 		ldrb	r1, [r6, #1]!	@ zero_extendqisi2
 1300              	.LVL141:
 1301 020e 0029     		cmp	r1, #0
 1302 0210 F7D1     		bne	.L118
 1303              	.LBE145:
 1304              	.LBE144:
 1305              		.loc 1 360 0
 1306 0212 57F8043C 		ldr	r3, [r7, #-4]
 1307 0216 1E68     		ldr	r6, [r3]
 1308              	.LVL142:
 1309              	.LBB146:
 1310              	.LBB147:
 1311              		.loc 1 112 0
 1312 0218 3178     		ldrb	r1, [r6]	@ zero_extendqisi2
 1313 021a 39B1     		cbz	r1, .L93
 1314              	.LVL143:
 1315              	.L94:
 1316              		.loc 1 113 0
 1317 021c 2068     		ldr	r0, [r4]
 1318              	.LVL144:
 1319 021e 0368     		ldr	r3, [r0]
 1320 0220 9B68     		ldr	r3, [r3, #8]
 1321 0222 9847     		blx	r3
 1322              	.LVL145:
 1323              		.loc 1 112 0
 1324 0224 16F8011F 		ldrb	r1, [r6, #1]!	@ zero_extendqisi2
 1325              	.LVL146:
 1326 0228 0029     		cmp	r1, #0
 1327 022a F7D1     		bne	.L94
 1328              	.LVL147:
 1329              	.L93:
 1330              	.LBE147:
 1331              	.LBE146:
 1332              		.loc 1 361 0
 1333 022c 40F20000 		movw	r0, #:lower16:.LC6
 1334 0230 C0F20000 		movt	r0, #:upper16:.LC6
 1335 0234 FFF7FEFF 		bl	test_println
 1336              	.LVL148:
 1337              		.loc 1 363 0
 1338 0238 C820     		movs	r0, #200
 1339 023a FFF7FEFF 		bl	chThdSleep
 1340              	.LVL149:
 1341              	.LBB148:
 1342              	.LBB132:
 1343              		.loc 1 289 0
 1344 023e 40F20003 		movw	r3, #:lower16:.LANCHOR7
 1345 0242 C0F20003 		movt	r3, #:upper16:.LANCHOR7
 1346              	.LBE132:
 1347              	.LBE148:
 1348              		.loc 1 365 0
 1349 0246 57F804BC 		ldr	fp, [r7, #-4]
 1350              	.LVL150:
 1351              	.LBB149:
 1352              	.LBB133:
 1353              	.LBB130:
 1354              	.LBB128:
ARM GAS  /tmp/ccttklIf.s 			page 25


 1355              		.loc 1 132 0
 1356 024a C5F80090 		str	r9, [r5]
 1357              	.LBE128:
 1358              	.LBE130:
 1359              		.loc 1 287 0
 1360 024e 0022     		movs	r2, #0
 1361              		.loc 1 289 0
 1362 0250 1A60     		str	r2, [r3]
 1363 0252 5A60     		str	r2, [r3, #4]
 1364 0254 9A60     		str	r2, [r3, #8]
 1365 0256 DA60     		str	r2, [r3, #12]
 1366 0258 1A61     		str	r2, [r3, #16]
 1367              		.loc 1 287 0
 1368 025a 40F20006 		movw	r6, #:lower16:.LANCHOR3
 1369 025e C0F20006 		movt	r6, #:upper16:.LANCHOR3
 1370              		.loc 1 291 0
 1371 0262 DBF80430 		ldr	r3, [fp, #4]
 1372              		.loc 1 287 0
 1373 0266 3270     		strb	r2, [r6]
 1374              	.LVL151:
 1375              		.loc 1 291 0
 1376 0268 03B1     		cbz	r3, .L92
 1377              		.loc 1 292 0
 1378 026a 9847     		blx	r3
 1379              	.LVL152:
 1380              	.L92:
 1381              		.loc 1 293 0
 1382 026c DBF80C30 		ldr	r3, [fp, #12]
 1383 0270 9847     		blx	r3
 1384              	.LVL153:
 1385              		.loc 1 294 0
 1386 0272 DBF80830 		ldr	r3, [fp, #8]
 1387 0276 03B1     		cbz	r3, .L95
 1388              		.loc 1 295 0
 1389 0278 9847     		blx	r3
 1390              	.LVL154:
 1391              	.L95:
 1392              		.loc 1 297 0
 1393 027a FFF7FEFF 		bl	test_wait_threads
 1394              	.LVL155:
 1395              	.LBE133:
 1396              	.LBE149:
 1397              		.loc 1 366 0
 1398 027e 3378     		ldrb	r3, [r6]	@ zero_extendqisi2
 1399 0280 002B     		cmp	r3, #0
 1400 0282 65D0     		beq	.L96
 1401 0284 40F20006 		movw	r6, #:lower16:.LC7
 1402 0288 C0F20006 		movt	r6, #:upper16:.LC7
 1403              	.LBB150:
 1404              	.LBB151:
 1405              		.loc 1 112 0
 1406 028c 2D21     		movs	r1, #45
 1407              	.L98:
 1408              	.LVL156:
 1409              		.loc 1 113 0
 1410 028e 2068     		ldr	r0, [r4]
 1411              	.LVL157:
ARM GAS  /tmp/ccttklIf.s 			page 26


 1412 0290 0368     		ldr	r3, [r0]
 1413 0292 9B68     		ldr	r3, [r3, #8]
 1414 0294 9847     		blx	r3
 1415              	.LVL158:
 1416              		.loc 1 112 0
 1417 0296 16F8011F 		ldrb	r1, [r6, #1]!	@ zero_extendqisi2
 1418              	.LVL159:
 1419 029a 0029     		cmp	r1, #0
 1420 029c F7D1     		bne	.L98
 1421              	.LBE151:
 1422              	.LBE150:
 1423              		.loc 1 368 0
 1424 029e 40F20003 		movw	r3, #:lower16:.LANCHOR5
 1425 02a2 C0F20003 		movt	r3, #:upper16:.LANCHOR5
 1426 02a6 40F20006 		movw	r6, #:lower16:.LC28
 1427              	.LVL160:
 1428 02aa 1868     		ldr	r0, [r3]
 1429 02ac FFF7FEFF 		bl	test_printn
 1430              	.LVL161:
 1431 02b0 C0F20006 		movt	r6, #:upper16:.LC28
 1432              	.LBB152:
 1433              	.LBB137:
 1434              		.loc 1 112 0
 1435 02b4 2021     		movs	r1, #32
 1436              	.LVL162:
 1437              	.L119:
 1438              		.loc 1 113 0
 1439 02b6 2068     		ldr	r0, [r4]
 1440              	.LVL163:
 1441 02b8 0368     		ldr	r3, [r0]
 1442 02ba 9B68     		ldr	r3, [r3, #8]
 1443 02bc 9847     		blx	r3
 1444              	.LVL164:
 1445              		.loc 1 112 0
 1446 02be 16F8011F 		ldrb	r1, [r6, #1]!	@ zero_extendqisi2
 1447              	.LVL165:
 1448 02c2 0029     		cmp	r1, #0
 1449 02c4 F7D1     		bne	.L119
 1450              	.LVL166:
 1451              	.LBE137:
 1452              	.LBE152:
 1453              	.LBB153:
 1454              	.LBB154:
 1455              		.loc 1 138 0
 1456 02c6 2B68     		ldr	r3, [r5]
 1457 02c8 4B45     		cmp	r3, r9
 1458 02ca 88BF     		it	hi
 1459 02cc 294E     		ldrhi	r6, .L137
 1460              	.LVL167:
 1461 02ce 0AD9     		bls	.L102
 1462              	.LVL168:
 1463              	.L103:
 1464              		.loc 1 139 0
 1465 02d0 2068     		ldr	r0, [r4]
 1466 02d2 16F8011C 		ldrb	r1, [r6, #-1]	@ zero_extendqisi2
 1467 02d6 0368     		ldr	r3, [r0]
 1468 02d8 9B68     		ldr	r3, [r3, #8]
ARM GAS  /tmp/ccttklIf.s 			page 27


 1469 02da 9847     		blx	r3
 1470              	.LVL169:
 1471              		.loc 1 138 0
 1472 02dc 2B68     		ldr	r3, [r5]
 1473              	.LVL170:
 1474 02de 9E42     		cmp	r6, r3
 1475 02e0 06F10106 		add	r6, r6, #1
 1476              	.LVL171:
 1477 02e4 F4D3     		bcc	.L103
 1478              	.LVL172:
 1479              	.L102:
 1480              	.LBE154:
 1481              	.LBE153:
 1482              		.loc 1 371 0
 1483 02e6 40F20000 		movw	r0, #:lower16:.LC8
 1484 02ea C0F20000 		movt	r0, #:upper16:.LC8
 1485 02ee FFF7FEFF 		bl	test_println
 1486              	.LVL173:
 1487              		.loc 1 353 0
 1488 02f2 57F8043B 		ldr	r3, [r7], #4
 1489 02f6 002B     		cmp	r3, #0
 1490 02f8 7FF45EAF 		bne	.L104
 1491              	.LVL174:
 1492              	.L135:
 1493              		.loc 1 351 0
 1494 02fc 029A     		ldr	r2, [sp, #8]
 1495 02fe 52F8047F 		ldr	r7, [r2, #4]!
 1496 0302 0292     		str	r2, [sp, #8]
 1497 0304 002F     		cmp	r7, #0
 1498 0306 7FF44EAF 		bne	.L117
 1499              		.loc 1 379 0
 1500 030a FFF7FEFF 		bl	print_line
 1501              	.LVL175:
 1502              		.loc 1 380 0
 1503 030e 40F20000 		movw	r0, #:lower16:.LC1
 1504 0312 C0F20000 		movt	r0, #:upper16:.LC1
 1505 0316 40F20005 		movw	r5, #:lower16:.LC29
 1506 031a FFF7FEFF 		bl	test_println
 1507              	.LVL176:
 1508 031e C0F20005 		movt	r5, #:upper16:.LC29
 1509              	.LBB155:
 1510              	.LBB156:
 1511              		.loc 1 112 0
 1512 0322 4621     		movs	r1, #70
 1513              	.LVL177:
 1514              	.L120:
 1515              		.loc 1 113 0
 1516 0324 2068     		ldr	r0, [r4]
 1517              	.LVL178:
 1518 0326 0368     		ldr	r3, [r0]
 1519 0328 9B68     		ldr	r3, [r3, #8]
 1520 032a 9847     		blx	r3
 1521              	.LVL179:
 1522              		.loc 1 112 0
 1523 032c 15F8011F 		ldrb	r1, [r5, #1]!	@ zero_extendqisi2
 1524              	.LVL180:
 1525 0330 0029     		cmp	r1, #0
ARM GAS  /tmp/ccttklIf.s 			page 28


 1526 0332 F7D1     		bne	.L120
 1527              	.LBE156:
 1528              	.LBE155:
 1529              		.loc 1 382 0
 1530 0334 039A     		ldr	r2, [sp, #12]
 1531 0336 1378     		ldrb	r3, [r2]	@ zero_extendqisi2
 1532 0338 8BB9     		cbnz	r3, .L136
 1533              		.loc 1 385 0
 1534 033a 40F20000 		movw	r0, #:lower16:.LC11
 1535 033e C0F20000 		movt	r0, #:upper16:.LC11
 1536 0342 FFF7FEFF 		bl	test_println
 1537              	.LVL181:
 1538              		.loc 1 387 0
 1539 0346 039B     		ldr	r3, [sp, #12]
 1540 0348 1878     		ldrb	r0, [r3]	@ zero_extendqisi2
 1541              		.loc 1 388 0
 1542 034a 05B0     		add	sp, sp, #20
 1543              		@ sp needed
 1544 034c BDE8F08F 		pop	{r4, r5, r6, r7, r8, r9, r10, fp, pc}
 1545              	.LVL182:
 1546              	.L96:
 1547              		.loc 1 374 0
 1548 0350 40F20000 		movw	r0, #:lower16:.LC9
 1549 0354 C0F20000 		movt	r0, #:upper16:.LC9
 1550 0358 FFF7FEFF 		bl	test_println
 1551              	.LVL183:
 1552 035c 27E7     		b	.L106
 1553              	.LVL184:
 1554              	.L136:
 1555              		.loc 1 383 0
 1556 035e 40F20000 		movw	r0, #:lower16:.LC10
 1557 0362 C0F20000 		movt	r0, #:upper16:.LC10
 1558 0366 FFF7FEFF 		bl	test_println
 1559              	.LVL185:
 1560              		.loc 1 387 0
 1561 036a 039B     		ldr	r3, [sp, #12]
 1562 036c 1878     		ldrb	r0, [r3]	@ zero_extendqisi2
 1563              		.loc 1 388 0
 1564 036e 05B0     		add	sp, sp, #20
 1565              		@ sp needed
 1566 0370 BDE8F08F 		pop	{r4, r5, r6, r7, r8, r9, r10, fp, pc}
 1567              	.LVL186:
 1568              	.L138:
 1569              		.align	2
 1570              	.L137:
 1571 0374 01000000 		.word	.LANCHOR6+1
 1572              		.cfi_endproc
 1573              	.LFE136:
 1574              		.size	TestThread, .-TestThread
 1575              		.global	test_timer_done
 1576              		.global	wa
 1577              		.global	threads
 1578              		.global	test
 1579 0378 AFF30080 		.section	.bss.test,"aw",%nobits
 1579      AFF30080 
 1580              		.align	3
 1581              		.type	test, %object
ARM GAS  /tmp/ccttklIf.s 			page 29


 1582              		.size	test, 1680
 1583              	test:
 1584 0000 00000000 		.space	1680
 1584      00000000 
 1584      00000000 
 1584      00000000 
 1584      00000000 
 1585              		.section	.bss.failpoint,"aw",%nobits
 1586              		.align	2
 1587              		.set	.LANCHOR5,. + 0
 1588              		.type	failpoint, %object
 1589              		.size	failpoint, 4
 1590              	failpoint:
 1591 0000 00000000 		.space	4
 1592              		.section	.bss.local_fail,"aw",%nobits
 1593              		.set	.LANCHOR3,. + 0
 1594              		.type	local_fail, %object
 1595              		.size	local_fail, 1
 1596              	local_fail:
 1597 0000 00       		.space	1
 1598              		.section	.bss.test_timer_done,"aw",%nobits
 1599              		.set	.LANCHOR0,. + 0
 1600              		.type	test_timer_done, %object
 1601              		.size	test_timer_done, 1
 1602              	test_timer_done:
 1603 0000 00       		.space	1
 1604              		.section	.rodata.wa,"a",%progbits
 1605              		.align	2
 1606              		.type	wa, %object
 1607              		.size	wa, 20
 1608              	wa:
 1609 0000 00000000 		.word	test
 1610 0004 50010000 		.word	test+336
 1611 0008 A0020000 		.word	test+672
 1612 000c F0030000 		.word	test+1008
 1613 0010 40050000 		.word	test+1344
 1614              		.section	.bss.tokp,"aw",%nobits
 1615              		.align	2
 1616              		.set	.LANCHOR2,. + 0
 1617              		.type	tokp, %object
 1618              		.size	tokp, 4
 1619              	tokp:
 1620 0000 00000000 		.space	4
 1621              		.section	.bss.global_fail,"aw",%nobits
 1622              		.set	.LANCHOR4,. + 0
 1623              		.type	global_fail, %object
 1624              		.size	global_fail, 1
 1625              	global_fail:
 1626 0000 00       		.space	1
 1627              		.section	.rodata.str1.4,"aMS",%progbits,1
 1628              		.align	2
 1629              	.LC0:
 1630 0000 0D0A00   		.ascii	"\015\012\000"
 1631 0003 00       		.space	1
 1632              	.LC1:
 1633 0004 00       		.ascii	"\000"
 1634 0005 000000   		.space	3
ARM GAS  /tmp/ccttklIf.s 			page 30


 1635              	.LC2:
 1636 0008 2A2A2A20 		.ascii	"*** ChibiOS/RT test suite\000"
 1636      43686962 
 1636      694F532F 
 1636      52542074 
 1636      65737420 
 1637 0022 0000     		.space	2
 1638              	.LC3:
 1639 0024 2A2A2A00 		.ascii	"***\000"
 1640              	.LC4:
 1641 0028 2A2A2A20 		.ascii	"*** Kernel:       \000"
 1641      4B65726E 
 1641      656C3A20 
 1641      20202020 
 1641      202000
 1642 003b 00       		.space	1
 1643              	.LC5:
 1644 003c 2D2D2D20 		.ascii	"--- Test Case \000"
 1644      54657374 
 1644      20436173 
 1644      652000
 1645 004b 00       		.space	1
 1646              	.LC6:
 1647 004c 2900     		.ascii	")\000"
 1648 004e 0000     		.space	2
 1649              	.LC7:
 1650 0050 2D2D2D20 		.ascii	"--- Result: FAILURE (#\000"
 1650      52657375 
 1650      6C743A20 
 1650      4641494C 
 1650      55524520 
 1651 0067 00       		.space	1
 1652              	.LC8:
 1653 0068 5D2900   		.ascii	"])\000"
 1654 006b 00       		.space	1
 1655              	.LC9:
 1656 006c 2D2D2D20 		.ascii	"--- Result: SUCCESS\000"
 1656      52657375 
 1656      6C743A20 
 1656      53554343 
 1656      45535300 
 1657              	.LC10:
 1658 0080 4641494C 		.ascii	"FAILURE\000"
 1658      55524500 
 1659              	.LC11:
 1660 0088 53554343 		.ascii	"SUCCESS\000"
 1660      45535300 
 1661              	.LC12:
 1662 0090 322E362E 		.ascii	"2.6.5\000"
 1662      3500
 1663 0096 0000     		.space	2
 1664              	.LC13:
 1665 0098 2A2A2A20 		.ascii	"*** Compiled:     \000"
 1665      436F6D70 
 1665      696C6564 
 1665      3A202020 
 1665      202000
ARM GAS  /tmp/ccttklIf.s 			page 31


 1666 00ab 00       		.space	1
 1667              	.LC14:
 1668 00ac 4A756C20 		.ascii	"Jul 18 2014 - 20:04:54\000"
 1668      31382032 
 1668      30313420 
 1668      2D203230 
 1668      3A30343A 
 1669 00c3 00       		.space	1
 1670              	.LC15:
 1671 00c4 2A2A2A20 		.ascii	"*** Compiler:     \000"
 1671      436F6D70 
 1671      696C6572 
 1671      3A202020 
 1671      202000
 1672 00d7 00       		.space	1
 1673              	.LC16:
 1674 00d8 47434320 		.ascii	"GCC 4.8.2\000"
 1674      342E382E 
 1674      3200
 1675 00e2 0000     		.space	2
 1676              	.LC17:
 1677 00e4 2A2A2A20 		.ascii	"*** Architecture: \000"
 1677      41726368 
 1677      69746563 
 1677      74757265 
 1677      3A2000
 1678 00f7 00       		.space	1
 1679              	.LC18:
 1680 00f8 41524D76 		.ascii	"ARMv7-ME\000"
 1680      372D4D45 
 1680      00
 1681 0101 000000   		.space	3
 1682              	.LC19:
 1683 0104 2A2A2A20 		.ascii	"*** Core Variant: \000"
 1683      436F7265 
 1683      20566172 
 1683      69616E74 
 1683      3A2000
 1684 0117 00       		.space	1
 1685              	.LC20:
 1686 0118 436F7274 		.ascii	"Cortex-M4\000"
 1686      65782D4D 
 1686      3400
 1687 0122 0000     		.space	2
 1688              	.LC21:
 1689 0124 2A2A2A20 		.ascii	"*** Port Info:    \000"
 1689      506F7274 
 1689      20496E66 
 1689      6F3A2020 
 1689      202000
 1690 0137 00       		.space	1
 1691              	.LC22:
 1692 0138 41647661 		.ascii	"Advanced kernel mode\000"
 1692      6E636564 
 1692      206B6572 
 1692      6E656C20 
 1692      6D6F6465 
ARM GAS  /tmp/ccttklIf.s 			page 32


 1693 014d 000000   		.space	3
 1694              	.LC23:
 1695 0150 2A2A2A20 		.ascii	"*** Platform:     \000"
 1695      506C6174 
 1695      666F726D 
 1695      3A202020 
 1695      202000
 1696 0163 00       		.space	1
 1697              	.LC24:
 1698 0164 53544D33 		.ascii	"STM32F407/F417 High Performance with DSP and FPU\000"
 1698      32463430 
 1698      372F4634 
 1698      31372048 
 1698      69676820 
 1699 0195 000000   		.space	3
 1700              	.LC25:
 1701 0198 2A2A2A20 		.ascii	"*** Test Board:   \000"
 1701      54657374 
 1701      20426F61 
 1701      72643A20 
 1701      202000
 1702 01ab 00       		.space	1
 1703              	.LC26:
 1704 01ac 53544D69 		.ascii	"STMicroelectronics STM32F4-Discovery\000"
 1704      63726F65 
 1704      6C656374 
 1704      726F6E69 
 1704      63732053 
 1705 01d1 000000   		.space	3
 1706              	.LC27:
 1707 01d4 202800   		.ascii	" (\000"
 1708 01d7 00       		.space	1
 1709              	.LC28:
 1710 01d8 205B00   		.ascii	" [\000"
 1711 01db 00       		.space	1
 1712              	.LC29:
 1713 01dc 46696E61 		.ascii	"Final result: \000"
 1713      6C207265 
 1713      73756C74 
 1713      3A2000
 1714 01eb 00       		.section	.bss.vt,"aw",%nobits
 1715              		.align	2
 1716              		.set	.LANCHOR8,. + 0
 1717              		.type	vt, %object
 1718              		.size	vt, 20
 1719              	vt:
 1720 0000 00000000 		.space	20
 1720      00000000 
 1720      00000000 
 1720      00000000 
 1720      00000000 
 1721              		.section	.bss.threads,"aw",%nobits
 1722              		.align	2
 1723              		.set	.LANCHOR7,. + 0
 1724              		.type	threads, %object
 1725              		.size	threads, 20
 1726              	threads:
ARM GAS  /tmp/ccttklIf.s 			page 33


 1727 0000 00000000 		.space	20
 1727      00000000 
 1727      00000000 
 1727      00000000 
 1727      00000000 
 1728              		.section	.rodata.patterns,"a",%progbits
 1729              		.align	2
 1730              		.set	.LANCHOR9,. + 0
 1731              		.type	patterns, %object
 1732              		.size	patterns, 48
 1733              	patterns:
 1734 0000 00000000 		.word	patternthd
 1735 0004 00000000 		.word	patternsem
 1736 0008 00000000 		.word	patternmtx
 1737 000c 00000000 		.word	patternmsg
 1738 0010 00000000 		.word	patternmbox
 1739 0014 00000000 		.word	patternevt
 1740 0018 00000000 		.word	patternheap
 1741 001c 00000000 		.word	patternpools
 1742 0020 00000000 		.word	patterndyn
 1743 0024 00000000 		.word	patternqueues
 1744 0028 00000000 		.word	patternbmk
 1745 002c 00000000 		.word	0
 1746              		.section	.bss.chp,"aw",%nobits
 1747              		.align	2
 1748              		.set	.LANCHOR1,. + 0
 1749              		.type	chp, %object
 1750              		.size	chp, 4
 1751              	chp:
 1752 0000 00000000 		.space	4
 1753              		.section	.bss.tokens_buffer,"aw",%nobits
 1754              		.align	2
 1755              		.set	.LANCHOR6,. + 0
 1756              		.type	tokens_buffer, %object
 1757              		.size	tokens_buffer, 16
 1758              	tokens_buffer:
 1759 0000 00000000 		.space	16
 1759      00000000 
 1759      00000000 
 1759      00000000 
 1760              		.text
 1761              	.Letext0:
 1762              		.file 2 "/usr/lib/gcc/arm-none-eabi/4.8.2/include/stddef.h"
 1763              		.file 3 "/usr/include/newlib/machine/_default_types.h"
 1764              		.file 4 "/usr/include/newlib/stdint.h"
 1765              		.file 5 "../../os/ports/GCC/ARMCMx/chtypes.h"
 1766              		.file 6 "../../os/kernel/include/chlists.h"
 1767              		.file 7 "../../os/kernel/include/chthreads.h"
 1768              		.file 8 "../../os/ports/GCC/ARMCMx/chcore_v7m.h"
 1769              		.file 9 "../../os/kernel/include/chvt.h"
 1770              		.file 10 "../../os/kernel/include/chschd.h"
 1771              		.file 11 "../../os/kernel/include/chmtx.h"
 1772              		.file 12 "../../os/kernel/include/chstreams.h"
 1773              		.file 13 "../../test/test.h"
 1774              		.file 14 "../../os/ports/common/ARMCMx/CMSIS/include/core_cm4.h"
 1775              		.file 15 "../../test/testthd.h"
 1776              		.file 16 "../../test/testsem.h"
ARM GAS  /tmp/ccttklIf.s 			page 34


 1777              		.file 17 "../../test/testmtx.h"
 1778              		.file 18 "../../test/testmsg.h"
 1779              		.file 19 "../../test/testmbox.h"
 1780              		.file 20 "../../test/testevt.h"
 1781              		.file 21 "../../test/testheap.h"
 1782              		.file 22 "../../test/testpools.h"
 1783              		.file 23 "../../test/testdyn.h"
 1784              		.file 24 "../../test/testqueues.h"
 1785              		.file 25 "../../test/testbmk.h"