ARM GAS  /tmp/ccfhG892.s 			page 1


   1              		.syntax unified
   2              		.cpu cortex-m4
   3              		.fpu softvfp
   4              		.eabi_attribute 20, 1
   5              		.eabi_attribute 21, 1
   6              		.eabi_attribute 23, 3
   7              		.eabi_attribute 24, 1
   8              		.eabi_attribute 25, 1
   9              		.eabi_attribute 26, 1
  10              		.eabi_attribute 30, 2
  11              		.eabi_attribute 34, 1
  12              		.eabi_attribute 18, 4
  13              		.thumb
  14              		.file	"testdyn.c"
  15              		.text
  16              	.Ltext0:
  17              		.cfi_sections	.debug_frame
  18              		.section	.text.dyn1_execute,"ax",%progbits
  19              		.align	2
  20              		.p2align 4,,15
  21              		.thumb
  22              		.thumb_func
  23              		.type	dyn1_execute, %function
  24              	dyn1_execute:
  25              	.LFB9:
  26              		.file 1 "../../test/testdyn.c"
  27              		.loc 1 83 0
  28              		.cfi_startproc
  29              		@ args = 0, pretend = 0, frame = 8
  30              		@ frame_needed = 0, uses_anonymous_args = 0
  31 0000 70B5     		push	{r4, r5, r6, lr}
  32              		.cfi_def_cfa_offset 16
  33              		.cfi_offset 4, -16
  34              		.cfi_offset 5, -12
  35              		.cfi_offset 6, -8
  36              		.cfi_offset 14, -4
  37              		.loc 1 86 0
  38 0002 40F20003 		movw	r3, #:lower16:rlist
  39 0006 C0F20003 		movt	r3, #:upper16:rlist
  40              		.loc 1 83 0
  41 000a 84B0     		sub	sp, sp, #16
  42              		.cfi_def_cfa_offset 32
  43              		.loc 1 86 0
  44 000c 9B69     		ldr	r3, [r3, #24]
  45              		.loc 1 88 0
  46 000e 40F20000 		movw	r0, #:lower16:.LANCHOR0
  47 0012 03A9     		add	r1, sp, #12
  48 0014 C0F20000 		movt	r0, #:upper16:.LANCHOR0
  49              		.loc 1 86 0
  50 0018 9D68     		ldr	r5, [r3, #8]
  51              	.LVL0:
  52              		.loc 1 88 0
  53 001a FFF7FEFF 		bl	chHeapStatus
  54              	.LVL1:
  55              		.loc 1 90 0
  56 001e 40F20001 		movw	r1, #:lower16:.LC0
  57 0022 C0F20001 		movt	r1, #:upper16:.LC0
ARM GAS  /tmp/ccfhG892.s 			page 2


  58 0026 40F20000 		movw	r0, #:lower16:.LANCHOR0
  59 002a 40F20003 		movw	r3, #:lower16:thread
  60 002e 6A1E     		subs	r2, r5, #1
  61 0030 0091     		str	r1, [sp]
  62 0032 C0F20003 		movt	r3, #:upper16:thread
  63 0036 4FF4A871 		mov	r1, #336
  64 003a C0F20000 		movt	r0, #:upper16:.LANCHOR0
  65 003e FFF7FEFF 		bl	chThdCreateFromHeap
  66              	.LVL2:
  67 0042 40F20004 		movw	r4, #:lower16:threads
  68 0046 C0F20004 		movt	r4, #:upper16:threads
  69              		.loc 1 92 0
  70 004a 40F20001 		movw	r1, #:lower16:.LC1
  71              		.loc 1 90 0
  72 004e 2060     		str	r0, [r4]
  73              		.loc 1 92 0
  74 0050 C0F20001 		movt	r1, #:upper16:.LC1
  75 0054 40F20000 		movw	r0, #:lower16:.LANCHOR0
  76 0058 40F20003 		movw	r3, #:lower16:thread
  77 005c AA1E     		subs	r2, r5, #2
  78 005e C0F20003 		movt	r3, #:upper16:thread
  79 0062 0091     		str	r1, [sp]
  80 0064 C0F20000 		movt	r0, #:upper16:.LANCHOR0
  81 0068 4FF4A871 		mov	r1, #336
  82 006c FFF7FEFF 		bl	chThdCreateFromHeap
  83              	.LVL3:
  84 0070 6060     		str	r0, [r4, #4]
  85              		.loc 1 95 0
  86 0072 40F20000 		movw	r0, #:lower16:.LANCHOR0
  87 0076 02A9     		add	r1, sp, #8
  88 0078 C0F20000 		movt	r0, #:upper16:.LANCHOR0
  89 007c FFF7FEFF 		bl	chHeapStatus
  90              	.LVL4:
  91              		.loc 1 96 0
  92 0080 40F20000 		movw	r0, #:lower16:.LANCHOR0
  93 0084 0299     		ldr	r1, [sp, #8]
  94 0086 C0F20000 		movt	r0, #:upper16:.LANCHOR0
  95 008a FFF7FEFF 		bl	chHeapAlloc
  96              	.LVL5:
  97              		.loc 1 97 0
  98 008e 40F20001 		movw	r1, #:lower16:.LC2
  99              		.loc 1 96 0
 100 0092 0646     		mov	r6, r0
 101              	.LVL6:
 102              		.loc 1 97 0
 103 0094 C0F20001 		movt	r1, #:upper16:.LC2
 104 0098 40F20000 		movw	r0, #:lower16:.LANCHOR0
 105              	.LVL7:
 106 009c 40F20003 		movw	r3, #:lower16:thread
 107 00a0 EA1E     		subs	r2, r5, #3
 108 00a2 0091     		str	r1, [sp]
 109 00a4 C0F20003 		movt	r3, #:upper16:thread
 110 00a8 4FF4A871 		mov	r1, #336
 111 00ac C0F20000 		movt	r0, #:upper16:.LANCHOR0
 112 00b0 FFF7FEFF 		bl	chThdCreateFromHeap
 113              	.LVL8:
 114 00b4 A060     		str	r0, [r4, #8]
ARM GAS  /tmp/ccfhG892.s 			page 3


 115              		.loc 1 99 0
 116 00b6 3046     		mov	r0, r6
 117 00b8 FFF7FEFF 		bl	chHeapFree
 118              	.LVL9:
 119              		.loc 1 101 0
 120 00bc 2168     		ldr	r1, [r4]
 121 00be 21B1     		cbz	r1, .L2
 122              		.loc 1 101 0 is_stmt 0 discriminator 1
 123 00c0 6168     		ldr	r1, [r4, #4]
 124 00c2 11B1     		cbz	r1, .L2
 125 00c4 A168     		ldr	r1, [r4, #8]
 126 00c6 49B3     		cbz	r1, .L10
 127 00c8 0021     		movs	r1, #0
 128              	.L2:
 129              		.loc 1 101 0 discriminator 4
 130 00ca 0120     		movs	r0, #1
 131 00cc FFF7FEFF 		bl	_test_assert
 132              	.LVL10:
 133 00d0 08B1     		cbz	r0, .L11
 134              	.L1:
 135              		.loc 1 115 0 is_stmt 1
 136 00d2 04B0     		add	sp, sp, #16
 137              		@ sp needed
 138 00d4 70BD     		pop	{r4, r5, r6, pc}
 139              	.LVL11:
 140              	.L11:
 141              		.loc 1 109 0
 142 00d6 FFF7FEFF 		bl	test_wait_threads
 143              	.LVL12:
 144              		.loc 1 110 0
 145 00da 40F20001 		movw	r1, #:lower16:.LC3
 146 00de C0F20001 		movt	r1, #:upper16:.LC3
 147 00e2 0220     		movs	r0, #2
 148 00e4 FFF7FEFF 		bl	_test_assert_sequence
 149              	.LVL13:
 150 00e8 0028     		cmp	r0, #0
 151 00ea F2D1     		bne	.L1
 152              		.loc 1 113 0
 153 00ec 40F20000 		movw	r0, #:lower16:.LANCHOR0
 154 00f0 02A9     		add	r1, sp, #8
 155 00f2 C0F20000 		movt	r0, #:upper16:.LANCHOR0
 156 00f6 FFF7FEFF 		bl	chHeapStatus
 157              	.LVL14:
 158 00fa 421E     		subs	r2, r0, #1
 159 00fc 5142     		rsbs	r1, r2, #0
 160 00fe 5141     		adcs	r1, r1, r2
 161 0100 0320     		movs	r0, #3
 162 0102 FFF7FEFF 		bl	_test_assert
 163              	.LVL15:
 164 0106 0028     		cmp	r0, #0
 165 0108 E3D1     		bne	.L1
 166              		.loc 1 114 0
 167 010a 0299     		ldr	r1, [sp, #8]
 168 010c 039B     		ldr	r3, [sp, #12]
 169 010e CB1A     		subs	r3, r1, r3
 170 0110 5942     		rsbs	r1, r3, #0
 171 0112 5941     		adcs	r1, r1, r3
ARM GAS  /tmp/ccfhG892.s 			page 4


 172 0114 0420     		movs	r0, #4
 173 0116 FFF7FEFF 		bl	_test_assert
 174              	.LVL16:
 175 011a DAE7     		b	.L1
 176              	.L10:
 177              		.loc 1 101 0 discriminator 1
 178 011c E368     		ldr	r3, [r4, #12]
 179 011e 002B     		cmp	r3, #0
 180 0120 D3D1     		bne	.L2
 181 0122 2169     		ldr	r1, [r4, #16]
 182 0124 D1F10101 		rsbs	r1, r1, #1
 183 0128 38BF     		it	cc
 184 012a 0021     		movcc	r1, #0
 185 012c CDE7     		b	.L2
 186              		.cfi_endproc
 187              	.LFE9:
 188              		.size	dyn1_execute, .-dyn1_execute
 189 012e 00BF     		.section	.text.thread,"ax",%progbits
 190              		.align	2
 191              		.p2align 4,,15
 192              		.thumb
 193              		.thumb_func
 194              		.type	thread, %function
 195              	thread:
 196              	.LFB7:
 197              		.loc 1 71 0
 198              		.cfi_startproc
 199              		@ args = 0, pretend = 0, frame = 0
 200              		@ frame_needed = 0, uses_anonymous_args = 0
 201              	.LVL17:
 202 0000 08B5     		push	{r3, lr}
 203              		.cfi_def_cfa_offset 8
 204              		.cfi_offset 3, -8
 205              		.cfi_offset 14, -4
 206              		.loc 1 73 0
 207 0002 0078     		ldrb	r0, [r0]	@ zero_extendqisi2
 208              	.LVL18:
 209 0004 FFF7FEFF 		bl	test_emit_token
 210              	.LVL19:
 211              		.loc 1 75 0
 212 0008 0020     		movs	r0, #0
 213 000a 08BD     		pop	{r3, pc}
 214              		.cfi_endproc
 215              	.LFE7:
 216              		.size	thread, .-thread
 217 000c AFF30080 		.section	.text.dyn1_setup,"ax",%progbits
 218              		.align	2
 219              		.p2align 4,,15
 220              		.thumb
 221              		.thumb_func
 222              		.type	dyn1_setup, %function
 223              	dyn1_setup:
 224              	.LFB8:
 225              		.loc 1 78 0
 226              		.cfi_startproc
 227              		@ args = 0, pretend = 0, frame = 0
 228              		@ frame_needed = 0, uses_anonymous_args = 0
ARM GAS  /tmp/ccfhG892.s 			page 5


 229              		@ link register save eliminated.
 230              		.loc 1 80 0
 231 0000 40F20000 		movw	r0, #:lower16:.LANCHOR0
 232 0004 40F20001 		movw	r1, #:lower16:test
 233 0008 C0F20000 		movt	r0, #:upper16:.LANCHOR0
 234 000c C0F20001 		movt	r1, #:upper16:test
 235 0010 4FF4D262 		mov	r2, #1680
 236 0014 FFF7FEBF 		b	chHeapInit
 237              	.LVL20:
 238              		.cfi_endproc
 239              	.LFE8:
 240              		.size	dyn1_setup, .-dyn1_setup
 241 0018 AFF30080 		.section	.text.dyn3_setup,"ax",%progbits
 241      AFF30080 
 242              		.align	2
 243              		.p2align 4,,15
 244              		.thumb
 245              		.thumb_func
 246              		.type	dyn3_setup, %function
 247              	dyn3_setup:
 248              	.LFB13:
 249              		.loc 1 203 0
 250              		.cfi_startproc
 251              		@ args = 0, pretend = 0, frame = 0
 252              		@ frame_needed = 0, uses_anonymous_args = 0
 253              		@ link register save eliminated.
 254              		.loc 1 205 0
 255 0000 40F20000 		movw	r0, #:lower16:.LANCHOR0
 256 0004 40F20001 		movw	r1, #:lower16:test
 257 0008 C0F20000 		movt	r0, #:upper16:.LANCHOR0
 258 000c C0F20001 		movt	r1, #:upper16:test
 259 0010 4FF4D262 		mov	r2, #1680
 260 0014 FFF7FEBF 		b	chHeapInit
 261              	.LVL21:
 262              		.cfi_endproc
 263              	.LFE13:
 264              		.size	dyn3_setup, .-dyn3_setup
 265 0018 AFF30080 		.section	.text.dyn2_execute,"ax",%progbits
 265      AFF30080 
 266              		.align	2
 267              		.p2align 4,,15
 268              		.thumb
 269              		.thumb_func
 270              		.type	dyn2_execute, %function
 271              	dyn2_execute:
 272              	.LFB11:
 273              		.loc 1 141 0
 274              		.cfi_startproc
 275              		@ args = 0, pretend = 0, frame = 0
 276              		@ frame_needed = 0, uses_anonymous_args = 0
 277              		.loc 1 143 0
 278 0000 40F20003 		movw	r3, #:lower16:rlist
 279 0004 C0F20003 		movt	r3, #:upper16:rlist
 280              		.loc 1 141 0
 281 0008 70B5     		push	{r4, r5, r6, lr}
 282              		.cfi_def_cfa_offset 16
 283              		.cfi_offset 4, -16
ARM GAS  /tmp/ccfhG892.s 			page 6


 284              		.cfi_offset 5, -12
 285              		.cfi_offset 6, -8
 286              		.cfi_offset 14, -4
 287              		.loc 1 143 0
 288 000a 9B69     		ldr	r3, [r3, #24]
 289 000c 4E4C     		ldr	r4, .L29
 290 000e 9D68     		ldr	r5, [r3, #8]
 291              	.LVL22:
 292 0010 04F11006 		add	r6, r4, #16
 293              	.LVL23:
 294              	.L17:
 295              		.loc 1 147 0 discriminator 2
 296 0014 54F8041F 		ldr	r1, [r4, #4]!
 297 0018 40F20000 		movw	r0, #:lower16:.LANCHOR1
 298 001c C0F20000 		movt	r0, #:upper16:.LANCHOR1
 299 0020 FFF7FEFF 		bl	chPoolFree
 300              	.LVL24:
 301              		.loc 1 146 0 discriminator 2
 302 0024 B442     		cmp	r4, r6
 303 0026 F5D1     		bne	.L17
 304              		.loc 1 150 0
 305 0028 40F20000 		movw	r0, #:lower16:.LANCHOR1
 306 002c 40F20002 		movw	r2, #:lower16:thread
 307 0030 40F20003 		movw	r3, #:lower16:.LC0
 308 0034 C0F20002 		movt	r2, #:upper16:thread
 309 0038 C0F20003 		movt	r3, #:upper16:.LC0
 310 003c 691E     		subs	r1, r5, #1
 311 003e C0F20000 		movt	r0, #:upper16:.LANCHOR1
 312 0042 FFF7FEFF 		bl	chThdCreateFromMemoryPool
 313              	.LVL25:
 314 0046 40F20004 		movw	r4, #:lower16:threads
 315 004a C0F20004 		movt	r4, #:upper16:threads
 316              		.loc 1 151 0
 317 004e 40F20002 		movw	r2, #:lower16:thread
 318              		.loc 1 150 0
 319 0052 2060     		str	r0, [r4]
 320              		.loc 1 151 0
 321 0054 40F20003 		movw	r3, #:lower16:.LC1
 322 0058 40F20000 		movw	r0, #:lower16:.LANCHOR1
 323 005c C0F20002 		movt	r2, #:upper16:thread
 324 0060 C0F20003 		movt	r3, #:upper16:.LC1
 325 0064 A91E     		subs	r1, r5, #2
 326 0066 C0F20000 		movt	r0, #:upper16:.LANCHOR1
 327 006a FFF7FEFF 		bl	chThdCreateFromMemoryPool
 328              	.LVL26:
 329              		.loc 1 152 0
 330 006e 40F20002 		movw	r2, #:lower16:thread
 331              		.loc 1 151 0
 332 0072 6060     		str	r0, [r4, #4]
 333              		.loc 1 152 0
 334 0074 40F20003 		movw	r3, #:lower16:.LC2
 335 0078 40F20000 		movw	r0, #:lower16:.LANCHOR1
 336 007c C0F20002 		movt	r2, #:upper16:thread
 337 0080 C0F20003 		movt	r3, #:upper16:.LC2
 338 0084 E91E     		subs	r1, r5, #3
 339 0086 C0F20000 		movt	r0, #:upper16:.LANCHOR1
 340 008a FFF7FEFF 		bl	chThdCreateFromMemoryPool
ARM GAS  /tmp/ccfhG892.s 			page 7


 341              	.LVL27:
 342              		.loc 1 153 0
 343 008e 40F20002 		movw	r2, #:lower16:thread
 344              		.loc 1 152 0
 345 0092 A060     		str	r0, [r4, #8]
 346              		.loc 1 153 0
 347 0094 40F20003 		movw	r3, #:lower16:.LC4
 348 0098 40F20000 		movw	r0, #:lower16:.LANCHOR1
 349 009c C0F20002 		movt	r2, #:upper16:thread
 350 00a0 C0F20003 		movt	r3, #:upper16:.LC4
 351 00a4 291F     		subs	r1, r5, #4
 352 00a6 C0F20000 		movt	r0, #:upper16:.LANCHOR1
 353 00aa FFF7FEFF 		bl	chThdCreateFromMemoryPool
 354              	.LVL28:
 355              		.loc 1 154 0
 356 00ae 40F20002 		movw	r2, #:lower16:thread
 357              		.loc 1 153 0
 358 00b2 E060     		str	r0, [r4, #12]
 359              		.loc 1 154 0
 360 00b4 40F20003 		movw	r3, #:lower16:.LC5
 361 00b8 40F20000 		movw	r0, #:lower16:.LANCHOR1
 362 00bc 691F     		subs	r1, r5, #5
 363 00be C0F20000 		movt	r0, #:upper16:.LANCHOR1
 364 00c2 C0F20002 		movt	r2, #:upper16:thread
 365 00c6 C0F20003 		movt	r3, #:upper16:.LC5
 366 00ca FFF7FEFF 		bl	chThdCreateFromMemoryPool
 367              	.LVL29:
 368              		.loc 1 156 0
 369 00ce 2168     		ldr	r1, [r4]
 370              		.loc 1 154 0
 371 00d0 2061     		str	r0, [r4, #16]
 372              		.loc 1 156 0
 373 00d2 49B1     		cbz	r1, .L18
 374              		.loc 1 156 0 is_stmt 0 discriminator 1
 375 00d4 6168     		ldr	r1, [r4, #4]
 376 00d6 39B1     		cbz	r1, .L18
 377 00d8 A168     		ldr	r1, [r4, #8]
 378 00da 29B1     		cbz	r1, .L18
 379 00dc E168     		ldr	r1, [r4, #12]
 380 00de 19B1     		cbz	r1, .L18
 381 00e0 D0F10101 		rsbs	r1, r0, #1
 382 00e4 38BF     		it	cc
 383 00e6 0021     		movcc	r1, #0
 384              	.L18:
 385              		.loc 1 156 0 discriminator 4
 386 00e8 0120     		movs	r0, #1
 387 00ea FFF7FEFF 		bl	_test_assert
 388              	.LVL30:
 389 00ee 00B1     		cbz	r0, .L28
 390              	.L15:
 391 00f0 70BD     		pop	{r4, r5, r6, pc}
 392              	.LVL31:
 393              	.L28:
 394              		.loc 1 164 0 is_stmt 1
 395 00f2 FFF7FEFF 		bl	test_wait_threads
 396              	.LVL32:
 397              		.loc 1 165 0
ARM GAS  /tmp/ccfhG892.s 			page 8


 398 00f6 40F20001 		movw	r1, #:lower16:.LC6
 399 00fa C0F20001 		movt	r1, #:upper16:.LC6
 400 00fe 0220     		movs	r0, #2
 401 0100 FFF7FEFF 		bl	_test_assert_sequence
 402              	.LVL33:
 403 0104 0028     		cmp	r0, #0
 404 0106 F3D1     		bne	.L15
 405 0108 0424     		movs	r4, #4
 406              	.L23:
 407              	.LVL34:
 408              		.loc 1 169 0
 409 010a 40F20000 		movw	r0, #:lower16:.LANCHOR1
 410 010e C0F20000 		movt	r0, #:upper16:.LANCHOR1
 411 0112 FFF7FEFF 		bl	chPoolAlloc
 412              	.LVL35:
 413 0116 011C     		adds	r1, r0, #0
 414 0118 18BF     		it	ne
 415 011a 0121     		movne	r1, #1
 416 011c 0320     		movs	r0, #3
 417 011e FFF7FEFF 		bl	_test_assert
 418              	.LVL36:
 419 0122 0028     		cmp	r0, #0
 420 0124 E4D1     		bne	.L15
 421              		.loc 1 168 0
 422 0126 013C     		subs	r4, r4, #1
 423              	.LVL37:
 424 0128 EFD1     		bne	.L23
 425              		.loc 1 170 0
 426 012a 40F20000 		movw	r0, #:lower16:.LANCHOR1
 427 012e C0F20000 		movt	r0, #:upper16:.LANCHOR1
 428 0132 FFF7FEFF 		bl	chPoolAlloc
 429              	.LVL38:
 430 0136 D0F10101 		rsbs	r1, r0, #1
 431 013a 38BF     		it	cc
 432 013c 0021     		movcc	r1, #0
 433 013e 0420     		movs	r0, #4
 434              		.loc 1 171 0
 435 0140 BDE87040 		pop	{r4, r5, r6, lr}
 436              	.LVL39:
 437              		.loc 1 170 0
 438 0144 FFF7FEBF 		b	_test_assert
 439              	.LVL40:
 440              	.L30:
 441              		.align	2
 442              	.L29:
 443 0148 FCFFFFFF 		.word	wa-4
 444              		.cfi_endproc
 445              	.LFE11:
 446              		.size	dyn2_execute, .-dyn2_execute
 447 014c AFF30080 		.section	.text.dyn2_setup,"ax",%progbits
 448              		.align	2
 449              		.p2align 4,,15
 450              		.thumb
 451              		.thumb_func
 452              		.type	dyn2_setup, %function
 453              	dyn2_setup:
 454              	.LFB10:
ARM GAS  /tmp/ccfhG892.s 			page 9


 455              		.loc 1 136 0
 456              		.cfi_startproc
 457              		@ args = 0, pretend = 0, frame = 0
 458              		@ frame_needed = 0, uses_anonymous_args = 0
 459              		@ link register save eliminated.
 460              		.loc 1 138 0
 461 0000 40F20000 		movw	r0, #:lower16:.LANCHOR1
 462 0004 C0F20000 		movt	r0, #:upper16:.LANCHOR1
 463 0008 4FF4A871 		mov	r1, #336
 464 000c 0022     		movs	r2, #0
 465 000e FFF7FEBF 		b	chPoolInit
 466              	.LVL41:
 467              		.cfi_endproc
 468              	.LFE10:
 469              		.size	dyn2_setup, .-dyn2_setup
 470 0012 00BFAFF3 		.section	.text.regfind,"ax",%progbits
 470      0080AFF3 
 470      0080AFF3 
 470      0080
 471              		.align	2
 472              		.p2align 4,,15
 473              		.thumb
 474              		.thumb_func
 475              		.type	regfind, %function
 476              	regfind:
 477              	.LFB12:
 478              		.loc 1 191 0
 479              		.cfi_startproc
 480              		@ args = 0, pretend = 0, frame = 0
 481              		@ frame_needed = 0, uses_anonymous_args = 0
 482              	.LVL42:
 483 0000 38B5     		push	{r3, r4, r5, lr}
 484              		.cfi_def_cfa_offset 16
 485              		.cfi_offset 3, -16
 486              		.cfi_offset 4, -12
 487              		.cfi_offset 5, -8
 488              		.cfi_offset 14, -4
 489              		.loc 1 191 0
 490 0002 0546     		mov	r5, r0
 491              		.loc 1 195 0
 492 0004 FFF7FEFF 		bl	chRegFirstThread
 493              	.LVL43:
 494              		.loc 1 193 0
 495 0008 0024     		movs	r4, #0
 496              		.loc 1 195 0
 497 000a 0346     		mov	r3, r0
 498              	.LVL44:
 499              	.L34:
 500              		.loc 1 198 0 discriminator 1
 501 000c 1846     		mov	r0, r3
 502              		.loc 1 197 0 discriminator 1
 503 000e AB42     		cmp	r3, r5
 504 0010 08BF     		it	eq
 505 0012 44F00104 		orreq	r4, r4, #1
 506              	.LVL45:
 507              		.loc 1 198 0 discriminator 1
 508 0016 FFF7FEFF 		bl	chRegNextThread
ARM GAS  /tmp/ccfhG892.s 			page 10


 509              	.LVL46:
 510              		.loc 1 199 0 discriminator 1
 511 001a 0346     		mov	r3, r0
 512 001c 0028     		cmp	r0, #0
 513 001e F5D1     		bne	.L34
 514              		.loc 1 201 0
 515 0020 2046     		mov	r0, r4
 516              	.LVL47:
 517 0022 38BD     		pop	{r3, r4, r5, pc}
 518              		.cfi_endproc
 519              	.LFE12:
 520              		.size	regfind, .-regfind
 521 0024 AFF30080 		.section	.text.dyn3_execute,"ax",%progbits
 521      AFF30080 
 521      AFF30080 
 522              		.align	2
 523              		.p2align 4,,15
 524              		.thumb
 525              		.thumb_func
 526              		.type	dyn3_execute, %function
 527              	dyn3_execute:
 528              	.LFB14:
 529              		.loc 1 208 0
 530              		.cfi_startproc
 531              		@ args = 0, pretend = 0, frame = 0
 532              		@ frame_needed = 0, uses_anonymous_args = 0
 533              	.LVL48:
 534 0000 10B5     		push	{r4, lr}
 535              		.cfi_def_cfa_offset 8
 536              		.cfi_offset 4, -8
 537              		.cfi_offset 14, -4
 538              		.loc 1 210 0
 539 0002 40F20003 		movw	r3, #:lower16:rlist
 540 0006 C0F20003 		movt	r3, #:upper16:rlist
 541              		.loc 1 208 0
 542 000a 82B0     		sub	sp, sp, #8
 543              		.cfi_def_cfa_offset 16
 544              		.loc 1 210 0
 545 000c 9B69     		ldr	r3, [r3, #24]
 546              		.loc 1 213 0
 547 000e 40F20001 		movw	r1, #:lower16:.LC0
 548 0012 9A68     		ldr	r2, [r3, #8]
 549 0014 C0F20001 		movt	r1, #:upper16:.LC0
 550 0018 40F20000 		movw	r0, #:lower16:.LANCHOR0
 551 001c 40F20003 		movw	r3, #:lower16:thread
 552 0020 013A     		subs	r2, r2, #1
 553 0022 0091     		str	r1, [sp]
 554              	.LVL49:
 555 0024 C0F20000 		movt	r0, #:upper16:.LANCHOR0
 556 0028 4FF4A871 		mov	r1, #336
 557 002c C0F20003 		movt	r3, #:upper16:thread
 558 0030 FFF7FEFF 		bl	chThdCreateFromHeap
 559              	.LVL50:
 560 0034 0446     		mov	r4, r0
 561              	.LVL51:
 562              		.loc 1 214 0
 563 0036 0120     		movs	r0, #1
ARM GAS  /tmp/ccfhG892.s 			page 11


 564              	.LVL52:
 565 0038 A17F     		ldrb	r1, [r4, #30]	@ zero_extendqisi2
 566 003a 0A1A     		subs	r2, r1, r0
 567 003c 5142     		rsbs	r1, r2, #0
 568 003e 5141     		adcs	r1, r1, r2
 569 0040 FFF7FEFF 		bl	_test_assert
 570              	.LVL53:
 571 0044 08B1     		cbz	r0, .L39
 572              	.L35:
 573              		.loc 1 236 0
 574 0046 02B0     		add	sp, sp, #8
 575              		@ sp needed
 576 0048 10BD     		pop	{r4, pc}
 577              	.LVL54:
 578              	.L39:
 579              		.loc 1 215 0
 580 004a 2046     		mov	r0, r4
 581 004c FFF7FEFF 		bl	chThdAddRef
 582              	.LVL55:
 583              		.loc 1 216 0
 584 0050 A17F     		ldrb	r1, [r4, #30]	@ zero_extendqisi2
 585 0052 0220     		movs	r0, #2
 586 0054 0B1A     		subs	r3, r1, r0
 587 0056 5942     		rsbs	r1, r3, #0
 588 0058 5941     		adcs	r1, r1, r3
 589 005a FFF7FEFF 		bl	_test_assert
 590              	.LVL56:
 591 005e 0028     		cmp	r0, #0
 592 0060 F1D1     		bne	.L35
 593              		.loc 1 217 0
 594 0062 2046     		mov	r0, r4
 595 0064 FFF7FEFF 		bl	chThdRelease
 596              	.LVL57:
 597              		.loc 1 218 0
 598 0068 A17F     		ldrb	r1, [r4, #30]	@ zero_extendqisi2
 599 006a B1F1010C 		subs	ip, r1, #1
 600 006e DCF10001 		rsbs	r1, ip, #0
 601 0072 51EB0C01 		adcs	r1, r1, ip
 602 0076 0320     		movs	r0, #3
 603 0078 FFF7FEFF 		bl	_test_assert
 604              	.LVL58:
 605 007c 0028     		cmp	r0, #0
 606 007e E2D1     		bne	.L35
 607              		.loc 1 221 0
 608 0080 2046     		mov	r0, r4
 609 0082 FFF7FEFF 		bl	regfind
 610              	.LVL59:
 611 0086 0146     		mov	r1, r0
 612 0088 0420     		movs	r0, #4
 613 008a FFF7FEFF 		bl	_test_assert
 614              	.LVL60:
 615 008e 0028     		cmp	r0, #0
 616 0090 D9D1     		bne	.L35
 617              		.loc 1 222 0
 618 0092 2046     		mov	r0, r4
 619 0094 FFF7FEFF 		bl	regfind
 620              	.LVL61:
ARM GAS  /tmp/ccfhG892.s 			page 12


 621 0098 0146     		mov	r1, r0
 622 009a 0520     		movs	r0, #5
 623 009c FFF7FEFF 		bl	_test_assert
 624              	.LVL62:
 625 00a0 0028     		cmp	r0, #0
 626 00a2 D0D1     		bne	.L35
 627              		.loc 1 225 0
 628 00a4 2046     		mov	r0, r4
 629 00a6 FFF7FEFF 		bl	chThdRelease
 630              	.LVL63:
 631              		.loc 1 226 0
 632 00aa A17F     		ldrb	r1, [r4, #30]	@ zero_extendqisi2
 633 00ac D1F10101 		rsbs	r1, r1, #1
 634 00b0 38BF     		it	cc
 635 00b2 0021     		movcc	r1, #0
 636 00b4 0620     		movs	r0, #6
 637 00b6 FFF7FEFF 		bl	_test_assert
 638              	.LVL64:
 639 00ba 0028     		cmp	r0, #0
 640 00bc C3D1     		bne	.L35
 641              		.loc 1 227 0
 642 00be 217F     		ldrb	r1, [r4, #28]	@ zero_extendqisi2
 643 00c0 D1F10101 		rsbs	r1, r1, #1
 644 00c4 38BF     		it	cc
 645 00c6 0021     		movcc	r1, #0
 646 00c8 0720     		movs	r0, #7
 647 00ca FFF7FEFF 		bl	_test_assert
 648              	.LVL65:
 649 00ce 0028     		cmp	r0, #0
 650 00d0 B9D1     		bne	.L35
 651              		.loc 1 228 0
 652 00d2 2046     		mov	r0, r4
 653 00d4 FFF7FEFF 		bl	regfind
 654              	.LVL66:
 655 00d8 0146     		mov	r1, r0
 656 00da 0820     		movs	r0, #8
 657 00dc FFF7FEFF 		bl	_test_assert
 658              	.LVL67:
 659 00e0 0028     		cmp	r0, #0
 660 00e2 B0D1     		bne	.L35
 661              		.loc 1 229 0
 662 00e4 2046     		mov	r0, r4
 663 00e6 FFF7FEFF 		bl	regfind
 664              	.LVL68:
 665 00ea 0146     		mov	r1, r0
 666 00ec 0920     		movs	r0, #9
 667 00ee FFF7FEFF 		bl	_test_assert
 668              	.LVL69:
 669 00f2 0028     		cmp	r0, #0
 670 00f4 A7D1     		bne	.L35
 671              		.loc 1 230 0
 672 00f6 3220     		movs	r0, #50
 673 00f8 FFF7FEFF 		bl	chThdSleep
 674              	.LVL70:
 675              		.loc 1 231 0
 676 00fc 217F     		ldrb	r1, [r4, #28]	@ zero_extendqisi2
 677 00fe B1F10E0E 		subs	lr, r1, #14
ARM GAS  /tmp/ccfhG892.s 			page 13


 678 0102 DEF10001 		rsbs	r1, lr, #0
 679 0106 51EB0E01 		adcs	r1, r1, lr
 680 010a 0A20     		movs	r0, #10
 681 010c FFF7FEFF 		bl	_test_assert
 682              	.LVL71:
 683 0110 0028     		cmp	r0, #0
 684 0112 98D1     		bne	.L35
 685              		.loc 1 234 0
 686 0114 2046     		mov	r0, r4
 687 0116 FFF7FEFF 		bl	regfind
 688              	.LVL72:
 689 011a 0146     		mov	r1, r0
 690 011c 0B20     		movs	r0, #11
 691 011e FFF7FEFF 		bl	_test_assert
 692              	.LVL73:
 693 0122 0028     		cmp	r0, #0
 694 0124 8FD1     		bne	.L35
 695              		.loc 1 235 0
 696 0126 2046     		mov	r0, r4
 697 0128 FFF7FEFF 		bl	regfind
 698              	.LVL74:
 699 012c 80F00101 		eor	r1, r0, #1
 700 0130 C9B2     		uxtb	r1, r1
 701 0132 0C20     		movs	r0, #12
 702              		.loc 1 236 0
 703 0134 02B0     		add	sp, sp, #8
 704              		@ sp needed
 705 0136 BDE81040 		pop	{r4, lr}
 706              	.LVL75:
 707              		.loc 1 235 0
 708 013a FFF7FEBF 		b	_test_assert
 709              	.LVL76:
 710              		.cfi_endproc
 711              	.LFE14:
 712              		.size	dyn3_execute, .-dyn3_execute
 713              		.global	patterndyn
 714              		.global	testdyn3
 715              		.global	testdyn2
 716              		.global	testdyn1
 717 013e 00BF     		.section	.rodata.testdyn1,"a",%progbits
 718              		.align	2
 719              		.type	testdyn1, %object
 720              		.size	testdyn1, 16
 721              	testdyn1:
 722 0000 78000000 		.word	.LC9
 723 0004 00000000 		.word	dyn1_setup
 724 0008 00000000 		.word	0
 725 000c 00000000 		.word	dyn1_execute
 726              		.section	.rodata.testdyn2,"a",%progbits
 727              		.align	2
 728              		.type	testdyn2, %object
 729              		.size	testdyn2, 16
 730              	testdyn2:
 731 0000 48000000 		.word	.LC8
 732 0004 00000000 		.word	dyn2_setup
 733 0008 00000000 		.word	0
 734 000c 00000000 		.word	dyn2_execute
ARM GAS  /tmp/ccfhG892.s 			page 14


 735              		.section	.rodata.testdyn3,"a",%progbits
 736              		.align	2
 737              		.type	testdyn3, %object
 738              		.size	testdyn3, 16
 739              	testdyn3:
 740 0000 20000000 		.word	.LC7
 741 0004 00000000 		.word	dyn3_setup
 742 0008 00000000 		.word	0
 743 000c 00000000 		.word	dyn3_execute
 744              		.section	.bss.mp1,"aw",%nobits
 745              		.align	2
 746              		.set	.LANCHOR1,. + 0
 747              		.type	mp1, %object
 748              		.size	mp1, 12
 749              	mp1:
 750 0000 00000000 		.space	12
 750      00000000 
 750      00000000 
 751              		.section	.rodata.str1.4,"aMS",%progbits,1
 752              		.align	2
 753              	.LC0:
 754 0000 4100     		.ascii	"A\000"
 755 0002 0000     		.space	2
 756              	.LC1:
 757 0004 4200     		.ascii	"B\000"
 758 0006 0000     		.space	2
 759              	.LC2:
 760 0008 4300     		.ascii	"C\000"
 761 000a 0000     		.space	2
 762              	.LC3:
 763 000c 414200   		.ascii	"AB\000"
 764 000f 00       		.space	1
 765              	.LC4:
 766 0010 4400     		.ascii	"D\000"
 767 0012 0000     		.space	2
 768              	.LC5:
 769 0014 4500     		.ascii	"E\000"
 770 0016 0000     		.space	2
 771              	.LC6:
 772 0018 41424344 		.ascii	"ABCD\000"
 772      00
 773 001d 000000   		.space	3
 774              	.LC7:
 775 0020 44796E61 		.ascii	"Dynamic APIs, registry and references\000"
 775      6D696320 
 775      41504973 
 775      2C207265 
 775      67697374 
 776 0046 0000     		.space	2
 777              	.LC8:
 778 0048 44796E61 		.ascii	"Dynamic APIs, threads creation from memory pool\000"
 778      6D696320 
 778      41504973 
 778      2C207468 
 778      72656164 
 779              	.LC9:
 780 0078 44796E61 		.ascii	"Dynamic APIs, threads creation from heap\000"
ARM GAS  /tmp/ccfhG892.s 			page 15


 780      6D696320 
 780      41504973 
 780      2C207468 
 780      72656164 
 781 00a1 000000   		.section	.rodata.patterndyn,"a",%progbits
 782              		.align	2
 783              		.type	patterndyn, %object
 784              		.size	patterndyn, 16
 785              	patterndyn:
 786 0000 00000000 		.word	testdyn1
 787 0004 00000000 		.word	testdyn2
 788 0008 00000000 		.word	testdyn3
 789 000c 00000000 		.word	0
 790              		.section	.bss.heap1,"aw",%nobits
 791              		.align	3
 792              		.set	.LANCHOR0,. + 0
 793              		.type	heap1, %object
 794              		.size	heap1, 32
 795              	heap1:
 796 0000 00000000 		.space	32
 796      00000000 
 796      00000000 
 796      00000000 
 796      00000000 
 797              		.text
 798              	.Letext0:
 799              		.file 2 "/usr/lib/gcc/arm-none-eabi/4.8.2/include/stddef.h"
 800              		.file 3 "/usr/include/newlib/machine/_default_types.h"
 801              		.file 4 "/usr/include/newlib/stdint.h"
 802              		.file 5 "../../os/ports/GCC/ARMCMx/chtypes.h"
 803              		.file 6 "../../os/kernel/include/chlists.h"
 804              		.file 7 "../../os/kernel/include/chthreads.h"
 805              		.file 8 "../../os/ports/GCC/ARMCMx/chcore_v7m.h"
 806              		.file 9 "../../os/kernel/include/chschd.h"
 807              		.file 10 "../../os/kernel/include/chmtx.h"
 808              		.file 11 "../../os/kernel/include/chmemcore.h"
 809              		.file 12 "../../os/kernel/include/chheap.h"
 810              		.file 13 "../../os/kernel/include/chmempools.h"
 811              		.file 14 "../../test/test.h"
 812              		.file 15 "../../os/kernel/include/chdynamic.h"
 813              		.file 16 "../../os/kernel/include/chregistry.h"