ARM GAS  /tmp/ccvlBdtj.s 			page 1


   1              		.syntax unified
   2              		.cpu cortex-m4
   3              		.fpu softvfp
   4              		.eabi_attribute 20, 1
   5              		.eabi_attribute 21, 1
   6              		.eabi_attribute 23, 3
   7              		.eabi_attribute 24, 1
   8              		.eabi_attribute 25, 1
   9              		.eabi_attribute 26, 1
  10              		.eabi_attribute 30, 2
  11              		.eabi_attribute 34, 1
  12              		.eabi_attribute 18, 4
  13              		.thumb
  14              		.file	"chheap.c"
  15              		.text
  16              	.Ltext0:
  17              		.cfi_sections	.debug_frame
  18              		.section	.text._heap_init,"ax",%progbits
  19              		.align	2
  20              		.p2align 4,,15
  21              		.global	_heap_init
  22              		.thumb
  23              		.thumb_func
  24              		.type	_heap_init, %function
  25              	_heap_init:
  26              	.LFB7:
  27              		.file 1 "../../os/kernel/src/chheap.c"
  28              		.loc 1 75 0
  29              		.cfi_startproc
  30              		@ args = 0, pretend = 0, frame = 0
  31              		@ frame_needed = 0, uses_anonymous_args = 0
  32              		@ link register save eliminated.
  33              		.loc 1 76 0
  34 0000 40F20003 		movw	r3, #:lower16:.LANCHOR0
  35 0004 C0F20003 		movt	r3, #:upper16:.LANCHOR0
  36 0008 40F20002 		movw	r2, #:lower16:chCoreAlloc
  37              		.loc 1 77 0
  38 000c 0021     		movs	r1, #0
  39              		.loc 1 76 0
  40 000e C0F20002 		movt	r2, #:upper16:chCoreAlloc
  41              		.loc 1 80 0
  42 0012 03F11000 		add	r0, r3, #16
  43              		.loc 1 76 0
  44 0016 1A60     		str	r2, [r3]
  45              		.loc 1 77 0
  46 0018 9960     		str	r1, [r3, #8]
  47              		.loc 1 78 0
  48 001a D960     		str	r1, [r3, #12]
  49              		.loc 1 80 0
  50 001c FFF7FEBF 		b	chMtxInit
  51              	.LVL0:
  52              		.cfi_endproc
  53              	.LFE7:
  54              		.size	_heap_init, .-_heap_init
  55              		.section	.text.chHeapInit,"ax",%progbits
  56              		.align	2
  57              		.p2align 4,,15
ARM GAS  /tmp/ccvlBdtj.s 			page 2


  58              		.global	chHeapInit
  59              		.thumb
  60              		.thumb_func
  61              		.type	chHeapInit, %function
  62              	chHeapInit:
  63              	.LFB8:
  64              		.loc 1 99 0
  65              		.cfi_startproc
  66              		@ args = 0, pretend = 0, frame = 0
  67              		@ frame_needed = 0, uses_anonymous_args = 0
  68              		@ link register save eliminated.
  69              	.LVL1:
  70              		.loc 1 104 0
  71 0000 0023     		movs	r3, #0
  72              		.loc 1 108 0
  73 0002 083A     		subs	r2, r2, #8
  74              	.LVL2:
  75              		.loc 1 105 0
  76 0004 8160     		str	r1, [r0, #8]
  77              		.loc 1 104 0
  78 0006 0360     		str	r3, [r0]
  79              	.LVL3:
  80              		.loc 1 106 0
  81 0008 C360     		str	r3, [r0, #12]
  82              		.loc 1 110 0
  83 000a 1030     		adds	r0, r0, #16
  84              	.LVL4:
  85              		.loc 1 108 0
  86 000c 4A60     		str	r2, [r1, #4]
  87              		.loc 1 107 0
  88 000e 0B60     		str	r3, [r1]
  89              		.loc 1 110 0
  90 0010 FFF7FEBF 		b	chMtxInit
  91              	.LVL5:
  92              		.cfi_endproc
  93              	.LFE8:
  94              		.size	chHeapInit, .-chHeapInit
  95 0014 AFF30080 		.section	.text.chHeapAlloc,"ax",%progbits
  95      AFF30080 
  95      AFF30080 
  96              		.align	2
  97              		.p2align 4,,15
  98              		.global	chHeapAlloc
  99              		.thumb
 100              		.thumb_func
 101              		.type	chHeapAlloc, %function
 102              	chHeapAlloc:
 103              	.LFB9:
 104              		.loc 1 132 0
 105              		.cfi_startproc
 106              		@ args = 0, pretend = 0, frame = 0
 107              		@ frame_needed = 0, uses_anonymous_args = 0
 108              	.LVL6:
 109 0000 F8B5     		push	{r3, r4, r5, r6, r7, lr}
 110              		.cfi_def_cfa_offset 24
 111              		.cfi_offset 3, -24
 112              		.cfi_offset 4, -20
ARM GAS  /tmp/ccvlBdtj.s 			page 3


 113              		.cfi_offset 5, -16
 114              		.cfi_offset 6, -12
 115              		.cfi_offset 7, -8
 116              		.cfi_offset 14, -4
 117              		.loc 1 136 0
 118 0002 40F20006 		movw	r6, #:lower16:.LANCHOR0
 119 0006 C0F20006 		movt	r6, #:upper16:.LANCHOR0
 120 000a 0028     		cmp	r0, #0
 121 000c 18BF     		it	ne
 122 000e 0646     		movne	r6, r0
 123              	.LVL7:
 124              		.loc 1 138 0
 125 0010 0731     		adds	r1, r1, #7
 126              	.LVL8:
 127              		.loc 1 140 0
 128 0012 06F11000 		add	r0, r6, #16
 129              		.loc 1 138 0
 130 0016 21F00705 		bic	r5, r1, #7
 131              	.LVL9:
 132              		.loc 1 139 0
 133 001a 06F10804 		add	r4, r6, #8
 134              	.LVL10:
 135              		.loc 1 140 0
 136 001e FFF7FEFF 		bl	chMtxLock
 137              	.LVL11:
 138              		.loc 1 142 0
 139 0022 03E0     		b	.L5
 140              	.LVL12:
 141              	.L10:
 142              		.loc 1 144 0
 143 0024 5A68     		ldr	r2, [r3, #4]
 144 0026 9542     		cmp	r5, r2
 145 0028 11D9     		bls	.L18
 146 002a 1C46     		mov	r4, r3
 147              	.LVL13:
 148              	.L5:
 149              		.loc 1 142 0 discriminator 1
 150 002c 2368     		ldr	r3, [r4]
 151              	.LVL14:
 152 002e 002B     		cmp	r3, #0
 153 0030 F8D1     		bne	.L10
 154              		.loc 1 167 0
 155 0032 FFF7FEFF 		bl	chMtxUnlock
 156              	.LVL15:
 157              		.loc 1 171 0
 158 0036 3368     		ldr	r3, [r6]
 159 0038 1BB3     		cbz	r3, .L12
 160              		.loc 1 172 0
 161 003a 05F10800 		add	r0, r5, #8
 162 003e 9847     		blx	r3
 163              	.LVL16:
 164              		.loc 1 173 0
 165 0040 F8B1     		cbz	r0, .L12
 166              		.loc 1 174 0
 167 0042 0660     		str	r6, [r0]
 168              		.loc 1 175 0
 169 0044 4560     		str	r5, [r0, #4]
ARM GAS  /tmp/ccvlBdtj.s 			page 4


 170              	.LVL17:
 171              		.loc 1 177 0
 172 0046 00F10804 		add	r4, r0, #8
 173              	.LVL18:
 174              	.L9:
 175              		.loc 1 181 0
 176 004a 2046     		mov	r0, r4
 177 004c F8BD     		pop	{r3, r4, r5, r6, r7, pc}
 178              	.LVL19:
 179              	.L18:
 180              		.loc 1 145 0
 181 004e 05F10801 		add	r1, r5, #8
 182 0052 9142     		cmp	r1, r2
 183 0054 08D9     		bls	.L7
 184              		.loc 1 149 0
 185 0056 1A68     		ldr	r2, [r3]
 186 0058 2260     		str	r2, [r4]
 187              	.L8:
 188              		.loc 1 159 0
 189 005a 1C46     		mov	r4, r3
 190              	.LVL20:
 191 005c 44F8086B 		str	r6, [r4], #8
 192              		.loc 1 161 0
 193 0060 FFF7FEFF 		bl	chMtxUnlock
 194              	.LVL21:
 195              		.loc 1 181 0
 196 0064 2046     		mov	r0, r4
 197 0066 F8BD     		pop	{r3, r4, r5, r6, r7, pc}
 198              	.LVL22:
 199              	.L7:
 200              		.loc 1 155 0
 201 0068 4FF6F870 		movw	r0, #65528
 202 006c CFF6FF70 		movt	r0, 65535
 203 0070 401B     		subs	r0, r0, r5
 204              		.loc 1 153 0
 205 0072 5F18     		adds	r7, r3, r1
 206              	.LVL23:
 207              		.loc 1 155 0
 208 0074 0244     		add	r2, r2, r0
 209              		.loc 1 154 0
 210 0076 1868     		ldr	r0, [r3]
 211 0078 5850     		str	r0, [r3, r1]
 212              		.loc 1 155 0
 213 007a 7A60     		str	r2, [r7, #4]
 214              		.loc 1 156 0
 215 007c 2760     		str	r7, [r4]
 216              		.loc 1 157 0
 217 007e 5D60     		str	r5, [r3, #4]
 218 0080 EBE7     		b	.L8
 219              	.LVL24:
 220              	.L12:
 221              		.loc 1 180 0
 222 0082 0024     		movs	r4, #0
 223              	.LVL25:
 224 0084 E1E7     		b	.L9
 225              		.cfi_endproc
 226              	.LFE9:
ARM GAS  /tmp/ccvlBdtj.s 			page 5


 227              		.size	chHeapAlloc, .-chHeapAlloc
 228 0086 00BFAFF3 		.section	.text.chHeapFree,"ax",%progbits
 228      0080AFF3 
 228      0080
 229              		.align	2
 230              		.p2align 4,,15
 231              		.global	chHeapFree
 232              		.thumb
 233              		.thumb_func
 234              		.type	chHeapFree, %function
 235              	chHeapFree:
 236              	.LFB10:
 237              		.loc 1 194 0
 238              		.cfi_startproc
 239              		@ args = 0, pretend = 0, frame = 0
 240              		@ frame_needed = 0, uses_anonymous_args = 0
 241              	.LVL26:
 242 0000 70B5     		push	{r4, r5, r6, lr}
 243              		.cfi_def_cfa_offset 16
 244              		.cfi_offset 4, -16
 245              		.cfi_offset 5, -12
 246              		.cfi_offset 6, -8
 247              		.cfi_offset 14, -4
 248              		.loc 1 194 0
 249 0002 0646     		mov	r6, r0
 250              		.loc 1 200 0
 251 0004 A0F10804 		sub	r4, r0, #8
 252              	.LVL27:
 253              		.loc 1 201 0
 254 0008 50F8080C 		ldr	r0, [r0, #-8]
 255              	.LVL28:
 256              		.loc 1 202 0
 257 000c 00F10805 		add	r5, r0, #8
 258              	.LVL29:
 259              		.loc 1 203 0
 260 0010 1030     		adds	r0, r0, #16
 261              	.LVL30:
 262 0012 FFF7FEFF 		bl	chMtxLock
 263              	.LVL31:
 264              		.loc 1 202 0
 265 0016 2B46     		mov	r3, r5
 266              	.LVL32:
 267              	.L26:
 268              		.loc 1 210 0
 269 0018 AB42     		cmp	r3, r5
 270 001a 04D0     		beq	.L20
 271              	.L31:
 272              		.loc 1 210 0 is_stmt 0 discriminator 2
 273 001c A342     		cmp	r3, r4
 274 001e 02D3     		bcc	.L20
 275 0020 1B68     		ldr	r3, [r3]
 276              	.LVL33:
 277              		.loc 1 210 0
 278 0022 AB42     		cmp	r3, r5
 279 0024 FAD1     		bne	.L31
 280              	.L20:
 281              		.loc 1 211 0 is_stmt 1 discriminator 1
ARM GAS  /tmp/ccvlBdtj.s 			page 6


 282 0026 1A68     		ldr	r2, [r3]
 283              		.loc 1 210 0 discriminator 1
 284 0028 1AB1     		cbz	r2, .L22
 285              		.loc 1 211 0
 286 002a 9442     		cmp	r4, r2
 287 002c 01D3     		bcc	.L22
 288 002e 1346     		mov	r3, r2
 289              	.LVL34:
 290              		.loc 1 229 0
 291 0030 F2E7     		b	.L26
 292              	.LVL35:
 293              	.L22:
 294              		.loc 1 216 0
 295 0032 56F8041C 		ldr	r1, [r6, #-4]
 296              		.loc 1 213 0
 297 0036 46F8082C 		str	r2, [r6, #-8]
 298              		.loc 1 214 0
 299 003a 1C60     		str	r4, [r3]
 300              		.loc 1 216 0
 301 003c 01F10802 		add	r2, r1, #8
 302 0040 56F8085C 		ldr	r5, [r6, #-8]
 303              	.LVL36:
 304 0044 A018     		adds	r0, r4, r2
 305 0046 A842     		cmp	r0, r5
 306 0048 09D0     		beq	.L32
 307              		.loc 1 221 0
 308 004a 5A68     		ldr	r2, [r3, #4]
 309 004c 02F10801 		add	r1, r2, #8
 310 0050 1944     		add	r1, r1, r3
 311 0052 8C42     		cmp	r4, r1
 312 0054 11D0     		beq	.L33
 313              	.L25:
 314              		.loc 1 233 0
 315 0056 BDE87040 		pop	{r4, r5, r6, lr}
 316              	.LVL37:
 317              		.loc 1 231 0
 318 005a FFF7FEBF 		b	chMtxUnlock
 319              	.LVL38:
 320              	.L32:
 321              		.loc 1 218 0
 322 005e 4068     		ldr	r0, [r0, #4]
 323              		.loc 1 219 0
 324 0060 A258     		ldr	r2, [r4, r2]
 325              		.loc 1 218 0
 326 0062 0144     		add	r1, r1, r0
 327 0064 0831     		adds	r1, r1, #8
 328 0066 46F8041C 		str	r1, [r6, #-4]
 329              		.loc 1 219 0
 330 006a 46F8082C 		str	r2, [r6, #-8]
 331              		.loc 1 221 0
 332 006e 5A68     		ldr	r2, [r3, #4]
 333 0070 02F10801 		add	r1, r2, #8
 334 0074 1944     		add	r1, r1, r3
 335 0076 8C42     		cmp	r4, r1
 336 0078 EDD1     		bne	.L25
 337              	.L33:
 338              		.loc 1 223 0
ARM GAS  /tmp/ccvlBdtj.s 			page 7


 339 007a 56F8040C 		ldr	r0, [r6, #-4]
 340              		.loc 1 224 0
 341 007e 56F8081C 		ldr	r1, [r6, #-8]
 342              		.loc 1 223 0
 343 0082 0244     		add	r2, r2, r0
 344 0084 0832     		adds	r2, r2, #8
 345              		.loc 1 224 0
 346 0086 83E80600 		stmia	r3, {r1, r2}
 347              		.loc 1 233 0
 348 008a BDE87040 		pop	{r4, r5, r6, lr}
 349              	.LVL39:
 350              		.loc 1 231 0
 351 008e FFF7FEBF 		b	chMtxUnlock
 352              	.LVL40:
 353              		.cfi_endproc
 354              	.LFE10:
 355              		.size	chHeapFree, .-chHeapFree
 356 0092 00BFAFF3 		.section	.text.chHeapStatus,"ax",%progbits
 356      0080AFF3 
 356      0080AFF3 
 356      0080
 357              		.align	2
 358              		.p2align 4,,15
 359              		.global	chHeapStatus
 360              		.thumb
 361              		.thumb_func
 362              		.type	chHeapStatus, %function
 363              	chHeapStatus:
 364              	.LFB11:
 365              		.loc 1 250 0
 366              		.cfi_startproc
 367              		@ args = 0, pretend = 0, frame = 0
 368              		@ frame_needed = 0, uses_anonymous_args = 0
 369              	.LVL41:
 370 0000 38B5     		push	{r3, r4, r5, lr}
 371              		.cfi_def_cfa_offset 16
 372              		.cfi_offset 3, -16
 373              		.cfi_offset 4, -12
 374              		.cfi_offset 5, -8
 375              		.cfi_offset 14, -4
 376              		.loc 1 255 0
 377 0002 40F20003 		movw	r3, #:lower16:.LANCHOR0
 378 0006 C0F20003 		movt	r3, #:upper16:.LANCHOR0
 379 000a 0028     		cmp	r0, #0
 380 000c 14BF     		ite	ne
 381 000e 0446     		movne	r4, r0
 382 0010 1C46     		moveq	r4, r3
 383              	.LVL42:
 384              		.loc 1 257 0
 385 0012 04F11000 		add	r0, r4, #16
 386              		.loc 1 250 0
 387 0016 0D46     		mov	r5, r1
 388              		.loc 1 257 0
 389 0018 FFF7FEFF 		bl	chMtxLock
 390              	.LVL43:
 391              		.loc 1 260 0
 392 001c A368     		ldr	r3, [r4, #8]
ARM GAS  /tmp/ccvlBdtj.s 			page 8


 393 001e 6BB1     		cbz	r3, .L40
 394              		.loc 1 259 0
 395 0020 0022     		movs	r2, #0
 396              		.loc 1 260 0
 397 0022 1446     		mov	r4, r2
 398              	.LVL44:
 399              	.L37:
 400              		.loc 1 261 0 discriminator 2
 401 0024 5868     		ldr	r0, [r3, #4]
 402              		.loc 1 260 0 discriminator 2
 403 0026 1B68     		ldr	r3, [r3]
 404 0028 0134     		adds	r4, r4, #1
 405              	.LVL45:
 406              		.loc 1 261 0 discriminator 2
 407 002a 0244     		add	r2, r2, r0
 408              	.LVL46:
 409              		.loc 1 260 0 discriminator 2
 410 002c 002B     		cmp	r3, #0
 411 002e F9D1     		bne	.L37
 412              	.LVL47:
 413              	.L36:
 414              		.loc 1 262 0
 415 0030 05B1     		cbz	r5, .L38
 416              		.loc 1 263 0
 417 0032 2A60     		str	r2, [r5]
 418              	.L38:
 419              		.loc 1 265 0
 420 0034 FFF7FEFF 		bl	chMtxUnlock
 421              	.LVL48:
 422              		.loc 1 267 0
 423 0038 2046     		mov	r0, r4
 424 003a 38BD     		pop	{r3, r4, r5, pc}
 425              	.LVL49:
 426              	.L40:
 427              		.loc 1 259 0
 428 003c 1A46     		mov	r2, r3
 429              		.loc 1 260 0
 430 003e 1C46     		mov	r4, r3
 431              	.LVL50:
 432 0040 F6E7     		b	.L36
 433              		.cfi_endproc
 434              	.LFE11:
 435              		.size	chHeapStatus, .-chHeapStatus
 436 0042 00BFAFF3 		.section	.bss.default_heap,"aw",%nobits
 436      0080AFF3 
 436      0080AFF3 
 436      0080
 437              		.align	3
 438              		.set	.LANCHOR0,. + 0
 439              		.type	default_heap, %object
 440              		.size	default_heap, 32
 441              	default_heap:
 442 0000 00000000 		.space	32
 442      00000000 
 442      00000000 
 442      00000000 
 442      00000000 
ARM GAS  /tmp/ccvlBdtj.s 			page 9


 443              		.text
 444              	.Letext0:
 445              		.file 2 "/usr/lib/gcc/arm-none-eabi/4.8.2/include/stddef.h"
 446              		.file 3 "/usr/include/newlib/machine/_default_types.h"
 447              		.file 4 "/usr/include/newlib/stdint.h"
 448              		.file 5 "../../os/ports/GCC/ARMCMx/chtypes.h"
 449              		.file 6 "../../os/kernel/include/chlists.h"
 450              		.file 7 "../../os/kernel/include/chthreads.h"
 451              		.file 8 "../../os/ports/GCC/ARMCMx/chcore_v7m.h"
 452              		.file 9 "../../os/kernel/include/chmtx.h"
 453              		.file 10 "../../os/kernel/include/chmemcore.h"
 454              		.file 11 "../../os/kernel/include/chheap.h"