ARM GAS  /tmp/ccpczb0O.s 			page 1


   1              		.syntax unified
   2              		.cpu cortex-m4
   3              		.fpu softvfp
   4              		.eabi_attribute 20, 1
   5              		.eabi_attribute 21, 1
   6              		.eabi_attribute 23, 3
   7              		.eabi_attribute 24, 1
   8              		.eabi_attribute 25, 1
   9              		.eabi_attribute 26, 1
  10              		.eabi_attribute 30, 2
  11              		.eabi_attribute 34, 1
  12              		.eabi_attribute 18, 4
  13              		.thumb
  14              		.file	"chmtx.c"
  15              		.text
  16              	.Ltext0:
  17              		.cfi_sections	.debug_frame
  18              		.section	.text.chMtxInit,"ax",%progbits
  19              		.align	2
  20              		.p2align 4,,15
  21              		.global	chMtxInit
  22              		.thumb
  23              		.thumb_func
  24              		.type	chMtxInit, %function
  25              	chMtxInit:
  26              	.LFB7:
  27              		.file 1 "../../os/kernel/src/chmtx.c"
  28              		.loc 1 86 0
  29              		.cfi_startproc
  30              		@ args = 0, pretend = 0, frame = 0
  31              		@ frame_needed = 0, uses_anonymous_args = 0
  32              		@ link register save eliminated.
  33              	.LVL0:
  34              		.loc 1 91 0
  35 0000 0023     		movs	r3, #0
  36              		.loc 1 90 0
  37 0002 4060     		str	r0, [r0, #4]
  38 0004 0060     		str	r0, [r0]
  39              		.loc 1 91 0
  40 0006 8360     		str	r3, [r0, #8]
  41 0008 7047     		bx	lr
  42              		.cfi_endproc
  43              	.LFE7:
  44              		.size	chMtxInit, .-chMtxInit
  45 000a 00BFAFF3 		.section	.text.chMtxLockS,"ax",%progbits
  45      0080
  46              		.align	2
  47              		.p2align 4,,15
  48              		.global	chMtxLockS
  49              		.thumb
  50              		.thumb_func
  51              		.type	chMtxLockS, %function
  52              	chMtxLockS:
  53              	.LFB9:
  54              		.loc 1 121 0
  55              		.cfi_startproc
  56              		@ args = 0, pretend = 0, frame = 0
ARM GAS  /tmp/ccpczb0O.s 			page 2


  57              		@ frame_needed = 0, uses_anonymous_args = 0
  58              	.LVL1:
  59 0000 F8B5     		push	{r3, r4, r5, r6, r7, lr}
  60              		.cfi_def_cfa_offset 24
  61              		.cfi_offset 3, -24
  62              		.cfi_offset 4, -20
  63              		.cfi_offset 5, -16
  64              		.cfi_offset 6, -12
  65              		.cfi_offset 7, -8
  66              		.cfi_offset 14, -4
  67              		.loc 1 122 0
  68 0002 40F20003 		movw	r3, #:lower16:rlist
  69              		.loc 1 121 0
  70 0006 0546     		mov	r5, r0
  71              		.loc 1 122 0
  72 0008 C0F20003 		movt	r3, #:upper16:rlist
  73              		.loc 1 128 0
  74 000c 8068     		ldr	r0, [r0, #8]
  75              	.LVL2:
  76              		.loc 1 122 0
  77 000e 9C69     		ldr	r4, [r3, #24]
  78              	.LVL3:
  79              		.loc 1 128 0
  80 0010 0028     		cmp	r0, #0
  81 0012 53D0     		beq	.L3
  82              	.LVL4:
  83              	.LBB33:
  84              		.loc 1 135 0 discriminator 1
  85 0014 A268     		ldr	r2, [r4, #8]
  86 0016 8368     		ldr	r3, [r0, #8]
  87 0018 9A42     		cmp	r2, r3
  88 001a 06D9     		bls	.L5
  89              	.L14:
  90              		.loc 1 139 0
  91 001c 037F     		ldrb	r3, [r0, #28]	@ zero_extendqisi2
  92              		.loc 1 137 0
  93 001e 8260     		str	r2, [r0, #8]
  94              		.loc 1 139 0
  95 0020 042B     		cmp	r3, #4
  96 0022 32D0     		beq	.L6
  97 0024 052B     		cmp	r3, #5
  98 0026 1CD0     		beq	.L7
  99 0028 9BB1     		cbz	r3, .L22
 100              	.LVL5:
 101              	.L5:
 102              	.LBB34:
 103              	.LBB35:
 104              		.file 2 "../../os/kernel/include/chinline.h"
 105              		.loc 2 43 0
 106 002a 2B46     		mov	r3, r5
 107 002c 03E0     		b	.L20
 108              	.LVL6:
 109              	.L18:
 110              		.loc 2 46 0
 111 002e 9968     		ldr	r1, [r3, #8]
 112 0030 A268     		ldr	r2, [r4, #8]
 113 0032 9142     		cmp	r1, r2
ARM GAS  /tmp/ccpczb0O.s 			page 3


 114 0034 02D3     		bcc	.L19
 115              	.L20:
 116              		.loc 2 45 0
 117 0036 1B68     		ldr	r3, [r3]
 118              	.LVL7:
 119              		.loc 2 46 0
 120 0038 9D42     		cmp	r5, r3
 121 003a F8D1     		bne	.L18
 122              	.L19:
 123              		.loc 2 48 0
 124 003c 5A68     		ldr	r2, [r3, #4]
 125              		.loc 2 47 0
 126 003e 2360     		str	r3, [r4]
 127              		.loc 2 48 0
 128 0040 6260     		str	r2, [r4, #4]
 129              		.loc 2 49 0
 130 0042 5C60     		str	r4, [r3, #4]
 131 0044 1460     		str	r4, [r2]
 132              	.LBE35:
 133              	.LBE34:
 134              		.loc 1 174 0
 135 0046 6562     		str	r5, [r4, #36]
 136              		.loc 1 175 0
 137 0048 0420     		movs	r0, #4
 138              	.LBE33:
 139              		.loc 1 187 0
 140 004a BDE8F840 		pop	{r3, r4, r5, r6, r7, lr}
 141              	.LVL8:
 142              	.LBB56:
 143              		.loc 1 175 0
 144 004e FFF7FEBF 		b	chSchGoSleepS
 145              	.LVL9:
 146              	.L22:
 147              	.LBB36:
 148              	.LBB37:
 149              		.loc 2 75 0
 150 0052 90E80C00 		ldmia	r0, {r2, r3}
 151 0056 1A60     		str	r2, [r3]
 152              		.loc 2 76 0
 153 0058 0268     		ldr	r2, [r0]
 154 005a 5360     		str	r3, [r2, #4]
 155              	.LBE37:
 156              	.LBE36:
 157              		.loc 1 167 0
 158 005c FFF7FEFF 		bl	chSchReadyI
 159              	.LVL10:
 160              		.loc 1 168 0
 161 0060 E3E7     		b	.L5
 162              	.LVL11:
 163              	.L7:
 164              	.LBB38:
 165              	.LBB39:
 166              		.loc 2 75 0
 167 0062 0368     		ldr	r3, [r0]
 168 0064 4168     		ldr	r1, [r0, #4]
 169              	.LBE39:
 170              	.LBE38:
ARM GAS  /tmp/ccpczb0O.s 			page 4


 171              		.loc 1 158 0
 172 0066 466A     		ldr	r6, [r0, #36]
 173              	.LVL12:
 174              	.LBB42:
 175              	.LBB40:
 176              		.loc 2 75 0
 177 0068 0B60     		str	r3, [r1]
 178              		.loc 2 76 0
 179 006a 0768     		ldr	r7, [r0]
 180              	.LBE40:
 181              	.LBE42:
 182              	.LBB43:
 183              	.LBB44:
 184              		.loc 2 43 0
 185 006c 3346     		mov	r3, r6
 186              	.LBE44:
 187              	.LBE43:
 188              	.LBB46:
 189              	.LBB41:
 190              		.loc 2 76 0
 191 006e 7960     		str	r1, [r7, #4]
 192 0070 02E0     		b	.L17
 193              	.LVL13:
 194              	.L15:
 195              	.LBE41:
 196              	.LBE46:
 197              	.LBB47:
 198              	.LBB45:
 199              		.loc 2 46 0
 200 0072 9968     		ldr	r1, [r3, #8]
 201 0074 9142     		cmp	r1, r2
 202 0076 02D3     		bcc	.L16
 203              	.L17:
 204              		.loc 2 45 0
 205 0078 1B68     		ldr	r3, [r3]
 206              	.LVL14:
 207              		.loc 2 46 0
 208 007a 9E42     		cmp	r6, r3
 209 007c F9D1     		bne	.L15
 210              	.L16:
 211              		.loc 2 48 0
 212 007e 5A68     		ldr	r2, [r3, #4]
 213              		.loc 2 47 0
 214 0080 0360     		str	r3, [r0]
 215              		.loc 2 48 0
 216 0082 4260     		str	r2, [r0, #4]
 217              		.loc 2 49 0
 218 0084 5860     		str	r0, [r3, #4]
 219 0086 1060     		str	r0, [r2]
 220 0088 CFE7     		b	.L5
 221              	.LVL15:
 222              	.L6:
 223              	.LBE45:
 224              	.LBE47:
 225              	.LBB48:
 226              	.LBB49:
 227              		.loc 2 75 0
ARM GAS  /tmp/ccpczb0O.s 			page 5


 228 008a 0368     		ldr	r3, [r0]
 229 008c 4168     		ldr	r1, [r0, #4]
 230              	.LBE49:
 231              	.LBE48:
 232              		.loc 1 142 0
 233 008e 466A     		ldr	r6, [r0, #36]
 234              	.LVL16:
 235              	.LBB52:
 236              	.LBB50:
 237              		.loc 2 75 0
 238 0090 0B60     		str	r3, [r1]
 239              		.loc 2 76 0
 240 0092 0768     		ldr	r7, [r0]
 241              	.LBE50:
 242              	.LBE52:
 243              		.loc 1 142 0
 244 0094 3346     		mov	r3, r6
 245              	.LBB53:
 246              	.LBB51:
 247              		.loc 2 76 0
 248 0096 7960     		str	r1, [r7, #4]
 249 0098 02E0     		b	.L13
 250              	.LVL17:
 251              	.L9:
 252              	.LBE51:
 253              	.LBE53:
 254              	.LBB54:
 255              	.LBB55:
 256              		.loc 2 46 0
 257 009a 9968     		ldr	r1, [r3, #8]
 258 009c 9142     		cmp	r1, r2
 259 009e 02D3     		bcc	.L12
 260              	.L13:
 261              		.loc 2 45 0
 262 00a0 1B68     		ldr	r3, [r3]
 263              	.LVL18:
 264              		.loc 2 46 0
 265 00a2 9E42     		cmp	r6, r3
 266 00a4 F9D1     		bne	.L9
 267              	.L12:
 268              		.loc 2 48 0
 269 00a6 5A68     		ldr	r2, [r3, #4]
 270              		.loc 2 47 0
 271 00a8 0360     		str	r3, [r0]
 272              		.loc 2 48 0
 273 00aa 4260     		str	r2, [r0, #4]
 274              		.loc 2 49 0
 275 00ac 5860     		str	r0, [r3, #4]
 276 00ae 1060     		str	r0, [r2]
 277              	.LBE55:
 278              	.LBE54:
 279              		.loc 1 143 0
 280 00b0 B068     		ldr	r0, [r6, #8]
 281              	.LVL19:
 282              		.loc 1 135 0
 283 00b2 A268     		ldr	r2, [r4, #8]
 284 00b4 8368     		ldr	r3, [r0, #8]
ARM GAS  /tmp/ccpczb0O.s 			page 6


 285              	.LVL20:
 286 00b6 9342     		cmp	r3, r2
 287 00b8 B0D3     		bcc	.L14
 288 00ba B6E7     		b	.L5
 289              	.LVL21:
 290              	.L3:
 291              	.LBE56:
 292              		.loc 1 184 0
 293 00bc E36B     		ldr	r3, [r4, #60]
 294              		.loc 1 183 0
 295 00be AC60     		str	r4, [r5, #8]
 296              		.loc 1 184 0
 297 00c0 EB60     		str	r3, [r5, #12]
 298              		.loc 1 185 0
 299 00c2 E563     		str	r5, [r4, #60]
 300 00c4 F8BD     		pop	{r3, r4, r5, r6, r7, pc}
 301              		.cfi_endproc
 302              	.LFE9:
 303              		.size	chMtxLockS, .-chMtxLockS
 304              		.section	.text.chMtxLock,"ax",%progbits
 305              		.align	2
 306              		.p2align 4,,15
 307              		.global	chMtxLock
 308              		.thumb
 309              		.thumb_func
 310              		.type	chMtxLock, %function
 311              	chMtxLock:
 312              	.LFB8:
 313              		.loc 1 103 0
 314              		.cfi_startproc
 315              		@ args = 0, pretend = 0, frame = 0
 316              		@ frame_needed = 0, uses_anonymous_args = 0
 317              	.LVL22:
 318 0000 08B5     		push	{r3, lr}
 319              		.cfi_def_cfa_offset 8
 320              		.cfi_offset 3, -8
 321              		.cfi_offset 14, -4
 322              	.LBB57:
 323              		.loc 1 105 0
 324 0002 2023     		movs	r3, #32
 325              	@ 105 "../../os/kernel/src/chmtx.c" 1
 326 0004 83F31188 		msr     BASEPRI, r3
 327              	@ 0 "" 2
 328              		.thumb
 329              	.LBE57:
 330              		.loc 1 107 0
 331 0008 FFF7FEFF 		bl	chMtxLockS
 332              	.LVL23:
 333              	.LBB58:
 334              		.loc 1 109 0
 335 000c 0023     		movs	r3, #0
 336              	@ 109 "../../os/kernel/src/chmtx.c" 1
 337 000e 83F31188 		msr     BASEPRI, r3
 338              	@ 0 "" 2
 339              		.thumb
 340 0012 08BD     		pop	{r3, pc}
 341              	.LBE58:
ARM GAS  /tmp/ccpczb0O.s 			page 7


 342              		.cfi_endproc
 343              	.LFE8:
 344              		.size	chMtxLock, .-chMtxLock
 345 0014 AFF30080 		.section	.text.chMtxTryLock,"ax",%progbits
 345      AFF30080 
 345      AFF30080 
 346              		.align	2
 347              		.p2align 4,,15
 348              		.global	chMtxTryLock
 349              		.thumb
 350              		.thumb_func
 351              		.type	chMtxTryLock, %function
 352              	chMtxTryLock:
 353              	.LFB10:
 354              		.loc 1 206 0
 355              		.cfi_startproc
 356              		@ args = 0, pretend = 0, frame = 0
 357              		@ frame_needed = 0, uses_anonymous_args = 0
 358              		@ link register save eliminated.
 359              	.LVL24:
 360              		.loc 1 206 0
 361 0000 0246     		mov	r2, r0
 362              	.LBB59:
 363              		.loc 1 209 0
 364 0002 2023     		movs	r3, #32
 365              	@ 209 "../../os/kernel/src/chmtx.c" 1
 366 0004 83F31188 		msr     BASEPRI, r3
 367              	@ 0 "" 2
 368              	.LVL25:
 369              		.thumb
 370              	.LBE59:
 371              	.LBB60:
 372              	.LBB61:
 373              		.loc 1 239 0
 374 0008 8368     		ldr	r3, [r0, #8]
 375              		.loc 1 240 0
 376 000a 0020     		movs	r0, #0
 377              	.LVL26:
 378              		.loc 1 239 0
 379 000c 1BB1     		cbz	r3, .L27
 380              	.LBE61:
 381              	.LBE60:
 382              	.LBB63:
 383              		.loc 1 213 0
 384 000e 0023     		movs	r3, #0
 385              	@ 213 "../../os/kernel/src/chmtx.c" 1
 386 0010 83F31188 		msr     BASEPRI, r3
 387              	@ 0 "" 2
 388              		.thumb
 389              	.LBE63:
 390              		.loc 1 215 0
 391 0014 7047     		bx	lr
 392              	.L27:
 393              	.LBB64:
 394              	.LBB62:
 395              		.loc 1 241 0
 396 0016 40F20003 		movw	r3, #:lower16:rlist
ARM GAS  /tmp/ccpczb0O.s 			page 8


 397 001a C0F20003 		movt	r3, #:upper16:rlist
 398              		.loc 1 244 0
 399 001e 0120     		movs	r0, #1
 400              		.loc 1 241 0
 401 0020 9B69     		ldr	r3, [r3, #24]
 402              		.loc 1 242 0
 403 0022 D96B     		ldr	r1, [r3, #60]
 404              		.loc 1 241 0
 405 0024 9360     		str	r3, [r2, #8]
 406              		.loc 1 242 0
 407 0026 D160     		str	r1, [r2, #12]
 408              		.loc 1 243 0
 409 0028 DA63     		str	r2, [r3, #60]
 410              	.LBE62:
 411              	.LBE64:
 412              	.LBB65:
 413              		.loc 1 213 0
 414 002a 0023     		movs	r3, #0
 415              	@ 213 "../../os/kernel/src/chmtx.c" 1
 416 002c 83F31188 		msr     BASEPRI, r3
 417              	@ 0 "" 2
 418              		.thumb
 419              	.LBE65:
 420              		.loc 1 215 0
 421 0030 7047     		bx	lr
 422              		.cfi_endproc
 423              	.LFE10:
 424              		.size	chMtxTryLock, .-chMtxTryLock
 425 0032 00BFAFF3 		.section	.text.chMtxTryLockS,"ax",%progbits
 425      0080AFF3 
 425      0080AFF3 
 425      0080
 426              		.align	2
 427              		.p2align 4,,15
 428              		.global	chMtxTryLockS
 429              		.thumb
 430              		.thumb_func
 431              		.type	chMtxTryLockS, %function
 432              	chMtxTryLockS:
 433              	.LFB11:
 434              		.loc 1 234 0
 435              		.cfi_startproc
 436              		@ args = 0, pretend = 0, frame = 0
 437              		@ frame_needed = 0, uses_anonymous_args = 0
 438              		@ link register save eliminated.
 439              	.LVL27:
 440              		.loc 1 239 0
 441 0000 8268     		ldr	r2, [r0, #8]
 442              		.loc 1 234 0
 443 0002 0346     		mov	r3, r0
 444              		.loc 1 239 0
 445 0004 0AB1     		cbz	r2, .L31
 446              		.loc 1 240 0
 447 0006 0020     		movs	r0, #0
 448              	.LVL28:
 449              		.loc 1 245 0
 450 0008 7047     		bx	lr
ARM GAS  /tmp/ccpczb0O.s 			page 9


 451              	.LVL29:
 452              	.L31:
 453              		.loc 1 241 0
 454 000a 40F20002 		movw	r2, #:lower16:rlist
 455 000e C0F20002 		movt	r2, #:upper16:rlist
 456              		.loc 1 244 0
 457 0012 0120     		movs	r0, #1
 458              	.LVL30:
 459              		.loc 1 241 0
 460 0014 9269     		ldr	r2, [r2, #24]
 461              		.loc 1 242 0
 462 0016 D16B     		ldr	r1, [r2, #60]
 463              		.loc 1 241 0
 464 0018 9A60     		str	r2, [r3, #8]
 465              		.loc 1 242 0
 466 001a D960     		str	r1, [r3, #12]
 467              		.loc 1 243 0
 468 001c D363     		str	r3, [r2, #60]
 469              		.loc 1 244 0
 470 001e 7047     		bx	lr
 471              		.cfi_endproc
 472              	.LFE11:
 473              		.size	chMtxTryLockS, .-chMtxTryLockS
 474              		.section	.text.chMtxUnlock,"ax",%progbits
 475              		.align	2
 476              		.p2align 4,,15
 477              		.global	chMtxUnlock
 478              		.thumb
 479              		.thumb_func
 480              		.type	chMtxUnlock, %function
 481              	chMtxUnlock:
 482              	.LFB12:
 483              		.loc 1 257 0
 484              		.cfi_startproc
 485              		@ args = 0, pretend = 0, frame = 0
 486              		@ frame_needed = 0, uses_anonymous_args = 0
 487              		.loc 1 258 0
 488 0000 40F20002 		movw	r2, #:lower16:rlist
 489 0004 C0F20002 		movt	r2, #:upper16:rlist
 490              		.loc 1 257 0
 491 0008 38B5     		push	{r3, r4, r5, lr}
 492              		.cfi_def_cfa_offset 16
 493              		.cfi_offset 3, -16
 494              		.cfi_offset 4, -12
 495              		.cfi_offset 5, -8
 496              		.cfi_offset 14, -4
 497              		.loc 1 258 0
 498 000a 9069     		ldr	r0, [r2, #24]
 499              	.LVL31:
 500              	.LBB66:
 501              		.loc 1 261 0
 502 000c 2023     		movs	r3, #32
 503              	@ 261 "../../os/kernel/src/chmtx.c" 1
 504 000e 83F31188 		msr     BASEPRI, r3
 505              	@ 0 "" 2
 506              		.thumb
 507              	.LBE66:
ARM GAS  /tmp/ccpczb0O.s 			page 10


 508              		.loc 1 270 0
 509 0012 C46B     		ldr	r4, [r0, #60]
 510              	.LVL32:
 511              		.loc 1 273 0
 512 0014 2568     		ldr	r5, [r4]
 513              		.loc 1 271 0
 514 0016 E368     		ldr	r3, [r4, #12]
 515              		.loc 1 273 0
 516 0018 A542     		cmp	r5, r4
 517              		.loc 1 271 0
 518 001a C363     		str	r3, [r0, #60]
 519              		.loc 1 273 0
 520 001c 1CD0     		beq	.L33
 521              	.LBB67:
 522              		.loc 1 278 0
 523 001e 016C     		ldr	r1, [r0, #64]
 524              	.LVL33:
 525              		.loc 1 280 0
 526 0020 4BB1     		cbz	r3, .L34
 527              	.L36:
 528              		.loc 1 284 0
 529 0022 1A68     		ldr	r2, [r3]
 530 0024 9A42     		cmp	r2, r3
 531 0026 03D0     		beq	.L35
 532              		.loc 1 284 0 is_stmt 0 discriminator 1
 533 0028 9268     		ldr	r2, [r2, #8]
 534 002a 9142     		cmp	r1, r2
 535 002c 38BF     		it	cc
 536 002e 1146     		movcc	r1, r2
 537              	.LVL34:
 538              	.L35:
 539              		.loc 1 286 0 is_stmt 1
 540 0030 DB68     		ldr	r3, [r3, #12]
 541              	.LVL35:
 542              		.loc 1 280 0
 543 0032 002B     		cmp	r3, #0
 544 0034 F5D1     		bne	.L36
 545              	.L34:
 546              	.LBB68:
 547              	.LBB69:
 548              		.loc 2 62 0
 549 0036 2B68     		ldr	r3, [r5]
 550              	.LVL36:
 551              	.LBE69:
 552              	.LBE68:
 553              		.loc 1 295 0
 554 0038 EA6B     		ldr	r2, [r5, #60]
 555              		.loc 1 290 0
 556 003a 8160     		str	r1, [r0, #8]
 557              	.LVL37:
 558              	.LBB72:
 559              	.LBB70:
 560              		.loc 2 62 0
 561 003c 2360     		str	r3, [r4]
 562              	.LBE70:
 563              	.LBE72:
 564              		.loc 1 297 0
ARM GAS  /tmp/ccpczb0O.s 			page 11


 565 003e 2846     		mov	r0, r5
 566              	.LVL38:
 567              	.LBB73:
 568              	.LBB71:
 569              		.loc 2 62 0
 570 0040 5C60     		str	r4, [r3, #4]
 571              	.LBE71:
 572              	.LBE73:
 573              		.loc 1 297 0
 574 0042 0021     		movs	r1, #0
 575              	.LVL39:
 576              		.loc 1 294 0
 577 0044 A560     		str	r5, [r4, #8]
 578              		.loc 1 295 0
 579 0046 E260     		str	r2, [r4, #12]
 580              		.loc 1 296 0
 581 0048 EC63     		str	r4, [r5, #60]
 582              		.loc 1 297 0
 583 004a FFF7FEFF 		bl	chSchWakeupS
 584              	.LVL40:
 585              	.LBE67:
 586              	.LBB74:
 587              		.loc 1 301 0
 588 004e 0023     		movs	r3, #0
 589              	@ 301 "../../os/kernel/src/chmtx.c" 1
 590 0050 83F31188 		msr     BASEPRI, r3
 591              	@ 0 "" 2
 592              		.thumb
 593              	.LBE74:
 594              		.loc 1 303 0
 595 0054 2046     		mov	r0, r4
 596 0056 38BD     		pop	{r3, r4, r5, pc}
 597              	.LVL41:
 598              	.L33:
 599              		.loc 1 300 0
 600 0058 0023     		movs	r3, #0
 601 005a A360     		str	r3, [r4, #8]
 602              	.LBB75:
 603              		.loc 1 301 0
 604 005c 0023     		movs	r3, #0
 605              	@ 301 "../../os/kernel/src/chmtx.c" 1
 606 005e 83F31188 		msr     BASEPRI, r3
 607              	@ 0 "" 2
 608              		.thumb
 609              	.LBE75:
 610              		.loc 1 303 0
 611 0062 2046     		mov	r0, r4
 612              	.LVL42:
 613 0064 38BD     		pop	{r3, r4, r5, pc}
 614              		.cfi_endproc
 615              	.LFE12:
 616              		.size	chMtxUnlock, .-chMtxUnlock
 617 0066 00BFAFF3 		.section	.text.chMtxUnlockS,"ax",%progbits
 617      0080AFF3 
 617      0080
 618              		.align	2
 619              		.p2align 4,,15
ARM GAS  /tmp/ccpczb0O.s 			page 12


 620              		.global	chMtxUnlockS
 621              		.thumb
 622              		.thumb_func
 623              		.type	chMtxUnlockS, %function
 624              	chMtxUnlockS:
 625              	.LFB13:
 626              		.loc 1 317 0
 627              		.cfi_startproc
 628              		@ args = 0, pretend = 0, frame = 0
 629              		@ frame_needed = 0, uses_anonymous_args = 0
 630 0000 38B5     		push	{r3, r4, r5, lr}
 631              		.cfi_def_cfa_offset 16
 632              		.cfi_offset 3, -16
 633              		.cfi_offset 4, -12
 634              		.cfi_offset 5, -8
 635              		.cfi_offset 14, -4
 636              		.loc 1 318 0
 637 0002 40F20003 		movw	r3, #:lower16:rlist
 638 0006 C0F20003 		movt	r3, #:upper16:rlist
 639 000a 9869     		ldr	r0, [r3, #24]
 640              	.LVL43:
 641              		.loc 1 331 0
 642 000c C46B     		ldr	r4, [r0, #60]
 643              	.LVL44:
 644              		.loc 1 334 0
 645 000e 2568     		ldr	r5, [r4]
 646              		.loc 1 332 0
 647 0010 E368     		ldr	r3, [r4, #12]
 648              		.loc 1 334 0
 649 0012 A542     		cmp	r5, r4
 650              		.loc 1 332 0
 651 0014 C363     		str	r3, [r0, #60]
 652              		.loc 1 334 0
 653 0016 18D0     		beq	.L45
 654              	.LBB76:
 655              		.loc 1 339 0
 656 0018 016C     		ldr	r1, [r0, #64]
 657              	.LVL45:
 658              		.loc 1 341 0
 659 001a 4BB1     		cbz	r3, .L46
 660              	.L48:
 661              		.loc 1 345 0
 662 001c 1A68     		ldr	r2, [r3]
 663 001e 9A42     		cmp	r2, r3
 664 0020 03D0     		beq	.L47
 665              		.loc 1 345 0 is_stmt 0 discriminator 1
 666 0022 9268     		ldr	r2, [r2, #8]
 667 0024 9142     		cmp	r1, r2
 668 0026 38BF     		it	cc
 669 0028 1146     		movcc	r1, r2
 670              	.LVL46:
 671              	.L47:
 672              		.loc 1 347 0 is_stmt 1
 673 002a DB68     		ldr	r3, [r3, #12]
 674              	.LVL47:
 675              		.loc 1 341 0
 676 002c 002B     		cmp	r3, #0
ARM GAS  /tmp/ccpczb0O.s 			page 13


 677 002e F5D1     		bne	.L48
 678              	.L46:
 679              		.loc 1 354 0
 680 0030 EA6B     		ldr	r2, [r5, #60]
 681              	.LBB77:
 682              	.LBB78:
 683              		.loc 2 62 0
 684 0032 2B68     		ldr	r3, [r5]
 685              	.LVL48:
 686              	.LBE78:
 687              	.LBE77:
 688              		.loc 1 349 0
 689 0034 8160     		str	r1, [r0, #8]
 690              	.LVL49:
 691              	.LBB81:
 692              	.LBB79:
 693              		.loc 2 62 0
 694 0036 2360     		str	r3, [r4]
 695              	.LBE79:
 696              	.LBE81:
 697              		.loc 1 356 0
 698 0038 2846     		mov	r0, r5
 699              	.LVL50:
 700              	.LBB82:
 701              	.LBB80:
 702              		.loc 2 62 0
 703 003a 5C60     		str	r4, [r3, #4]
 704              	.LBE80:
 705              	.LBE82:
 706              		.loc 1 353 0
 707 003c A560     		str	r5, [r4, #8]
 708              		.loc 1 354 0
 709 003e E260     		str	r2, [r4, #12]
 710              		.loc 1 355 0
 711 0040 EC63     		str	r4, [r5, #60]
 712              		.loc 1 356 0
 713 0042 FFF7FEFF 		bl	chSchReadyI
 714              	.LVL51:
 715              	.LBE76:
 716              		.loc 1 361 0
 717 0046 2046     		mov	r0, r4
 718 0048 38BD     		pop	{r3, r4, r5, pc}
 719              	.LVL52:
 720              	.L45:
 721              		.loc 1 359 0
 722 004a 0023     		movs	r3, #0
 723 004c A360     		str	r3, [r4, #8]
 724              		.loc 1 361 0
 725 004e 2046     		mov	r0, r4
 726              	.LVL53:
 727 0050 38BD     		pop	{r3, r4, r5, pc}
 728              		.cfi_endproc
 729              	.LFE13:
 730              		.size	chMtxUnlockS, .-chMtxUnlockS
 731 0052 00BFAFF3 		.section	.text.chMtxUnlockAll,"ax",%progbits
 731      0080AFF3 
 731      0080AFF3 
ARM GAS  /tmp/ccpczb0O.s 			page 14


 731      0080
 732              		.align	2
 733              		.p2align 4,,15
 734              		.global	chMtxUnlockAll
 735              		.thumb
 736              		.thumb_func
 737              		.type	chMtxUnlockAll, %function
 738              	chMtxUnlockAll:
 739              	.LFB14:
 740              		.loc 1 374 0
 741              		.cfi_startproc
 742              		@ args = 0, pretend = 0, frame = 0
 743              		@ frame_needed = 0, uses_anonymous_args = 0
 744              		.loc 1 375 0
 745 0000 40F20002 		movw	r2, #:lower16:rlist
 746 0004 C0F20002 		movt	r2, #:upper16:rlist
 747              		.loc 1 374 0
 748 0008 70B5     		push	{r4, r5, r6, lr}
 749              		.cfi_def_cfa_offset 16
 750              		.cfi_offset 4, -16
 751              		.cfi_offset 5, -12
 752              		.cfi_offset 6, -8
 753              		.cfi_offset 14, -4
 754              	.LBB83:
 755              		.loc 1 377 0
 756 000a 2023     		movs	r3, #32
 757              	.LBE83:
 758              		.loc 1 375 0
 759 000c 9469     		ldr	r4, [r2, #24]
 760              	.LVL54:
 761              	.LBB84:
 762              		.loc 1 377 0
 763              	@ 377 "../../os/kernel/src/chmtx.c" 1
 764 000e 83F31188 		msr     BASEPRI, r3
 765              	@ 0 "" 2
 766              		.thumb
 767              	.LBE84:
 768              		.loc 1 378 0
 769 0012 E36B     		ldr	r3, [r4, #60]
 770 0014 C3B1     		cbz	r3, .L57
 771              	.LBB85:
 772              		.loc 1 390 0
 773 0016 0026     		movs	r6, #0
 774              	.L61:
 775              	.LVL55:
 776              		.loc 1 382 0
 777 0018 1A68     		ldr	r2, [r3]
 778              	.LVL56:
 779              		.loc 1 381 0
 780 001a D968     		ldr	r1, [r3, #12]
 781              		.loc 1 382 0
 782 001c 9A42     		cmp	r2, r3
 783              		.loc 1 381 0
 784 001e E163     		str	r1, [r4, #60]
 785              		.loc 1 390 0
 786 0020 08BF     		it	eq
 787 0022 9E60     		streq	r6, [r3, #8]
ARM GAS  /tmp/ccpczb0O.s 			page 15


 788              		.loc 1 382 0
 789 0024 09D0     		beq	.L59
 790              	.LBB86:
 791              		.loc 1 385 0
 792 0026 D56B     		ldr	r5, [r2, #60]
 793              	.LBB87:
 794              	.LBB88:
 795              		.loc 2 62 0
 796 0028 1168     		ldr	r1, [r2]
 797              	.LBE88:
 798              	.LBE87:
 799              		.loc 1 387 0
 800 002a 1046     		mov	r0, r2
 801              	.LBB90:
 802              	.LBB89:
 803              		.loc 2 62 0
 804 002c 1960     		str	r1, [r3]
 805 002e 4B60     		str	r3, [r1, #4]
 806              	.LBE89:
 807              	.LBE90:
 808              		.loc 1 384 0
 809 0030 9A60     		str	r2, [r3, #8]
 810              		.loc 1 385 0
 811 0032 DD60     		str	r5, [r3, #12]
 812              		.loc 1 386 0
 813 0034 D363     		str	r3, [r2, #60]
 814              		.loc 1 387 0
 815 0036 FFF7FEFF 		bl	chSchReadyI
 816              	.LVL57:
 817              	.L59:
 818              	.LBE86:
 819              	.LBE85:
 820              		.loc 1 391 0
 821 003a E36B     		ldr	r3, [r4, #60]
 822 003c 002B     		cmp	r3, #0
 823 003e EBD1     		bne	.L61
 824              		.loc 1 392 0
 825 0040 236C     		ldr	r3, [r4, #64]
 826 0042 A360     		str	r3, [r4, #8]
 827              		.loc 1 393 0
 828 0044 FFF7FEFF 		bl	chSchRescheduleS
 829              	.LVL58:
 830              	.L57:
 831              	.LBB91:
 832              		.loc 1 395 0
 833 0048 0023     		movs	r3, #0
 834              	@ 395 "../../os/kernel/src/chmtx.c" 1
 835 004a 83F31188 		msr     BASEPRI, r3
 836              	@ 0 "" 2
 837              		.thumb
 838 004e 70BD     		pop	{r4, r5, r6, pc}
 839              	.LBE91:
 840              		.cfi_endproc
 841              	.LFE14:
 842              		.size	chMtxUnlockAll, .-chMtxUnlockAll
 843              		.text
 844              	.Letext0:
ARM GAS  /tmp/ccpczb0O.s 			page 16


 845              		.file 3 "/usr/include/newlib/machine/_default_types.h"
 846              		.file 4 "/usr/include/newlib/stdint.h"
 847              		.file 5 "../../os/ports/GCC/ARMCMx/chtypes.h"
 848              		.file 6 "../../os/kernel/include/chlists.h"
 849              		.file 7 "../../os/kernel/include/chthreads.h"
 850              		.file 8 "../../os/ports/GCC/ARMCMx/chcore_v7m.h"
 851              		.file 9 "../../os/kernel/include/chschd.h"
 852              		.file 10 "../../os/kernel/include/chmtx.h"