ARM GAS  /tmp/ccnfLZCY.s 			page 1


   1              		.syntax unified
   2              		.cpu cortex-m4
   3              		.fpu softvfp
   4              		.eabi_attribute 20, 1
   5              		.eabi_attribute 21, 1
   6              		.eabi_attribute 23, 3
   7              		.eabi_attribute 24, 1
   8              		.eabi_attribute 25, 1
   9              		.eabi_attribute 26, 1
  10              		.eabi_attribute 30, 2
  11              		.eabi_attribute 34, 1
  12              		.eabi_attribute 18, 4
  13              		.thumb
  14              		.file	"chprintf.c"
  15              		.text
  16              	.Ltext0:
  17              		.cfi_sections	.debug_frame
  18              		.section	.text.long_to_string_with_divisor.constprop.0,"ax",%progbits
  19              		.align	2
  20              		.p2align 4,,15
  21              		.thumb
  22              		.thumb_func
  23              		.type	long_to_string_with_divisor.constprop.0, %function
  24              	long_to_string_with_divisor.constprop.0:
  25              	.LFB12:
  26              		.file 1 "../../os/various/chprintf.c"
  27              		.loc 1 37 0
  28              		.cfi_startproc
  29              		@ args = 0, pretend = 0, frame = 0
  30              		@ frame_needed = 0, uses_anonymous_args = 0
  31              		@ link register save eliminated.
  32              	.LVL0:
  33 0000 F0B4     		push	{r4, r5, r6, r7}
  34              		.cfi_def_cfa_offset 16
  35              		.cfi_offset 4, -16
  36              		.cfi_offset 5, -12
  37              		.cfi_offset 6, -8
  38              		.cfi_offset 7, -4
  39              		.loc 1 52 0
  40 0002 00F10B07 		add	r7, r0, #11
  41              	.LVL1:
  42 0006 00F10A05 		add	r5, r0, #10
  43 000a 0C46     		mov	r4, r1
  44              	.LVL2:
  45              	.L4:
  46              		.loc 1 54 0
  47 000c B1FBF2F6 		udiv	r6, r1, r2
  48 0010 02FB1611 		mls	r1, r2, r6, r1
  49              	.LVL3:
  50              		.loc 1 55 0
  51 0014 01F13003 		add	r3, r1, #48
  52              	.LVL4:
  53              		.loc 1 56 0
  54 0018 392B     		cmp	r3, #57
  55              		.loc 1 57 0
  56 001a C8BF     		it	gt
  57 001c 01F13703 		addgt	r3, r1, #55
ARM GAS  /tmp/ccnfLZCY.s 			page 2


  58              	.LVL5:
  59              		.loc 1 58 0
  60 0020 DBB2     		uxtb	r3, r3
  61              	.LVL6:
  62              		.loc 1 60 0
  63 0022 B4FBF2F4 		udiv	r4, r4, r2
  64              	.LVL7:
  65              		.loc 1 59 0
  66 0026 3146     		mov	r1, r6
  67              	.LVL8:
  68              		.loc 1 58 0
  69 0028 2E46     		mov	r6, r5
  70              	.LVL9:
  71 002a 05F80139 		strb	r3, [r5], #-1
  72              	.LVL10:
  73              		.loc 1 60 0
  74 002e 002C     		cmp	r4, #0
  75 0030 ECD1     		bne	.L4
  76              	.LVL11:
  77              		.loc 1 62 0
  78 0032 B91B     		subs	r1, r7, r6
  79              	.LVL12:
  80 0034 3246     		mov	r2, r6
  81              	.LVL13:
  82 0036 0144     		add	r1, r1, r0
  83 0038 01E0     		b	.L6
  84              	.LVL14:
  85              	.L9:
  86 003a 12F8013F 		ldrb	r3, [r2, #1]!	@ zero_extendqisi2
  87              	.LVL15:
  88              	.L6:
  89              		.loc 1 64 0
  90 003e 00F8013B 		strb	r3, [r0], #1
  91              	.LVL16:
  92              		.loc 1 65 0
  93 0042 8842     		cmp	r0, r1
  94 0044 F9D1     		bne	.L9
  95              		.loc 1 68 0
  96 0046 F0BC     		pop	{r4, r5, r6, r7}
  97              	.LVL17:
  98 0048 7047     		bx	lr
  99              		.cfi_endproc
 100              	.LFE12:
 101              		.size	long_to_string_with_divisor.constprop.0, .-long_to_string_with_divisor.constprop.0
 102 004a 00BFAFF3 		.section	.text.chvprintf,"ax",%progbits
 102      0080
 103              		.align	2
 104              		.p2align 4,,15
 105              		.global	chvprintf
 106              		.thumb
 107              		.thumb_func
 108              		.type	chvprintf, %function
 109              	chvprintf:
 110              	.LFB10:
 111              		.loc 1 112 0
 112              		.cfi_startproc
 113              		@ args = 0, pretend = 0, frame = 32
ARM GAS  /tmp/ccnfLZCY.s 			page 3


 114              		@ frame_needed = 0, uses_anonymous_args = 0
 115              	.LVL18:
 116 0000 2DE9F04F 		push	{r4, r5, r6, r7, r8, r9, r10, fp, lr}
 117              		.cfi_def_cfa_offset 36
 118              		.cfi_offset 4, -36
 119              		.cfi_offset 5, -32
 120              		.cfi_offset 6, -28
 121              		.cfi_offset 7, -24
 122              		.cfi_offset 8, -20
 123              		.cfi_offset 9, -16
 124              		.cfi_offset 10, -12
 125              		.cfi_offset 11, -8
 126              		.cfi_offset 14, -4
 127 0004 89B0     		sub	sp, sp, #36
 128              		.cfi_def_cfa_offset 72
 129 0006 0DF11503 		add	r3, sp, #21
 130 000a 0DF1140A 		add	r10, sp, #20
 131              		.loc 1 187 0
 132 000e 40F20008 		movw	r8, #:lower16:.LC0
 133 0012 0193     		str	r3, [sp, #4]
 134 0014 C0F20008 		movt	r8, #:upper16:.LC0
 135 0018 CAEB0303 		rsb	r3, r10, r3
 136              		.loc 1 112 0
 137 001c 8346     		mov	fp, r0
 138 001e 0C46     		mov	r4, r1
 139 0020 1646     		mov	r6, r2
 140              	.LVL19:
 141 0022 0293     		str	r3, [sp, #8]
 142              		.loc 1 187 0
 143 0024 CDF80C80 		str	r8, [sp, #12]
 144              	.LVL20:
 145              	.L11:
 146              		.loc 1 125 0
 147 0028 2178     		ldrb	r1, [r4]	@ zero_extendqisi2
 148 002a 631C     		adds	r3, r4, #1
 149              	.LVL21:
 150              		.loc 1 126 0
 151 002c 59B1     		cbz	r1, .L10
 152              	.LVL22:
 153              	.L76:
 154              		.loc 1 128 0
 155 002e 2529     		cmp	r1, #37
 156 0030 0CD0     		beq	.L13
 157              		.loc 1 129 0
 158 0032 DBF80020 		ldr	r2, [fp]
 159              	.LVL23:
 160              		.loc 1 125 0
 161 0036 1C46     		mov	r4, r3
 162              		.loc 1 129 0
 163 0038 9268     		ldr	r2, [r2, #8]
 164 003a 5846     		mov	r0, fp
 165 003c 9047     		blx	r2
 166              	.LVL24:
 167              		.loc 1 125 0
 168 003e 2178     		ldrb	r1, [r4]	@ zero_extendqisi2
 169 0040 631C     		adds	r3, r4, #1
 170              	.LVL25:
ARM GAS  /tmp/ccnfLZCY.s 			page 4


 171              		.loc 1 126 0
 172 0042 0029     		cmp	r1, #0
 173 0044 F3D1     		bne	.L76
 174              	.LVL26:
 175              	.L10:
 176              		.loc 1 261 0
 177 0046 09B0     		add	sp, sp, #36
 178              		@ sp needed
 179 0048 BDE8F08F 		pop	{r4, r5, r6, r7, r8, r9, r10, fp, pc}
 180              	.LVL27:
 181              	.L13:
 182              		.loc 1 135 0
 183 004c 6278     		ldrb	r2, [r4, #1]	@ zero_extendqisi2
 184              	.LVL28:
 185 004e 2D2A     		cmp	r2, #45
 186 0050 03BF     		ittte	eq
 187 0052 A278     		ldrbeq	r2, [r4, #2]	@ zero_extendqisi2
 188              		.loc 1 136 0
 189 0054 A31C     		addeq	r3, r4, #2
 190              	.LVL29:
 191              		.loc 1 137 0
 192 0056 4FF0010C 		moveq	ip, #1
 193              		.loc 1 134 0
 194 005a 4FF0000C 		movne	ip, #0
 195              	.LVL30:
 196              		.loc 1 140 0
 197 005e 2E2A     		cmp	r2, #46
 198 0060 18BF     		it	ne
 199 0062 302A     		cmpne	r2, #48
 200 0064 03BF     		ittte	eq
 201 0066 5A78     		ldrbeq	r2, [r3, #1]	@ zero_extendqisi2
 202              		.loc 1 141 0
 203 0068 0133     		addeq	r3, r3, #1
 204              	.LVL31:
 205              		.loc 1 142 0
 206 006a 3027     		moveq	r7, #48
 207              		.loc 1 139 0
 208 006c 2027     		movne	r7, #32
 209              	.LVL32:
 210              		.loc 1 142 0
 211 006e 1C46     		mov	r4, r3
 212              		.loc 1 144 0
 213 0070 0025     		movs	r5, #0
 214 0072 06E0     		b	.L19
 215              	.LVL33:
 216              	.L77:
 217              		.loc 1 150 0
 218 0074 3378     		ldrb	r3, [r6]	@ zero_extendqisi2
 219              	.LVL34:
 220 0076 0436     		adds	r6, r6, #4
 221              	.LVL35:
 222              	.L17:
 223              		.loc 1 153 0
 224 0078 05EB8505 		add	r5, r5, r5, lsl #2
 225              	.LVL36:
 226 007c 2278     		ldrb	r2, [r4]	@ zero_extendqisi2
 227 007e 03EB4505 		add	r5, r3, r5, lsl #1
ARM GAS  /tmp/ccnfLZCY.s 			page 5


 228              	.LVL37:
 229              	.L19:
 230              		.loc 1 147 0
 231 0082 A2F13003 		sub	r3, r2, #48
 232 0086 DBB2     		uxtb	r3, r3
 233 0088 092B     		cmp	r3, #9
 234              		.loc 1 146 0
 235 008a 04F10104 		add	r4, r4, #1
 236              	.LVL38:
 237              		.loc 1 147 0
 238 008e F3D9     		bls	.L17
 239              		.loc 1 149 0
 240 0090 2A2A     		cmp	r2, #42
 241 0092 EFD0     		beq	.L77
 242              	.LVL39:
 243              		.loc 1 156 0
 244 0094 2E2A     		cmp	r2, #46
 245 0096 4FF00001 		mov	r1, #0
 246 009a 31D0     		beq	.L22
 247              	.LVL40:
 248              		.loc 1 170 0
 249 009c 02F0DF03 		and	r3, r2, #223
 250 00a0 4C2B     		cmp	r3, #76
 251 00a2 3AD1     		bne	.L23
 252              	.LVL41:
 253              	.L79:
 254              		.loc 1 172 0
 255 00a4 2378     		ldrb	r3, [r4]	@ zero_extendqisi2
 256              		.loc 1 171 0
 257 00a6 0120     		movs	r0, #1
 258              		.loc 1 172 0
 259 00a8 13B1     		cbz	r3, .L24
 260              		.loc 1 173 0
 261 00aa 0134     		adds	r4, r4, #1
 262              	.LVL42:
 263 00ac 1A46     		mov	r2, r3
 264              		.loc 1 171 0
 265 00ae 0120     		movs	r0, #1
 266              	.LVL43:
 267              	.L24:
 268              		.loc 1 179 0
 269 00b0 A2F14403 		sub	r3, r2, #68
 270 00b4 342B     		cmp	r3, #52
 271 00b6 00F2B580 		bhi	.L25
 272 00ba DFE803F0 		tbb	[pc, r3]
 273              	.L27:
 274 00be 77       		.byte	(.L26-.L27)/2
 275 00bf B3       		.byte	(.L25-.L27)/2
 276 00c0 B3       		.byte	(.L25-.L27)/2
 277 00c1 B3       		.byte	(.L25-.L27)/2
 278 00c2 B3       		.byte	(.L25-.L27)/2
 279 00c3 77       		.byte	(.L26-.L27)/2
 280 00c4 B3       		.byte	(.L25-.L27)/2
 281 00c5 B3       		.byte	(.L25-.L27)/2
 282 00c6 B3       		.byte	(.L25-.L27)/2
 283 00c7 B3       		.byte	(.L25-.L27)/2
 284 00c8 B3       		.byte	(.L25-.L27)/2
ARM GAS  /tmp/ccnfLZCY.s 			page 6


 285 00c9 75       		.byte	(.L28-.L27)/2
 286 00ca B3       		.byte	(.L25-.L27)/2
 287 00cb B3       		.byte	(.L25-.L27)/2
 288 00cc B3       		.byte	(.L25-.L27)/2
 289 00cd B3       		.byte	(.L25-.L27)/2
 290 00ce B3       		.byte	(.L25-.L27)/2
 291 00cf 36       		.byte	(.L56-.L27)/2
 292 00d0 B3       		.byte	(.L25-.L27)/2
 293 00d1 B3       		.byte	(.L25-.L27)/2
 294 00d2 B1       		.byte	(.L30-.L27)/2
 295 00d3 B3       		.byte	(.L25-.L27)/2
 296 00d4 B3       		.byte	(.L25-.L27)/2
 297 00d5 B3       		.byte	(.L25-.L27)/2
 298 00d6 B3       		.byte	(.L25-.L27)/2
 299 00d7 B3       		.byte	(.L25-.L27)/2
 300 00d8 B3       		.byte	(.L25-.L27)/2
 301 00d9 B3       		.byte	(.L25-.L27)/2
 302 00da B3       		.byte	(.L25-.L27)/2
 303 00db B3       		.byte	(.L25-.L27)/2
 304 00dc B3       		.byte	(.L25-.L27)/2
 305 00dd A7       		.byte	(.L31-.L27)/2
 306 00de 77       		.byte	(.L26-.L27)/2
 307 00df B3       		.byte	(.L25-.L27)/2
 308 00e0 B3       		.byte	(.L25-.L27)/2
 309 00e1 B3       		.byte	(.L25-.L27)/2
 310 00e2 B3       		.byte	(.L25-.L27)/2
 311 00e3 77       		.byte	(.L26-.L27)/2
 312 00e4 B3       		.byte	(.L25-.L27)/2
 313 00e5 B3       		.byte	(.L25-.L27)/2
 314 00e6 B3       		.byte	(.L25-.L27)/2
 315 00e7 B3       		.byte	(.L25-.L27)/2
 316 00e8 B3       		.byte	(.L25-.L27)/2
 317 00e9 75       		.byte	(.L28-.L27)/2
 318 00ea B3       		.byte	(.L25-.L27)/2
 319 00eb B3       		.byte	(.L25-.L27)/2
 320 00ec B3       		.byte	(.L25-.L27)/2
 321 00ed 87       		.byte	(.L32-.L27)/2
 322 00ee B3       		.byte	(.L25-.L27)/2
 323 00ef 36       		.byte	(.L56-.L27)/2
 324 00f0 B3       		.byte	(.L25-.L27)/2
 325 00f1 B3       		.byte	(.L25-.L27)/2
 326 00f2 B1       		.byte	(.L30-.L27)/2
 327 00f3 00       		.align	1
 328              	.LVL44:
 329              	.L78:
 330              		.loc 1 162 0
 331 00f4 3378     		ldrb	r3, [r6]	@ zero_extendqisi2
 332              	.LVL45:
 333 00f6 0436     		adds	r6, r6, #4
 334              	.LVL46:
 335              	.L21:
 336              		.loc 1 165 0
 337 00f8 01EB8101 		add	r1, r1, r1, lsl #2
 338              	.LVL47:
 339              		.loc 1 166 0
 340 00fc 03EB4101 		add	r1, r3, r1, lsl #1
 341              	.LVL48:
ARM GAS  /tmp/ccnfLZCY.s 			page 7


 342              	.L22:
 343              		.loc 1 158 0
 344 0100 14F8012B 		ldrb	r2, [r4], #1	@ zero_extendqisi2
 345              	.LVL49:
 346              		.loc 1 159 0
 347 0104 A2F13003 		sub	r3, r2, #48
 348 0108 DBB2     		uxtb	r3, r3
 349 010a 092B     		cmp	r3, #9
 350 010c F4D9     		bls	.L21
 351              		.loc 1 161 0
 352 010e 2A2A     		cmp	r2, #42
 353 0110 F0D0     		beq	.L78
 354              	.LVL50:
 355              		.loc 1 170 0
 356 0112 02F0DF03 		and	r3, r2, #223
 357 0116 4C2B     		cmp	r3, #76
 358 0118 C4D0     		beq	.L79
 359              	.LVL51:
 360              	.L23:
 361              		.loc 1 176 0
 362 011a A2F14100 		sub	r0, r2, #65
 363 011e C0B2     		uxtb	r0, r0
 364 0120 1928     		cmp	r0, #25
 365 0122 8CBF     		ite	hi
 366 0124 0020     		movhi	r0, #0
 367 0126 0120     		movls	r0, #1
 368              	.LVL52:
 369 0128 C2E7     		b	.L24
 370              	.LVL53:
 371              	.L56:
 372              		.loc 1 179 0
 373 012a 0A22     		movs	r2, #10
 374              	.LVL54:
 375              	.L29:
 376              		.loc 1 230 0
 377 012c 3168     		ldr	r1, [r6]
 378              	.LVL55:
 379              	.LBB6:
 380              	.LBB7:
 381              		.loc 1 72 0
 382 012e 5046     		mov	r0, r10
 383              	.LBE7:
 384              	.LBE6:
 385              		.loc 1 230 0
 386 0130 0436     		adds	r6, r6, #4
 387              	.LVL56:
 388              	.L74:
 389              	.LBB9:
 390              	.LBB8:
 391              		.loc 1 72 0
 392 0132 CDF800C0 		str	ip, [sp]
 393 0136 FFF7FEFF 		bl	long_to_string_with_divisor.constprop.0
 394              	.LVL57:
 395              	.LBE8:
 396              	.LBE9:
 397              		.loc 1 234 0
 398 013a DDF800C0 		ldr	ip, [sp]
ARM GAS  /tmp/ccnfLZCY.s 			page 8


 399 013e CAEB0000 		rsb	r0, r10, r0
 400 0142 00F1FF39 		add	r9, r0, #-1
 401              		.loc 1 133 0
 402 0146 D046     		mov	r8, r10
 403              	.LVL58:
 404              	.L33:
 405              		.loc 1 240 0
 406 0148 2D1A     		subs	r5, r5, r0
 407              	.LVL59:
 408 014a 25EAE575 		bic	r5, r5, r5, asr #31
 409              	.LVL60:
 410              		.loc 1 242 0
 411 014e BCF1000F 		cmp	ip, #0
 412 0152 0DD1     		bne	.L44
 413              		.loc 1 243 0
 414 0154 6D42     		negs	r5, r5
 415              	.LVL61:
 416              		.loc 1 244 0
 417 0156 5DB1     		cbz	r5, .L44
 418              		.loc 1 245 0
 419 0158 98F80010 		ldrb	r1, [r8]	@ zero_extendqisi2
 420 015c 2D29     		cmp	r1, #45
 421 015e 68D0     		beq	.L80
 422              	.LVL62:
 423              	.L46:
 424              		.loc 1 250 0 discriminator 1
 425 0160 DBF80030 		ldr	r3, [fp]
 426 0164 5846     		mov	r0, fp
 427 0166 9B68     		ldr	r3, [r3, #8]
 428 0168 3946     		mov	r1, r7
 429 016a 9847     		blx	r3
 430              	.LVL63:
 431              		.loc 1 251 0 discriminator 1
 432 016c 0135     		adds	r5, r5, #1
 433              	.LVL64:
 434 016e F7D1     		bne	.L46
 435              	.L44:
 436              		.loc 1 253 0 discriminator 1
 437 0170 B9F1000F 		cmp	r9, #0
 438 0174 A4BF     		itt	ge
 439 0176 C144     		addge	r9, r9, r8
 440 0178 08F1FF38 		addge	r8, r8, #-1
 441 017c 08DB     		blt	.L49
 442              	.LVL65:
 443              	.L50:
 444              		.loc 1 254 0
 445 017e DBF80030 		ldr	r3, [fp]
 446 0182 18F8011F 		ldrb	r1, [r8, #1]!	@ zero_extendqisi2
 447              	.LVL66:
 448 0186 9B68     		ldr	r3, [r3, #8]
 449 0188 5846     		mov	r0, fp
 450 018a 9847     		blx	r3
 451              	.LVL67:
 452              		.loc 1 253 0
 453 018c C845     		cmp	r8, r9
 454 018e F6D1     		bne	.L50
 455              	.LVL68:
ARM GAS  /tmp/ccnfLZCY.s 			page 9


 456              	.L49:
 457              		.loc 1 256 0
 458 0190 002D     		cmp	r5, #0
 459 0192 3FF449AF 		beq	.L11
 460              	.L51:
 461              		.loc 1 257 0
 462 0196 DBF80030 		ldr	r3, [fp]
 463 019a 5846     		mov	r0, fp
 464 019c 9B68     		ldr	r3, [r3, #8]
 465 019e 3946     		mov	r1, r7
 466 01a0 9847     		blx	r3
 467              	.LVL69:
 468              		.loc 1 256 0
 469 01a2 013D     		subs	r5, r5, #1
 470              	.LVL70:
 471 01a4 F7D1     		bne	.L51
 472 01a6 3FE7     		b	.L11
 473              	.LVL71:
 474              	.L28:
 475 01a8 0822     		movs	r2, #8
 476 01aa BFE7     		b	.L29
 477              	.LVL72:
 478              	.L26:
 479              		.loc 1 198 0
 480 01ac 3168     		ldr	r1, [r6]
 481              	.LVL73:
 482              		.loc 1 201 0
 483 01ae 0029     		cmp	r1, #0
 484              		.loc 1 202 0
 485 01b0 B8BF     		it	lt
 486 01b2 4FF02D08 		movlt	r8, #45
 487              		.loc 1 198 0
 488 01b6 06F10406 		add	r6, r6, #4
 489              	.LVL74:
 490              		.loc 1 202 0
 491 01ba BDBF     		ittte	lt
 492 01bc 8DF81480 		strblt	r8, [sp, #20]
 493              		.loc 1 203 0
 494 01c0 4942     		rsblt	r1, r1, #0
 495              	.LVL75:
 496              		.loc 1 202 0
 497 01c2 0DF11500 		addlt	r0, sp, #21
 498              		.loc 1 132 0
 499 01c6 5046     		movge	r0, r10
 500              	.LVL76:
 501              	.LBB10:
 502              	.LBB11:
 503              		.loc 1 72 0
 504 01c8 0A22     		movs	r2, #10
 505              	.LVL77:
 506 01ca B2E7     		b	.L74
 507              	.LVL78:
 508              	.L32:
 509              	.LBE11:
 510              	.LBE10:
 511              		.loc 1 186 0
 512 01cc D6F80080 		ldr	r8, [r6]
ARM GAS  /tmp/ccnfLZCY.s 			page 10


 513              		.loc 1 187 0
 514 01d0 039B     		ldr	r3, [sp, #12]
 515 01d2 B8F1000F 		cmp	r8, #0
 516 01d6 08BF     		it	eq
 517 01d8 9846     		moveq	r8, r3
 518              		.loc 1 189 0
 519 01da 47F6FF73 		movw	r3, #32767
 520              		.loc 1 190 0
 521 01de 98F80000 		ldrb	r0, [r8]	@ zero_extendqisi2
 522              		.loc 1 186 0
 523 01e2 0436     		adds	r6, r6, #4
 524              	.LVL79:
 525              		.loc 1 189 0
 526 01e4 0029     		cmp	r1, #0
 527 01e6 08BF     		it	eq
 528 01e8 1946     		moveq	r1, r3
 529              	.LVL80:
 530              		.loc 1 190 0
 531 01ea 0028     		cmp	r0, #0
 532 01ec 33D0     		beq	.L59
 533 01ee 4144     		add	r1, r1, r8
 534 01f0 4346     		mov	r3, r8
 535 01f2 01E0     		b	.L38
 536              	.LVL81:
 537              	.L36:
 538              		.loc 1 190 0 is_stmt 0 discriminator 2
 539 01f4 8B42     		cmp	r3, r1
 540 01f6 28D0     		beq	.L81
 541              	.LVL82:
 542              	.L38:
 543              		.loc 1 190 0 discriminator 1
 544 01f8 5A78     		ldrb	r2, [r3, #1]	@ zero_extendqisi2
 545 01fa 0133     		adds	r3, r3, #1
 546              	.LVL83:
 547 01fc 002A     		cmp	r2, #0
 548 01fe F9D1     		bne	.L36
 549 0200 C8EB0300 		rsb	r0, r8, r3
 550 0204 00F1FF39 		add	r9, r0, #-1
 551              		.loc 1 185 0 is_stmt 1
 552 0208 2027     		movs	r7, #32
 553 020a 9DE7     		b	.L33
 554              	.LVL84:
 555              	.L31:
 556              		.loc 1 182 0
 557 020c 3368     		ldr	r3, [r6]
 558 020e 0298     		ldr	r0, [sp, #8]
 559 0210 8DF81430 		strb	r3, [sp, #20]
 560 0214 0436     		adds	r6, r6, #4
 561              	.LVL85:
 562 0216 00F1FF39 		add	r9, r0, #-1
 563              		.loc 1 181 0
 564 021a 2027     		movs	r7, #32
 565              		.loc 1 133 0
 566 021c D046     		mov	r8, r10
 567              		.loc 1 183 0
 568 021e 93E7     		b	.L33
 569              	.LVL86:
ARM GAS  /tmp/ccnfLZCY.s 			page 11


 570              	.L30:
 571              		.loc 1 179 0
 572 0220 1022     		movs	r2, #16
 573              	.LVL87:
 574 0222 83E7     		b	.L29
 575              	.LVL88:
 576              	.L25:
 577 0224 0298     		ldr	r0, [sp, #8]
 578              		.loc 1 236 0
 579 0226 8DF81420 		strb	r2, [sp, #20]
 580 022a 00F1FF39 		add	r9, r0, #-1
 581              		.loc 1 133 0
 582 022e D046     		mov	r8, r10
 583              		.loc 1 237 0
 584 0230 8AE7     		b	.L33
 585              	.LVL89:
 586              	.L80:
 587              		.loc 1 245 0 discriminator 1
 588 0232 302F     		cmp	r7, #48
 589 0234 94D1     		bne	.L46
 590              	.LVL90:
 591              		.loc 1 246 0
 592 0236 DBF80030 		ldr	r3, [fp]
 593 023a 5846     		mov	r0, fp
 594              	.LVL91:
 595 023c 9B68     		ldr	r3, [r3, #8]
 596 023e 9847     		blx	r3
 597              	.LVL92:
 598 0240 08F10108 		add	r8, r8, #1
 599              	.LVL93:
 600 0244 09F1FF39 		add	r9, r9, #-1
 601              	.LVL94:
 602 0248 8AE7     		b	.L46
 603              	.LVL95:
 604              	.L81:
 605 024a C8EB0100 		rsb	r0, r8, r1
 606 024e 00F1FF39 		add	r9, r0, #-1
 607              		.loc 1 185 0
 608 0252 2027     		movs	r7, #32
 609 0254 78E7     		b	.L33
 610              	.LVL96:
 611              	.L59:
 612              		.loc 1 190 0
 613 0256 4FF0FF39 		mov	r9, #-1
 614              		.loc 1 185 0
 615 025a 2027     		movs	r7, #32
 616 025c 74E7     		b	.L33
 617              		.cfi_endproc
 618              	.LFE10:
 619              		.size	chvprintf, .-chvprintf
 620 025e 00BF     		.section	.text.chsnprintf,"ax",%progbits
 621              		.align	2
 622              		.p2align 4,,15
 623              		.global	chsnprintf
 624              		.thumb
 625              		.thumb_func
 626              		.type	chsnprintf, %function
ARM GAS  /tmp/ccnfLZCY.s 			page 12


 627              	chsnprintf:
 628              	.LFB11:
 629              		.loc 1 288 0
 630              		.cfi_startproc
 631              		@ args = 4, pretend = 8, frame = 24
 632              		@ frame_needed = 0, uses_anonymous_args = 1
 633              	.LVL97:
 634 0000 0CB4     		push	{r2, r3}
 635              		.cfi_def_cfa_offset 8
 636              		.cfi_offset 2, -8
 637              		.cfi_offset 3, -4
 638 0002 30B5     		push	{r4, r5, lr}
 639              		.cfi_def_cfa_offset 20
 640              		.cfi_offset 4, -20
 641              		.cfi_offset 5, -16
 642              		.cfi_offset 14, -12
 643 0004 87B0     		sub	sp, sp, #28
 644              		.cfi_def_cfa_offset 48
 645              		.loc 1 288 0
 646 0006 0AAC     		add	r4, sp, #40
 647 0008 0A46     		mov	r2, r1
 648 000a 54F8045B 		ldr	r5, [r4], #4
 649              		.loc 1 294 0
 650 000e 0146     		mov	r1, r0
 651              	.LVL98:
 652 0010 0023     		movs	r3, #0
 653 0012 01A8     		add	r0, sp, #4
 654              	.LVL99:
 655 0014 FFF7FEFF 		bl	msObjectInit
 656              	.LVL100:
 657              		.loc 1 299 0
 658 0018 2946     		mov	r1, r5
 659 001a 2246     		mov	r2, r4
 660 001c 01A8     		add	r0, sp, #4
 661              	.LVL101:
 662              		.loc 1 298 0
 663 001e 0094     		str	r4, [sp]
 664              		.loc 1 299 0
 665 0020 FFF7FEFF 		bl	chvprintf
 666              	.LVL102:
 667              		.loc 1 303 0
 668 0024 019B     		ldr	r3, [sp, #4]
 669 0026 01A8     		add	r0, sp, #4
 670              	.LVL103:
 671 0028 9B68     		ldr	r3, [r3, #8]
 672 002a 0021     		movs	r1, #0
 673 002c 9847     		blx	r3
 674              	.LVL104:
 675              		.loc 1 304 0
 676 002e 0498     		ldr	r0, [sp, #16]
 677              		.loc 1 305 0
 678 0030 0138     		subs	r0, r0, #1
 679 0032 07B0     		add	sp, sp, #28
 680              		@ sp needed
 681 0034 BDE83040 		pop	{r4, r5, lr}
 682 0038 02B0     		add	sp, sp, #8
 683 003a 7047     		bx	lr
ARM GAS  /tmp/ccnfLZCY.s 			page 13


 684              		.cfi_endproc
 685              	.LFE11:
 686              		.size	chsnprintf, .-chsnprintf
 687 003c AFF30080 		.section	.rodata.str1.4,"aMS",%progbits,1
 688              		.align	2
 689              	.LC0:
 690 0000 286E756C 		.ascii	"(null)\000"
 690      6C2900
 691 0007 00       		.text
 692              	.Letext0:
 693              		.file 2 "/usr/lib/gcc/arm-none-eabi/4.8.2/include/stddef.h"
 694              		.file 3 "/usr/include/newlib/machine/_default_types.h"
 695              		.file 4 "/usr/include/newlib/stdint.h"
 696              		.file 5 "../../os/ports/GCC/ARMCMx/chtypes.h"
 697              		.file 6 "../../os/kernel/include/chstreams.h"
 698              		.file 7 "/usr/lib/gcc/arm-none-eabi/4.8.2/include/stdarg.h"
 699              		.file 8 "<built-in>"
 700              		.file 9 "../../os/various/memstreams.h"