ARM GAS  /tmp/ccOm1rNJ.s 			page 1


   1              		.syntax unified
   2              		.cpu cortex-m4
   3              		.fpu softvfp
   4              		.eabi_attribute 20, 1
   5              		.eabi_attribute 21, 1
   6              		.eabi_attribute 23, 3
   7              		.eabi_attribute 24, 1
   8              		.eabi_attribute 25, 1
   9              		.eabi_attribute 26, 1
  10              		.eabi_attribute 30, 2
  11              		.eabi_attribute 34, 1
  12              		.eabi_attribute 18, 4
  13              		.thumb
  14              		.file	"hal.c"
  15              		.text
  16              	.Ltext0:
  17              		.cfi_sections	.debug_frame
  18              		.section	.text.halInit,"ax",%progbits
  19              		.align	2
  20              		.p2align 4,,15
  21              		.global	halInit
  22              		.thumb
  23              		.thumb_func
  24              		.type	halInit, %function
  25              	halInit:
  26              	.LFB118:
  27              		.file 1 "../../os/hal/src/hal.c"
  28              		.loc 1 68 0
  29              		.cfi_startproc
  30              		@ args = 0, pretend = 0, frame = 0
  31              		@ frame_needed = 0, uses_anonymous_args = 0
  32 0000 08B5     		push	{r3, lr}
  33              		.cfi_def_cfa_offset 8
  34              		.cfi_offset 3, -8
  35              		.cfi_offset 14, -4
  36              		.loc 1 70 0
  37 0002 FFF7FEFF 		bl	hal_lld_init
  38              	.LVL0:
  39              		.loc 1 76 0
  40 0006 40F20000 		movw	r0, #:lower16:pal_default_config
  41 000a C0F20000 		movt	r0, #:upper16:pal_default_config
  42 000e FFF7FEFF 		bl	_pal_lld_init
  43              	.LVL1:
  44              		.loc 1 100 0
  45 0012 FFF7FEFF 		bl	pwmInit
  46              	.LVL2:
  47              		.loc 1 103 0
  48 0016 FFF7FEFF 		bl	sdInit
  49              	.LVL3:
  50              		.loc 1 109 0
  51 001a FFF7FEFF 		bl	spiInit
  52              	.LVL4:
  53              		.loc 1 115 0
  54 001e FFF7FEFF 		bl	usbInit
  55              	.LVL5:
  56              		.loc 1 121 0
  57 0022 FFF7FEFF 		bl	sduInit
ARM GAS  /tmp/ccOm1rNJ.s 			page 2


  58              	.LVL6:
  59              		.loc 1 128 0
  60 0026 BDE80840 		pop	{r3, lr}
  61              		.loc 1 127 0
  62 002a FFF7FEBF 		b	boardInit
  63              	.LVL7:
  64              		.cfi_endproc
  65              	.LFE118:
  66              		.size	halInit, .-halInit
  67 002e 00BF     		.section	.text.halIsCounterWithin,"ax",%progbits
  68              		.align	2
  69              		.p2align 4,,15
  70              		.global	halIsCounterWithin
  71              		.thumb
  72              		.thumb_func
  73              		.type	halIsCounterWithin, %function
  74              	halIsCounterWithin:
  75              	.LFB119:
  76              		.loc 1 174 0
  77              		.cfi_startproc
  78              		@ args = 0, pretend = 0, frame = 0
  79              		@ frame_needed = 0, uses_anonymous_args = 0
  80              		@ link register save eliminated.
  81              	.LVL8:
  82              		.loc 1 175 0
  83 0000 4FF48053 		mov	r3, #4096
  84 0004 CEF20003 		movt	r3, 57344
  85              		.loc 1 177 0
  86 0008 8142     		cmp	r1, r0
  87              		.loc 1 174 0
  88 000a 0246     		mov	r2, r0
  89              		.loc 1 175 0
  90 000c 5B68     		ldr	r3, [r3, #4]
  91              	.LVL9:
  92              		.loc 1 177 0
  93 000e 09D8     		bhi	.L6
  94              		.loc 1 178 0 discriminator 2
  95 0010 8342     		cmp	r3, r0
  96 0012 34BF     		ite	cc
  97 0014 0022     		movcc	r2, #0
  98 0016 0122     		movcs	r2, #1
  99 0018 8B42     		cmp	r3, r1
 100 001a 2CBF     		ite	cs
 101 001c 1046     		movcs	r0, r2
 102 001e 42F00100 		orrcc	r0, r2, #1
 103              	.LVL10:
 104              		.loc 1 179 0 discriminator 2
 105 0022 7047     		bx	lr
 106              	.LVL11:
 107              	.L6:
 108              		.loc 1 177 0 discriminator 1
 109 0024 8B42     		cmp	r3, r1
 110 0026 2CBF     		ite	cs
 111 0028 0020     		movcs	r0, #0
 112              	.LVL12:
 113 002a 0120     		movcc	r0, #1
 114 002c 9342     		cmp	r3, r2
ARM GAS  /tmp/ccOm1rNJ.s 			page 3


 115 002e 38BF     		it	cc
 116 0030 0020     		movcc	r0, #0
 117 0032 7047     		bx	lr
 118              		.cfi_endproc
 119              	.LFE119:
 120              		.size	halIsCounterWithin, .-halIsCounterWithin
 121 0034 AFF30080 		.section	.text.halPolledDelay,"ax",%progbits
 121      AFF30080 
 121      AFF30080 
 122              		.align	2
 123              		.p2align 4,,15
 124              		.global	halPolledDelay
 125              		.thumb
 126              		.thumb_func
 127              		.type	halPolledDelay, %function
 128              	halPolledDelay:
 129              	.LFB120:
 130              		.loc 1 193 0
 131              		.cfi_startproc
 132              		@ args = 0, pretend = 0, frame = 0
 133              		@ frame_needed = 0, uses_anonymous_args = 0
 134              		@ link register save eliminated.
 135              	.LVL13:
 136              		.loc 1 194 0
 137 0000 4FF48053 		mov	r3, #4096
 138 0004 CEF20003 		movt	r3, 57344
 139              		.loc 1 193 0
 140 0008 10B4     		push	{r4}
 141              		.cfi_def_cfa_offset 4
 142              		.cfi_offset 4, -4
 143              		.loc 1 194 0
 144 000a 5A68     		ldr	r2, [r3, #4]
 145              	.LVL14:
 146              	.LBB4:
 147              	.LBB5:
 148              		.loc 1 175 0
 149 000c 1C46     		mov	r4, r3
 150              	.LBE5:
 151              	.LBE4:
 152              		.loc 1 195 0
 153 000e 1044     		add	r0, r0, r2
 154              	.LVL15:
 155              	.L11:
 156              	.LBB8:
 157              	.LBB6:
 158              		.loc 1 177 0 discriminator 1
 159 0010 8242     		cmp	r2, r0
 160              		.loc 1 175 0 discriminator 1
 161 0012 6368     		ldr	r3, [r4, #4]
 162              	.LVL16:
 163              		.loc 1 177 0 discriminator 1
 164 0014 0BD2     		bcs	.L8
 165              		.loc 1 177 0 is_stmt 0
 166 0016 9842     		cmp	r0, r3
 167 0018 94BF     		ite	ls
 168 001a 0021     		movls	r1, #0
 169 001c 0121     		movhi	r1, #1
ARM GAS  /tmp/ccOm1rNJ.s 			page 4


 170 001e 9A42     		cmp	r2, r3
 171 0020 88BF     		it	hi
 172 0022 0021     		movhi	r1, #0
 173              	.LBE6:
 174              	.LBE8:
 175              		.loc 1 196 0 is_stmt 1
 176 0024 0029     		cmp	r1, #0
 177 0026 F3D1     		bne	.L11
 178              	.L12:
 179              		.loc 1 198 0
 180 0028 5DF8044B 		ldr	r4, [sp], #4
 181 002c 7047     		bx	lr
 182              	.L8:
 183              	.LBB9:
 184              	.LBB7:
 185              		.loc 1 178 0
 186 002e 9A42     		cmp	r2, r3
 187 0030 8CBF     		ite	hi
 188 0032 0021     		movhi	r1, #0
 189 0034 0121     		movls	r1, #1
 190 0036 9842     		cmp	r0, r3
 191 0038 88BF     		it	hi
 192 003a 41F00101 		orrhi	r1, r1, #1
 193              	.LBE7:
 194              	.LBE9:
 195              		.loc 1 196 0
 196 003e 0029     		cmp	r1, #0
 197 0040 E6D1     		bne	.L11
 198 0042 F1E7     		b	.L12
 199              		.cfi_endproc
 200              	.LFE120:
 201              		.size	halPolledDelay, .-halPolledDelay
 202 0044 AFF30080 		.text
 202      AFF30080 
 202      AFF30080 
 203              	.Letext0:
 204              		.file 2 "/usr/include/newlib/machine/_default_types.h"
 205              		.file 3 "/usr/include/newlib/stdint.h"
 206              		.file 4 "../../os/ports/GCC/ARMCMx/chtypes.h"
 207              		.file 5 "../../os/ports/common/ARMCMx/nvic.h"
 208              		.file 6 "../../os/hal/platforms/STM32F4xx/hal_lld.h"
 209              		.file 7 "../../os/hal/platforms/STM32/GPIOv2/pal_lld.h"
 210              		.file 8 "../../os/ports/common/ARMCMx/CMSIS/include/core_cm4.h"
 211              		.file 9 "../../os/hal/include/pwm.h"
 212              		.file 10 "../../os/hal/include/serial.h"
 213              		.file 11 "../../os/hal/include/spi.h"
 214              		.file 12 "../../os/hal/include/usb.h"
 215              		.file 13 "../../os/hal/include/serial_usb.h"
 216              		.file 14 "../../boards/ST_STM32F4_DISCOVERY/board.h"