ARM GAS  /tmp/cc7xKWKJ.s 			page 1


   1              		.syntax unified
   2              		.cpu cortex-m4
   3              		.fpu softvfp
   4              		.eabi_attribute 20, 1
   5              		.eabi_attribute 21, 1
   6              		.eabi_attribute 23, 3
   7              		.eabi_attribute 24, 1
   8              		.eabi_attribute 25, 1
   9              		.eabi_attribute 26, 1
  10              		.eabi_attribute 30, 2
  11              		.eabi_attribute 34, 1
  12              		.eabi_attribute 18, 4
  13              		.thumb
  14              		.file	"lis3dsh.c"
  15              		.text
  16              	.Ltext0:
  17              		.cfi_sections	.debug_frame
  18              		.section	.text.lis3dshReadRegister,"ax",%progbits
  19              		.align	2
  20              		.p2align 4,,15
  21              		.global	lis3dshReadRegister
  22              		.thumb
  23              		.thumb_func
  24              		.type	lis3dshReadRegister, %function
  25              	lis3dshReadRegister:
  26              	.LFB118:
  27              		.file 1 "../../os/various/devices_lib/accel/lis3dsh.c"
  28              		.loc 1 60 0
  29              		.cfi_startproc
  30              		@ args = 0, pretend = 0, frame = 0
  31              		@ frame_needed = 0, uses_anonymous_args = 0
  32              	.LVL0:
  33 0000 F8B5     		push	{r3, r4, r5, r6, r7, lr}
  34              		.cfi_def_cfa_offset 24
  35              		.cfi_offset 3, -24
  36              		.cfi_offset 4, -20
  37              		.cfi_offset 5, -16
  38              		.cfi_offset 6, -12
  39              		.cfi_offset 7, -8
  40              		.cfi_offset 14, -4
  41              		.loc 1 65 0
  42 0002 40F20005 		movw	r5, #:lower16:.LANCHOR1
  43              		.loc 1 63 0
  44 0006 40F20004 		movw	r4, #:lower16:.LANCHOR0
  45              		.loc 1 60 0
  46 000a 0F46     		mov	r7, r1
  47 000c 0646     		mov	r6, r0
  48              		.loc 1 63 0
  49 000e C0F20004 		movt	r4, #:upper16:.LANCHOR0
  50              		.loc 1 65 0
  51 0012 C0F20005 		movt	r5, #:upper16:.LANCHOR1
  52              		.loc 1 62 0
  53 0016 FFF7FEFF 		bl	spiSelect
  54              	.LVL1:
  55              		.loc 1 63 0
  56 001a 67F07F0E 		orn	lr, r7, #127
  57              		.loc 1 65 0
ARM GAS  /tmp/cc7xKWKJ.s 			page 2


  58 001e 2246     		mov	r2, r4
  59 0020 2B46     		mov	r3, r5
  60 0022 3046     		mov	r0, r6
  61 0024 0221     		movs	r1, #2
  62              		.loc 1 64 0
  63 0026 FF27     		movs	r7, #255
  64              		.loc 1 63 0
  65 0028 84F800E0 		strb	lr, [r4]
  66              		.loc 1 64 0
  67 002c 6770     		strb	r7, [r4, #1]
  68              		.loc 1 65 0
  69 002e FFF7FEFF 		bl	spiExchange
  70              	.LVL2:
  71              		.loc 1 66 0
  72 0032 3046     		mov	r0, r6
  73 0034 FFF7FEFF 		bl	spiUnselect
  74              	.LVL3:
  75              		.loc 1 68 0
  76 0038 6878     		ldrb	r0, [r5, #1]	@ zero_extendqisi2
  77 003a F8BD     		pop	{r3, r4, r5, r6, r7, pc}
  78              		.cfi_endproc
  79              	.LFE118:
  80              		.size	lis3dshReadRegister, .-lis3dshReadRegister
  81 003c AFF30080 		.section	.text.lis3dshWriteRegister,"ax",%progbits
  82              		.align	2
  83              		.p2align 4,,15
  84              		.global	lis3dshWriteRegister
  85              		.thumb
  86              		.thumb_func
  87              		.type	lis3dshWriteRegister, %function
  88              	lis3dshWriteRegister:
  89              	.LFB119:
  90              		.loc 1 78 0
  91              		.cfi_startproc
  92              		@ args = 0, pretend = 0, frame = 0
  93              		@ frame_needed = 0, uses_anonymous_args = 0
  94              	.LVL4:
  95              		.loc 1 80 0
  96 0000 A1F11003 		sub	r3, r1, #16
  97              		.loc 1 78 0
  98 0004 70B5     		push	{r4, r5, r6, lr}
  99              		.cfi_def_cfa_offset 16
 100              		.cfi_offset 4, -16
 101              		.cfi_offset 5, -12
 102              		.cfi_offset 6, -8
 103              		.cfi_offset 14, -4
 104              		.loc 1 78 0
 105 0006 0C46     		mov	r4, r1
 106 0008 0546     		mov	r5, r0
 107 000a 1646     		mov	r6, r2
 108              		.loc 1 80 0
 109 000c 6B2B     		cmp	r3, #107
 110 000e 37D8     		bhi	.L2
 111 0010 DFE803F0 		tbb	[pc, r3]
 112              	.LVL5:
 113              	.L5:
 114 0014 37       		.byte	(.L4-.L5)/2
ARM GAS  /tmp/cc7xKWKJ.s 			page 3


 115 0015 37       		.byte	(.L4-.L5)/2
 116 0016 37       		.byte	(.L4-.L5)/2
 117 0017 37       		.byte	(.L4-.L5)/2
 118 0018 37       		.byte	(.L4-.L5)/2
 119 0019 37       		.byte	(.L4-.L5)/2
 120 001a 37       		.byte	(.L4-.L5)/2
 121 001b 37       		.byte	(.L4-.L5)/2
 122 001c 36       		.byte	(.L2-.L5)/2
 123 001d 36       		.byte	(.L2-.L5)/2
 124 001e 36       		.byte	(.L2-.L5)/2
 125 001f 37       		.byte	(.L4-.L5)/2
 126 0020 37       		.byte	(.L4-.L5)/2
 127 0021 37       		.byte	(.L4-.L5)/2
 128 0022 37       		.byte	(.L4-.L5)/2
 129 0023 37       		.byte	(.L4-.L5)/2
 130 0024 37       		.byte	(.L4-.L5)/2
 131 0025 37       		.byte	(.L4-.L5)/2
 132 0026 37       		.byte	(.L4-.L5)/2
 133 0027 37       		.byte	(.L4-.L5)/2
 134 0028 37       		.byte	(.L4-.L5)/2
 135 0029 37       		.byte	(.L4-.L5)/2
 136 002a 36       		.byte	(.L2-.L5)/2
 137 002b 36       		.byte	(.L2-.L5)/2
 138 002c 36       		.byte	(.L2-.L5)/2
 139 002d 36       		.byte	(.L2-.L5)/2
 140 002e 36       		.byte	(.L2-.L5)/2
 141 002f 36       		.byte	(.L2-.L5)/2
 142 0030 36       		.byte	(.L2-.L5)/2
 143 0031 36       		.byte	(.L2-.L5)/2
 144 0032 37       		.byte	(.L4-.L5)/2
 145 0033 36       		.byte	(.L2-.L5)/2
 146 0034 36       		.byte	(.L2-.L5)/2
 147 0035 36       		.byte	(.L2-.L5)/2
 148 0036 36       		.byte	(.L2-.L5)/2
 149 0037 36       		.byte	(.L2-.L5)/2
 150 0038 36       		.byte	(.L2-.L5)/2
 151 0039 36       		.byte	(.L2-.L5)/2
 152 003a 36       		.byte	(.L2-.L5)/2
 153 003b 36       		.byte	(.L2-.L5)/2
 154 003c 36       		.byte	(.L2-.L5)/2
 155 003d 36       		.byte	(.L2-.L5)/2
 156 003e 36       		.byte	(.L2-.L5)/2
 157 003f 36       		.byte	(.L2-.L5)/2
 158 0040 36       		.byte	(.L2-.L5)/2
 159 0041 36       		.byte	(.L2-.L5)/2
 160 0042 36       		.byte	(.L2-.L5)/2
 161 0043 36       		.byte	(.L2-.L5)/2
 162 0044 37       		.byte	(.L4-.L5)/2
 163 0045 37       		.byte	(.L4-.L5)/2
 164 0046 37       		.byte	(.L4-.L5)/2
 165 0047 37       		.byte	(.L4-.L5)/2
 166 0048 37       		.byte	(.L4-.L5)/2
 167 0049 37       		.byte	(.L4-.L5)/2
 168 004a 37       		.byte	(.L4-.L5)/2
 169 004b 37       		.byte	(.L4-.L5)/2
 170 004c 37       		.byte	(.L4-.L5)/2
 171 004d 37       		.byte	(.L4-.L5)/2
ARM GAS  /tmp/cc7xKWKJ.s 			page 4


 172 004e 37       		.byte	(.L4-.L5)/2
 173 004f 37       		.byte	(.L4-.L5)/2
 174 0050 37       		.byte	(.L4-.L5)/2
 175 0051 37       		.byte	(.L4-.L5)/2
 176 0052 37       		.byte	(.L4-.L5)/2
 177 0053 37       		.byte	(.L4-.L5)/2
 178 0054 37       		.byte	(.L4-.L5)/2
 179 0055 37       		.byte	(.L4-.L5)/2
 180 0056 37       		.byte	(.L4-.L5)/2
 181 0057 37       		.byte	(.L4-.L5)/2
 182 0058 37       		.byte	(.L4-.L5)/2
 183 0059 37       		.byte	(.L4-.L5)/2
 184 005a 37       		.byte	(.L4-.L5)/2
 185 005b 37       		.byte	(.L4-.L5)/2
 186 005c 36       		.byte	(.L2-.L5)/2
 187 005d 37       		.byte	(.L4-.L5)/2
 188 005e 37       		.byte	(.L4-.L5)/2
 189 005f 37       		.byte	(.L4-.L5)/2
 190 0060 36       		.byte	(.L2-.L5)/2
 191 0061 36       		.byte	(.L2-.L5)/2
 192 0062 36       		.byte	(.L2-.L5)/2
 193 0063 36       		.byte	(.L2-.L5)/2
 194 0064 37       		.byte	(.L4-.L5)/2
 195 0065 37       		.byte	(.L4-.L5)/2
 196 0066 37       		.byte	(.L4-.L5)/2
 197 0067 37       		.byte	(.L4-.L5)/2
 198 0068 37       		.byte	(.L4-.L5)/2
 199 0069 37       		.byte	(.L4-.L5)/2
 200 006a 37       		.byte	(.L4-.L5)/2
 201 006b 37       		.byte	(.L4-.L5)/2
 202 006c 37       		.byte	(.L4-.L5)/2
 203 006d 37       		.byte	(.L4-.L5)/2
 204 006e 37       		.byte	(.L4-.L5)/2
 205 006f 37       		.byte	(.L4-.L5)/2
 206 0070 37       		.byte	(.L4-.L5)/2
 207 0071 37       		.byte	(.L4-.L5)/2
 208 0072 37       		.byte	(.L4-.L5)/2
 209 0073 37       		.byte	(.L4-.L5)/2
 210 0074 37       		.byte	(.L4-.L5)/2
 211 0075 37       		.byte	(.L4-.L5)/2
 212 0076 37       		.byte	(.L4-.L5)/2
 213 0077 37       		.byte	(.L4-.L5)/2
 214 0078 37       		.byte	(.L4-.L5)/2
 215 0079 37       		.byte	(.L4-.L5)/2
 216 007a 37       		.byte	(.L4-.L5)/2
 217 007b 37       		.byte	(.L4-.L5)/2
 218 007c 37       		.byte	(.L4-.L5)/2
 219 007d 37       		.byte	(.L4-.L5)/2
 220 007e 37       		.byte	(.L4-.L5)/2
 221 007f 37       		.byte	(.L4-.L5)/2
 222              		.align	1
 223              	.L2:
 224 0080 70BD     		pop	{r4, r5, r6, pc}
 225              	.L4:
 226              		.loc 1 187 0
 227 0082 FFF7FEFF 		bl	spiSelect
 228              	.LVL6:
ARM GAS  /tmp/cc7xKWKJ.s 			page 5


 229              		.loc 1 188 0
 230 0086 40F20003 		movw	r3, #:lower16:.LANCHOR0
 231 008a C0F20003 		movt	r3, #:upper16:.LANCHOR0
 232              		.loc 1 190 0
 233 008e 2846     		mov	r0, r5
 234 0090 1A46     		mov	r2, r3
 235 0092 0221     		movs	r1, #2
 236              		.loc 1 188 0
 237 0094 1C70     		strb	r4, [r3]
 238              		.loc 1 189 0
 239 0096 5E70     		strb	r6, [r3, #1]
 240              		.loc 1 190 0
 241 0098 FFF7FEFF 		bl	spiSend
 242              	.LVL7:
 243              		.loc 1 191 0
 244 009c 2846     		mov	r0, r5
 245              		.loc 1 193 0
 246 009e BDE87040 		pop	{r4, r5, r6, lr}
 247              	.LVL8:
 248              		.loc 1 191 0
 249 00a2 FFF7FEBF 		b	spiUnselect
 250              	.LVL9:
 251              		.cfi_endproc
 252              	.LFE119:
 253              		.size	lis3dshWriteRegister, .-lis3dshWriteRegister
 254 00a6 00BFAFF3 		.section	.bss.rxbuf,"aw",%nobits
 254      0080AFF3 
 254      0080
 255              		.align	2
 256              		.set	.LANCHOR1,. + 0
 257              		.type	rxbuf, %object
 258              		.size	rxbuf, 2
 259              	rxbuf:
 260 0000 0000     		.space	2
 261 0002 0000     		.section	.bss.txbuf,"aw",%nobits
 262              		.align	2
 263              		.set	.LANCHOR0,. + 0
 264              		.type	txbuf, %object
 265              		.size	txbuf, 2
 266              	txbuf:
 267 0000 0000     		.space	2
 268 0002 0000     		.text
 269              	.Letext0:
 270              		.file 2 "/usr/lib/gcc/arm-none-eabi/4.8.2/include/stddef.h"
 271              		.file 3 "/usr/include/newlib/machine/_default_types.h"
 272              		.file 4 "/usr/include/newlib/stdint.h"
 273              		.file 5 "../../os/ports/GCC/ARMCMx/chtypes.h"
 274              		.file 6 "../../os/kernel/include/chlists.h"
 275              		.file 7 "../../os/kernel/include/chthreads.h"
 276              		.file 8 "../../os/ports/GCC/ARMCMx/chcore_v7m.h"
 277              		.file 9 "../../os/kernel/include/chmtx.h"
 278              		.file 10 "../../os/hal/platforms/STM32F4xx/stm32f4xx.h"
 279              		.file 11 "../../os/hal/platforms/STM32F4xx/stm32_dma.h"
 280              		.file 12 "../../os/hal/platforms/STM32/GPIOv2/pal_lld.h"
 281              		.file 13 "../../os/hal/include/spi.h"
 282              		.file 14 "../../os/hal/platforms/STM32/SPIv1/spi_lld.h"
 283              		.file 15 "../../os/ports/common/ARMCMx/CMSIS/include/core_cm4.h"
ARM GAS  /tmp/cc7xKWKJ.s 			page 6

