ARM GAS  /tmp/ccBf6c0r.s 			page 1


   1              		.syntax unified
   2              		.cpu cortex-m4
   3              		.fpu softvfp
   4              		.eabi_attribute 20, 1
   5              		.eabi_attribute 21, 1
   6              		.eabi_attribute 23, 3
   7              		.eabi_attribute 24, 1
   8              		.eabi_attribute 25, 1
   9              		.eabi_attribute 26, 1
  10              		.eabi_attribute 30, 2
  11              		.eabi_attribute 34, 1
  12              		.eabi_attribute 18, 4
  13              		.thumb
  14              		.file	"serial_lld.c"
  15              		.text
  16              	.Ltext0:
  17              		.cfi_sections	.debug_frame
  18              		.section	.text.notify2,"ax",%progbits
  19              		.align	2
  20              		.p2align 4,,15
  21              		.thumb
  22              		.thumb_func
  23              		.type	notify2, %function
  24              	notify2:
  25              	.LFB122:
  26              		.file 1 "../../os/hal/platforms/STM32/USARTv1/serial_lld.c"
  27              		.loc 1 212 0
  28              		.cfi_startproc
  29              		@ args = 0, pretend = 0, frame = 0
  30              		@ frame_needed = 0, uses_anonymous_args = 0
  31              		@ link register save eliminated.
  32              	.LVL0:
  33              		.loc 1 215 0
  34 0000 4FF48843 		mov	r3, #17408
  35 0004 C4F20003 		movt	r3, 16384
  36 0008 9A89     		ldrh	r2, [r3, #12]
  37 000a 92B2     		uxth	r2, r2
  38 000c 42F08002 		orr	r2, r2, #128
  39 0010 9A81     		strh	r2, [r3, #12]	@ movhi
  40 0012 7047     		bx	lr
  41              		.cfi_endproc
  42              	.LFE122:
  43              		.size	notify2, .-notify2
  44              		.section	.text.VectorD8,"ax",%progbits
  45              		.align	2
  46              		.p2align 4,,15
  47              		.global	VectorD8
  48              		.thumb
  49              		.thumb_func
  50              		.type	VectorD8, %function
  51              	VectorD8:
  52              	.LFB123:
  53              		.loc 1 283 0
  54              		.cfi_startproc
  55              		@ args = 0, pretend = 0, frame = 0
  56              		@ frame_needed = 0, uses_anonymous_args = 0
  57              	.LVL1:
ARM GAS  /tmp/ccBf6c0r.s 			page 2


  58 0000 F8B5     		push	{r3, r4, r5, r6, r7, lr}
  59              		.cfi_def_cfa_offset 24
  60              		.cfi_offset 3, -24
  61              		.cfi_offset 4, -20
  62              		.cfi_offset 5, -16
  63              		.cfi_offset 6, -12
  64              		.cfi_offset 7, -8
  65              		.cfi_offset 14, -4
  66              	.LBB26:
  67              	.LBB27:
  68              		.loc 1 155 0
  69 0002 40F20006 		movw	r6, #:lower16:.LANCHOR0
  70 0006 C0F20006 		movt	r6, #:upper16:.LANCHOR0
  71 000a 756F     		ldr	r5, [r6, #116]
  72              	.LVL2:
  73              		.loc 1 156 0
  74 000c AF89     		ldrh	r7, [r5, #12]
  75              		.loc 1 157 0
  76 000e 2C88     		ldrh	r4, [r5]
  77 0010 A4B2     		uxth	r4, r4
  78              		.loc 1 160 0
  79 0012 E005     		lsls	r0, r4, #23
  80              		.loc 1 156 0
  81 0014 BFB2     		uxth	r7, r7
  82              	.LVL3:
  83              		.loc 1 160 0
  84 0016 4BD4     		bmi	.L49
  85              	.L3:
  86              	.LBB28:
  87              		.loc 1 168 0
  88 0018 2023     		movs	r3, #32
  89              	@ 168 "../../os/hal/platforms/STM32/USARTv1/serial_lld.c" 1
  90 001a 83F31188 		msr     BASEPRI, r3
  91              	@ 0 "" 2
  92              		.thumb
  93              	.LBE28:
  94              		.loc 1 169 0
  95 001e A106     		lsls	r1, r4, #26
  96 0020 24D5     		bpl	.L4
  97 0022 0BE0     		b	.L10
  98              	.LVL4:
  99              	.L5:
 100              		.loc 1 173 0
 101 0024 A988     		ldrh	r1, [r5, #4]
 102 0026 40F20000 		movw	r0, #:lower16:.LANCHOR0
 103 002a C0F20000 		movt	r0, #:upper16:.LANCHOR0
 104 002e C9B2     		uxtb	r1, r1
 105 0030 FFF7FEFF 		bl	sdIncomingDataI
 106              	.LVL5:
 107              		.loc 1 174 0
 108 0034 2C88     		ldrh	r4, [r5]
 109 0036 A4B2     		uxth	r4, r4
 110              	.LVL6:
 111              		.loc 1 169 0
 112 0038 A006     		lsls	r0, r4, #26
 113 003a 17D5     		bpl	.L4
 114              	.LVL7:
ARM GAS  /tmp/ccBf6c0r.s 			page 3


 115              	.L10:
 116              		.loc 1 171 0
 117 003c 2207     		lsls	r2, r4, #28
 118 003e F1D0     		beq	.L5
 119              	.LVL8:
 120              	.LBB29:
 121              	.LBB30:
 122              		.loc 1 136 0
 123 0040 14F0080F 		tst	r4, #8
 124 0044 14BF     		ite	ne
 125 0046 8021     		movne	r1, #128
 126 0048 0021     		moveq	r1, #0
 127              	.LVL9:
 128              		.loc 1 140 0
 129 004a 14F0010F 		tst	r4, #1
 130              		.loc 1 141 0
 131 004e 18BF     		it	ne
 132 0050 41F02001 		orrne	r1, r1, #32
 133              	.LVL10:
 134              		.loc 1 142 0
 135 0054 A307     		lsls	r3, r4, #30
 136              		.loc 1 143 0
 137 0056 48BF     		it	mi
 138 0058 41F04001 		orrmi	r1, r1, #64
 139              	.LVL11:
 140              		.loc 1 144 0
 141 005c 6407     		lsls	r4, r4, #29
 142              	.LVL12:
 143              		.loc 1 146 0
 144 005e 2C48     		ldr	r0, .L53
 145              		.loc 1 145 0
 146 0060 48BF     		it	mi
 147 0062 41F48071 		orrmi	r1, r1, #256
 148              	.LVL13:
 149              		.loc 1 146 0
 150 0066 FFF7FEFF 		bl	chEvtBroadcastFlagsI
 151              	.LVL14:
 152 006a DBE7     		b	.L5
 153              	.LVL15:
 154              	.L4:
 155              	.LBE30:
 156              	.LBE29:
 157              	.LBB31:
 158              		.loc 1 176 0
 159 006c 0023     		movs	r3, #0
 160              	@ 176 "../../os/hal/platforms/STM32/USARTv1/serial_lld.c" 1
 161 006e 83F31188 		msr     BASEPRI, r3
 162              	@ 0 "" 2
 163              		.thumb
 164              	.LBE31:
 165              		.loc 1 179 0
 166 0072 3906     		lsls	r1, r7, #24
 167 0074 01D5     		bpl	.L11
 168 0076 2206     		lsls	r2, r4, #24
 169 0078 29D4     		bmi	.L50
 170              	.L11:
 171              		.loc 1 193 0
ARM GAS  /tmp/ccBf6c0r.s 			page 4


 172 007a 6306     		lsls	r3, r4, #25
 173 007c 14D5     		bpl	.L14
 174              	.LBB32:
 175              		.loc 1 194 0
 176 007e 2023     		movs	r3, #32
 177              	@ 194 "../../os/hal/platforms/STM32/USARTv1/serial_lld.c" 1
 178 0080 83F31188 		msr     BASEPRI, r3
 179              	@ 0 "" 2
 180              		.thumb
 181              	.LBE32:
 182              		.loc 1 195 0
 183 0084 726C     		ldr	r2, [r6, #68]
 184 0086 B36C     		ldr	r3, [r6, #72]
 185 0088 40F20000 		movw	r0, #:lower16:.LANCHOR0
 186 008c 9A42     		cmp	r2, r3
 187 008e C0F20000 		movt	r0, #:upper16:.LANCHOR0
 188 0092 2BD0     		beq	.L51
 189              	.L15:
 190              		.loc 1 197 0
 191 0094 4FF6BF73 		movw	r3, #65471
 192 0098 3B40     		ands	r3, r3, r7
 193              		.loc 1 198 0
 194 009a 4FF6BF72 		movw	r2, #65471
 195              		.loc 1 197 0
 196 009e AB81     		strh	r3, [r5, #12]	@ movhi
 197              	.LBB33:
 198              		.loc 1 199 0
 199 00a0 0023     		movs	r3, #0
 200              	.LBE33:
 201              		.loc 1 198 0
 202 00a2 2A80     		strh	r2, [r5]	@ movhi
 203              	.LBB34:
 204              		.loc 1 199 0
 205              	@ 199 "../../os/hal/platforms/STM32/USARTv1/serial_lld.c" 1
 206 00a4 83F31188 		msr     BASEPRI, r3
 207              	@ 0 "" 2
 208              		.thumb
 209              	.L14:
 210              	.LBE34:
 211              	.LBE27:
 212              	.LBE26:
 213              		.loc 1 290 0
 214 00a8 BDE8F840 		pop	{r3, r4, r5, r6, r7, lr}
 215              	.LVL16:
 216              		.loc 1 289 0
 217 00ac FFF7FEBF 		b	_port_irq_epilogue
 218              	.LVL17:
 219              	.L49:
 220              	.LBB42:
 221              	.LBB41:
 222              	.LBB35:
 223              		.loc 1 161 0
 224 00b0 2023     		movs	r3, #32
 225              	@ 161 "../../os/hal/platforms/STM32/USARTv1/serial_lld.c" 1
 226 00b2 83F31188 		msr     BASEPRI, r3
 227              	@ 0 "" 2
 228              		.thumb
ARM GAS  /tmp/ccBf6c0r.s 			page 5


 229              	.LBE35:
 230              		.loc 1 162 0
 231 00b6 4FF40071 		mov	r1, #512
 232 00ba 301D     		adds	r0, r6, #4
 233 00bc FFF7FEFF 		bl	chEvtBroadcastFlagsI
 234              	.LVL18:
 235              	.LBB36:
 236              		.loc 1 163 0
 237 00c0 0023     		movs	r3, #0
 238              	@ 163 "../../os/hal/platforms/STM32/USARTv1/serial_lld.c" 1
 239 00c2 83F31188 		msr     BASEPRI, r3
 240              	@ 0 "" 2
 241              		.thumb
 242              	.LBE36:
 243              		.loc 1 164 0
 244 00c6 4FF6FF63 		movw	r3, #65279
 245 00ca 2B80     		strh	r3, [r5]	@ movhi
 246 00cc A4E7     		b	.L3
 247              	.LVL19:
 248              	.L50:
 249              	.LBB37:
 250              	.LBB38:
 251              		.loc 1 181 0
 252 00ce 2023     		movs	r3, #32
 253              	@ 181 "../../os/hal/platforms/STM32/USARTv1/serial_lld.c" 1
 254 00d0 83F31188 		msr     BASEPRI, r3
 255              	@ 0 "" 2
 256              		.thumb
 257              	.LBE38:
 258              		.loc 1 182 0
 259 00d4 0F48     		ldr	r0, .L53+4
 260 00d6 FFF7FEFF 		bl	chOQGetI
 261              	.LVL20:
 262              		.loc 1 183 0
 263 00da 0028     		cmp	r0, #0
 264              		.loc 1 188 0
 265 00dc A4BF     		itt	ge
 266 00de 80B2     		uxthge	r0, r0
 267              	.LVL21:
 268 00e0 A880     		strhge	r0, [r5, #4]	@ movhi
 269              		.loc 1 183 0
 270 00e2 0BDB     		blt	.L52
 271              	.L13:
 272              	.LBB39:
 273              		.loc 1 189 0
 274 00e4 0023     		movs	r3, #0
 275              	@ 189 "../../os/hal/platforms/STM32/USARTv1/serial_lld.c" 1
 276 00e6 83F31188 		msr     BASEPRI, r3
 277              	@ 0 "" 2
 278              		.thumb
 279 00ea C6E7     		b	.L11
 280              	.L51:
 281              	.LBE39:
 282              	.LBE37:
 283              		.loc 1 195 0
 284 00ec 836B     		ldr	r3, [r0, #56]
 285 00ee 002B     		cmp	r3, #0
ARM GAS  /tmp/ccBf6c0r.s 			page 6


 286 00f0 D0D0     		beq	.L15
 287              		.loc 1 196 0
 288 00f2 0430     		adds	r0, r0, #4
 289 00f4 1021     		movs	r1, #16
 290 00f6 FFF7FEFF 		bl	chEvtBroadcastFlagsI
 291              	.LVL22:
 292 00fa CBE7     		b	.L15
 293              	.L52:
 294              	.LBB40:
 295              		.loc 1 184 0
 296 00fc 0448     		ldr	r0, .L53
 297 00fe 0821     		movs	r1, #8
 298 0100 FFF7FEFF 		bl	chEvtBroadcastFlagsI
 299              	.LVL23:
 300              		.loc 1 185 0
 301 0104 27F0C003 		bic	r3, r7, #192
 302 0108 43F04003 		orr	r3, r3, #64
 303 010c AB81     		strh	r3, [r5, #12]	@ movhi
 304 010e E9E7     		b	.L13
 305              	.L54:
 306              		.align	2
 307              	.L53:
 308 0110 04000000 		.word	.LANCHOR0+4
 309 0114 30000000 		.word	.LANCHOR0+48
 310              	.LBE40:
 311              	.LBE41:
 312              	.LBE42:
 313              		.cfi_endproc
 314              	.LFE123:
 315              		.size	VectorD8, .-VectorD8
 316 0118 AFF30080 		.section	.text.sd_lld_init,"ax",%progbits
 316      AFF30080 
 317              		.align	2
 318              		.p2align 4,,15
 319              		.global	sd_lld_init
 320              		.thumb
 321              		.thumb_func
 322              		.type	sd_lld_init, %function
 323              	sd_lld_init:
 324              	.LFB124:
 325              		.loc 1 378 0
 326              		.cfi_startproc
 327              		@ args = 0, pretend = 0, frame = 0
 328              		@ frame_needed = 0, uses_anonymous_args = 0
 329 0000 10B5     		push	{r4, lr}
 330              		.cfi_def_cfa_offset 8
 331              		.cfi_offset 4, -8
 332              		.cfi_offset 14, -4
 333              		.loc 1 386 0
 334 0002 40F20004 		movw	r4, #:lower16:.LANCHOR0
 335 0006 C0F20004 		movt	r4, #:upper16:.LANCHOR0
 336 000a 40F20002 		movw	r2, #:lower16:notify2
 337 000e 2046     		mov	r0, r4
 338 0010 C0F20002 		movt	r2, #:upper16:notify2
 339 0014 0021     		movs	r1, #0
 340 0016 FFF7FEFF 		bl	sdObjectInit
 341              	.LVL24:
ARM GAS  /tmp/ccBf6c0r.s 			page 7


 342              		.loc 1 387 0
 343 001a 4FF48843 		mov	r3, #17408
 344 001e C4F20003 		movt	r3, 16384
 345 0022 6367     		str	r3, [r4, #116]
 346 0024 10BD     		pop	{r4, pc}
 347              		.cfi_endproc
 348              	.LFE124:
 349              		.size	sd_lld_init, .-sd_lld_init
 350 0026 00BFAFF3 		.section	.text.sd_lld_start,"ax",%progbits
 350      0080AFF3 
 350      0080
 351              		.align	2
 352              		.p2align 4,,15
 353              		.global	sd_lld_start
 354              		.thumb
 355              		.thumb_func
 356              		.type	sd_lld_start, %function
 357              	sd_lld_start:
 358              	.LFB125:
 359              		.loc 1 421 0
 360              		.cfi_startproc
 361              		@ args = 0, pretend = 0, frame = 0
 362              		@ frame_needed = 0, uses_anonymous_args = 0
 363              	.LVL25:
 364 0000 38B5     		push	{r3, r4, r5, lr}
 365              		.cfi_def_cfa_offset 16
 366              		.cfi_offset 3, -16
 367              		.cfi_offset 4, -12
 368              		.cfi_offset 5, -8
 369              		.cfi_offset 14, -4
 370              		.loc 1 424 0
 371 0002 40F20004 		movw	r4, #:lower16:.LANCHOR1
 372              		.loc 1 426 0
 373 0006 037A     		ldrb	r3, [r0, #8]	@ zero_extendqisi2
 374              		.loc 1 424 0
 375 0008 C0F20004 		movt	r4, #:upper16:.LANCHOR1
 376 000c 0029     		cmp	r1, #0
 377 000e 18BF     		it	ne
 378 0010 0C46     		movne	r4, r1
 379              	.LVL26:
 380              		.loc 1 426 0
 381 0012 012B     		cmp	r3, #1
 382              		.loc 1 421 0
 383 0014 0546     		mov	r5, r0
 384              		.loc 1 426 0
 385 0016 31D0     		beq	.L62
 386              	.LVL27:
 387              	.L58:
 388              		.loc 1 421 0
 389 0018 6B6F     		ldr	r3, [r5, #116]
 390              	.LVL28:
 391              	.LBB45:
 392              	.LBB46:
 393              		.loc 1 97 0
 394 001a 4FF4A051 		mov	r1, #5120
 395 001e 4FF48052 		mov	r2, #4096
 396 0022 C4F20102 		movt	r2, 16385
ARM GAS  /tmp/ccBf6c0r.s 			page 8


 397 0026 C4F20101 		movt	r1, 16385
 398 002a 9342     		cmp	r3, r2
 399 002c 18BF     		it	ne
 400 002e 8B42     		cmpne	r3, r1
 401              		.loc 1 101 0
 402 0030 0BBF     		itete	eq
 403 0032 2168     		ldreq	r1, [r4]
 404              		.loc 1 103 0
 405 0034 2168     		ldrne	r1, [r4]
 406              		.loc 1 101 0
 407 0036 4FF43D42 		moveq	r2, #48384
 408              		.loc 1 103 0
 409 003a 4DF68062 		movwne	r2, #56960
 410              		.loc 1 101 0
 411 003e 0CBF     		ite	eq
 412 0040 C0F20152 		movteq	r2, 1281
 413              		.loc 1 103 0
 414 0044 C0F28022 		movtne	r2, 640
 415 0048 B2FBF1F2 		udiv	r2, r2, r1
 416 004c 92B2     		uxth	r2, r2
 417 004e 1A81     		strh	r2, [r3, #8]	@ movhi
 418              		.loc 1 108 0
 419 0050 A288     		ldrh	r2, [r4, #4]
 420              		.loc 1 106 0
 421 0052 E188     		ldrh	r1, [r4, #6]
 422              		.loc 1 107 0
 423 0054 2089     		ldrh	r0, [r4, #8]
 424              		.loc 1 108 0
 425 0056 42F40452 		orr	r2, r2, #8448
 426              		.loc 1 106 0
 427 005a 41F04004 		orr	r4, r1, #64
 428              	.LVL29:
 429              		.loc 1 108 0
 430 005e 42F02C02 		orr	r2, r2, #44
 431              		.loc 1 107 0
 432 0062 40F00100 		orr	r0, r0, #1
 433              		.loc 1 108 0
 434 0066 92B2     		uxth	r2, r2
 435              		.loc 1 106 0
 436 0068 A4B2     		uxth	r4, r4
 437              		.loc 1 107 0
 438 006a 80B2     		uxth	r0, r0
 439              		.loc 1 111 0
 440 006c 0021     		movs	r1, #0
 441              		.loc 1 106 0
 442 006e 1C82     		strh	r4, [r3, #16]	@ movhi
 443              		.loc 1 107 0
 444 0070 9882     		strh	r0, [r3, #20]	@ movhi
 445              		.loc 1 108 0
 446 0072 9A81     		strh	r2, [r3, #12]	@ movhi
 447              		.loc 1 111 0
 448 0074 1980     		strh	r1, [r3]	@ movhi
 449              		.loc 1 112 0
 450 0076 1A88     		ldrh	r2, [r3]
 451              		.loc 1 113 0
 452 0078 9B88     		ldrh	r3, [r3, #4]
 453              	.LVL30:
ARM GAS  /tmp/ccBf6c0r.s 			page 9


 454 007a 38BD     		pop	{r3, r4, r5, pc}
 455              	.LVL31:
 456              	.L62:
 457              	.LBE46:
 458              	.LBE45:
 459              		.loc 1 435 0
 460 007c 40F20003 		movw	r3, #:lower16:.LANCHOR0
 461 0080 C0F20003 		movt	r3, #:upper16:.LANCHOR0
 462 0084 9842     		cmp	r0, r3
 463 0086 C7D1     		bne	.L58
 464              		.loc 1 436 0
 465 0088 4FF46053 		mov	r3, #14336
 466 008c C4F20203 		movt	r3, 16386
 467              		.loc 1 437 0
 468 0090 2620     		movs	r0, #38
 469              	.LVL32:
 470              		.loc 1 436 0
 471 0092 1A6C     		ldr	r2, [r3, #64]
 472 0094 42F40032 		orr	r2, r2, #131072
 473 0098 1A64     		str	r2, [r3, #64]
 474              		.loc 1 437 0
 475 009a C021     		movs	r1, #192
 476 009c FFF7FEFF 		bl	nvicEnableVector
 477              	.LVL33:
 478 00a0 BAE7     		b	.L58
 479              		.cfi_endproc
 480              	.LFE125:
 481              		.size	sd_lld_start, .-sd_lld_start
 482 00a2 00BFAFF3 		.section	.text.sd_lld_stop,"ax",%progbits
 482      0080AFF3 
 482      0080AFF3 
 482      0080
 483              		.align	2
 484              		.p2align 4,,15
 485              		.global	sd_lld_stop
 486              		.thumb
 487              		.thumb_func
 488              		.type	sd_lld_stop, %function
 489              	sd_lld_stop:
 490              	.LFB126:
 491              		.loc 1 482 0
 492              		.cfi_startproc
 493              		@ args = 0, pretend = 0, frame = 0
 494              		@ frame_needed = 0, uses_anonymous_args = 0
 495              		@ link register save eliminated.
 496              	.LVL34:
 497              		.loc 1 484 0
 498 0000 037A     		ldrb	r3, [r0, #8]	@ zero_extendqisi2
 499 0002 022B     		cmp	r3, #2
 500 0004 00D0     		beq	.L67
 501              	.L63:
 502 0006 7047     		bx	lr
 503              	.L67:
 504              		.loc 1 494 0
 505 0008 40F20003 		movw	r3, #:lower16:.LANCHOR0
 506              		.loc 1 485 0
 507 000c 426F     		ldr	r2, [r0, #116]
ARM GAS  /tmp/ccBf6c0r.s 			page 10


 508              	.LVL35:
 509              		.loc 1 494 0
 510 000e C0F20003 		movt	r3, #:upper16:.LANCHOR0
 511              	.LBB47:
 512              	.LBB48:
 513              		.loc 1 124 0
 514 0012 0021     		movs	r1, #0
 515              	.LBE48:
 516              	.LBE47:
 517              		.loc 1 494 0
 518 0014 9842     		cmp	r0, r3
 519              	.LBB50:
 520              	.LBB49:
 521              		.loc 1 124 0
 522 0016 9181     		strh	r1, [r2, #12]	@ movhi
 523              		.loc 1 125 0
 524 0018 1182     		strh	r1, [r2, #16]	@ movhi
 525              		.loc 1 126 0
 526 001a 9182     		strh	r1, [r2, #20]	@ movhi
 527              	.LBE49:
 528              	.LBE50:
 529              		.loc 1 494 0
 530 001c F3D1     		bne	.L63
 531              		.loc 1 495 0
 532 001e 4FF46053 		mov	r3, #14336
 533 0022 C4F20203 		movt	r3, 16386
 534              		.loc 1 496 0
 535 0026 2620     		movs	r0, #38
 536              	.LVL36:
 537              		.loc 1 495 0
 538 0028 1A6C     		ldr	r2, [r3, #64]
 539              	.LVL37:
 540 002a 22F40032 		bic	r2, r2, #131072
 541 002e 1A64     		str	r2, [r3, #64]
 542              		.loc 1 496 0
 543 0030 FFF7FEBF 		b	nvicDisableVector
 544              	.LVL38:
 545              		.cfi_endproc
 546              	.LFE126:
 547              		.size	sd_lld_stop, .-sd_lld_stop
 548              		.global	SD2
 549 0034 AFF30080 		.section	.rodata.default_config,"a",%progbits
 549      AFF30080 
 549      AFF30080 
 550              		.align	2
 551              		.set	.LANCHOR1,. + 0
 552              		.type	default_config, %object
 553              		.size	default_config, 12
 554              	default_config:
 555 0000 00960000 		.word	38400
 556 0004 0000     		.short	0
 557 0006 0040     		.short	16384
 558 0008 0000     		.short	0
 559 000a 0000     		.space	2
 560              		.section	.bss.SD2,"aw",%nobits
 561              		.align	2
 562              		.set	.LANCHOR0,. + 0
ARM GAS  /tmp/ccBf6c0r.s 			page 11


 563              		.type	SD2, %object
 564              		.size	SD2, 120
 565              	SD2:
 566 0000 00000000 		.space	120
 566      00000000 
 566      00000000 
 566      00000000 
 566      00000000 
 567              		.text
 568              	.Letext0:
 569              		.file 2 "/usr/lib/gcc/arm-none-eabi/4.8.2/include/stddef.h"
 570              		.file 3 "/usr/include/newlib/machine/_default_types.h"
 571              		.file 4 "/usr/include/newlib/stdint.h"
 572              		.file 5 "../../os/ports/GCC/ARMCMx/chtypes.h"
 573              		.file 6 "../../os/kernel/include/chlists.h"
 574              		.file 7 "../../os/kernel/include/chthreads.h"
 575              		.file 8 "../../os/ports/GCC/ARMCMx/chcore_v7m.h"
 576              		.file 9 "../../os/kernel/include/chmtx.h"
 577              		.file 10 "../../os/kernel/include/chevents.h"
 578              		.file 11 "../../os/kernel/include/chqueues.h"
 579              		.file 12 "../../os/hal/platforms/STM32F4xx/stm32f4xx.h"
 580              		.file 13 "../../os/hal/include/serial.h"
 581              		.file 14 "../../os/hal/platforms/STM32/USARTv1/serial_lld.h"
 582              		.file 15 "../../os/ports/common/ARMCMx/nvic.h"
 583              		.file 16 "../../os/ports/common/ARMCMx/CMSIS/include/core_cm4.h"
 584              		.section	.debug_info,"",%progbits
 585              	.Ldebug_info0:
 586 0000 280F0000 		.4byte	0xf28
 587 0004 0400     		.2byte	0x4
 588 0006 00000000 		.4byte	.Ldebug_abbrev0
 589 000a 04       		.byte	0x4
 590 000b 01       		.uleb128 0x1
 591 000c 3F000000 		.4byte	.LASF148
 592 0010 01       		.byte	0x1
 593 0011 8D060000 		.4byte	.LASF149
 594 0015 0B060000 		.4byte	.LASF150
 595 0019 60000000 		.4byte	.Ldebug_ranges0+0x60
 596 001d 00000000 		.4byte	0
 597 0021 00000000 		.4byte	.Ldebug_line0
 598 0025 02       		.uleb128 0x2
 599 0026 04       		.byte	0x4
 600 0027 05       		.byte	0x5
 601 0028 696E7400 		.ascii	"int\000"
 602 002c 03       		.uleb128 0x3
 603 002d 11000000 		.4byte	.LASF2
 604 0031 02       		.byte	0x2
 605 0032 D4       		.byte	0xd4
 606 0033 37000000 		.4byte	0x37
 607 0037 04       		.uleb128 0x4
 608 0038 04       		.byte	0x4
 609 0039 07       		.byte	0x7
 610 003a 47020000 		.4byte	.LASF0
 611 003e 04       		.uleb128 0x4
 612 003f 01       		.byte	0x1
 613 0040 06       		.byte	0x6
 614 0041 46010000 		.4byte	.LASF1
 615 0045 03       		.uleb128 0x3
ARM GAS  /tmp/ccBf6c0r.s 			page 12


 616 0046 2B000000 		.4byte	.LASF3
 617 004a 03       		.byte	0x3
 618 004b 1C       		.byte	0x1c
 619 004c 50000000 		.4byte	0x50
 620 0050 04       		.uleb128 0x4
 621 0051 01       		.byte	0x1
 622 0052 08       		.byte	0x8
 623 0053 3B040000 		.4byte	.LASF4
 624 0057 04       		.uleb128 0x4
 625 0058 02       		.byte	0x2
 626 0059 05       		.byte	0x5
 627 005a 7D040000 		.4byte	.LASF5
 628 005e 03       		.uleb128 0x3
 629 005f 66050000 		.4byte	.LASF6
 630 0063 03       		.byte	0x3
 631 0064 26       		.byte	0x26
 632 0065 69000000 		.4byte	0x69
 633 0069 04       		.uleb128 0x4
 634 006a 02       		.byte	0x2
 635 006b 07       		.byte	0x7
 636 006c 96020000 		.4byte	.LASF7
 637 0070 03       		.uleb128 0x3
 638 0071 96050000 		.4byte	.LASF8
 639 0075 03       		.byte	0x3
 640 0076 37       		.byte	0x37
 641 0077 7B000000 		.4byte	0x7b
 642 007b 04       		.uleb128 0x4
 643 007c 04       		.byte	0x4
 644 007d 05       		.byte	0x5
 645 007e A2010000 		.4byte	.LASF9
 646 0082 03       		.uleb128 0x3
 647 0083 14020000 		.4byte	.LASF10
 648 0087 03       		.byte	0x3
 649 0088 38       		.byte	0x38
 650 0089 8D000000 		.4byte	0x8d
 651 008d 04       		.uleb128 0x4
 652 008e 04       		.byte	0x4
 653 008f 07       		.byte	0x7
 654 0090 33050000 		.4byte	.LASF11
 655 0094 04       		.uleb128 0x4
 656 0095 08       		.byte	0x8
 657 0096 05       		.byte	0x5
 658 0097 38010000 		.4byte	.LASF12
 659 009b 04       		.uleb128 0x4
 660 009c 08       		.byte	0x8
 661 009d 07       		.byte	0x7
 662 009e DC000000 		.4byte	.LASF13
 663 00a2 03       		.uleb128 0x3
 664 00a3 03060000 		.4byte	.LASF14
 665 00a7 04       		.byte	0x4
 666 00a8 2A       		.byte	0x2a
 667 00a9 45000000 		.4byte	0x45
 668 00ad 03       		.uleb128 0x3
 669 00ae 54020000 		.4byte	.LASF15
 670 00b2 04       		.byte	0x4
 671 00b3 36       		.byte	0x36
 672 00b4 5E000000 		.4byte	0x5e
ARM GAS  /tmp/ccBf6c0r.s 			page 13


 673 00b8 03       		.uleb128 0x3
 674 00b9 33040000 		.4byte	.LASF16
 675 00bd 04       		.byte	0x4
 676 00be 41       		.byte	0x41
 677 00bf 70000000 		.4byte	0x70
 678 00c3 03       		.uleb128 0x3
 679 00c4 01050000 		.4byte	.LASF17
 680 00c8 04       		.byte	0x4
 681 00c9 42       		.byte	0x42
 682 00ca 82000000 		.4byte	0x82
 683 00ce 03       		.uleb128 0x3
 684 00cf 68010000 		.4byte	.LASF18
 685 00d3 05       		.byte	0x5
 686 00d4 2B       		.byte	0x2b
 687 00d5 D9000000 		.4byte	0xd9
 688 00d9 04       		.uleb128 0x4
 689 00da 01       		.byte	0x1
 690 00db 02       		.byte	0x2
 691 00dc 2D040000 		.4byte	.LASF19
 692 00e0 03       		.uleb128 0x3
 693 00e1 E9020000 		.4byte	.LASF20
 694 00e5 05       		.byte	0x5
 695 00e6 2C       		.byte	0x2c
 696 00e7 A2000000 		.4byte	0xa2
 697 00eb 03       		.uleb128 0x3
 698 00ec BE010000 		.4byte	.LASF21
 699 00f0 05       		.byte	0x5
 700 00f1 2D       		.byte	0x2d
 701 00f2 A2000000 		.4byte	0xa2
 702 00f6 03       		.uleb128 0x3
 703 00f7 D2030000 		.4byte	.LASF22
 704 00fb 05       		.byte	0x5
 705 00fc 2E       		.byte	0x2e
 706 00fd A2000000 		.4byte	0xa2
 707 0101 03       		.uleb128 0x3
 708 0102 77010000 		.4byte	.LASF23
 709 0106 05       		.byte	0x5
 710 0107 2F       		.byte	0x2f
 711 0108 A2000000 		.4byte	0xa2
 712 010c 03       		.uleb128 0x3
 713 010d 1D040000 		.4byte	.LASF24
 714 0111 05       		.byte	0x5
 715 0112 30       		.byte	0x30
 716 0113 C3000000 		.4byte	0xc3
 717 0117 03       		.uleb128 0x3
 718 0118 B4020000 		.4byte	.LASF25
 719 011c 05       		.byte	0x5
 720 011d 31       		.byte	0x31
 721 011e B8000000 		.4byte	0xb8
 722 0122 03       		.uleb128 0x3
 723 0123 07030000 		.4byte	.LASF26
 724 0127 05       		.byte	0x5
 725 0128 33       		.byte	0x33
 726 0129 C3000000 		.4byte	0xc3
 727 012d 03       		.uleb128 0x3
 728 012e C8050000 		.4byte	.LASF27
 729 0132 05       		.byte	0x5
ARM GAS  /tmp/ccBf6c0r.s 			page 14


 730 0133 34       		.byte	0x34
 731 0134 C3000000 		.4byte	0xc3
 732 0138 03       		.uleb128 0x3
 733 0139 81050000 		.4byte	.LASF28
 734 013d 05       		.byte	0x5
 735 013e 35       		.byte	0x35
 736 013f C3000000 		.4byte	0xc3
 737 0143 03       		.uleb128 0x3
 738 0144 CB040000 		.4byte	.LASF29
 739 0148 06       		.byte	0x6
 740 0149 2A       		.byte	0x2a
 741 014a 4E010000 		.4byte	0x14e
 742 014e 05       		.uleb128 0x5
 743 014f CB040000 		.4byte	.LASF29
 744 0153 48       		.byte	0x48
 745 0154 07       		.byte	0x7
 746 0155 5E       		.byte	0x5e
 747 0156 4B020000 		.4byte	0x24b
 748 015a 06       		.uleb128 0x6
 749 015b 73030000 		.4byte	.LASF30
 750 015f 07       		.byte	0x7
 751 0160 5F       		.byte	0x5f
 752 0161 6C020000 		.4byte	0x26c
 753 0165 00       		.byte	0
 754 0166 06       		.uleb128 0x6
 755 0167 0C040000 		.4byte	.LASF31
 756 016b 07       		.byte	0x7
 757 016c 61       		.byte	0x61
 758 016d 6C020000 		.4byte	0x26c
 759 0171 04       		.byte	0x4
 760 0172 06       		.uleb128 0x6
 761 0173 64060000 		.4byte	.LASF32
 762 0177 07       		.byte	0x7
 763 0178 63       		.byte	0x63
 764 0179 0C010000 		.4byte	0x10c
 765 017d 08       		.byte	0x8
 766 017e 06       		.uleb128 0x6
 767 017f DA060000 		.4byte	.LASF33
 768 0183 07       		.byte	0x7
 769 0184 64       		.byte	0x64
 770 0185 26030000 		.4byte	0x326
 771 0189 0C       		.byte	0xc
 772 018a 06       		.uleb128 0x6
 773 018b 04020000 		.4byte	.LASF34
 774 018f 07       		.byte	0x7
 775 0190 66       		.byte	0x66
 776 0191 6C020000 		.4byte	0x26c
 777 0195 10       		.byte	0x10
 778 0196 06       		.uleb128 0x6
 779 0197 82030000 		.4byte	.LASF35
 780 019b 07       		.byte	0x7
 781 019c 67       		.byte	0x67
 782 019d 6C020000 		.4byte	0x26c
 783 01a1 14       		.byte	0x14
 784 01a2 06       		.uleb128 0x6
 785 01a3 E0050000 		.4byte	.LASF36
 786 01a7 07       		.byte	0x7
ARM GAS  /tmp/ccBf6c0r.s 			page 15


 787 01a8 6E       		.byte	0x6e
 788 01a9 41040000 		.4byte	0x441
 789 01ad 18       		.byte	0x18
 790 01ae 06       		.uleb128 0x6
 791 01af 6B040000 		.4byte	.LASF37
 792 01b3 07       		.byte	0x7
 793 01b4 79       		.byte	0x79
 794 01b5 EB000000 		.4byte	0xeb
 795 01b9 1C       		.byte	0x1c
 796 01ba 06       		.uleb128 0x6
 797 01bb A2040000 		.4byte	.LASF38
 798 01bf 07       		.byte	0x7
 799 01c0 7D       		.byte	0x7d
 800 01c1 E0000000 		.4byte	0xe0
 801 01c5 1D       		.byte	0x1d
 802 01c6 06       		.uleb128 0x6
 803 01c7 D0010000 		.4byte	.LASF39
 804 01cb 07       		.byte	0x7
 805 01cc 82       		.byte	0x82
 806 01cd F6000000 		.4byte	0xf6
 807 01d1 1E       		.byte	0x1e
 808 01d2 06       		.uleb128 0x6
 809 01d3 87040000 		.4byte	.LASF40
 810 01d7 07       		.byte	0x7
 811 01d8 88       		.byte	0x88
 812 01d9 01010000 		.4byte	0x101
 813 01dd 1F       		.byte	0x1f
 814 01de 06       		.uleb128 0x6
 815 01df E8010000 		.4byte	.LASF41
 816 01e3 07       		.byte	0x7
 817 01e4 8F       		.byte	0x8f
 818 01e5 53030000 		.4byte	0x353
 819 01e9 20       		.byte	0x20
 820 01ea 07       		.uleb128 0x7
 821 01eb 705F7500 		.ascii	"p_u\000"
 822 01ef 07       		.byte	0x7
 823 01f0 B4       		.byte	0xb4
 824 01f1 0C040000 		.4byte	0x40c
 825 01f5 24       		.byte	0x24
 826 01f6 06       		.uleb128 0x6
 827 01f7 E0060000 		.4byte	.LASF42
 828 01fb 07       		.byte	0x7
 829 01fc B9       		.byte	0xb9
 830 01fd 92020000 		.4byte	0x292
 831 0201 28       		.byte	0x28
 832 0202 06       		.uleb128 0x6
 833 0203 74020000 		.4byte	.LASF43
 834 0207 07       		.byte	0x7
 835 0208 BF       		.byte	0xbf
 836 0209 72020000 		.4byte	0x272
 837 020d 2C       		.byte	0x2c
 838 020e 06       		.uleb128 0x6
 839 020f FD050000 		.4byte	.LASF44
 840 0213 07       		.byte	0x7
 841 0214 C3       		.byte	0xc3
 842 0215 17010000 		.4byte	0x117
 843 0219 34       		.byte	0x34
ARM GAS  /tmp/ccBf6c0r.s 			page 16


 844 021a 06       		.uleb128 0x6
 845 021b E2040000 		.4byte	.LASF45
 846 021f 07       		.byte	0x7
 847 0220 C9       		.byte	0xc9
 848 0221 22010000 		.4byte	0x122
 849 0225 38       		.byte	0x38
 850 0226 06       		.uleb128 0x6
 851 0227 73040000 		.4byte	.LASF46
 852 022b 07       		.byte	0x7
 853 022c D0       		.byte	0xd0
 854 022d 53040000 		.4byte	0x453
 855 0231 3C       		.byte	0x3c
 856 0232 06       		.uleb128 0x6
 857 0233 8B050000 		.4byte	.LASF47
 858 0237 07       		.byte	0x7
 859 0238 D4       		.byte	0xd4
 860 0239 0C010000 		.4byte	0x10c
 861 023d 40       		.byte	0x40
 862 023e 06       		.uleb128 0x6
 863 023f 60010000 		.4byte	.LASF48
 864 0243 07       		.byte	0x7
 865 0244 DA       		.byte	0xda
 866 0245 A8020000 		.4byte	0x2a8
 867 0249 44       		.byte	0x44
 868 024a 00       		.byte	0
 869 024b 08       		.uleb128 0x8
 870 024c 08       		.byte	0x8
 871 024d 06       		.byte	0x6
 872 024e 61       		.byte	0x61
 873 024f 6C020000 		.4byte	0x26c
 874 0253 06       		.uleb128 0x6
 875 0254 73030000 		.4byte	.LASF30
 876 0258 06       		.byte	0x6
 877 0259 62       		.byte	0x62
 878 025a 6C020000 		.4byte	0x26c
 879 025e 00       		.byte	0
 880 025f 06       		.uleb128 0x6
 881 0260 0C040000 		.4byte	.LASF31
 882 0264 06       		.byte	0x6
 883 0265 64       		.byte	0x64
 884 0266 6C020000 		.4byte	0x26c
 885 026a 04       		.byte	0x4
 886 026b 00       		.byte	0
 887 026c 09       		.uleb128 0x9
 888 026d 04       		.byte	0x4
 889 026e 43010000 		.4byte	0x143
 890 0272 03       		.uleb128 0x3
 891 0273 8A030000 		.4byte	.LASF49
 892 0277 06       		.byte	0x6
 893 0278 66       		.byte	0x66
 894 0279 4B020000 		.4byte	0x24b
 895 027d 08       		.uleb128 0x8
 896 027e 04       		.byte	0x4
 897 027f 06       		.byte	0x6
 898 0280 6B       		.byte	0x6b
 899 0281 92020000 		.4byte	0x292
 900 0285 06       		.uleb128 0x6
ARM GAS  /tmp/ccBf6c0r.s 			page 17


 901 0286 73030000 		.4byte	.LASF30
 902 028a 06       		.byte	0x6
 903 028b 6D       		.byte	0x6d
 904 028c 6C020000 		.4byte	0x26c
 905 0290 00       		.byte	0
 906 0291 00       		.byte	0
 907 0292 03       		.uleb128 0x3
 908 0293 FB020000 		.4byte	.LASF50
 909 0297 06       		.byte	0x6
 910 0298 70       		.byte	0x70
 911 0299 7D020000 		.4byte	0x27d
 912 029d 03       		.uleb128 0x3
 913 029e 1F020000 		.4byte	.LASF51
 914 02a2 08       		.byte	0x8
 915 02a3 E5       		.byte	0xe5
 916 02a4 A8020000 		.4byte	0x2a8
 917 02a8 0A       		.uleb128 0xa
 918 02a9 04       		.byte	0x4
 919 02aa 0B       		.uleb128 0xb
 920 02ab B8050000 		.4byte	.LASF52
 921 02af 24       		.byte	0x24
 922 02b0 08       		.byte	0x8
 923 02b1 0C01     		.2byte	0x10c
 924 02b3 26030000 		.4byte	0x326
 925 02b7 0C       		.uleb128 0xc
 926 02b8 723400   		.ascii	"r4\000"
 927 02bb 08       		.byte	0x8
 928 02bc 1F01     		.2byte	0x11f
 929 02be 9D020000 		.4byte	0x29d
 930 02c2 00       		.byte	0
 931 02c3 0C       		.uleb128 0xc
 932 02c4 723500   		.ascii	"r5\000"
 933 02c7 08       		.byte	0x8
 934 02c8 2001     		.2byte	0x120
 935 02ca 9D020000 		.4byte	0x29d
 936 02ce 04       		.byte	0x4
 937 02cf 0C       		.uleb128 0xc
 938 02d0 723600   		.ascii	"r6\000"
 939 02d3 08       		.byte	0x8
 940 02d4 2101     		.2byte	0x121
 941 02d6 9D020000 		.4byte	0x29d
 942 02da 08       		.byte	0x8
 943 02db 0C       		.uleb128 0xc
 944 02dc 723700   		.ascii	"r7\000"
 945 02df 08       		.byte	0x8
 946 02e0 2201     		.2byte	0x122
 947 02e2 9D020000 		.4byte	0x29d
 948 02e6 0C       		.byte	0xc
 949 02e7 0C       		.uleb128 0xc
 950 02e8 723800   		.ascii	"r8\000"
 951 02eb 08       		.byte	0x8
 952 02ec 2301     		.2byte	0x123
 953 02ee 9D020000 		.4byte	0x29d
 954 02f2 10       		.byte	0x10
 955 02f3 0C       		.uleb128 0xc
 956 02f4 723900   		.ascii	"r9\000"
 957 02f7 08       		.byte	0x8
ARM GAS  /tmp/ccBf6c0r.s 			page 18


 958 02f8 2401     		.2byte	0x124
 959 02fa 9D020000 		.4byte	0x29d
 960 02fe 14       		.byte	0x14
 961 02ff 0C       		.uleb128 0xc
 962 0300 72313000 		.ascii	"r10\000"
 963 0304 08       		.byte	0x8
 964 0305 2501     		.2byte	0x125
 965 0307 9D020000 		.4byte	0x29d
 966 030b 18       		.byte	0x18
 967 030c 0C       		.uleb128 0xc
 968 030d 72313100 		.ascii	"r11\000"
 969 0311 08       		.byte	0x8
 970 0312 2601     		.2byte	0x126
 971 0314 9D020000 		.4byte	0x29d
 972 0318 1C       		.byte	0x1c
 973 0319 0C       		.uleb128 0xc
 974 031a 6C7200   		.ascii	"lr\000"
 975 031d 08       		.byte	0x8
 976 031e 2701     		.2byte	0x127
 977 0320 9D020000 		.4byte	0x29d
 978 0324 20       		.byte	0x20
 979 0325 00       		.byte	0
 980 0326 0B       		.uleb128 0xb
 981 0327 B0050000 		.4byte	.LASF53
 982 032b 04       		.byte	0x4
 983 032c 08       		.byte	0x8
 984 032d 3101     		.2byte	0x131
 985 032f 41030000 		.4byte	0x341
 986 0333 0C       		.uleb128 0xc
 987 0334 72313300 		.ascii	"r13\000"
 988 0338 08       		.byte	0x8
 989 0339 3201     		.2byte	0x132
 990 033b 41030000 		.4byte	0x341
 991 033f 00       		.byte	0
 992 0340 00       		.byte	0
 993 0341 09       		.uleb128 0x9
 994 0342 04       		.byte	0x4
 995 0343 AA020000 		.4byte	0x2aa
 996 0347 0D       		.uleb128 0xd
 997 0348 C3000000 		.4byte	0xc3
 998 034c 04       		.uleb128 0x4
 999 034d 04       		.byte	0x4
 1000 034e 07       		.byte	0x7
 1001 034f 5A030000 		.4byte	.LASF54
 1002 0353 0D       		.uleb128 0xd
 1003 0354 38010000 		.4byte	0x138
 1004 0358 05       		.uleb128 0x5
 1005 0359 6D030000 		.4byte	.LASF55
 1006 035d 10       		.byte	0x10
 1007 035e 09       		.byte	0x9
 1008 035f 2C       		.byte	0x2c
 1009 0360 89030000 		.4byte	0x389
 1010 0364 06       		.uleb128 0x6
 1011 0365 6F010000 		.4byte	.LASF56
 1012 0369 09       		.byte	0x9
 1013 036a 2D       		.byte	0x2d
 1014 036b 72020000 		.4byte	0x272
ARM GAS  /tmp/ccBf6c0r.s 			page 19


 1015 036f 00       		.byte	0
 1016 0370 06       		.uleb128 0x6
 1017 0371 D2060000 		.4byte	.LASF57
 1018 0375 09       		.byte	0x9
 1019 0376 2F       		.byte	0x2f
 1020 0377 6C020000 		.4byte	0x26c
 1021 037b 08       		.byte	0x8
 1022 037c 06       		.uleb128 0x6
 1023 037d 7A050000 		.4byte	.LASF58
 1024 0381 09       		.byte	0x9
 1025 0382 31       		.byte	0x31
 1026 0383 89030000 		.4byte	0x389
 1027 0387 0C       		.byte	0xc
 1028 0388 00       		.byte	0
 1029 0389 09       		.uleb128 0x9
 1030 038a 04       		.byte	0x4
 1031 038b 58030000 		.4byte	0x358
 1032 038f 03       		.uleb128 0x3
 1033 0390 6D030000 		.4byte	.LASF55
 1034 0394 09       		.byte	0x9
 1035 0395 33       		.byte	0x33
 1036 0396 58030000 		.4byte	0x358
 1037 039a 03       		.uleb128 0x3
 1038 039b 6B060000 		.4byte	.LASF59
 1039 039f 0A       		.byte	0xa
 1040 03a0 2C       		.byte	0x2c
 1041 03a1 A5030000 		.4byte	0x3a5
 1042 03a5 05       		.uleb128 0x5
 1043 03a6 6B060000 		.4byte	.LASF59
 1044 03aa 10       		.byte	0x10
 1045 03ab 0A       		.byte	0xa
 1046 03ac 31       		.byte	0x31
 1047 03ad E2030000 		.4byte	0x3e2
 1048 03b1 06       		.uleb128 0x6
 1049 03b2 AA040000 		.4byte	.LASF60
 1050 03b6 0A       		.byte	0xa
 1051 03b7 32       		.byte	0x32
 1052 03b8 E2030000 		.4byte	0x3e2
 1053 03bc 00       		.byte	0
 1054 03bd 06       		.uleb128 0x6
 1055 03be 56040000 		.4byte	.LASF61
 1056 03c2 0A       		.byte	0xa
 1057 03c3 35       		.byte	0x35
 1058 03c4 6C020000 		.4byte	0x26c
 1059 03c8 04       		.byte	0x4
 1060 03c9 06       		.uleb128 0x6
 1061 03ca AA030000 		.4byte	.LASF62
 1062 03ce 0A       		.byte	0xa
 1063 03cf 37       		.byte	0x37
 1064 03d0 22010000 		.4byte	0x122
 1065 03d4 08       		.byte	0x8
 1066 03d5 06       		.uleb128 0x6
 1067 03d6 62040000 		.4byte	.LASF63
 1068 03da 0A       		.byte	0xa
 1069 03db 3A       		.byte	0x3a
 1070 03dc 2D010000 		.4byte	0x12d
 1071 03e0 0C       		.byte	0xc
ARM GAS  /tmp/ccBf6c0r.s 			page 20


 1072 03e1 00       		.byte	0
 1073 03e2 09       		.uleb128 0x9
 1074 03e3 04       		.byte	0x4
 1075 03e4 9A030000 		.4byte	0x39a
 1076 03e8 05       		.uleb128 0x5
 1077 03e9 35020000 		.4byte	.LASF64
 1078 03ed 04       		.byte	0x4
 1079 03ee 0A       		.byte	0xa
 1080 03ef 41       		.byte	0x41
 1081 03f0 01040000 		.4byte	0x401
 1082 03f4 06       		.uleb128 0x6
 1083 03f5 E7050000 		.4byte	.LASF65
 1084 03f9 0A       		.byte	0xa
 1085 03fa 42       		.byte	0x42
 1086 03fb E2030000 		.4byte	0x3e2
 1087 03ff 00       		.byte	0
 1088 0400 00       		.byte	0
 1089 0401 03       		.uleb128 0x3
 1090 0402 35020000 		.4byte	.LASF64
 1091 0406 0A       		.byte	0xa
 1092 0407 45       		.byte	0x45
 1093 0408 E8030000 		.4byte	0x3e8
 1094 040c 0E       		.uleb128 0xe
 1095 040d 04       		.byte	0x4
 1096 040e 07       		.byte	0x7
 1097 040f 96       		.byte	0x96
 1098 0410 41040000 		.4byte	0x441
 1099 0414 0F       		.uleb128 0xf
 1100 0415 18000000 		.4byte	.LASF66
 1101 0419 07       		.byte	0x7
 1102 041a 9D       		.byte	0x9d
 1103 041b 17010000 		.4byte	0x117
 1104 041f 0F       		.uleb128 0xf
 1105 0420 F3000000 		.4byte	.LASF67
 1106 0424 07       		.byte	0x7
 1107 0425 A4       		.byte	0xa4
 1108 0426 17010000 		.4byte	0x117
 1109 042a 0F       		.uleb128 0xf
 1110 042b 79060000 		.4byte	.LASF68
 1111 042f 07       		.byte	0x7
 1112 0430 AB       		.byte	0xab
 1113 0431 A8020000 		.4byte	0x2a8
 1114 0435 0F       		.uleb128 0xf
 1115 0436 9B040000 		.4byte	.LASF69
 1116 043a 07       		.byte	0x7
 1117 043b B2       		.byte	0xb2
 1118 043c 22010000 		.4byte	0x122
 1119 0440 00       		.byte	0
 1120 0441 09       		.uleb128 0x9
 1121 0442 04       		.byte	0x4
 1122 0443 47040000 		.4byte	0x447
 1123 0447 10       		.uleb128 0x10
 1124 0448 4C040000 		.4byte	0x44c
 1125 044c 04       		.uleb128 0x4
 1126 044d 01       		.byte	0x1
 1127 044e 08       		.byte	0x8
 1128 044f 4A050000 		.4byte	.LASF70
ARM GAS  /tmp/ccBf6c0r.s 			page 21


 1129 0453 09       		.uleb128 0x9
 1130 0454 04       		.byte	0x4
 1131 0455 8F030000 		.4byte	0x38f
 1132 0459 09       		.uleb128 0x9
 1133 045a 04       		.byte	0x4
 1134 045b 5F040000 		.4byte	0x45f
 1135 045f 11       		.uleb128 0x11
 1136 0460 17010000 		.4byte	0x117
 1137 0464 6E040000 		.4byte	0x46e
 1138 0468 12       		.uleb128 0x12
 1139 0469 A8020000 		.4byte	0x2a8
 1140 046d 00       		.byte	0
 1141 046e 03       		.uleb128 0x3
 1142 046f 37030000 		.4byte	.LASF71
 1143 0473 0B       		.byte	0xb
 1144 0474 37       		.byte	0x37
 1145 0475 79040000 		.4byte	0x479
 1146 0479 05       		.uleb128 0x5
 1147 047a 37030000 		.4byte	.LASF71
 1148 047e 24       		.byte	0x24
 1149 047f 0B       		.byte	0xb
 1150 0480 45       		.byte	0x45
 1151 0481 E6040000 		.4byte	0x4e6
 1152 0485 06       		.uleb128 0x6
 1153 0486 26010000 		.4byte	.LASF72
 1154 048a 0B       		.byte	0xb
 1155 048b 46       		.byte	0x46
 1156 048c 72020000 		.4byte	0x272
 1157 0490 00       		.byte	0
 1158 0491 06       		.uleb128 0x6
 1159 0492 63030000 		.4byte	.LASF73
 1160 0496 0B       		.byte	0xb
 1161 0497 47       		.byte	0x47
 1162 0498 2C000000 		.4byte	0x2c
 1163 049c 08       		.byte	0x8
 1164 049d 06       		.uleb128 0x6
 1165 049e D7010000 		.4byte	.LASF74
 1166 04a2 0B       		.byte	0xb
 1167 04a3 48       		.byte	0x48
 1168 04a4 08050000 		.4byte	0x508
 1169 04a8 0C       		.byte	0xc
 1170 04a9 06       		.uleb128 0x6
 1171 04aa DA050000 		.4byte	.LASF75
 1172 04ae 0B       		.byte	0xb
 1173 04af 49       		.byte	0x49
 1174 04b0 08050000 		.4byte	0x508
 1175 04b4 10       		.byte	0x10
 1176 04b5 06       		.uleb128 0x6
 1177 04b6 E0010000 		.4byte	.LASF76
 1178 04ba 0B       		.byte	0xb
 1179 04bb 4B       		.byte	0x4b
 1180 04bc 08050000 		.4byte	0x508
 1181 04c0 14       		.byte	0x14
 1182 04c1 06       		.uleb128 0x6
 1183 04c2 25040000 		.4byte	.LASF77
 1184 04c6 0B       		.byte	0xb
 1185 04c7 4C       		.byte	0x4c
ARM GAS  /tmp/ccBf6c0r.s 			page 22


 1186 04c8 08050000 		.4byte	0x508
 1187 04cc 18       		.byte	0x18
 1188 04cd 06       		.uleb128 0x6
 1189 04ce F4050000 		.4byte	.LASF78
 1190 04d2 0B       		.byte	0xb
 1191 04d3 4D       		.byte	0x4d
 1192 04d4 E6040000 		.4byte	0x4e6
 1193 04d8 1C       		.byte	0x1c
 1194 04d9 06       		.uleb128 0x6
 1195 04da CB060000 		.4byte	.LASF79
 1196 04de 0B       		.byte	0xb
 1197 04df 4E       		.byte	0x4e
 1198 04e0 A8020000 		.4byte	0x2a8
 1199 04e4 20       		.byte	0x20
 1200 04e5 00       		.byte	0
 1201 04e6 03       		.uleb128 0x3
 1202 04e7 2D030000 		.4byte	.LASF80
 1203 04eb 0B       		.byte	0xb
 1204 04ec 3A       		.byte	0x3a
 1205 04ed F1040000 		.4byte	0x4f1
 1206 04f1 09       		.uleb128 0x9
 1207 04f2 04       		.byte	0x4
 1208 04f3 F7040000 		.4byte	0x4f7
 1209 04f7 13       		.uleb128 0x13
 1210 04f8 02050000 		.4byte	0x502
 1211 04fc 12       		.uleb128 0x12
 1212 04fd 02050000 		.4byte	0x502
 1213 0501 00       		.byte	0
 1214 0502 09       		.uleb128 0x9
 1215 0503 04       		.byte	0x4
 1216 0504 6E040000 		.4byte	0x46e
 1217 0508 09       		.uleb128 0x9
 1218 0509 04       		.byte	0x4
 1219 050a A2000000 		.4byte	0xa2
 1220 050e 03       		.uleb128 0x3
 1221 050f 13030000 		.4byte	.LASF81
 1222 0513 0B       		.byte	0xb
 1223 0514 82       		.byte	0x82
 1224 0515 6E040000 		.4byte	0x46e
 1225 0519 03       		.uleb128 0x3
 1226 051a 1F000000 		.4byte	.LASF82
 1227 051e 0B       		.byte	0xb
 1228 051f F5       		.byte	0xf5
 1229 0520 6E040000 		.4byte	0x46e
 1230 0524 11       		.uleb128 0x11
 1231 0525 2C000000 		.4byte	0x2c
 1232 0529 3D050000 		.4byte	0x53d
 1233 052d 12       		.uleb128 0x12
 1234 052e A8020000 		.4byte	0x2a8
 1235 0532 12       		.uleb128 0x12
 1236 0533 3D050000 		.4byte	0x53d
 1237 0537 12       		.uleb128 0x12
 1238 0538 2C000000 		.4byte	0x2c
 1239 053c 00       		.byte	0
 1240 053d 09       		.uleb128 0x9
 1241 053e 04       		.byte	0x4
 1242 053f 43050000 		.4byte	0x543
ARM GAS  /tmp/ccBf6c0r.s 			page 23


 1243 0543 10       		.uleb128 0x10
 1244 0544 A2000000 		.4byte	0xa2
 1245 0548 09       		.uleb128 0x9
 1246 0549 04       		.byte	0x4
 1247 054a 24050000 		.4byte	0x524
 1248 054e 11       		.uleb128 0x11
 1249 054f 2C000000 		.4byte	0x2c
 1250 0553 67050000 		.4byte	0x567
 1251 0557 12       		.uleb128 0x12
 1252 0558 A8020000 		.4byte	0x2a8
 1253 055c 12       		.uleb128 0x12
 1254 055d 08050000 		.4byte	0x508
 1255 0561 12       		.uleb128 0x12
 1256 0562 2C000000 		.4byte	0x2c
 1257 0566 00       		.byte	0
 1258 0567 09       		.uleb128 0x9
 1259 0568 04       		.byte	0x4
 1260 0569 4E050000 		.4byte	0x54e
 1261 056d 11       		.uleb128 0x11
 1262 056e 17010000 		.4byte	0x117
 1263 0572 81050000 		.4byte	0x581
 1264 0576 12       		.uleb128 0x12
 1265 0577 A8020000 		.4byte	0x2a8
 1266 057b 12       		.uleb128 0x12
 1267 057c A2000000 		.4byte	0xa2
 1268 0580 00       		.byte	0
 1269 0581 09       		.uleb128 0x9
 1270 0582 04       		.byte	0x4
 1271 0583 6D050000 		.4byte	0x56d
 1272 0587 14       		.uleb128 0x14
 1273 0588 C3000000 		.4byte	0xc3
 1274 058c 97050000 		.4byte	0x597
 1275 0590 15       		.uleb128 0x15
 1276 0591 4C030000 		.4byte	0x34c
 1277 0595 01       		.byte	0x1
 1278 0596 00       		.byte	0
 1279 0597 0D       		.uleb128 0xd
 1280 0598 AD000000 		.4byte	0xad
 1281 059c 0D       		.uleb128 0xd
 1282 059d B8000000 		.4byte	0xb8
 1283 05a1 16       		.uleb128 0x16
 1284 05a2 90       		.byte	0x90
 1285 05a3 0C       		.byte	0xc
 1286 05a4 5804     		.2byte	0x458
 1287 05a6 4A070000 		.4byte	0x74a
 1288 05aa 0C       		.uleb128 0xc
 1289 05ab 435200   		.ascii	"CR\000"
 1290 05ae 0C       		.byte	0xc
 1291 05af 5A04     		.2byte	0x45a
 1292 05b1 47030000 		.4byte	0x347
 1293 05b5 00       		.byte	0
 1294 05b6 17       		.uleb128 0x17
 1295 05b7 0C020000 		.4byte	.LASF83
 1296 05bb 0C       		.byte	0xc
 1297 05bc 5B04     		.2byte	0x45b
 1298 05be 47030000 		.4byte	0x347
 1299 05c2 04       		.byte	0x4
ARM GAS  /tmp/ccBf6c0r.s 			page 24


 1300 05c3 17       		.uleb128 0x17
 1301 05c4 88060000 		.4byte	.LASF84
 1302 05c8 0C       		.byte	0xc
 1303 05c9 5C04     		.2byte	0x45c
 1304 05cb 47030000 		.4byte	0x347
 1305 05cf 08       		.byte	0x8
 1306 05d0 0C       		.uleb128 0xc
 1307 05d1 43495200 		.ascii	"CIR\000"
 1308 05d5 0C       		.byte	0xc
 1309 05d6 5D04     		.2byte	0x45d
 1310 05d8 47030000 		.4byte	0x347
 1311 05dc 0C       		.byte	0xc
 1312 05dd 17       		.uleb128 0x17
 1313 05de 52010000 		.4byte	.LASF85
 1314 05e2 0C       		.byte	0xc
 1315 05e3 5E04     		.2byte	0x45e
 1316 05e5 47030000 		.4byte	0x347
 1317 05e9 10       		.byte	0x10
 1318 05ea 17       		.uleb128 0x17
 1319 05eb 71050000 		.4byte	.LASF86
 1320 05ef 0C       		.byte	0xc
 1321 05f0 5F04     		.2byte	0x45f
 1322 05f2 47030000 		.4byte	0x347
 1323 05f6 14       		.byte	0x14
 1324 05f7 17       		.uleb128 0x17
 1325 05f8 C2040000 		.4byte	.LASF87
 1326 05fc 0C       		.byte	0xc
 1327 05fd 6004     		.2byte	0x460
 1328 05ff 47030000 		.4byte	0x347
 1329 0603 18       		.byte	0x18
 1330 0604 17       		.uleb128 0x17
 1331 0605 DA030000 		.4byte	.LASF88
 1332 0609 0C       		.byte	0xc
 1333 060a 6104     		.2byte	0x461
 1334 060c C3000000 		.4byte	0xc3
 1335 0610 1C       		.byte	0x1c
 1336 0611 17       		.uleb128 0x17
 1337 0612 A1030000 		.4byte	.LASF89
 1338 0616 0C       		.byte	0xc
 1339 0617 6204     		.2byte	0x462
 1340 0619 47030000 		.4byte	0x347
 1341 061d 20       		.byte	0x20
 1342 061e 17       		.uleb128 0x17
 1343 061f AB010000 		.4byte	.LASF90
 1344 0623 0C       		.byte	0xc
 1345 0624 6304     		.2byte	0x463
 1346 0626 47030000 		.4byte	0x347
 1347 062a 24       		.byte	0x24
 1348 062b 17       		.uleb128 0x17
 1349 062c E4030000 		.4byte	.LASF91
 1350 0630 0C       		.byte	0xc
 1351 0631 6404     		.2byte	0x464
 1352 0633 87050000 		.4byte	0x587
 1353 0637 28       		.byte	0x28
 1354 0638 17       		.uleb128 0x17
 1355 0639 80060000 		.4byte	.LASF92
 1356 063d 0C       		.byte	0xc
ARM GAS  /tmp/ccBf6c0r.s 			page 25


 1357 063e 6504     		.2byte	0x465
 1358 0640 47030000 		.4byte	0x347
 1359 0644 30       		.byte	0x30
 1360 0645 17       		.uleb128 0x17
 1361 0646 A8050000 		.4byte	.LASF93
 1362 064a 0C       		.byte	0xc
 1363 064b 6604     		.2byte	0x466
 1364 064d 47030000 		.4byte	0x347
 1365 0651 34       		.byte	0x34
 1366 0652 17       		.uleb128 0x17
 1367 0653 7A030000 		.4byte	.LASF94
 1368 0657 0C       		.byte	0xc
 1369 0658 6704     		.2byte	0x467
 1370 065a 47030000 		.4byte	0x347
 1371 065e 38       		.byte	0x38
 1372 065f 17       		.uleb128 0x17
 1373 0660 EE030000 		.4byte	.LASF95
 1374 0664 0C       		.byte	0xc
 1375 0665 6804     		.2byte	0x468
 1376 0667 C3000000 		.4byte	0xc3
 1377 066b 3C       		.byte	0x3c
 1378 066c 17       		.uleb128 0x17
 1379 066d A0050000 		.4byte	.LASF96
 1380 0671 0C       		.byte	0xc
 1381 0672 6904     		.2byte	0x469
 1382 0674 47030000 		.4byte	0x347
 1383 0678 40       		.byte	0x40
 1384 0679 17       		.uleb128 0x17
 1385 067a BA040000 		.4byte	.LASF97
 1386 067e 0C       		.byte	0xc
 1387 067f 6A04     		.2byte	0x46a
 1388 0681 47030000 		.4byte	0x347
 1389 0685 44       		.byte	0x44
 1390 0686 17       		.uleb128 0x17
 1391 0687 F8030000 		.4byte	.LASF98
 1392 068b 0C       		.byte	0xc
 1393 068c 6B04     		.2byte	0x46b
 1394 068e 87050000 		.4byte	0x587
 1395 0692 48       		.byte	0x48
 1396 0693 17       		.uleb128 0x17
 1397 0694 09010000 		.4byte	.LASF99
 1398 0698 0C       		.byte	0xc
 1399 0699 6C04     		.2byte	0x46c
 1400 069b 47030000 		.4byte	0x347
 1401 069f 50       		.byte	0x50
 1402 06a0 17       		.uleb128 0x17
 1403 06a1 97030000 		.4byte	.LASF100
 1404 06a5 0C       		.byte	0xc
 1405 06a6 6D04     		.2byte	0x46d
 1406 06a8 47030000 		.4byte	0x347
 1407 06ac 54       		.byte	0x54
 1408 06ad 17       		.uleb128 0x17
 1409 06ae 91040000 		.4byte	.LASF101
 1410 06b2 0C       		.byte	0xc
 1411 06b3 6E04     		.2byte	0x46e
 1412 06b5 47030000 		.4byte	0x347
 1413 06b9 58       		.byte	0x58
ARM GAS  /tmp/ccBf6c0r.s 			page 26


 1414 06ba 17       		.uleb128 0x17
 1415 06bb 02040000 		.4byte	.LASF102
 1416 06bf 0C       		.byte	0xc
 1417 06c0 6F04     		.2byte	0x46f
 1418 06c2 C3000000 		.4byte	0xc3
 1419 06c6 5C       		.byte	0x5c
 1420 06c7 17       		.uleb128 0x17
 1421 06c8 B4010000 		.4byte	.LASF103
 1422 06cc 0C       		.byte	0xc
 1423 06cd 7004     		.2byte	0x470
 1424 06cf 47030000 		.4byte	0x347
 1425 06d3 60       		.byte	0x60
 1426 06d4 17       		.uleb128 0x17
 1427 06d5 F1020000 		.4byte	.LASF104
 1428 06d9 0C       		.byte	0xc
 1429 06da 7104     		.2byte	0x471
 1430 06dc 47030000 		.4byte	0x347
 1431 06e0 64       		.byte	0x64
 1432 06e1 17       		.uleb128 0x17
 1433 06e2 F7040000 		.4byte	.LASF105
 1434 06e6 0C       		.byte	0xc
 1435 06e7 7204     		.2byte	0x472
 1436 06e9 87050000 		.4byte	0x587
 1437 06ed 68       		.byte	0x68
 1438 06ee 17       		.uleb128 0x17
 1439 06ef EF050000 		.4byte	.LASF106
 1440 06f3 0C       		.byte	0xc
 1441 06f4 7304     		.2byte	0x473
 1442 06f6 47030000 		.4byte	0x347
 1443 06fa 70       		.byte	0x70
 1444 06fb 0C       		.uleb128 0xc
 1445 06fc 43535200 		.ascii	"CSR\000"
 1446 0700 0C       		.byte	0xc
 1447 0701 7404     		.2byte	0x474
 1448 0703 47030000 		.4byte	0x347
 1449 0707 74       		.byte	0x74
 1450 0708 17       		.uleb128 0x17
 1451 0709 13040000 		.4byte	.LASF107
 1452 070d 0C       		.byte	0xc
 1453 070e 7504     		.2byte	0x475
 1454 0710 87050000 		.4byte	0x587
 1455 0714 78       		.byte	0x78
 1456 0715 17       		.uleb128 0x17
 1457 0716 D4050000 		.4byte	.LASF108
 1458 071a 0C       		.byte	0xc
 1459 071b 7604     		.2byte	0x476
 1460 071d 47030000 		.4byte	0x347
 1461 0721 80       		.byte	0x80
 1462 0722 17       		.uleb128 0x17
 1463 0723 A9020000 		.4byte	.LASF109
 1464 0727 0C       		.byte	0xc
 1465 0728 7704     		.2byte	0x477
 1466 072a 47030000 		.4byte	0x347
 1467 072e 84       		.byte	0x84
 1468 072f 17       		.uleb128 0x17
 1469 0730 C7030000 		.4byte	.LASF110
 1470 0734 0C       		.byte	0xc
ARM GAS  /tmp/ccBf6c0r.s 			page 27


 1471 0735 7804     		.2byte	0x478
 1472 0737 47030000 		.4byte	0x347
 1473 073b 88       		.byte	0x88
 1474 073c 17       		.uleb128 0x17
 1475 073d 30010000 		.4byte	.LASF111
 1476 0741 0C       		.byte	0xc
 1477 0742 7904     		.2byte	0x479
 1478 0744 47030000 		.4byte	0x347
 1479 0748 8C       		.byte	0x8c
 1480 0749 00       		.byte	0
 1481 074a 18       		.uleb128 0x18
 1482 074b 81010000 		.4byte	.LASF112
 1483 074f 0C       		.byte	0xc
 1484 0750 7B04     		.2byte	0x47b
 1485 0752 A1050000 		.4byte	0x5a1
 1486 0756 16       		.uleb128 0x16
 1487 0757 1C       		.byte	0x1c
 1488 0758 0C       		.byte	0xc
 1489 0759 2905     		.2byte	0x529
 1490 075b 14080000 		.4byte	0x814
 1491 075f 0C       		.uleb128 0xc
 1492 0760 535200   		.ascii	"SR\000"
 1493 0763 0C       		.byte	0xc
 1494 0764 2B05     		.2byte	0x52b
 1495 0766 97050000 		.4byte	0x597
 1496 076a 00       		.byte	0
 1497 076b 17       		.uleb128 0x17
 1498 076c DA030000 		.4byte	.LASF88
 1499 0770 0C       		.byte	0xc
 1500 0771 2C05     		.2byte	0x52c
 1501 0773 AD000000 		.4byte	0xad
 1502 0777 02       		.byte	0x2
 1503 0778 0C       		.uleb128 0xc
 1504 0779 445200   		.ascii	"DR\000"
 1505 077c 0C       		.byte	0xc
 1506 077d 2D05     		.2byte	0x52d
 1507 077f 97050000 		.4byte	0x597
 1508 0783 04       		.byte	0x4
 1509 0784 17       		.uleb128 0x17
 1510 0785 E4030000 		.4byte	.LASF91
 1511 0789 0C       		.byte	0xc
 1512 078a 2E05     		.2byte	0x52e
 1513 078c AD000000 		.4byte	0xad
 1514 0790 06       		.byte	0x6
 1515 0791 0C       		.uleb128 0xc
 1516 0792 42525200 		.ascii	"BRR\000"
 1517 0796 0C       		.byte	0xc
 1518 0797 2F05     		.2byte	0x52f
 1519 0799 97050000 		.4byte	0x597
 1520 079d 08       		.byte	0x8
 1521 079e 17       		.uleb128 0x17
 1522 079f EE030000 		.4byte	.LASF95
 1523 07a3 0C       		.byte	0xc
 1524 07a4 3005     		.2byte	0x530
 1525 07a6 AD000000 		.4byte	0xad
 1526 07aa 0A       		.byte	0xa
 1527 07ab 0C       		.uleb128 0xc
ARM GAS  /tmp/ccBf6c0r.s 			page 28


 1528 07ac 43523100 		.ascii	"CR1\000"
 1529 07b0 0C       		.byte	0xc
 1530 07b1 3105     		.2byte	0x531
 1531 07b3 97050000 		.4byte	0x597
 1532 07b7 0C       		.byte	0xc
 1533 07b8 17       		.uleb128 0x17
 1534 07b9 F8030000 		.4byte	.LASF98
 1535 07bd 0C       		.byte	0xc
 1536 07be 3205     		.2byte	0x532
 1537 07c0 AD000000 		.4byte	0xad
 1538 07c4 0E       		.byte	0xe
 1539 07c5 0C       		.uleb128 0xc
 1540 07c6 43523200 		.ascii	"CR2\000"
 1541 07ca 0C       		.byte	0xc
 1542 07cb 3305     		.2byte	0x533
 1543 07cd 97050000 		.4byte	0x597
 1544 07d1 10       		.byte	0x10
 1545 07d2 17       		.uleb128 0x17
 1546 07d3 02040000 		.4byte	.LASF102
 1547 07d7 0C       		.byte	0xc
 1548 07d8 3405     		.2byte	0x534
 1549 07da AD000000 		.4byte	0xad
 1550 07de 12       		.byte	0x12
 1551 07df 0C       		.uleb128 0xc
 1552 07e0 43523300 		.ascii	"CR3\000"
 1553 07e4 0C       		.byte	0xc
 1554 07e5 3505     		.2byte	0x535
 1555 07e7 97050000 		.4byte	0x597
 1556 07eb 14       		.byte	0x14
 1557 07ec 17       		.uleb128 0x17
 1558 07ed F7040000 		.4byte	.LASF105
 1559 07f1 0C       		.byte	0xc
 1560 07f2 3605     		.2byte	0x536
 1561 07f4 AD000000 		.4byte	0xad
 1562 07f8 16       		.byte	0x16
 1563 07f9 17       		.uleb128 0x17
 1564 07fa 5B010000 		.4byte	.LASF113
 1565 07fe 0C       		.byte	0xc
 1566 07ff 3705     		.2byte	0x537
 1567 0801 97050000 		.4byte	0x597
 1568 0805 18       		.byte	0x18
 1569 0806 17       		.uleb128 0x17
 1570 0807 13040000 		.4byte	.LASF107
 1571 080b 0C       		.byte	0xc
 1572 080c 3805     		.2byte	0x538
 1573 080e AD000000 		.4byte	0xad
 1574 0812 1A       		.byte	0x1a
 1575 0813 00       		.byte	0
 1576 0814 18       		.uleb128 0x18
 1577 0815 D4020000 		.4byte	.LASF114
 1578 0819 0C       		.byte	0xc
 1579 081a 3905     		.2byte	0x539
 1580 081c 56070000 		.4byte	0x756
 1581 0820 11       		.uleb128 0x11
 1582 0821 17010000 		.4byte	0x117
 1583 0825 39080000 		.4byte	0x839
 1584 0829 12       		.uleb128 0x12
ARM GAS  /tmp/ccBf6c0r.s 			page 29


 1585 082a A8020000 		.4byte	0x2a8
 1586 082e 12       		.uleb128 0x12
 1587 082f A2000000 		.4byte	0xa2
 1588 0833 12       		.uleb128 0x12
 1589 0834 38010000 		.4byte	0x138
 1590 0838 00       		.byte	0
 1591 0839 09       		.uleb128 0x9
 1592 083a 04       		.byte	0x4
 1593 083b 20080000 		.4byte	0x820
 1594 083f 11       		.uleb128 0x11
 1595 0840 17010000 		.4byte	0x117
 1596 0844 53080000 		.4byte	0x853
 1597 0848 12       		.uleb128 0x12
 1598 0849 A8020000 		.4byte	0x2a8
 1599 084d 12       		.uleb128 0x12
 1600 084e 38010000 		.4byte	0x138
 1601 0852 00       		.byte	0
 1602 0853 09       		.uleb128 0x9
 1603 0854 04       		.byte	0x4
 1604 0855 3F080000 		.4byte	0x83f
 1605 0859 11       		.uleb128 0x11
 1606 085a 2C000000 		.4byte	0x2c
 1607 085e 77080000 		.4byte	0x877
 1608 0862 12       		.uleb128 0x12
 1609 0863 A8020000 		.4byte	0x2a8
 1610 0867 12       		.uleb128 0x12
 1611 0868 3D050000 		.4byte	0x53d
 1612 086c 12       		.uleb128 0x12
 1613 086d 2C000000 		.4byte	0x2c
 1614 0871 12       		.uleb128 0x12
 1615 0872 38010000 		.4byte	0x138
 1616 0876 00       		.byte	0
 1617 0877 09       		.uleb128 0x9
 1618 0878 04       		.byte	0x4
 1619 0879 59080000 		.4byte	0x859
 1620 087d 11       		.uleb128 0x11
 1621 087e 2C000000 		.4byte	0x2c
 1622 0882 9B080000 		.4byte	0x89b
 1623 0886 12       		.uleb128 0x12
 1624 0887 A8020000 		.4byte	0x2a8
 1625 088b 12       		.uleb128 0x12
 1626 088c 08050000 		.4byte	0x508
 1627 0890 12       		.uleb128 0x12
 1628 0891 2C000000 		.4byte	0x2c
 1629 0895 12       		.uleb128 0x12
 1630 0896 38010000 		.4byte	0x138
 1631 089a 00       		.byte	0
 1632 089b 09       		.uleb128 0x9
 1633 089c 04       		.byte	0x4
 1634 089d 7D080000 		.4byte	0x87d
 1635 08a1 19       		.uleb128 0x19
 1636 08a2 01       		.byte	0x1
 1637 08a3 0D       		.byte	0xd
 1638 08a4 64       		.byte	0x64
 1639 08a5 BC080000 		.4byte	0x8bc
 1640 08a9 1A       		.uleb128 0x1a
 1641 08aa ED040000 		.4byte	.LASF115
ARM GAS  /tmp/ccBf6c0r.s 			page 30


 1642 08ae 00       		.sleb128 0
 1643 08af 1A       		.uleb128 0x1a
 1644 08b0 B2040000 		.4byte	.LASF116
 1645 08b4 01       		.sleb128 1
 1646 08b5 1A       		.uleb128 0x1a
 1647 08b6 BF050000 		.4byte	.LASF117
 1648 08ba 02       		.sleb128 2
 1649 08bb 00       		.byte	0
 1650 08bc 03       		.uleb128 0x3
 1651 08bd 0A050000 		.4byte	.LASF118
 1652 08c1 0D       		.byte	0xd
 1653 08c2 68       		.byte	0x68
 1654 08c3 A1080000 		.4byte	0x8a1
 1655 08c7 03       		.uleb128 0x3
 1656 08c8 14050000 		.4byte	.LASF119
 1657 08cc 0D       		.byte	0xd
 1658 08cd 6D       		.byte	0x6d
 1659 08ce D2080000 		.4byte	0x8d2
 1660 08d2 05       		.uleb128 0x5
 1661 08d3 14050000 		.4byte	.LASF119
 1662 08d7 78       		.byte	0x78
 1663 08d8 0D       		.byte	0xd
 1664 08d9 87       		.byte	0x87
 1665 08da 3D090000 		.4byte	0x93d
 1666 08de 07       		.uleb128 0x7
 1667 08df 766D7400 		.ascii	"vmt\000"
 1668 08e3 0D       		.byte	0xd
 1669 08e4 89       		.byte	0x89
 1670 08e5 EE090000 		.4byte	0x9ee
 1671 08e9 00       		.byte	0
 1672 08ea 06       		.uleb128 0x6
 1673 08eb 90020000 		.4byte	.LASF120
 1674 08ef 0D       		.byte	0xd
 1675 08f0 8A       		.byte	0x8a
 1676 08f1 01040000 		.4byte	0x401
 1677 08f5 04       		.byte	0x4
 1678 08f6 06       		.uleb128 0x6
 1679 08f7 9C010000 		.4byte	.LASF121
 1680 08fb 0D       		.byte	0xd
 1681 08fc 8A       		.byte	0x8a
 1682 08fd BC080000 		.4byte	0x8bc
 1683 0901 08       		.byte	0x8
 1684 0902 06       		.uleb128 0x6
 1685 0903 6D020000 		.4byte	.LASF122
 1686 0907 0D       		.byte	0xd
 1687 0908 8A       		.byte	0x8a
 1688 0909 0E050000 		.4byte	0x50e
 1689 090d 0C       		.byte	0xc
 1690 090e 06       		.uleb128 0x6
 1691 090f BA020000 		.4byte	.LASF123
 1692 0913 0D       		.byte	0xd
 1693 0914 8A       		.byte	0x8a
 1694 0915 19050000 		.4byte	0x519
 1695 0919 30       		.byte	0x30
 1696 091a 07       		.uleb128 0x7
 1697 091b 696200   		.ascii	"ib\000"
 1698 091e 0D       		.byte	0xd
ARM GAS  /tmp/ccBf6c0r.s 			page 31


 1699 091f 8A       		.byte	0x8a
 1700 0920 F9090000 		.4byte	0x9f9
 1701 0924 54       		.byte	0x54
 1702 0925 07       		.uleb128 0x7
 1703 0926 6F6200   		.ascii	"ob\000"
 1704 0929 0D       		.byte	0xd
 1705 092a 8A       		.byte	0x8a
 1706 092b F9090000 		.4byte	0x9f9
 1707 092f 64       		.byte	0x64
 1708 0930 06       		.uleb128 0x6
 1709 0931 41020000 		.4byte	.LASF124
 1710 0935 0D       		.byte	0xd
 1711 0936 8A       		.byte	0x8a
 1712 0937 090A0000 		.4byte	0xa09
 1713 093b 74       		.byte	0x74
 1714 093c 00       		.byte	0
 1715 093d 08       		.uleb128 0x8
 1716 093e 0C       		.byte	0xc
 1717 093f 0E       		.byte	0xe
 1718 0940 D7       		.byte	0xd7
 1719 0941 76090000 		.4byte	0x976
 1720 0945 06       		.uleb128 0x6
 1721 0946 1E030000 		.4byte	.LASF125
 1722 094a 0E       		.byte	0xe
 1723 094b DB       		.byte	0xdb
 1724 094c C3000000 		.4byte	0xc3
 1725 0950 00       		.byte	0
 1726 0951 07       		.uleb128 0x7
 1727 0952 63723100 		.ascii	"cr1\000"
 1728 0956 0E       		.byte	0xe
 1729 0957 E0       		.byte	0xe0
 1730 0958 AD000000 		.4byte	0xad
 1731 095c 04       		.byte	0x4
 1732 095d 07       		.uleb128 0x7
 1733 095e 63723200 		.ascii	"cr2\000"
 1734 0962 0E       		.byte	0xe
 1735 0963 E4       		.byte	0xe4
 1736 0964 AD000000 		.4byte	0xad
 1737 0968 06       		.byte	0x6
 1738 0969 07       		.uleb128 0x7
 1739 096a 63723300 		.ascii	"cr3\000"
 1740 096e 0E       		.byte	0xe
 1741 096f E8       		.byte	0xe8
 1742 0970 AD000000 		.4byte	0xad
 1743 0974 08       		.byte	0x8
 1744 0975 00       		.byte	0
 1745 0976 03       		.uleb128 0x3
 1746 0977 B2030000 		.4byte	.LASF126
 1747 097b 0E       		.byte	0xe
 1748 097c E9       		.byte	0xe9
 1749 097d 3D090000 		.4byte	0x93d
 1750 0981 05       		.uleb128 0x5
 1751 0982 5D020000 		.4byte	.LASF127
 1752 0986 20       		.byte	0x20
 1753 0987 0D       		.byte	0xd
 1754 0988 7C       		.byte	0x7c
 1755 0989 EE090000 		.4byte	0x9ee
ARM GAS  /tmp/ccBf6c0r.s 			page 32


 1756 098d 06       		.uleb128 0x6
 1757 098e 44030000 		.4byte	.LASF128
 1758 0992 0D       		.byte	0xd
 1759 0993 7D       		.byte	0x7d
 1760 0994 48050000 		.4byte	0x548
 1761 0998 00       		.byte	0
 1762 0999 06       		.uleb128 0x6
 1763 099a 45050000 		.4byte	.LASF129
 1764 099e 0D       		.byte	0xd
 1765 099f 7D       		.byte	0x7d
 1766 09a0 67050000 		.4byte	0x567
 1767 09a4 04       		.byte	0x4
 1768 09a5 07       		.uleb128 0x7
 1769 09a6 70757400 		.ascii	"put\000"
 1770 09aa 0D       		.byte	0xd
 1771 09ab 7D       		.byte	0x7d
 1772 09ac 81050000 		.4byte	0x581
 1773 09b0 08       		.byte	0x8
 1774 09b1 07       		.uleb128 0x7
 1775 09b2 67657400 		.ascii	"get\000"
 1776 09b6 0D       		.byte	0xd
 1777 09b7 7D       		.byte	0x7d
 1778 09b8 59040000 		.4byte	0x459
 1779 09bc 0C       		.byte	0xc
 1780 09bd 06       		.uleb128 0x6
 1781 09be 4A030000 		.4byte	.LASF130
 1782 09c2 0D       		.byte	0xd
 1783 09c3 7D       		.byte	0x7d
 1784 09c4 39080000 		.4byte	0x839
 1785 09c8 10       		.byte	0x10
 1786 09c9 06       		.uleb128 0x6
 1787 09ca 8B020000 		.4byte	.LASF131
 1788 09ce 0D       		.byte	0xd
 1789 09cf 7D       		.byte	0x7d
 1790 09d0 53080000 		.4byte	0x853
 1791 09d4 14       		.byte	0x14
 1792 09d5 06       		.uleb128 0x6
 1793 09d6 E2020000 		.4byte	.LASF132
 1794 09da 0D       		.byte	0xd
 1795 09db 7D       		.byte	0x7d
 1796 09dc 77080000 		.4byte	0x877
 1797 09e0 18       		.byte	0x18
 1798 09e1 06       		.uleb128 0x6
 1799 09e2 20010000 		.4byte	.LASF133
 1800 09e6 0D       		.byte	0xd
 1801 09e7 7D       		.byte	0x7d
 1802 09e8 9B080000 		.4byte	0x89b
 1803 09ec 1C       		.byte	0x1c
 1804 09ed 00       		.byte	0
 1805 09ee 09       		.uleb128 0x9
 1806 09ef 04       		.byte	0x4
 1807 09f0 F4090000 		.4byte	0x9f4
 1808 09f4 10       		.uleb128 0x10
 1809 09f5 81090000 		.4byte	0x981
 1810 09f9 14       		.uleb128 0x14
 1811 09fa A2000000 		.4byte	0xa2
 1812 09fe 090A0000 		.4byte	0xa09
ARM GAS  /tmp/ccBf6c0r.s 			page 33


 1813 0a02 15       		.uleb128 0x15
 1814 0a03 4C030000 		.4byte	0x34c
 1815 0a07 0F       		.byte	0xf
 1816 0a08 00       		.byte	0
 1817 0a09 09       		.uleb128 0x9
 1818 0a0a 04       		.byte	0x4
 1819 0a0b 14080000 		.4byte	0x814
 1820 0a0f 09       		.uleb128 0x9
 1821 0a10 04       		.byte	0x4
 1822 0a11 19050000 		.4byte	0x519
 1823 0a15 1B       		.uleb128 0x1b
 1824 0a16 4F030000 		.4byte	.LASF135
 1825 0a1a 01       		.byte	0x1
 1826 0a1b 5C       		.byte	0x5c
 1827 0a1c 01       		.byte	0x1
 1828 0a1d 410A0000 		.4byte	0xa41
 1829 0a21 1C       		.uleb128 0x1c
 1830 0a22 73647000 		.ascii	"sdp\000"
 1831 0a26 01       		.byte	0x1
 1832 0a27 5C       		.byte	0x5c
 1833 0a28 410A0000 		.4byte	0xa41
 1834 0a2c 1D       		.uleb128 0x1d
 1835 0a2d 5F050000 		.4byte	.LASF134
 1836 0a31 01       		.byte	0x1
 1837 0a32 5C       		.byte	0x5c
 1838 0a33 470A0000 		.4byte	0xa47
 1839 0a37 1E       		.uleb128 0x1e
 1840 0a38 7500     		.ascii	"u\000"
 1841 0a3a 01       		.byte	0x1
 1842 0a3b 5D       		.byte	0x5d
 1843 0a3c 090A0000 		.4byte	0xa09
 1844 0a40 00       		.byte	0
 1845 0a41 09       		.uleb128 0x9
 1846 0a42 04       		.byte	0x4
 1847 0a43 C7080000 		.4byte	0x8c7
 1848 0a47 09       		.uleb128 0x9
 1849 0a48 04       		.byte	0x4
 1850 0a49 4D0A0000 		.4byte	0xa4d
 1851 0a4d 10       		.uleb128 0x10
 1852 0a4e 76090000 		.4byte	0x976
 1853 0a52 1B       		.uleb128 0x1b
 1854 0a53 28020000 		.4byte	.LASF136
 1855 0a57 01       		.byte	0x1
 1856 0a58 7A       		.byte	0x7a
 1857 0a59 01       		.byte	0x1
 1858 0a5a 680A0000 		.4byte	0xa68
 1859 0a5e 1C       		.uleb128 0x1c
 1860 0a5f 7500     		.ascii	"u\000"
 1861 0a61 01       		.byte	0x1
 1862 0a62 7A       		.byte	0x7a
 1863 0a63 090A0000 		.4byte	0xa09
 1864 0a67 00       		.byte	0
 1865 0a68 1B       		.uleb128 0x1b
 1866 0a69 D2040000 		.4byte	.LASF137
 1867 0a6d 01       		.byte	0x1
 1868 0a6e 9A       		.byte	0x9a
 1869 0a6f 01       		.byte	0x1
ARM GAS  /tmp/ccBf6c0r.s 			page 34


 1870 0a70 2D0B0000 		.4byte	0xb2d
 1871 0a74 1C       		.uleb128 0x1c
 1872 0a75 73647000 		.ascii	"sdp\000"
 1873 0a79 01       		.byte	0x1
 1874 0a7a 9A       		.byte	0x9a
 1875 0a7b 410A0000 		.4byte	0xa41
 1876 0a7f 1E       		.uleb128 0x1e
 1877 0a80 7500     		.ascii	"u\000"
 1878 0a82 01       		.byte	0x1
 1879 0a83 9B       		.byte	0x9b
 1880 0a84 090A0000 		.4byte	0xa09
 1881 0a88 1E       		.uleb128 0x1e
 1882 0a89 63723100 		.ascii	"cr1\000"
 1883 0a8d 01       		.byte	0x1
 1884 0a8e 9C       		.byte	0x9c
 1885 0a8f AD000000 		.4byte	0xad
 1886 0a93 1E       		.uleb128 0x1e
 1887 0a94 737200   		.ascii	"sr\000"
 1888 0a97 01       		.byte	0x1
 1889 0a98 9D       		.byte	0x9d
 1890 0a99 AD000000 		.4byte	0xad
 1891 0a9d 1F       		.uleb128 0x1f
 1892 0a9e AE0A0000 		.4byte	0xaae
 1893 0aa2 1E       		.uleb128 0x1e
 1894 0aa3 746D7000 		.ascii	"tmp\000"
 1895 0aa7 01       		.byte	0x1
 1896 0aa8 A1       		.byte	0xa1
 1897 0aa9 C3000000 		.4byte	0xc3
 1898 0aad 00       		.byte	0
 1899 0aae 1F       		.uleb128 0x1f
 1900 0aaf BF0A0000 		.4byte	0xabf
 1901 0ab3 1E       		.uleb128 0x1e
 1902 0ab4 746D7000 		.ascii	"tmp\000"
 1903 0ab8 01       		.byte	0x1
 1904 0ab9 A3       		.byte	0xa3
 1905 0aba C3000000 		.4byte	0xc3
 1906 0abe 00       		.byte	0
 1907 0abf 1F       		.uleb128 0x1f
 1908 0ac0 D00A0000 		.4byte	0xad0
 1909 0ac4 1E       		.uleb128 0x1e
 1910 0ac5 746D7000 		.ascii	"tmp\000"
 1911 0ac9 01       		.byte	0x1
 1912 0aca A8       		.byte	0xa8
 1913 0acb C3000000 		.4byte	0xc3
 1914 0acf 00       		.byte	0
 1915 0ad0 1F       		.uleb128 0x1f
 1916 0ad1 E10A0000 		.4byte	0xae1
 1917 0ad5 1E       		.uleb128 0x1e
 1918 0ad6 746D7000 		.ascii	"tmp\000"
 1919 0ada 01       		.byte	0x1
 1920 0adb B0       		.byte	0xb0
 1921 0adc C3000000 		.4byte	0xc3
 1922 0ae0 00       		.byte	0
 1923 0ae1 1F       		.uleb128 0x1f
 1924 0ae2 0E0B0000 		.4byte	0xb0e
 1925 0ae6 1E       		.uleb128 0x1e
 1926 0ae7 6200     		.ascii	"b\000"
ARM GAS  /tmp/ccBf6c0r.s 			page 35


 1927 0ae9 01       		.byte	0x1
 1928 0aea B4       		.byte	0xb4
 1929 0aeb 17010000 		.4byte	0x117
 1930 0aef 1F       		.uleb128 0x1f
 1931 0af0 000B0000 		.4byte	0xb00
 1932 0af4 1E       		.uleb128 0x1e
 1933 0af5 746D7000 		.ascii	"tmp\000"
 1934 0af9 01       		.byte	0x1
 1935 0afa B5       		.byte	0xb5
 1936 0afb C3000000 		.4byte	0xc3
 1937 0aff 00       		.byte	0
 1938 0b00 20       		.uleb128 0x20
 1939 0b01 1E       		.uleb128 0x1e
 1940 0b02 746D7000 		.ascii	"tmp\000"
 1941 0b06 01       		.byte	0x1
 1942 0b07 BD       		.byte	0xbd
 1943 0b08 C3000000 		.4byte	0xc3
 1944 0b0c 00       		.byte	0
 1945 0b0d 00       		.byte	0
 1946 0b0e 1F       		.uleb128 0x1f
 1947 0b0f 1F0B0000 		.4byte	0xb1f
 1948 0b13 1E       		.uleb128 0x1e
 1949 0b14 746D7000 		.ascii	"tmp\000"
 1950 0b18 01       		.byte	0x1
 1951 0b19 C2       		.byte	0xc2
 1952 0b1a C3000000 		.4byte	0xc3
 1953 0b1e 00       		.byte	0
 1954 0b1f 20       		.uleb128 0x20
 1955 0b20 1E       		.uleb128 0x1e
 1956 0b21 746D7000 		.ascii	"tmp\000"
 1957 0b25 01       		.byte	0x1
 1958 0b26 C7       		.byte	0xc7
 1959 0b27 C3000000 		.4byte	0xc3
 1960 0b2b 00       		.byte	0
 1961 0b2c 00       		.byte	0
 1962 0b2d 21       		.uleb128 0x21
 1963 0b2e BF030000 		.4byte	.LASF151
 1964 0b32 01       		.byte	0x1
 1965 0b33 D4       		.byte	0xd4
 1966 0b34 00000000 		.4byte	.LFB122
 1967 0b38 14000000 		.4byte	.LFE122-.LFB122
 1968 0b3c 01       		.uleb128 0x1
 1969 0b3d 9C       		.byte	0x9c
 1970 0b3e 4F0B0000 		.4byte	0xb4f
 1971 0b42 22       		.uleb128 0x22
 1972 0b43 717000   		.ascii	"qp\000"
 1973 0b46 01       		.byte	0x1
 1974 0b47 D4       		.byte	0xd4
 1975 0b48 02050000 		.4byte	0x502
 1976 0b4c 01       		.uleb128 0x1
 1977 0b4d 50       		.byte	0x50
 1978 0b4e 00       		.byte	0
 1979 0b4f 1B       		.uleb128 0x1b
 1980 0b50 35000000 		.4byte	.LASF138
 1981 0b54 01       		.byte	0x1
 1982 0b55 87       		.byte	0x87
 1983 0b56 01       		.byte	0x1
ARM GAS  /tmp/ccBf6c0r.s 			page 36


 1984 0b57 7C0B0000 		.4byte	0xb7c
 1985 0b5b 1C       		.uleb128 0x1c
 1986 0b5c 73647000 		.ascii	"sdp\000"
 1987 0b60 01       		.byte	0x1
 1988 0b61 87       		.byte	0x87
 1989 0b62 410A0000 		.4byte	0xa41
 1990 0b66 1C       		.uleb128 0x1c
 1991 0b67 737200   		.ascii	"sr\000"
 1992 0b6a 01       		.byte	0x1
 1993 0b6b 87       		.byte	0x87
 1994 0b6c AD000000 		.4byte	0xad
 1995 0b70 1E       		.uleb128 0x1e
 1996 0b71 73747300 		.ascii	"sts\000"
 1997 0b75 01       		.byte	0x1
 1998 0b76 88       		.byte	0x88
 1999 0b77 2D010000 		.4byte	0x12d
 2000 0b7b 00       		.byte	0
 2001 0b7c 23       		.uleb128 0x23
 2002 0b7d 24030000 		.4byte	.LASF139
 2003 0b81 01       		.byte	0x1
 2004 0b82 1B01     		.2byte	0x11b
 2005 0b84 00000000 		.4byte	.LFB123
 2006 0b88 18010000 		.4byte	.LFE123-.LFB123
 2007 0b8c 01       		.uleb128 0x1
 2008 0b8d 9C       		.byte	0x9c
 2009 0b8e 5A0D0000 		.4byte	0xd5a
 2010 0b92 24       		.uleb128 0x24
 2011 0b93 680A0000 		.4byte	0xa68
 2012 0b97 02000000 		.4byte	.LBB26
 2013 0b9b 00000000 		.4byte	.Ldebug_ranges0+0
 2014 0b9f 01       		.byte	0x1
 2015 0ba0 1F01     		.2byte	0x11f
 2016 0ba2 500D0000 		.4byte	0xd50
 2017 0ba6 25       		.uleb128 0x25
 2018 0ba7 740A0000 		.4byte	0xa74
 2019 0bab 06       		.uleb128 0x6
 2020 0bac 03       		.byte	0x3
 2021 0bad 00000000 		.4byte	SD2
 2022 0bb1 9F       		.byte	0x9f
 2023 0bb2 26       		.uleb128 0x26
 2024 0bb3 00000000 		.4byte	.Ldebug_ranges0+0
 2025 0bb7 27       		.uleb128 0x27
 2026 0bb8 7F0A0000 		.4byte	0xa7f
 2027 0bbc 00000000 		.4byte	.LLST0
 2028 0bc0 27       		.uleb128 0x27
 2029 0bc1 880A0000 		.4byte	0xa88
 2030 0bc5 1E000000 		.4byte	.LLST1
 2031 0bc9 27       		.uleb128 0x27
 2032 0bca 930A0000 		.4byte	0xa93
 2033 0bce 3C000000 		.4byte	.LLST2
 2034 0bd2 28       		.uleb128 0x28
 2035 0bd3 18000000 		.4byte	.LBB28
 2036 0bd7 06000000 		.4byte	.LBE28-.LBB28
 2037 0bdb E70B0000 		.4byte	0xbe7
 2038 0bdf 29       		.uleb128 0x29
 2039 0be0 C40A0000 		.4byte	0xac4
 2040 0be4 01       		.uleb128 0x1
ARM GAS  /tmp/ccBf6c0r.s 			page 37


 2041 0be5 53       		.byte	0x53
 2042 0be6 00       		.byte	0
 2043 0be7 2A       		.uleb128 0x2a
 2044 0be8 4F0B0000 		.4byte	0xb4f
 2045 0bec 40000000 		.4byte	.LBB29
 2046 0bf0 2C000000 		.4byte	.LBE29-.LBB29
 2047 0bf4 01       		.byte	0x1
 2048 0bf5 AC       		.byte	0xac
 2049 0bf6 330C0000 		.4byte	0xc33
 2050 0bfa 2B       		.uleb128 0x2b
 2051 0bfb 660B0000 		.4byte	0xb66
 2052 0bff 65000000 		.4byte	.LLST3
 2053 0c03 2B       		.uleb128 0x2b
 2054 0c04 5B0B0000 		.4byte	0xb5b
 2055 0c08 78000000 		.4byte	.LLST4
 2056 0c0c 2C       		.uleb128 0x2c
 2057 0c0d 40000000 		.4byte	.LBB30
 2058 0c11 2C000000 		.4byte	.LBE30-.LBB30
 2059 0c15 27       		.uleb128 0x27
 2060 0c16 700B0000 		.4byte	0xb70
 2061 0c1a 90000000 		.4byte	.LLST5
 2062 0c1e 2D       		.uleb128 0x2d
 2063 0c1f 6A000000 		.4byte	.LVL14
 2064 0c23 990E0000 		.4byte	0xe99
 2065 0c27 2E       		.uleb128 0x2e
 2066 0c28 01       		.uleb128 0x1
 2067 0c29 50       		.byte	0x50
 2068 0c2a 05       		.uleb128 0x5
 2069 0c2b 03       		.byte	0x3
 2070 0c2c 04000000 		.4byte	.LANCHOR0+4
 2071 0c30 00       		.byte	0
 2072 0c31 00       		.byte	0
 2073 0c32 00       		.byte	0
 2074 0c33 28       		.uleb128 0x28
 2075 0c34 6C000000 		.4byte	.LBB31
 2076 0c38 06000000 		.4byte	.LBE31-.LBB31
 2077 0c3c 480C0000 		.4byte	0xc48
 2078 0c40 29       		.uleb128 0x29
 2079 0c41 D50A0000 		.4byte	0xad5
 2080 0c45 01       		.uleb128 0x1
 2081 0c46 53       		.byte	0x53
 2082 0c47 00       		.byte	0
 2083 0c48 28       		.uleb128 0x28
 2084 0c49 7E000000 		.4byte	.LBB32
 2085 0c4d 06000000 		.4byte	.LBE32-.LBB32
 2086 0c51 5D0C0000 		.4byte	0xc5d
 2087 0c55 29       		.uleb128 0x29
 2088 0c56 130B0000 		.4byte	0xb13
 2089 0c5a 01       		.uleb128 0x1
 2090 0c5b 53       		.byte	0x53
 2091 0c5c 00       		.byte	0
 2092 0c5d 2F       		.uleb128 0x2f
 2093 0c5e 18000000 		.4byte	.Ldebug_ranges0+0x18
 2094 0c62 6E0C0000 		.4byte	0xc6e
 2095 0c66 29       		.uleb128 0x29
 2096 0c67 200B0000 		.4byte	0xb20
 2097 0c6b 01       		.uleb128 0x1
ARM GAS  /tmp/ccBf6c0r.s 			page 38


 2098 0c6c 53       		.byte	0x53
 2099 0c6d 00       		.byte	0
 2100 0c6e 28       		.uleb128 0x28
 2101 0c6f B0000000 		.4byte	.LBB35
 2102 0c73 06000000 		.4byte	.LBE35-.LBB35
 2103 0c77 830C0000 		.4byte	0xc83
 2104 0c7b 29       		.uleb128 0x29
 2105 0c7c A20A0000 		.4byte	0xaa2
 2106 0c80 01       		.uleb128 0x1
 2107 0c81 53       		.byte	0x53
 2108 0c82 00       		.byte	0
 2109 0c83 28       		.uleb128 0x28
 2110 0c84 C0000000 		.4byte	.LBB36
 2111 0c88 06000000 		.4byte	.LBE36-.LBB36
 2112 0c8c 980C0000 		.4byte	0xc98
 2113 0c90 29       		.uleb128 0x29
 2114 0c91 B30A0000 		.4byte	0xab3
 2115 0c95 01       		.uleb128 0x1
 2116 0c96 53       		.byte	0x53
 2117 0c97 00       		.byte	0
 2118 0c98 2F       		.uleb128 0x2f
 2119 0c99 30000000 		.4byte	.Ldebug_ranges0+0x30
 2120 0c9d 040D0000 		.4byte	0xd04
 2121 0ca1 27       		.uleb128 0x27
 2122 0ca2 E60A0000 		.4byte	0xae6
 2123 0ca6 AF000000 		.4byte	.LLST6
 2124 0caa 28       		.uleb128 0x28
 2125 0cab CE000000 		.4byte	.LBB38
 2126 0caf 06000000 		.4byte	.LBE38-.LBB38
 2127 0cb3 BF0C0000 		.4byte	0xcbf
 2128 0cb7 29       		.uleb128 0x29
 2129 0cb8 F40A0000 		.4byte	0xaf4
 2130 0cbc 01       		.uleb128 0x1
 2131 0cbd 53       		.byte	0x53
 2132 0cbe 00       		.byte	0
 2133 0cbf 28       		.uleb128 0x28
 2134 0cc0 E4000000 		.4byte	.LBB39
 2135 0cc4 08000000 		.4byte	.LBE39-.LBB39
 2136 0cc8 D40C0000 		.4byte	0xcd4
 2137 0ccc 29       		.uleb128 0x29
 2138 0ccd 010B0000 		.4byte	0xb01
 2139 0cd1 01       		.uleb128 0x1
 2140 0cd2 53       		.byte	0x53
 2141 0cd3 00       		.byte	0
 2142 0cd4 30       		.uleb128 0x30
 2143 0cd5 DA000000 		.4byte	.LVL20
 2144 0cd9 B50E0000 		.4byte	0xeb5
 2145 0cdd EB0C0000 		.4byte	0xceb
 2146 0ce1 2E       		.uleb128 0x2e
 2147 0ce2 01       		.uleb128 0x1
 2148 0ce3 50       		.byte	0x50
 2149 0ce4 05       		.uleb128 0x5
 2150 0ce5 03       		.byte	0x3
 2151 0ce6 30000000 		.4byte	.LANCHOR0+48
 2152 0cea 00       		.byte	0
 2153 0ceb 2D       		.uleb128 0x2d
 2154 0cec 04010000 		.4byte	.LVL23
ARM GAS  /tmp/ccBf6c0r.s 			page 39


 2155 0cf0 990E0000 		.4byte	0xe99
 2156 0cf4 2E       		.uleb128 0x2e
 2157 0cf5 01       		.uleb128 0x1
 2158 0cf6 51       		.byte	0x51
 2159 0cf7 01       		.uleb128 0x1
 2160 0cf8 38       		.byte	0x38
 2161 0cf9 2E       		.uleb128 0x2e
 2162 0cfa 01       		.uleb128 0x1
 2163 0cfb 50       		.byte	0x50
 2164 0cfc 05       		.uleb128 0x5
 2165 0cfd 03       		.byte	0x3
 2166 0cfe 04000000 		.4byte	.LANCHOR0+4
 2167 0d02 00       		.byte	0
 2168 0d03 00       		.byte	0
 2169 0d04 30       		.uleb128 0x30
 2170 0d05 34000000 		.4byte	.LVL5
 2171 0d09 CB0E0000 		.4byte	0xecb
 2172 0d0d 1B0D0000 		.4byte	0xd1b
 2173 0d11 2E       		.uleb128 0x2e
 2174 0d12 01       		.uleb128 0x1
 2175 0d13 50       		.byte	0x50
 2176 0d14 05       		.uleb128 0x5
 2177 0d15 03       		.byte	0x3
 2178 0d16 00000000 		.4byte	.LANCHOR0
 2179 0d1a 00       		.byte	0
 2180 0d1b 30       		.uleb128 0x30
 2181 0d1c C0000000 		.4byte	.LVL18
 2182 0d20 990E0000 		.4byte	0xe99
 2183 0d24 360D0000 		.4byte	0xd36
 2184 0d28 2E       		.uleb128 0x2e
 2185 0d29 01       		.uleb128 0x1
 2186 0d2a 51       		.byte	0x51
 2187 0d2b 03       		.uleb128 0x3
 2188 0d2c 0A       		.byte	0xa
 2189 0d2d 0002     		.2byte	0x200
 2190 0d2f 2E       		.uleb128 0x2e
 2191 0d30 01       		.uleb128 0x1
 2192 0d31 50       		.byte	0x50
 2193 0d32 02       		.uleb128 0x2
 2194 0d33 76       		.byte	0x76
 2195 0d34 04       		.sleb128 4
 2196 0d35 00       		.byte	0
 2197 0d36 2D       		.uleb128 0x2d
 2198 0d37 FA000000 		.4byte	.LVL22
 2199 0d3b 990E0000 		.4byte	0xe99
 2200 0d3f 2E       		.uleb128 0x2e
 2201 0d40 01       		.uleb128 0x1
 2202 0d41 51       		.byte	0x51
 2203 0d42 01       		.uleb128 0x1
 2204 0d43 40       		.byte	0x40
 2205 0d44 2E       		.uleb128 0x2e
 2206 0d45 01       		.uleb128 0x1
 2207 0d46 50       		.byte	0x50
 2208 0d47 05       		.uleb128 0x5
 2209 0d48 03       		.byte	0x3
 2210 0d49 04000000 		.4byte	.LANCHOR0+4
 2211 0d4d 00       		.byte	0
ARM GAS  /tmp/ccBf6c0r.s 			page 40


 2212 0d4e 00       		.byte	0
 2213 0d4f 00       		.byte	0
 2214 0d50 31       		.uleb128 0x31
 2215 0d51 B0000000 		.4byte	.LVL17
 2216 0d55 E20E0000 		.4byte	0xee2
 2217 0d59 00       		.byte	0
 2218 0d5a 23       		.uleb128 0x23
 2219 0d5b 7F020000 		.4byte	.LASF140
 2220 0d5f 01       		.byte	0x1
 2221 0d60 7A01     		.2byte	0x17a
 2222 0d62 00000000 		.4byte	.LFB124
 2223 0d66 26000000 		.4byte	.LFE124-.LFB124
 2224 0d6a 01       		.uleb128 0x1
 2225 0d6b 9C       		.byte	0x9c
 2226 0d6c 8F0D0000 		.4byte	0xd8f
 2227 0d70 2D       		.uleb128 0x2d
 2228 0d71 1A000000 		.4byte	.LVL24
 2229 0d75 EA0E0000 		.4byte	0xeea
 2230 0d79 2E       		.uleb128 0x2e
 2231 0d7a 01       		.uleb128 0x1
 2232 0d7b 52       		.byte	0x52
 2233 0d7c 05       		.uleb128 0x5
 2234 0d7d 03       		.byte	0x3
 2235 0d7e 00000000 		.4byte	notify2
 2236 0d82 2E       		.uleb128 0x2e
 2237 0d83 01       		.uleb128 0x1
 2238 0d84 51       		.byte	0x51
 2239 0d85 01       		.uleb128 0x1
 2240 0d86 30       		.byte	0x30
 2241 0d87 2E       		.uleb128 0x2e
 2242 0d88 01       		.uleb128 0x1
 2243 0d89 50       		.byte	0x50
 2244 0d8a 02       		.uleb128 0x2
 2245 0d8b 74       		.byte	0x74
 2246 0d8c 00       		.sleb128 0
 2247 0d8d 00       		.byte	0
 2248 0d8e 00       		.byte	0
 2249 0d8f 23       		.uleb128 0x23
 2250 0d90 49040000 		.4byte	.LASF141
 2251 0d94 01       		.byte	0x1
 2252 0d95 A501     		.2byte	0x1a5
 2253 0d97 00000000 		.4byte	.LFB125
 2254 0d9b A2000000 		.4byte	.LFE125-.LFB125
 2255 0d9f 01       		.uleb128 0x1
 2256 0da0 9C       		.byte	0x9c
 2257 0da1 160E0000 		.4byte	0xe16
 2258 0da5 32       		.uleb128 0x32
 2259 0da6 73647000 		.ascii	"sdp\000"
 2260 0daa 01       		.byte	0x1
 2261 0dab A501     		.2byte	0x1a5
 2262 0dad 410A0000 		.4byte	0xa41
 2263 0db1 C2000000 		.4byte	.LLST7
 2264 0db5 33       		.uleb128 0x33
 2265 0db6 5F050000 		.4byte	.LASF134
 2266 0dba 01       		.byte	0x1
 2267 0dbb A501     		.2byte	0x1a5
 2268 0dbd 470A0000 		.4byte	0xa47
ARM GAS  /tmp/ccBf6c0r.s 			page 41


 2269 0dc1 F6000000 		.4byte	.LLST8
 2270 0dc5 34       		.uleb128 0x34
 2271 0dc6 150A0000 		.4byte	0xa15
 2272 0dca 1A000000 		.4byte	.LBB45
 2273 0dce 62000000 		.4byte	.LBE45-.LBB45
 2274 0dd2 01       		.byte	0x1
 2275 0dd3 D601     		.2byte	0x1d6
 2276 0dd5 FF0D0000 		.4byte	0xdff
 2277 0dd9 2B       		.uleb128 0x2b
 2278 0dda 210A0000 		.4byte	0xa21
 2279 0dde 3C010000 		.4byte	.LLST9
 2280 0de2 2B       		.uleb128 0x2b
 2281 0de3 2C0A0000 		.4byte	0xa2c
 2282 0de7 4F010000 		.4byte	.LLST10
 2283 0deb 2C       		.uleb128 0x2c
 2284 0dec 1A000000 		.4byte	.LBB46
 2285 0df0 62000000 		.4byte	.LBE46-.LBB46
 2286 0df4 27       		.uleb128 0x27
 2287 0df5 370A0000 		.4byte	0xa37
 2288 0df9 7F010000 		.4byte	.LLST11
 2289 0dfd 00       		.byte	0
 2290 0dfe 00       		.byte	0
 2291 0dff 2D       		.uleb128 0x2d
 2292 0e00 A0000000 		.4byte	.LVL33
 2293 0e04 060F0000 		.4byte	0xf06
 2294 0e08 2E       		.uleb128 0x2e
 2295 0e09 01       		.uleb128 0x1
 2296 0e0a 51       		.byte	0x51
 2297 0e0b 02       		.uleb128 0x2
 2298 0e0c 08       		.byte	0x8
 2299 0e0d C0       		.byte	0xc0
 2300 0e0e 2E       		.uleb128 0x2e
 2301 0e0f 01       		.uleb128 0x1
 2302 0e10 50       		.byte	0x50
 2303 0e11 02       		.uleb128 0x2
 2304 0e12 08       		.byte	0x8
 2305 0e13 26       		.byte	0x26
 2306 0e14 00       		.byte	0
 2307 0e15 00       		.byte	0
 2308 0e16 23       		.uleb128 0x23
 2309 0e17 BF060000 		.4byte	.LASF142
 2310 0e1b 01       		.byte	0x1
 2311 0e1c E201     		.2byte	0x1e2
 2312 0e1e 00000000 		.4byte	.LFB126
 2313 0e22 34000000 		.4byte	.LFE126-.LFB126
 2314 0e26 01       		.uleb128 0x1
 2315 0e27 9C       		.byte	0x9c
 2316 0e28 6B0E0000 		.4byte	0xe6b
 2317 0e2c 32       		.uleb128 0x32
 2318 0e2d 73647000 		.ascii	"sdp\000"
 2319 0e31 01       		.byte	0x1
 2320 0e32 E201     		.2byte	0x1e2
 2321 0e34 410A0000 		.4byte	0xa41
 2322 0e38 92010000 		.4byte	.LLST12
 2323 0e3c 24       		.uleb128 0x24
 2324 0e3d 520A0000 		.4byte	0xa52
 2325 0e41 12000000 		.4byte	.LBB47
ARM GAS  /tmp/ccBf6c0r.s 			page 42


 2326 0e45 48000000 		.4byte	.Ldebug_ranges0+0x48
 2327 0e49 01       		.byte	0x1
 2328 0e4a E501     		.2byte	0x1e5
 2329 0e4c 5A0E0000 		.4byte	0xe5a
 2330 0e50 2B       		.uleb128 0x2b
 2331 0e51 5E0A0000 		.4byte	0xa5e
 2332 0e55 B3010000 		.4byte	.LLST13
 2333 0e59 00       		.byte	0
 2334 0e5a 35       		.uleb128 0x35
 2335 0e5b 34000000 		.4byte	.LVL38
 2336 0e5f 1D0F0000 		.4byte	0xf1d
 2337 0e63 2E       		.uleb128 0x2e
 2338 0e64 01       		.uleb128 0x1
 2339 0e65 50       		.byte	0x50
 2340 0e66 02       		.uleb128 0x2
 2341 0e67 08       		.byte	0x8
 2342 0e68 26       		.byte	0x26
 2343 0e69 00       		.byte	0
 2344 0e6a 00       		.byte	0
 2345 0e6b 36       		.uleb128 0x36
 2346 0e6c 8D010000 		.4byte	.LASF152
 2347 0e70 01       		.byte	0x1
 2348 0e71 49       		.byte	0x49
 2349 0e72 4D0A0000 		.4byte	0xa4d
 2350 0e76 05       		.uleb128 0x5
 2351 0e77 03       		.byte	0x3
 2352 0e78 00000000 		.4byte	default_config
 2353 0e7c 37       		.uleb128 0x37
 2354 0e7d FC000000 		.4byte	.LASF143
 2355 0e81 10       		.byte	0x10
 2356 0e82 9806     		.2byte	0x698
 2357 0e84 9C050000 		.4byte	0x59c
 2358 0e88 38       		.uleb128 0x38
 2359 0e89 53443200 		.ascii	"SD2\000"
 2360 0e8d 01       		.byte	0x1
 2361 0e8e 2D       		.byte	0x2d
 2362 0e8f C7080000 		.4byte	0x8c7
 2363 0e93 05       		.uleb128 0x5
 2364 0e94 03       		.byte	0x3
 2365 0e95 00000000 		.4byte	SD2
 2366 0e99 39       		.uleb128 0x39
 2367 0e9a EF010000 		.4byte	.LASF144
 2368 0e9e 0A       		.byte	0xa
 2369 0e9f BA       		.byte	0xba
 2370 0ea0 AF0E0000 		.4byte	0xeaf
 2371 0ea4 12       		.uleb128 0x12
 2372 0ea5 AF0E0000 		.4byte	0xeaf
 2373 0ea9 12       		.uleb128 0x12
 2374 0eaa 2D010000 		.4byte	0x12d
 2375 0eae 00       		.byte	0
 2376 0eaf 09       		.uleb128 0x9
 2377 0eb0 04       		.byte	0x4
 2378 0eb1 01040000 		.4byte	0x401
 2379 0eb5 3A       		.uleb128 0x3a
 2380 0eb6 C7010000 		.4byte	.LASF153
 2381 0eba 0B       		.byte	0xb
 2382 0ebb 6E01     		.2byte	0x16e
ARM GAS  /tmp/ccBf6c0r.s 			page 43


 2383 0ebd 17010000 		.4byte	0x117
 2384 0ec1 CB0E0000 		.4byte	0xecb
 2385 0ec5 12       		.uleb128 0x12
 2386 0ec6 0F0A0000 		.4byte	0xa0f
 2387 0eca 00       		.byte	0
 2388 0ecb 3B       		.uleb128 0x3b
 2389 0ecc 4F050000 		.4byte	.LASF145
 2390 0ed0 0D       		.byte	0xd
 2391 0ed1 3901     		.2byte	0x139
 2392 0ed3 E20E0000 		.4byte	0xee2
 2393 0ed7 12       		.uleb128 0x12
 2394 0ed8 410A0000 		.4byte	0xa41
 2395 0edc 12       		.uleb128 0x12
 2396 0edd A2000000 		.4byte	0xa2
 2397 0ee1 00       		.byte	0
 2398 0ee2 3C       		.uleb128 0x3c
 2399 0ee3 C1020000 		.4byte	.LASF154
 2400 0ee7 08       		.byte	0x8
 2401 0ee8 0302     		.2byte	0x203
 2402 0eea 3B       		.uleb128 0x3b
 2403 0eeb 13010000 		.4byte	.LASF146
 2404 0eef 0D       		.byte	0xd
 2405 0ef0 3601     		.2byte	0x136
 2406 0ef2 060F0000 		.4byte	0xf06
 2407 0ef6 12       		.uleb128 0x12
 2408 0ef7 410A0000 		.4byte	0xa41
 2409 0efb 12       		.uleb128 0x12
 2410 0efc E6040000 		.4byte	0x4e6
 2411 0f00 12       		.uleb128 0x12
 2412 0f01 E6040000 		.4byte	0x4e6
 2413 0f05 00       		.byte	0
 2414 0f06 3B       		.uleb128 0x3b
 2415 0f07 00000000 		.4byte	.LASF147
 2416 0f0b 0F       		.byte	0xf
 2417 0f0c 2301     		.2byte	0x123
 2418 0f0e 1D0F0000 		.4byte	0xf1d
 2419 0f12 12       		.uleb128 0x12
 2420 0f13 C3000000 		.4byte	0xc3
 2421 0f17 12       		.uleb128 0x12
 2422 0f18 C3000000 		.4byte	0xc3
 2423 0f1c 00       		.byte	0
 2424 0f1d 3D       		.uleb128 0x3d
 2425 0f1e 21050000 		.4byte	.LASF155
 2426 0f22 0F       		.byte	0xf
 2427 0f23 2401     		.2byte	0x124
 2428 0f25 12       		.uleb128 0x12
 2429 0f26 C3000000 		.4byte	0xc3
 2430 0f2a 00       		.byte	0
 2431 0f2b 00       		.byte	0
 2432              		.section	.debug_abbrev,"",%progbits
 2433              	.Ldebug_abbrev0:
 2434 0000 01       		.uleb128 0x1
 2435 0001 11       		.uleb128 0x11
 2436 0002 01       		.byte	0x1
 2437 0003 25       		.uleb128 0x25
 2438 0004 0E       		.uleb128 0xe
 2439 0005 13       		.uleb128 0x13
ARM GAS  /tmp/ccBf6c0r.s 			page 44


 2440 0006 0B       		.uleb128 0xb
 2441 0007 03       		.uleb128 0x3
 2442 0008 0E       		.uleb128 0xe
 2443 0009 1B       		.uleb128 0x1b
 2444 000a 0E       		.uleb128 0xe
 2445 000b 55       		.uleb128 0x55
 2446 000c 17       		.uleb128 0x17
 2447 000d 11       		.uleb128 0x11
 2448 000e 01       		.uleb128 0x1
 2449 000f 10       		.uleb128 0x10
 2450 0010 17       		.uleb128 0x17
 2451 0011 00       		.byte	0
 2452 0012 00       		.byte	0
 2453 0013 02       		.uleb128 0x2
 2454 0014 24       		.uleb128 0x24
 2455 0015 00       		.byte	0
 2456 0016 0B       		.uleb128 0xb
 2457 0017 0B       		.uleb128 0xb
 2458 0018 3E       		.uleb128 0x3e
 2459 0019 0B       		.uleb128 0xb
 2460 001a 03       		.uleb128 0x3
 2461 001b 08       		.uleb128 0x8
 2462 001c 00       		.byte	0
 2463 001d 00       		.byte	0
 2464 001e 03       		.uleb128 0x3
 2465 001f 16       		.uleb128 0x16
 2466 0020 00       		.byte	0
 2467 0021 03       		.uleb128 0x3
 2468 0022 0E       		.uleb128 0xe
 2469 0023 3A       		.uleb128 0x3a
 2470 0024 0B       		.uleb128 0xb
 2471 0025 3B       		.uleb128 0x3b
 2472 0026 0B       		.uleb128 0xb
 2473 0027 49       		.uleb128 0x49
 2474 0028 13       		.uleb128 0x13
 2475 0029 00       		.byte	0
 2476 002a 00       		.byte	0
 2477 002b 04       		.uleb128 0x4
 2478 002c 24       		.uleb128 0x24
 2479 002d 00       		.byte	0
 2480 002e 0B       		.uleb128 0xb
 2481 002f 0B       		.uleb128 0xb
 2482 0030 3E       		.uleb128 0x3e
 2483 0031 0B       		.uleb128 0xb
 2484 0032 03       		.uleb128 0x3
 2485 0033 0E       		.uleb128 0xe
 2486 0034 00       		.byte	0
 2487 0035 00       		.byte	0
 2488 0036 05       		.uleb128 0x5
 2489 0037 13       		.uleb128 0x13
 2490 0038 01       		.byte	0x1
 2491 0039 03       		.uleb128 0x3
 2492 003a 0E       		.uleb128 0xe
 2493 003b 0B       		.uleb128 0xb
 2494 003c 0B       		.uleb128 0xb
 2495 003d 3A       		.uleb128 0x3a
 2496 003e 0B       		.uleb128 0xb
ARM GAS  /tmp/ccBf6c0r.s 			page 45


 2497 003f 3B       		.uleb128 0x3b
 2498 0040 0B       		.uleb128 0xb
 2499 0041 01       		.uleb128 0x1
 2500 0042 13       		.uleb128 0x13
 2501 0043 00       		.byte	0
 2502 0044 00       		.byte	0
 2503 0045 06       		.uleb128 0x6
 2504 0046 0D       		.uleb128 0xd
 2505 0047 00       		.byte	0
 2506 0048 03       		.uleb128 0x3
 2507 0049 0E       		.uleb128 0xe
 2508 004a 3A       		.uleb128 0x3a
 2509 004b 0B       		.uleb128 0xb
 2510 004c 3B       		.uleb128 0x3b
 2511 004d 0B       		.uleb128 0xb
 2512 004e 49       		.uleb128 0x49
 2513 004f 13       		.uleb128 0x13
 2514 0050 38       		.uleb128 0x38
 2515 0051 0B       		.uleb128 0xb
 2516 0052 00       		.byte	0
 2517 0053 00       		.byte	0
 2518 0054 07       		.uleb128 0x7
 2519 0055 0D       		.uleb128 0xd
 2520 0056 00       		.byte	0
 2521 0057 03       		.uleb128 0x3
 2522 0058 08       		.uleb128 0x8
 2523 0059 3A       		.uleb128 0x3a
 2524 005a 0B       		.uleb128 0xb
 2525 005b 3B       		.uleb128 0x3b
 2526 005c 0B       		.uleb128 0xb
 2527 005d 49       		.uleb128 0x49
 2528 005e 13       		.uleb128 0x13
 2529 005f 38       		.uleb128 0x38
 2530 0060 0B       		.uleb128 0xb
 2531 0061 00       		.byte	0
 2532 0062 00       		.byte	0
 2533 0063 08       		.uleb128 0x8
 2534 0064 13       		.uleb128 0x13
 2535 0065 01       		.byte	0x1
 2536 0066 0B       		.uleb128 0xb
 2537 0067 0B       		.uleb128 0xb
 2538 0068 3A       		.uleb128 0x3a
 2539 0069 0B       		.uleb128 0xb
 2540 006a 3B       		.uleb128 0x3b
 2541 006b 0B       		.uleb128 0xb
 2542 006c 01       		.uleb128 0x1
 2543 006d 13       		.uleb128 0x13
 2544 006e 00       		.byte	0
 2545 006f 00       		.byte	0
 2546 0070 09       		.uleb128 0x9
 2547 0071 0F       		.uleb128 0xf
 2548 0072 00       		.byte	0
 2549 0073 0B       		.uleb128 0xb
 2550 0074 0B       		.uleb128 0xb
 2551 0075 49       		.uleb128 0x49
 2552 0076 13       		.uleb128 0x13
 2553 0077 00       		.byte	0
ARM GAS  /tmp/ccBf6c0r.s 			page 46


 2554 0078 00       		.byte	0
 2555 0079 0A       		.uleb128 0xa
 2556 007a 0F       		.uleb128 0xf
 2557 007b 00       		.byte	0
 2558 007c 0B       		.uleb128 0xb
 2559 007d 0B       		.uleb128 0xb
 2560 007e 00       		.byte	0
 2561 007f 00       		.byte	0
 2562 0080 0B       		.uleb128 0xb
 2563 0081 13       		.uleb128 0x13
 2564 0082 01       		.byte	0x1
 2565 0083 03       		.uleb128 0x3
 2566 0084 0E       		.uleb128 0xe
 2567 0085 0B       		.uleb128 0xb
 2568 0086 0B       		.uleb128 0xb
 2569 0087 3A       		.uleb128 0x3a
 2570 0088 0B       		.uleb128 0xb
 2571 0089 3B       		.uleb128 0x3b
 2572 008a 05       		.uleb128 0x5
 2573 008b 01       		.uleb128 0x1
 2574 008c 13       		.uleb128 0x13
 2575 008d 00       		.byte	0
 2576 008e 00       		.byte	0
 2577 008f 0C       		.uleb128 0xc
 2578 0090 0D       		.uleb128 0xd
 2579 0091 00       		.byte	0
 2580 0092 03       		.uleb128 0x3
 2581 0093 08       		.uleb128 0x8
 2582 0094 3A       		.uleb128 0x3a
 2583 0095 0B       		.uleb128 0xb
 2584 0096 3B       		.uleb128 0x3b
 2585 0097 05       		.uleb128 0x5
 2586 0098 49       		.uleb128 0x49
 2587 0099 13       		.uleb128 0x13
 2588 009a 38       		.uleb128 0x38
 2589 009b 0B       		.uleb128 0xb
 2590 009c 00       		.byte	0
 2591 009d 00       		.byte	0
 2592 009e 0D       		.uleb128 0xd
 2593 009f 35       		.uleb128 0x35
 2594 00a0 00       		.byte	0
 2595 00a1 49       		.uleb128 0x49
 2596 00a2 13       		.uleb128 0x13
 2597 00a3 00       		.byte	0
 2598 00a4 00       		.byte	0
 2599 00a5 0E       		.uleb128 0xe
 2600 00a6 17       		.uleb128 0x17
 2601 00a7 01       		.byte	0x1
 2602 00a8 0B       		.uleb128 0xb
 2603 00a9 0B       		.uleb128 0xb
 2604 00aa 3A       		.uleb128 0x3a
 2605 00ab 0B       		.uleb128 0xb
 2606 00ac 3B       		.uleb128 0x3b
 2607 00ad 0B       		.uleb128 0xb
 2608 00ae 01       		.uleb128 0x1
 2609 00af 13       		.uleb128 0x13
 2610 00b0 00       		.byte	0
ARM GAS  /tmp/ccBf6c0r.s 			page 47


 2611 00b1 00       		.byte	0
 2612 00b2 0F       		.uleb128 0xf
 2613 00b3 0D       		.uleb128 0xd
 2614 00b4 00       		.byte	0
 2615 00b5 03       		.uleb128 0x3
 2616 00b6 0E       		.uleb128 0xe
 2617 00b7 3A       		.uleb128 0x3a
 2618 00b8 0B       		.uleb128 0xb
 2619 00b9 3B       		.uleb128 0x3b
 2620 00ba 0B       		.uleb128 0xb
 2621 00bb 49       		.uleb128 0x49
 2622 00bc 13       		.uleb128 0x13
 2623 00bd 00       		.byte	0
 2624 00be 00       		.byte	0
 2625 00bf 10       		.uleb128 0x10
 2626 00c0 26       		.uleb128 0x26
 2627 00c1 00       		.byte	0
 2628 00c2 49       		.uleb128 0x49
 2629 00c3 13       		.uleb128 0x13
 2630 00c4 00       		.byte	0
 2631 00c5 00       		.byte	0
 2632 00c6 11       		.uleb128 0x11
 2633 00c7 15       		.uleb128 0x15
 2634 00c8 01       		.byte	0x1
 2635 00c9 27       		.uleb128 0x27
 2636 00ca 19       		.uleb128 0x19
 2637 00cb 49       		.uleb128 0x49
 2638 00cc 13       		.uleb128 0x13
 2639 00cd 01       		.uleb128 0x1
 2640 00ce 13       		.uleb128 0x13
 2641 00cf 00       		.byte	0
 2642 00d0 00       		.byte	0
 2643 00d1 12       		.uleb128 0x12
 2644 00d2 05       		.uleb128 0x5
 2645 00d3 00       		.byte	0
 2646 00d4 49       		.uleb128 0x49
 2647 00d5 13       		.uleb128 0x13
 2648 00d6 00       		.byte	0
 2649 00d7 00       		.byte	0
 2650 00d8 13       		.uleb128 0x13
 2651 00d9 15       		.uleb128 0x15
 2652 00da 01       		.byte	0x1
 2653 00db 27       		.uleb128 0x27
 2654 00dc 19       		.uleb128 0x19
 2655 00dd 01       		.uleb128 0x1
 2656 00de 13       		.uleb128 0x13
 2657 00df 00       		.byte	0
 2658 00e0 00       		.byte	0
 2659 00e1 14       		.uleb128 0x14
 2660 00e2 01       		.uleb128 0x1
 2661 00e3 01       		.byte	0x1
 2662 00e4 49       		.uleb128 0x49
 2663 00e5 13       		.uleb128 0x13
 2664 00e6 01       		.uleb128 0x1
 2665 00e7 13       		.uleb128 0x13
 2666 00e8 00       		.byte	0
 2667 00e9 00       		.byte	0
ARM GAS  /tmp/ccBf6c0r.s 			page 48


 2668 00ea 15       		.uleb128 0x15
 2669 00eb 21       		.uleb128 0x21
 2670 00ec 00       		.byte	0
 2671 00ed 49       		.uleb128 0x49
 2672 00ee 13       		.uleb128 0x13
 2673 00ef 2F       		.uleb128 0x2f
 2674 00f0 0B       		.uleb128 0xb
 2675 00f1 00       		.byte	0
 2676 00f2 00       		.byte	0
 2677 00f3 16       		.uleb128 0x16
 2678 00f4 13       		.uleb128 0x13
 2679 00f5 01       		.byte	0x1
 2680 00f6 0B       		.uleb128 0xb
 2681 00f7 0B       		.uleb128 0xb
 2682 00f8 3A       		.uleb128 0x3a
 2683 00f9 0B       		.uleb128 0xb
 2684 00fa 3B       		.uleb128 0x3b
 2685 00fb 05       		.uleb128 0x5
 2686 00fc 01       		.uleb128 0x1
 2687 00fd 13       		.uleb128 0x13
 2688 00fe 00       		.byte	0
 2689 00ff 00       		.byte	0
 2690 0100 17       		.uleb128 0x17
 2691 0101 0D       		.uleb128 0xd
 2692 0102 00       		.byte	0
 2693 0103 03       		.uleb128 0x3
 2694 0104 0E       		.uleb128 0xe
 2695 0105 3A       		.uleb128 0x3a
 2696 0106 0B       		.uleb128 0xb
 2697 0107 3B       		.uleb128 0x3b
 2698 0108 05       		.uleb128 0x5
 2699 0109 49       		.uleb128 0x49
 2700 010a 13       		.uleb128 0x13
 2701 010b 38       		.uleb128 0x38
 2702 010c 0B       		.uleb128 0xb
 2703 010d 00       		.byte	0
 2704 010e 00       		.byte	0
 2705 010f 18       		.uleb128 0x18
 2706 0110 16       		.uleb128 0x16
 2707 0111 00       		.byte	0
 2708 0112 03       		.uleb128 0x3
 2709 0113 0E       		.uleb128 0xe
 2710 0114 3A       		.uleb128 0x3a
 2711 0115 0B       		.uleb128 0xb
 2712 0116 3B       		.uleb128 0x3b
 2713 0117 05       		.uleb128 0x5
 2714 0118 49       		.uleb128 0x49
 2715 0119 13       		.uleb128 0x13
 2716 011a 00       		.byte	0
 2717 011b 00       		.byte	0
 2718 011c 19       		.uleb128 0x19
 2719 011d 04       		.uleb128 0x4
 2720 011e 01       		.byte	0x1
 2721 011f 0B       		.uleb128 0xb
 2722 0120 0B       		.uleb128 0xb
 2723 0121 3A       		.uleb128 0x3a
 2724 0122 0B       		.uleb128 0xb
ARM GAS  /tmp/ccBf6c0r.s 			page 49


 2725 0123 3B       		.uleb128 0x3b
 2726 0124 0B       		.uleb128 0xb
 2727 0125 01       		.uleb128 0x1
 2728 0126 13       		.uleb128 0x13
 2729 0127 00       		.byte	0
 2730 0128 00       		.byte	0
 2731 0129 1A       		.uleb128 0x1a
 2732 012a 28       		.uleb128 0x28
 2733 012b 00       		.byte	0
 2734 012c 03       		.uleb128 0x3
 2735 012d 0E       		.uleb128 0xe
 2736 012e 1C       		.uleb128 0x1c
 2737 012f 0D       		.uleb128 0xd
 2738 0130 00       		.byte	0
 2739 0131 00       		.byte	0
 2740 0132 1B       		.uleb128 0x1b
 2741 0133 2E       		.uleb128 0x2e
 2742 0134 01       		.byte	0x1
 2743 0135 03       		.uleb128 0x3
 2744 0136 0E       		.uleb128 0xe
 2745 0137 3A       		.uleb128 0x3a
 2746 0138 0B       		.uleb128 0xb
 2747 0139 3B       		.uleb128 0x3b
 2748 013a 0B       		.uleb128 0xb
 2749 013b 27       		.uleb128 0x27
 2750 013c 19       		.uleb128 0x19
 2751 013d 20       		.uleb128 0x20
 2752 013e 0B       		.uleb128 0xb
 2753 013f 01       		.uleb128 0x1
 2754 0140 13       		.uleb128 0x13
 2755 0141 00       		.byte	0
 2756 0142 00       		.byte	0
 2757 0143 1C       		.uleb128 0x1c
 2758 0144 05       		.uleb128 0x5
 2759 0145 00       		.byte	0
 2760 0146 03       		.uleb128 0x3
 2761 0147 08       		.uleb128 0x8
 2762 0148 3A       		.uleb128 0x3a
 2763 0149 0B       		.uleb128 0xb
 2764 014a 3B       		.uleb128 0x3b
 2765 014b 0B       		.uleb128 0xb
 2766 014c 49       		.uleb128 0x49
 2767 014d 13       		.uleb128 0x13
 2768 014e 00       		.byte	0
 2769 014f 00       		.byte	0
 2770 0150 1D       		.uleb128 0x1d
 2771 0151 05       		.uleb128 0x5
 2772 0152 00       		.byte	0
 2773 0153 03       		.uleb128 0x3
 2774 0154 0E       		.uleb128 0xe
 2775 0155 3A       		.uleb128 0x3a
 2776 0156 0B       		.uleb128 0xb
 2777 0157 3B       		.uleb128 0x3b
 2778 0158 0B       		.uleb128 0xb
 2779 0159 49       		.uleb128 0x49
 2780 015a 13       		.uleb128 0x13
 2781 015b 00       		.byte	0
ARM GAS  /tmp/ccBf6c0r.s 			page 50


 2782 015c 00       		.byte	0
 2783 015d 1E       		.uleb128 0x1e
 2784 015e 34       		.uleb128 0x34
 2785 015f 00       		.byte	0
 2786 0160 03       		.uleb128 0x3
 2787 0161 08       		.uleb128 0x8
 2788 0162 3A       		.uleb128 0x3a
 2789 0163 0B       		.uleb128 0xb
 2790 0164 3B       		.uleb128 0x3b
 2791 0165 0B       		.uleb128 0xb
 2792 0166 49       		.uleb128 0x49
 2793 0167 13       		.uleb128 0x13
 2794 0168 00       		.byte	0
 2795 0169 00       		.byte	0
 2796 016a 1F       		.uleb128 0x1f
 2797 016b 0B       		.uleb128 0xb
 2798 016c 01       		.byte	0x1
 2799 016d 01       		.uleb128 0x1
 2800 016e 13       		.uleb128 0x13
 2801 016f 00       		.byte	0
 2802 0170 00       		.byte	0
 2803 0171 20       		.uleb128 0x20
 2804 0172 0B       		.uleb128 0xb
 2805 0173 01       		.byte	0x1
 2806 0174 00       		.byte	0
 2807 0175 00       		.byte	0
 2808 0176 21       		.uleb128 0x21
 2809 0177 2E       		.uleb128 0x2e
 2810 0178 01       		.byte	0x1
 2811 0179 03       		.uleb128 0x3
 2812 017a 0E       		.uleb128 0xe
 2813 017b 3A       		.uleb128 0x3a
 2814 017c 0B       		.uleb128 0xb
 2815 017d 3B       		.uleb128 0x3b
 2816 017e 0B       		.uleb128 0xb
 2817 017f 27       		.uleb128 0x27
 2818 0180 19       		.uleb128 0x19
 2819 0181 11       		.uleb128 0x11
 2820 0182 01       		.uleb128 0x1
 2821 0183 12       		.uleb128 0x12
 2822 0184 06       		.uleb128 0x6
 2823 0185 40       		.uleb128 0x40
 2824 0186 18       		.uleb128 0x18
 2825 0187 9742     		.uleb128 0x2117
 2826 0189 19       		.uleb128 0x19
 2827 018a 01       		.uleb128 0x1
 2828 018b 13       		.uleb128 0x13
 2829 018c 00       		.byte	0
 2830 018d 00       		.byte	0
 2831 018e 22       		.uleb128 0x22
 2832 018f 05       		.uleb128 0x5
 2833 0190 00       		.byte	0
 2834 0191 03       		.uleb128 0x3
 2835 0192 08       		.uleb128 0x8
 2836 0193 3A       		.uleb128 0x3a
 2837 0194 0B       		.uleb128 0xb
 2838 0195 3B       		.uleb128 0x3b
ARM GAS  /tmp/ccBf6c0r.s 			page 51


 2839 0196 0B       		.uleb128 0xb
 2840 0197 49       		.uleb128 0x49
 2841 0198 13       		.uleb128 0x13
 2842 0199 02       		.uleb128 0x2
 2843 019a 18       		.uleb128 0x18
 2844 019b 00       		.byte	0
 2845 019c 00       		.byte	0
 2846 019d 23       		.uleb128 0x23
 2847 019e 2E       		.uleb128 0x2e
 2848 019f 01       		.byte	0x1
 2849 01a0 3F       		.uleb128 0x3f
 2850 01a1 19       		.uleb128 0x19
 2851 01a2 03       		.uleb128 0x3
 2852 01a3 0E       		.uleb128 0xe
 2853 01a4 3A       		.uleb128 0x3a
 2854 01a5 0B       		.uleb128 0xb
 2855 01a6 3B       		.uleb128 0x3b
 2856 01a7 05       		.uleb128 0x5
 2857 01a8 27       		.uleb128 0x27
 2858 01a9 19       		.uleb128 0x19
 2859 01aa 11       		.uleb128 0x11
 2860 01ab 01       		.uleb128 0x1
 2861 01ac 12       		.uleb128 0x12
 2862 01ad 06       		.uleb128 0x6
 2863 01ae 40       		.uleb128 0x40
 2864 01af 18       		.uleb128 0x18
 2865 01b0 9742     		.uleb128 0x2117
 2866 01b2 19       		.uleb128 0x19
 2867 01b3 01       		.uleb128 0x1
 2868 01b4 13       		.uleb128 0x13
 2869 01b5 00       		.byte	0
 2870 01b6 00       		.byte	0
 2871 01b7 24       		.uleb128 0x24
 2872 01b8 1D       		.uleb128 0x1d
 2873 01b9 01       		.byte	0x1
 2874 01ba 31       		.uleb128 0x31
 2875 01bb 13       		.uleb128 0x13
 2876 01bc 52       		.uleb128 0x52
 2877 01bd 01       		.uleb128 0x1
 2878 01be 55       		.uleb128 0x55
 2879 01bf 17       		.uleb128 0x17
 2880 01c0 58       		.uleb128 0x58
 2881 01c1 0B       		.uleb128 0xb
 2882 01c2 59       		.uleb128 0x59
 2883 01c3 05       		.uleb128 0x5
 2884 01c4 01       		.uleb128 0x1
 2885 01c5 13       		.uleb128 0x13
 2886 01c6 00       		.byte	0
 2887 01c7 00       		.byte	0
 2888 01c8 25       		.uleb128 0x25
 2889 01c9 05       		.uleb128 0x5
 2890 01ca 00       		.byte	0
 2891 01cb 31       		.uleb128 0x31
 2892 01cc 13       		.uleb128 0x13
 2893 01cd 02       		.uleb128 0x2
 2894 01ce 18       		.uleb128 0x18
 2895 01cf 00       		.byte	0
ARM GAS  /tmp/ccBf6c0r.s 			page 52


 2896 01d0 00       		.byte	0
 2897 01d1 26       		.uleb128 0x26
 2898 01d2 0B       		.uleb128 0xb
 2899 01d3 01       		.byte	0x1
 2900 01d4 55       		.uleb128 0x55
 2901 01d5 17       		.uleb128 0x17
 2902 01d6 00       		.byte	0
 2903 01d7 00       		.byte	0
 2904 01d8 27       		.uleb128 0x27
 2905 01d9 34       		.uleb128 0x34
 2906 01da 00       		.byte	0
 2907 01db 31       		.uleb128 0x31
 2908 01dc 13       		.uleb128 0x13
 2909 01dd 02       		.uleb128 0x2
 2910 01de 17       		.uleb128 0x17
 2911 01df 00       		.byte	0
 2912 01e0 00       		.byte	0
 2913 01e1 28       		.uleb128 0x28
 2914 01e2 0B       		.uleb128 0xb
 2915 01e3 01       		.byte	0x1
 2916 01e4 11       		.uleb128 0x11
 2917 01e5 01       		.uleb128 0x1
 2918 01e6 12       		.uleb128 0x12
 2919 01e7 06       		.uleb128 0x6
 2920 01e8 01       		.uleb128 0x1
 2921 01e9 13       		.uleb128 0x13
 2922 01ea 00       		.byte	0
 2923 01eb 00       		.byte	0
 2924 01ec 29       		.uleb128 0x29
 2925 01ed 34       		.uleb128 0x34
 2926 01ee 00       		.byte	0
 2927 01ef 31       		.uleb128 0x31
 2928 01f0 13       		.uleb128 0x13
 2929 01f1 02       		.uleb128 0x2
 2930 01f2 18       		.uleb128 0x18
 2931 01f3 00       		.byte	0
 2932 01f4 00       		.byte	0
 2933 01f5 2A       		.uleb128 0x2a
 2934 01f6 1D       		.uleb128 0x1d
 2935 01f7 01       		.byte	0x1
 2936 01f8 31       		.uleb128 0x31
 2937 01f9 13       		.uleb128 0x13
 2938 01fa 11       		.uleb128 0x11
 2939 01fb 01       		.uleb128 0x1
 2940 01fc 12       		.uleb128 0x12
 2941 01fd 06       		.uleb128 0x6
 2942 01fe 58       		.uleb128 0x58
 2943 01ff 0B       		.uleb128 0xb
 2944 0200 59       		.uleb128 0x59
 2945 0201 0B       		.uleb128 0xb
 2946 0202 01       		.uleb128 0x1
 2947 0203 13       		.uleb128 0x13
 2948 0204 00       		.byte	0
 2949 0205 00       		.byte	0
 2950 0206 2B       		.uleb128 0x2b
 2951 0207 05       		.uleb128 0x5
 2952 0208 00       		.byte	0
ARM GAS  /tmp/ccBf6c0r.s 			page 53


 2953 0209 31       		.uleb128 0x31
 2954 020a 13       		.uleb128 0x13
 2955 020b 02       		.uleb128 0x2
 2956 020c 17       		.uleb128 0x17
 2957 020d 00       		.byte	0
 2958 020e 00       		.byte	0
 2959 020f 2C       		.uleb128 0x2c
 2960 0210 0B       		.uleb128 0xb
 2961 0211 01       		.byte	0x1
 2962 0212 11       		.uleb128 0x11
 2963 0213 01       		.uleb128 0x1
 2964 0214 12       		.uleb128 0x12
 2965 0215 06       		.uleb128 0x6
 2966 0216 00       		.byte	0
 2967 0217 00       		.byte	0
 2968 0218 2D       		.uleb128 0x2d
 2969 0219 898201   		.uleb128 0x4109
 2970 021c 01       		.byte	0x1
 2971 021d 11       		.uleb128 0x11
 2972 021e 01       		.uleb128 0x1
 2973 021f 31       		.uleb128 0x31
 2974 0220 13       		.uleb128 0x13
 2975 0221 00       		.byte	0
 2976 0222 00       		.byte	0
 2977 0223 2E       		.uleb128 0x2e
 2978 0224 8A8201   		.uleb128 0x410a
 2979 0227 00       		.byte	0
 2980 0228 02       		.uleb128 0x2
 2981 0229 18       		.uleb128 0x18
 2982 022a 9142     		.uleb128 0x2111
 2983 022c 18       		.uleb128 0x18
 2984 022d 00       		.byte	0
 2985 022e 00       		.byte	0
 2986 022f 2F       		.uleb128 0x2f
 2987 0230 0B       		.uleb128 0xb
 2988 0231 01       		.byte	0x1
 2989 0232 55       		.uleb128 0x55
 2990 0233 17       		.uleb128 0x17
 2991 0234 01       		.uleb128 0x1
 2992 0235 13       		.uleb128 0x13
 2993 0236 00       		.byte	0
 2994 0237 00       		.byte	0
 2995 0238 30       		.uleb128 0x30
 2996 0239 898201   		.uleb128 0x4109
 2997 023c 01       		.byte	0x1
 2998 023d 11       		.uleb128 0x11
 2999 023e 01       		.uleb128 0x1
 3000 023f 31       		.uleb128 0x31
 3001 0240 13       		.uleb128 0x13
 3002 0241 01       		.uleb128 0x1
 3003 0242 13       		.uleb128 0x13
 3004 0243 00       		.byte	0
 3005 0244 00       		.byte	0
 3006 0245 31       		.uleb128 0x31
 3007 0246 898201   		.uleb128 0x4109
 3008 0249 00       		.byte	0
 3009 024a 11       		.uleb128 0x11
ARM GAS  /tmp/ccBf6c0r.s 			page 54


 3010 024b 01       		.uleb128 0x1
 3011 024c 9542     		.uleb128 0x2115
 3012 024e 19       		.uleb128 0x19
 3013 024f 31       		.uleb128 0x31
 3014 0250 13       		.uleb128 0x13
 3015 0251 00       		.byte	0
 3016 0252 00       		.byte	0
 3017 0253 32       		.uleb128 0x32
 3018 0254 05       		.uleb128 0x5
 3019 0255 00       		.byte	0
 3020 0256 03       		.uleb128 0x3
 3021 0257 08       		.uleb128 0x8
 3022 0258 3A       		.uleb128 0x3a
 3023 0259 0B       		.uleb128 0xb
 3024 025a 3B       		.uleb128 0x3b
 3025 025b 05       		.uleb128 0x5
 3026 025c 49       		.uleb128 0x49
 3027 025d 13       		.uleb128 0x13
 3028 025e 02       		.uleb128 0x2
 3029 025f 17       		.uleb128 0x17
 3030 0260 00       		.byte	0
 3031 0261 00       		.byte	0
 3032 0262 33       		.uleb128 0x33
 3033 0263 05       		.uleb128 0x5
 3034 0264 00       		.byte	0
 3035 0265 03       		.uleb128 0x3
 3036 0266 0E       		.uleb128 0xe
 3037 0267 3A       		.uleb128 0x3a
 3038 0268 0B       		.uleb128 0xb
 3039 0269 3B       		.uleb128 0x3b
 3040 026a 05       		.uleb128 0x5
 3041 026b 49       		.uleb128 0x49
 3042 026c 13       		.uleb128 0x13
 3043 026d 02       		.uleb128 0x2
 3044 026e 17       		.uleb128 0x17
 3045 026f 00       		.byte	0
 3046 0270 00       		.byte	0
 3047 0271 34       		.uleb128 0x34
 3048 0272 1D       		.uleb128 0x1d
 3049 0273 01       		.byte	0x1
 3050 0274 31       		.uleb128 0x31
 3051 0275 13       		.uleb128 0x13
 3052 0276 11       		.uleb128 0x11
 3053 0277 01       		.uleb128 0x1
 3054 0278 12       		.uleb128 0x12
 3055 0279 06       		.uleb128 0x6
 3056 027a 58       		.uleb128 0x58
 3057 027b 0B       		.uleb128 0xb
 3058 027c 59       		.uleb128 0x59
 3059 027d 05       		.uleb128 0x5
 3060 027e 01       		.uleb128 0x1
 3061 027f 13       		.uleb128 0x13
 3062 0280 00       		.byte	0
 3063 0281 00       		.byte	0
 3064 0282 35       		.uleb128 0x35
 3065 0283 898201   		.uleb128 0x4109
 3066 0286 01       		.byte	0x1
ARM GAS  /tmp/ccBf6c0r.s 			page 55


 3067 0287 11       		.uleb128 0x11
 3068 0288 01       		.uleb128 0x1
 3069 0289 9542     		.uleb128 0x2115
 3070 028b 19       		.uleb128 0x19
 3071 028c 31       		.uleb128 0x31
 3072 028d 13       		.uleb128 0x13
 3073 028e 00       		.byte	0
 3074 028f 00       		.byte	0
 3075 0290 36       		.uleb128 0x36
 3076 0291 34       		.uleb128 0x34
 3077 0292 00       		.byte	0
 3078 0293 03       		.uleb128 0x3
 3079 0294 0E       		.uleb128 0xe
 3080 0295 3A       		.uleb128 0x3a
 3081 0296 0B       		.uleb128 0xb
 3082 0297 3B       		.uleb128 0x3b
 3083 0298 0B       		.uleb128 0xb
 3084 0299 49       		.uleb128 0x49
 3085 029a 13       		.uleb128 0x13
 3086 029b 02       		.uleb128 0x2
 3087 029c 18       		.uleb128 0x18
 3088 029d 00       		.byte	0
 3089 029e 00       		.byte	0
 3090 029f 37       		.uleb128 0x37
 3091 02a0 34       		.uleb128 0x34
 3092 02a1 00       		.byte	0
 3093 02a2 03       		.uleb128 0x3
 3094 02a3 0E       		.uleb128 0xe
 3095 02a4 3A       		.uleb128 0x3a
 3096 02a5 0B       		.uleb128 0xb
 3097 02a6 3B       		.uleb128 0x3b
 3098 02a7 05       		.uleb128 0x5
 3099 02a8 49       		.uleb128 0x49
 3100 02a9 13       		.uleb128 0x13
 3101 02aa 3F       		.uleb128 0x3f
 3102 02ab 19       		.uleb128 0x19
 3103 02ac 3C       		.uleb128 0x3c
 3104 02ad 19       		.uleb128 0x19
 3105 02ae 00       		.byte	0
 3106 02af 00       		.byte	0
 3107 02b0 38       		.uleb128 0x38
 3108 02b1 34       		.uleb128 0x34
 3109 02b2 00       		.byte	0
 3110 02b3 03       		.uleb128 0x3
 3111 02b4 08       		.uleb128 0x8
 3112 02b5 3A       		.uleb128 0x3a
 3113 02b6 0B       		.uleb128 0xb
 3114 02b7 3B       		.uleb128 0x3b
 3115 02b8 0B       		.uleb128 0xb
 3116 02b9 49       		.uleb128 0x49
 3117 02ba 13       		.uleb128 0x13
 3118 02bb 3F       		.uleb128 0x3f
 3119 02bc 19       		.uleb128 0x19
 3120 02bd 02       		.uleb128 0x2
 3121 02be 18       		.uleb128 0x18
 3122 02bf 00       		.byte	0
 3123 02c0 00       		.byte	0
ARM GAS  /tmp/ccBf6c0r.s 			page 56


 3124 02c1 39       		.uleb128 0x39
 3125 02c2 2E       		.uleb128 0x2e
 3126 02c3 01       		.byte	0x1
 3127 02c4 3F       		.uleb128 0x3f
 3128 02c5 19       		.uleb128 0x19
 3129 02c6 03       		.uleb128 0x3
 3130 02c7 0E       		.uleb128 0xe
 3131 02c8 3A       		.uleb128 0x3a
 3132 02c9 0B       		.uleb128 0xb
 3133 02ca 3B       		.uleb128 0x3b
 3134 02cb 0B       		.uleb128 0xb
 3135 02cc 27       		.uleb128 0x27
 3136 02cd 19       		.uleb128 0x19
 3137 02ce 3C       		.uleb128 0x3c
 3138 02cf 19       		.uleb128 0x19
 3139 02d0 01       		.uleb128 0x1
 3140 02d1 13       		.uleb128 0x13
 3141 02d2 00       		.byte	0
 3142 02d3 00       		.byte	0
 3143 02d4 3A       		.uleb128 0x3a
 3144 02d5 2E       		.uleb128 0x2e
 3145 02d6 01       		.byte	0x1
 3146 02d7 3F       		.uleb128 0x3f
 3147 02d8 19       		.uleb128 0x19
 3148 02d9 03       		.uleb128 0x3
 3149 02da 0E       		.uleb128 0xe
 3150 02db 3A       		.uleb128 0x3a
 3151 02dc 0B       		.uleb128 0xb
 3152 02dd 3B       		.uleb128 0x3b
 3153 02de 05       		.uleb128 0x5
 3154 02df 27       		.uleb128 0x27
 3155 02e0 19       		.uleb128 0x19
 3156 02e1 49       		.uleb128 0x49
 3157 02e2 13       		.uleb128 0x13
 3158 02e3 3C       		.uleb128 0x3c
 3159 02e4 19       		.uleb128 0x19
 3160 02e5 01       		.uleb128 0x1
 3161 02e6 13       		.uleb128 0x13
 3162 02e7 00       		.byte	0
 3163 02e8 00       		.byte	0
 3164 02e9 3B       		.uleb128 0x3b
 3165 02ea 2E       		.uleb128 0x2e
 3166 02eb 01       		.byte	0x1
 3167 02ec 3F       		.uleb128 0x3f
 3168 02ed 19       		.uleb128 0x19
 3169 02ee 03       		.uleb128 0x3
 3170 02ef 0E       		.uleb128 0xe
 3171 02f0 3A       		.uleb128 0x3a
 3172 02f1 0B       		.uleb128 0xb
 3173 02f2 3B       		.uleb128 0x3b
 3174 02f3 05       		.uleb128 0x5
 3175 02f4 27       		.uleb128 0x27
 3176 02f5 19       		.uleb128 0x19
 3177 02f6 3C       		.uleb128 0x3c
 3178 02f7 19       		.uleb128 0x19
 3179 02f8 01       		.uleb128 0x1
 3180 02f9 13       		.uleb128 0x13
ARM GAS  /tmp/ccBf6c0r.s 			page 57


 3181 02fa 00       		.byte	0
 3182 02fb 00       		.byte	0
 3183 02fc 3C       		.uleb128 0x3c
 3184 02fd 2E       		.uleb128 0x2e
 3185 02fe 00       		.byte	0
 3186 02ff 3F       		.uleb128 0x3f
 3187 0300 19       		.uleb128 0x19
 3188 0301 03       		.uleb128 0x3
 3189 0302 0E       		.uleb128 0xe
 3190 0303 3A       		.uleb128 0x3a
 3191 0304 0B       		.uleb128 0xb
 3192 0305 3B       		.uleb128 0x3b
 3193 0306 05       		.uleb128 0x5
 3194 0307 27       		.uleb128 0x27
 3195 0308 19       		.uleb128 0x19
 3196 0309 3C       		.uleb128 0x3c
 3197 030a 19       		.uleb128 0x19
 3198 030b 00       		.byte	0
 3199 030c 00       		.byte	0
 3200 030d 3D       		.uleb128 0x3d
 3201 030e 2E       		.uleb128 0x2e
 3202 030f 01       		.byte	0x1
 3203 0310 3F       		.uleb128 0x3f
 3204 0311 19       		.uleb128 0x19
 3205 0312 03       		.uleb128 0x3
 3206 0313 0E       		.uleb128 0xe
 3207 0314 3A       		.uleb128 0x3a
 3208 0315 0B       		.uleb128 0xb
 3209 0316 3B       		.uleb128 0x3b
 3210 0317 05       		.uleb128 0x5
 3211 0318 27       		.uleb128 0x27
 3212 0319 19       		.uleb128 0x19
 3213 031a 3C       		.uleb128 0x3c
 3214 031b 19       		.uleb128 0x19
 3215 031c 00       		.byte	0
 3216 031d 00       		.byte	0
 3217 031e 00       		.byte	0
 3218              		.section	.debug_loc,"",%progbits
 3219              	.Ldebug_loc0:
 3220              	.LLST0:
 3221 0000 0C000000 		.4byte	.LVL2
 3222 0004 AC000000 		.4byte	.LVL16
 3223 0008 0100     		.2byte	0x1
 3224 000a 55       		.byte	0x55
 3225 000b B0000000 		.4byte	.LVL17
 3226 000f 18010000 		.4byte	.LFE123
 3227 0013 0100     		.2byte	0x1
 3228 0015 55       		.byte	0x55
 3229 0016 00000000 		.4byte	0
 3230 001a 00000000 		.4byte	0
 3231              	.LLST1:
 3232 001e 16000000 		.4byte	.LVL3
 3233 0022 AC000000 		.4byte	.LVL16
 3234 0026 0100     		.2byte	0x1
 3235 0028 57       		.byte	0x57
 3236 0029 B0000000 		.4byte	.LVL17
 3237 002d 18010000 		.4byte	.LFE123
ARM GAS  /tmp/ccBf6c0r.s 			page 58


 3238 0031 0100     		.2byte	0x1
 3239 0033 57       		.byte	0x57
 3240 0034 00000000 		.4byte	0
 3241 0038 00000000 		.4byte	0
 3242              	.LLST2:
 3243 003c 16000000 		.4byte	.LVL3
 3244 0040 24000000 		.4byte	.LVL4
 3245 0044 0100     		.2byte	0x1
 3246 0046 54       		.byte	0x54
 3247 0047 38000000 		.4byte	.LVL6
 3248 004b 5E000000 		.4byte	.LVL12
 3249 004f 0100     		.2byte	0x1
 3250 0051 54       		.byte	0x54
 3251 0052 B0000000 		.4byte	.LVL17
 3252 0056 CE000000 		.4byte	.LVL19
 3253 005a 0100     		.2byte	0x1
 3254 005c 54       		.byte	0x54
 3255 005d 00000000 		.4byte	0
 3256 0061 00000000 		.4byte	0
 3257              	.LLST3:
 3258 0065 40000000 		.4byte	.LVL8
 3259 0069 5E000000 		.4byte	.LVL12
 3260 006d 0100     		.2byte	0x1
 3261 006f 54       		.byte	0x54
 3262 0070 00000000 		.4byte	0
 3263 0074 00000000 		.4byte	0
 3264              	.LLST4:
 3265 0078 40000000 		.4byte	.LVL8
 3266 007c 6C000000 		.4byte	.LVL15
 3267 0080 0600     		.2byte	0x6
 3268 0082 03       		.byte	0x3
 3269 0083 00000000 		.4byte	SD2
 3270 0087 9F       		.byte	0x9f
 3271 0088 00000000 		.4byte	0
 3272 008c 00000000 		.4byte	0
 3273              	.LLST5:
 3274 0090 40000000 		.4byte	.LVL8
 3275 0094 4A000000 		.4byte	.LVL9
 3276 0098 0200     		.2byte	0x2
 3277 009a 30       		.byte	0x30
 3278 009b 9F       		.byte	0x9f
 3279 009c 4A000000 		.4byte	.LVL9
 3280 00a0 69000000 		.4byte	.LVL14-1
 3281 00a4 0100     		.2byte	0x1
 3282 00a6 51       		.byte	0x51
 3283 00a7 00000000 		.4byte	0
 3284 00ab 00000000 		.4byte	0
 3285              	.LLST6:
 3286 00af DA000000 		.4byte	.LVL20
 3287 00b3 E0000000 		.4byte	.LVL21
 3288 00b7 0100     		.2byte	0x1
 3289 00b9 50       		.byte	0x50
 3290 00ba 00000000 		.4byte	0
 3291 00be 00000000 		.4byte	0
 3292              	.LLST7:
 3293 00c2 00000000 		.4byte	.LVL25
 3294 00c6 18000000 		.4byte	.LVL27
ARM GAS  /tmp/ccBf6c0r.s 			page 59


 3295 00ca 0100     		.2byte	0x1
 3296 00cc 50       		.byte	0x50
 3297 00cd 18000000 		.4byte	.LVL27
 3298 00d1 7C000000 		.4byte	.LVL31
 3299 00d5 0100     		.2byte	0x1
 3300 00d7 55       		.byte	0x55
 3301 00d8 7C000000 		.4byte	.LVL31
 3302 00dc 92000000 		.4byte	.LVL32
 3303 00e0 0100     		.2byte	0x1
 3304 00e2 50       		.byte	0x50
 3305 00e3 92000000 		.4byte	.LVL32
 3306 00e7 A2000000 		.4byte	.LFE125
 3307 00eb 0100     		.2byte	0x1
 3308 00ed 55       		.byte	0x55
 3309 00ee 00000000 		.4byte	0
 3310 00f2 00000000 		.4byte	0
 3311              	.LLST8:
 3312 00f6 00000000 		.4byte	.LVL25
 3313 00fa 12000000 		.4byte	.LVL26
 3314 00fe 0100     		.2byte	0x1
 3315 0100 51       		.byte	0x51
 3316 0101 12000000 		.4byte	.LVL26
 3317 0105 5E000000 		.4byte	.LVL29
 3318 0109 0100     		.2byte	0x1
 3319 010b 54       		.byte	0x54
 3320 010c 5E000000 		.4byte	.LVL29
 3321 0110 7C000000 		.4byte	.LVL31
 3322 0114 1300     		.2byte	0x13
 3323 0116 F3       		.byte	0xf3
 3324 0117 01       		.uleb128 0x1
 3325 0118 51       		.byte	0x51
 3326 0119 03       		.byte	0x3
 3327 011a 00000000 		.4byte	.LANCHOR1
 3328 011e F3       		.byte	0xf3
 3329 011f 01       		.uleb128 0x1
 3330 0120 51       		.byte	0x51
 3331 0121 30       		.byte	0x30
 3332 0122 2E       		.byte	0x2e
 3333 0123 28       		.byte	0x28
 3334 0124 0100     		.2byte	0x1
 3335 0126 16       		.byte	0x16
 3336 0127 13       		.byte	0x13
 3337 0128 9F       		.byte	0x9f
 3338 0129 7C000000 		.4byte	.LVL31
 3339 012d A2000000 		.4byte	.LFE125
 3340 0131 0100     		.2byte	0x1
 3341 0133 54       		.byte	0x54
 3342 0134 00000000 		.4byte	0
 3343 0138 00000000 		.4byte	0
 3344              	.LLST9:
 3345 013c 1A000000 		.4byte	.LVL28
 3346 0140 7C000000 		.4byte	.LVL31
 3347 0144 0100     		.2byte	0x1
 3348 0146 55       		.byte	0x55
 3349 0147 00000000 		.4byte	0
 3350 014b 00000000 		.4byte	0
 3351              	.LLST10:
ARM GAS  /tmp/ccBf6c0r.s 			page 60


 3352 014f 1A000000 		.4byte	.LVL28
 3353 0153 5E000000 		.4byte	.LVL29
 3354 0157 0100     		.2byte	0x1
 3355 0159 54       		.byte	0x54
 3356 015a 5E000000 		.4byte	.LVL29
 3357 015e 7C000000 		.4byte	.LVL31
 3358 0162 1300     		.2byte	0x13
 3359 0164 F3       		.byte	0xf3
 3360 0165 01       		.uleb128 0x1
 3361 0166 51       		.byte	0x51
 3362 0167 03       		.byte	0x3
 3363 0168 00000000 		.4byte	.LANCHOR1
 3364 016c F3       		.byte	0xf3
 3365 016d 01       		.uleb128 0x1
 3366 016e 51       		.byte	0x51
 3367 016f 30       		.byte	0x30
 3368 0170 2E       		.byte	0x2e
 3369 0171 28       		.byte	0x28
 3370 0172 0100     		.2byte	0x1
 3371 0174 16       		.byte	0x16
 3372 0175 13       		.byte	0x13
 3373 0176 9F       		.byte	0x9f
 3374 0177 00000000 		.4byte	0
 3375 017b 00000000 		.4byte	0
 3376              	.LLST11:
 3377 017f 1A000000 		.4byte	.LVL28
 3378 0183 7A000000 		.4byte	.LVL30
 3379 0187 0100     		.2byte	0x1
 3380 0189 53       		.byte	0x53
 3381 018a 00000000 		.4byte	0
 3382 018e 00000000 		.4byte	0
 3383              	.LLST12:
 3384 0192 00000000 		.4byte	.LVL34
 3385 0196 28000000 		.4byte	.LVL36
 3386 019a 0100     		.2byte	0x1
 3387 019c 50       		.byte	0x50
 3388 019d 28000000 		.4byte	.LVL36
 3389 01a1 34000000 		.4byte	.LFE126
 3390 01a5 0400     		.2byte	0x4
 3391 01a7 F3       		.byte	0xf3
 3392 01a8 01       		.uleb128 0x1
 3393 01a9 50       		.byte	0x50
 3394 01aa 9F       		.byte	0x9f
 3395 01ab 00000000 		.4byte	0
 3396 01af 00000000 		.4byte	0
 3397              	.LLST13:
 3398 01b3 0E000000 		.4byte	.LVL35
 3399 01b7 2A000000 		.4byte	.LVL37
 3400 01bb 0100     		.2byte	0x1
 3401 01bd 52       		.byte	0x52
 3402 01be 2A000000 		.4byte	.LVL37
 3403 01c2 33000000 		.4byte	.LVL38-1
 3404 01c6 0500     		.2byte	0x5
 3405 01c8 F3       		.byte	0xf3
 3406 01c9 01       		.uleb128 0x1
 3407 01ca 50       		.byte	0x50
 3408 01cb 23       		.byte	0x23
ARM GAS  /tmp/ccBf6c0r.s 			page 61


 3409 01cc 74       		.uleb128 0x74
 3410 01cd 00000000 		.4byte	0
 3411 01d1 00000000 		.4byte	0
 3412              		.section	.debug_aranges,"",%progbits
 3413 0000 3C000000 		.4byte	0x3c
 3414 0004 0200     		.2byte	0x2
 3415 0006 00000000 		.4byte	.Ldebug_info0
 3416 000a 04       		.byte	0x4
 3417 000b 00       		.byte	0
 3418 000c 0000     		.2byte	0
 3419 000e 0000     		.2byte	0
 3420 0010 00000000 		.4byte	.LFB122
 3421 0014 14000000 		.4byte	.LFE122-.LFB122
 3422 0018 00000000 		.4byte	.LFB123
 3423 001c 18010000 		.4byte	.LFE123-.LFB123
 3424 0020 00000000 		.4byte	.LFB124
 3425 0024 26000000 		.4byte	.LFE124-.LFB124
 3426 0028 00000000 		.4byte	.LFB125
 3427 002c A2000000 		.4byte	.LFE125-.LFB125
 3428 0030 00000000 		.4byte	.LFB126
 3429 0034 34000000 		.4byte	.LFE126-.LFB126
 3430 0038 00000000 		.4byte	0
 3431 003c 00000000 		.4byte	0
 3432              		.section	.debug_ranges,"",%progbits
 3433              	.Ldebug_ranges0:
 3434 0000 02000000 		.4byte	.LBB26
 3435 0004 A8000000 		.4byte	.LBE26
 3436 0008 B0000000 		.4byte	.LBB42
 3437 000c 18010000 		.4byte	.LBE42
 3438 0010 00000000 		.4byte	0
 3439 0014 00000000 		.4byte	0
 3440 0018 A0000000 		.4byte	.LBB33
 3441 001c A2000000 		.4byte	.LBE33
 3442 0020 A4000000 		.4byte	.LBB34
 3443 0024 A8000000 		.4byte	.LBE34
 3444 0028 00000000 		.4byte	0
 3445 002c 00000000 		.4byte	0
 3446 0030 CE000000 		.4byte	.LBB37
 3447 0034 EC000000 		.4byte	.LBE37
 3448 0038 FC000000 		.4byte	.LBB40
 3449 003c 18010000 		.4byte	.LBE40
 3450 0040 00000000 		.4byte	0
 3451 0044 00000000 		.4byte	0
 3452 0048 12000000 		.4byte	.LBB47
 3453 004c 14000000 		.4byte	.LBE47
 3454 0050 16000000 		.4byte	.LBB50
 3455 0054 1C000000 		.4byte	.LBE50
 3456 0058 00000000 		.4byte	0
 3457 005c 00000000 		.4byte	0
 3458 0060 00000000 		.4byte	.LFB122
 3459 0064 14000000 		.4byte	.LFE122
 3460 0068 00000000 		.4byte	.LFB123
 3461 006c 18010000 		.4byte	.LFE123
 3462 0070 00000000 		.4byte	.LFB124
 3463 0074 26000000 		.4byte	.LFE124
 3464 0078 00000000 		.4byte	.LFB125
 3465 007c A2000000 		.4byte	.LFE125
ARM GAS  /tmp/ccBf6c0r.s 			page 62


 3466 0080 00000000 		.4byte	.LFB126
 3467 0084 34000000 		.4byte	.LFE126
 3468 0088 00000000 		.4byte	0
 3469 008c 00000000 		.4byte	0
 3470              		.section	.debug_line,"",%progbits
 3471              	.Ldebug_line0:
 3472 0000 06030000 		.section	.debug_str,"MS",%progbits,1
 3472      02002002 
 3472      00000201 
 3472      FB0E0D00 
 3472      01010101 
 3473              	.LASF147:
 3474 0000 6E766963 		.ascii	"nvicEnableVector\000"
 3474      456E6162 
 3474      6C655665 
 3474      63746F72 
 3474      00
 3475              	.LASF2:
 3476 0011 73697A65 		.ascii	"size_t\000"
 3476      5F7400
 3477              	.LASF66:
 3478 0018 7264796D 		.ascii	"rdymsg\000"
 3478      736700
 3479              	.LASF82:
 3480 001f 4F757470 		.ascii	"OutputQueue\000"
 3480      75745175 
 3480      65756500 
 3481              	.LASF3:
 3482 002b 5F5F7569 		.ascii	"__uint8_t\000"
 3482      6E74385F 
 3482      7400
 3483              	.LASF138:
 3484 0035 7365745F 		.ascii	"set_error\000"
 3484      6572726F 
 3484      7200
 3485              	.LASF148:
 3486 003f 474E5520 		.ascii	"GNU C 4.8.2 -mcpu=cortex-m4 -mno-thumb-interwork -m"
 3486      4320342E 
 3486      382E3220 
 3486      2D6D6370 
 3486      753D636F 
 3487 0072 7468756D 		.ascii	"thumb -ggdb -O2 -fomit-frame-pointer -falign-functi"
 3487      62202D67 
 3487      67646220 
 3487      2D4F3220 
 3487      2D666F6D 
 3488 00a5 6F6E733D 		.ascii	"ons=16 -ffunction-sections -fdata-sections -fno-com"
 3488      3136202D 
 3488      6666756E 
 3488      6374696F 
 3488      6E2D7365 
 3489 00d8 6D6F6E00 		.ascii	"mon\000"
 3490              	.LASF13:
 3491 00dc 6C6F6E67 		.ascii	"long long unsigned int\000"
 3491      206C6F6E 
 3491      6720756E 
 3491      7369676E 
ARM GAS  /tmp/ccBf6c0r.s 			page 63


 3491      65642069 
 3492              	.LASF67:
 3493 00f3 65786974 		.ascii	"exitcode\000"
 3493      636F6465 
 3493      00
 3494              	.LASF143:
 3495 00fc 49544D5F 		.ascii	"ITM_RxBuffer\000"
 3495      52784275 
 3495      66666572 
 3495      00
 3496              	.LASF99:
 3497 0109 41484231 		.ascii	"AHB1LPENR\000"
 3497      4C50454E 
 3497      5200
 3498              	.LASF146:
 3499 0113 73644F62 		.ascii	"sdObjectInit\000"
 3499      6A656374 
 3499      496E6974 
 3499      00
 3500              	.LASF133:
 3501 0120 72656164 		.ascii	"readt\000"
 3501      7400
 3502              	.LASF72:
 3503 0126 715F7761 		.ascii	"q_waiting\000"
 3503      6974696E 
 3503      6700
 3504              	.LASF111:
 3505 0130 44434B43 		.ascii	"DCKCFGR\000"
 3505      46475200 
 3506              	.LASF12:
 3507 0138 6C6F6E67 		.ascii	"long long int\000"
 3507      206C6F6E 
 3507      6720696E 
 3507      7400
 3508              	.LASF1:
 3509 0146 7369676E 		.ascii	"signed char\000"
 3509      65642063 
 3509      68617200 
 3510              	.LASF85:
 3511 0152 41484231 		.ascii	"AHB1RSTR\000"
 3511      52535452 
 3511      00
 3512              	.LASF113:
 3513 015b 47545052 		.ascii	"GTPR\000"
 3513      00
 3514              	.LASF48:
 3515 0160 705F6D70 		.ascii	"p_mpool\000"
 3515      6F6F6C00 
 3516              	.LASF18:
 3517 0168 626F6F6C 		.ascii	"bool_t\000"
 3517      5F7400
 3518              	.LASF56:
 3519 016f 6D5F7175 		.ascii	"m_queue\000"
 3519      65756500 
 3520              	.LASF23:
 3521 0177 74736C69 		.ascii	"tslices_t\000"
 3521      6365735F 
ARM GAS  /tmp/ccBf6c0r.s 			page 64


 3521      7400
 3522              	.LASF112:
 3523 0181 5243435F 		.ascii	"RCC_TypeDef\000"
 3523      54797065 
 3523      44656600 
 3524              	.LASF152:
 3525 018d 64656661 		.ascii	"default_config\000"
 3525      756C745F 
 3525      636F6E66 
 3525      696700
 3526              	.LASF121:
 3527 019c 73746174 		.ascii	"state\000"
 3527      6500
 3528              	.LASF9:
 3529 01a2 6C6F6E67 		.ascii	"long int\000"
 3529      20696E74 
 3529      00
 3530              	.LASF90:
 3531 01ab 41504232 		.ascii	"APB2RSTR\000"
 3531      52535452 
 3531      00
 3532              	.LASF103:
 3533 01b4 41504231 		.ascii	"APB1LPENR\000"
 3533      4C50454E 
 3533      5200
 3534              	.LASF21:
 3535 01be 74737461 		.ascii	"tstate_t\000"
 3535      74655F74 
 3535      00
 3536              	.LASF153:
 3537 01c7 63684F51 		.ascii	"chOQGetI\000"
 3537      47657449 
 3537      00
 3538              	.LASF39:
 3539 01d0 705F7265 		.ascii	"p_refs\000"
 3539      667300
 3540              	.LASF74:
 3541 01d7 715F6275 		.ascii	"q_buffer\000"
 3541      66666572 
 3541      00
 3542              	.LASF76:
 3543 01e0 715F7772 		.ascii	"q_wrptr\000"
 3543      70747200 
 3544              	.LASF41:
 3545 01e8 705F7469 		.ascii	"p_time\000"
 3545      6D6500
 3546              	.LASF144:
 3547 01ef 63684576 		.ascii	"chEvtBroadcastFlagsI\000"
 3547      7442726F 
 3547      61646361 
 3547      7374466C 
 3547      61677349 
 3548              	.LASF34:
 3549 0204 705F6E65 		.ascii	"p_newer\000"
 3549      77657200 
 3550              	.LASF83:
 3551 020c 504C4C43 		.ascii	"PLLCFGR\000"
ARM GAS  /tmp/ccBf6c0r.s 			page 65


 3551      46475200 
 3552              	.LASF10:
 3553 0214 5F5F7569 		.ascii	"__uint32_t\000"
 3553      6E743332 
 3553      5F7400
 3554              	.LASF51:
 3555 021f 72656761 		.ascii	"regarm_t\000"
 3555      726D5F74 
 3555      00
 3556              	.LASF136:
 3557 0228 75736172 		.ascii	"usart_deinit\000"
 3557      745F6465 
 3557      696E6974 
 3557      00
 3558              	.LASF64:
 3559 0235 4576656E 		.ascii	"EventSource\000"
 3559      74536F75 
 3559      72636500 
 3560              	.LASF124:
 3561 0241 75736172 		.ascii	"usart\000"
 3561      7400
 3562              	.LASF0:
 3563 0247 756E7369 		.ascii	"unsigned int\000"
 3563      676E6564 
 3563      20696E74 
 3563      00
 3564              	.LASF15:
 3565 0254 75696E74 		.ascii	"uint16_t\000"
 3565      31365F74 
 3565      00
 3566              	.LASF127:
 3567 025d 53657269 		.ascii	"SerialDriverVMT\000"
 3567      616C4472 
 3567      69766572 
 3567      564D5400 
 3568              	.LASF122:
 3569 026d 69717565 		.ascii	"iqueue\000"
 3569      756500
 3570              	.LASF43:
 3571 0274 705F6D73 		.ascii	"p_msgqueue\000"
 3571      67717565 
 3571      756500
 3572              	.LASF140:
 3573 027f 73645F6C 		.ascii	"sd_lld_init\000"
 3573      6C645F69 
 3573      6E697400 
 3574              	.LASF131:
 3575 028b 67657474 		.ascii	"gett\000"
 3575      00
 3576              	.LASF120:
 3577 0290 6576656E 		.ascii	"event\000"
 3577      7400
 3578              	.LASF7:
 3579 0296 73686F72 		.ascii	"short unsigned int\000"
 3579      7420756E 
 3579      7369676E 
 3579      65642069 
ARM GAS  /tmp/ccBf6c0r.s 			page 66


 3579      6E7400
 3580              	.LASF109:
 3581 02a9 504C4C49 		.ascii	"PLLI2SCFGR\000"
 3581      32534346 
 3581      475200
 3582              	.LASF25:
 3583 02b4 6D73675F 		.ascii	"msg_t\000"
 3583      7400
 3584              	.LASF123:
 3585 02ba 6F717565 		.ascii	"oqueue\000"
 3585      756500
 3586              	.LASF154:
 3587 02c1 5F706F72 		.ascii	"_port_irq_epilogue\000"
 3587      745F6972 
 3587      715F6570 
 3587      696C6F67 
 3587      756500
 3588              	.LASF114:
 3589 02d4 55534152 		.ascii	"USART_TypeDef\000"
 3589      545F5479 
 3589      70654465 
 3589      6600
 3590              	.LASF132:
 3591 02e2 77726974 		.ascii	"writet\000"
 3591      657400
 3592              	.LASF20:
 3593 02e9 746D6F64 		.ascii	"tmode_t\000"
 3593      655F7400 
 3594              	.LASF104:
 3595 02f1 41504232 		.ascii	"APB2LPENR\000"
 3595      4C50454E 
 3595      5200
 3596              	.LASF50:
 3597 02fb 54687265 		.ascii	"ThreadsList\000"
 3597      6164734C 
 3597      69737400 
 3598              	.LASF26:
 3599 0307 6576656E 		.ascii	"eventmask_t\000"
 3599      746D6173 
 3599      6B5F7400 
 3600              	.LASF81:
 3601 0313 496E7075 		.ascii	"InputQueue\000"
 3601      74517565 
 3601      756500
 3602              	.LASF125:
 3603 031e 73706565 		.ascii	"speed\000"
 3603      6400
 3604              	.LASF139:
 3605 0324 56656374 		.ascii	"VectorD8\000"
 3605      6F724438 
 3605      00
 3606              	.LASF80:
 3607 032d 716E6F74 		.ascii	"qnotify_t\000"
 3607      6966795F 
 3607      7400
 3608              	.LASF71:
 3609 0337 47656E65 		.ascii	"GenericQueue\000"
ARM GAS  /tmp/ccBf6c0r.s 			page 67


 3609      72696351 
 3609      75657565 
 3609      00
 3610              	.LASF128:
 3611 0344 77726974 		.ascii	"write\000"
 3611      6500
 3612              	.LASF130:
 3613 034a 70757474 		.ascii	"putt\000"
 3613      00
 3614              	.LASF135:
 3615 034f 75736172 		.ascii	"usart_init\000"
 3615      745F696E 
 3615      697400
 3616              	.LASF54:
 3617 035a 73697A65 		.ascii	"sizetype\000"
 3617      74797065 
 3617      00
 3618              	.LASF73:
 3619 0363 715F636F 		.ascii	"q_counter\000"
 3619      756E7465 
 3619      7200
 3620              	.LASF55:
 3621 036d 4D757465 		.ascii	"Mutex\000"
 3621      7800
 3622              	.LASF30:
 3623 0373 705F6E65 		.ascii	"p_next\000"
 3623      787400
 3624              	.LASF94:
 3625 037a 41484233 		.ascii	"AHB3ENR\000"
 3625      454E5200 
 3626              	.LASF35:
 3627 0382 705F6F6C 		.ascii	"p_older\000"
 3627      64657200 
 3628              	.LASF49:
 3629 038a 54687265 		.ascii	"ThreadsQueue\000"
 3629      61647351 
 3629      75657565 
 3629      00
 3630              	.LASF100:
 3631 0397 41484232 		.ascii	"AHB2LPENR\000"
 3631      4C50454E 
 3631      5200
 3632              	.LASF89:
 3633 03a1 41504231 		.ascii	"APB1RSTR\000"
 3633      52535452 
 3633      00
 3634              	.LASF62:
 3635 03aa 656C5F6D 		.ascii	"el_mask\000"
 3635      61736B00 
 3636              	.LASF126:
 3637 03b2 53657269 		.ascii	"SerialConfig\000"
 3637      616C436F 
 3637      6E666967 
 3637      00
 3638              	.LASF151:
 3639 03bf 6E6F7469 		.ascii	"notify2\000"
 3639      66793200 
ARM GAS  /tmp/ccBf6c0r.s 			page 68


 3640              	.LASF110:
 3641 03c7 504C4C53 		.ascii	"PLLSAICFGR\000"
 3641      41494346 
 3641      475200
 3642              	.LASF22:
 3643 03d2 74726566 		.ascii	"trefs_t\000"
 3643      735F7400 
 3644              	.LASF88:
 3645 03da 52455345 		.ascii	"RESERVED0\000"
 3645      52564544 
 3645      3000
 3646              	.LASF91:
 3647 03e4 52455345 		.ascii	"RESERVED1\000"
 3647      52564544 
 3647      3100
 3648              	.LASF95:
 3649 03ee 52455345 		.ascii	"RESERVED2\000"
 3649      52564544 
 3649      3200
 3650              	.LASF98:
 3651 03f8 52455345 		.ascii	"RESERVED3\000"
 3651      52564544 
 3651      3300
 3652              	.LASF102:
 3653 0402 52455345 		.ascii	"RESERVED4\000"
 3653      52564544 
 3653      3400
 3654              	.LASF31:
 3655 040c 705F7072 		.ascii	"p_prev\000"
 3655      657600
 3656              	.LASF107:
 3657 0413 52455345 		.ascii	"RESERVED6\000"
 3657      52564544 
 3657      3600
 3658              	.LASF24:
 3659 041d 74707269 		.ascii	"tprio_t\000"
 3659      6F5F7400 
 3660              	.LASF77:
 3661 0425 715F7264 		.ascii	"q_rdptr\000"
 3661      70747200 
 3662              	.LASF19:
 3663 042d 5F426F6F 		.ascii	"_Bool\000"
 3663      6C00
 3664              	.LASF16:
 3665 0433 696E7433 		.ascii	"int32_t\000"
 3665      325F7400 
 3666              	.LASF4:
 3667 043b 756E7369 		.ascii	"unsigned char\000"
 3667      676E6564 
 3667      20636861 
 3667      7200
 3668              	.LASF141:
 3669 0449 73645F6C 		.ascii	"sd_lld_start\000"
 3669      6C645F73 
 3669      74617274 
 3669      00
 3670              	.LASF61:
ARM GAS  /tmp/ccBf6c0r.s 			page 69


 3671 0456 656C5F6C 		.ascii	"el_listener\000"
 3671      69737465 
 3671      6E657200 
 3672              	.LASF63:
 3673 0462 656C5F66 		.ascii	"el_flags\000"
 3673      6C616773 
 3673      00
 3674              	.LASF37:
 3675 046b 705F7374 		.ascii	"p_state\000"
 3675      61746500 
 3676              	.LASF46:
 3677 0473 705F6D74 		.ascii	"p_mtxlist\000"
 3677      786C6973 
 3677      7400
 3678              	.LASF5:
 3679 047d 73686F72 		.ascii	"short int\000"
 3679      7420696E 
 3679      7400
 3680              	.LASF40:
 3681 0487 705F7072 		.ascii	"p_preempt\000"
 3681      65656D70 
 3681      7400
 3682              	.LASF101:
 3683 0491 41484233 		.ascii	"AHB3LPENR\000"
 3683      4C50454E 
 3683      5200
 3684              	.LASF69:
 3685 049b 65776D61 		.ascii	"ewmask\000"
 3685      736B00
 3686              	.LASF38:
 3687 04a2 705F666C 		.ascii	"p_flags\000"
 3687      61677300 
 3688              	.LASF60:
 3689 04aa 656C5F6E 		.ascii	"el_next\000"
 3689      65787400 
 3690              	.LASF116:
 3691 04b2 53445F53 		.ascii	"SD_STOP\000"
 3691      544F5000 
 3692              	.LASF97:
 3693 04ba 41504232 		.ascii	"APB2ENR\000"
 3693      454E5200 
 3694              	.LASF87:
 3695 04c2 41484233 		.ascii	"AHB3RSTR\000"
 3695      52535452 
 3695      00
 3696              	.LASF29:
 3697 04cb 54687265 		.ascii	"Thread\000"
 3697      616400
 3698              	.LASF137:
 3699 04d2 73657276 		.ascii	"serve_interrupt\000"
 3699      655F696E 
 3699      74657272 
 3699      75707400 
 3700              	.LASF45:
 3701 04e2 705F6570 		.ascii	"p_epending\000"
 3701      656E6469 
 3701      6E6700
ARM GAS  /tmp/ccBf6c0r.s 			page 70


 3702              	.LASF115:
 3703 04ed 53445F55 		.ascii	"SD_UNINIT\000"
 3703      4E494E49 
 3703      5400
 3704              	.LASF105:
 3705 04f7 52455345 		.ascii	"RESERVED5\000"
 3705      52564544 
 3705      3500
 3706              	.LASF17:
 3707 0501 75696E74 		.ascii	"uint32_t\000"
 3707      33325F74 
 3707      00
 3708              	.LASF118:
 3709 050a 73647374 		.ascii	"sdstate_t\000"
 3709      6174655F 
 3709      7400
 3710              	.LASF119:
 3711 0514 53657269 		.ascii	"SerialDriver\000"
 3711      616C4472 
 3711      69766572 
 3711      00
 3712              	.LASF155:
 3713 0521 6E766963 		.ascii	"nvicDisableVector\000"
 3713      44697361 
 3713      626C6556 
 3713      6563746F 
 3713      7200
 3714              	.LASF11:
 3715 0533 6C6F6E67 		.ascii	"long unsigned int\000"
 3715      20756E73 
 3715      69676E65 
 3715      6420696E 
 3715      7400
 3716              	.LASF129:
 3717 0545 72656164 		.ascii	"read\000"
 3717      00
 3718              	.LASF70:
 3719 054a 63686172 		.ascii	"char\000"
 3719      00
 3720              	.LASF145:
 3721 054f 7364496E 		.ascii	"sdIncomingDataI\000"
 3721      636F6D69 
 3721      6E674461 
 3721      74614900 
 3722              	.LASF134:
 3723 055f 636F6E66 		.ascii	"config\000"
 3723      696700
 3724              	.LASF6:
 3725 0566 5F5F7569 		.ascii	"__uint16_t\000"
 3725      6E743136 
 3725      5F7400
 3726              	.LASF86:
 3727 0571 41484232 		.ascii	"AHB2RSTR\000"
 3727      52535452 
 3727      00
 3728              	.LASF58:
 3729 057a 6D5F6E65 		.ascii	"m_next\000"
ARM GAS  /tmp/ccBf6c0r.s 			page 71


 3729      787400
 3730              	.LASF28:
 3731 0581 73797374 		.ascii	"systime_t\000"
 3731      696D655F 
 3731      7400
 3732              	.LASF47:
 3733 058b 705F7265 		.ascii	"p_realprio\000"
 3733      616C7072 
 3733      696F00
 3734              	.LASF8:
 3735 0596 5F5F696E 		.ascii	"__int32_t\000"
 3735      7433325F 
 3735      7400
 3736              	.LASF96:
 3737 05a0 41504231 		.ascii	"APB1ENR\000"
 3737      454E5200 
 3738              	.LASF93:
 3739 05a8 41484232 		.ascii	"AHB2ENR\000"
 3739      454E5200 
 3740              	.LASF53:
 3741 05b0 636F6E74 		.ascii	"context\000"
 3741      65787400 
 3742              	.LASF52:
 3743 05b8 696E7463 		.ascii	"intctx\000"
 3743      747800
 3744              	.LASF117:
 3745 05bf 53445F52 		.ascii	"SD_READY\000"
 3745      45414459 
 3745      00
 3746              	.LASF27:
 3747 05c8 666C6167 		.ascii	"flagsmask_t\000"
 3747      736D6173 
 3747      6B5F7400 
 3748              	.LASF108:
 3749 05d4 53534347 		.ascii	"SSCGR\000"
 3749      5200
 3750              	.LASF75:
 3751 05da 715F746F 		.ascii	"q_top\000"
 3751      7000
 3752              	.LASF36:
 3753 05e0 705F6E61 		.ascii	"p_name\000"
 3753      6D6500
 3754              	.LASF65:
 3755 05e7 65735F6E 		.ascii	"es_next\000"
 3755      65787400 
 3756              	.LASF106:
 3757 05ef 42444352 		.ascii	"BDCR\000"
 3757      00
 3758              	.LASF78:
 3759 05f4 715F6E6F 		.ascii	"q_notify\000"
 3759      74696679 
 3759      00
 3760              	.LASF44:
 3761 05fd 705F6D73 		.ascii	"p_msg\000"
 3761      6700
 3762              	.LASF14:
 3763 0603 75696E74 		.ascii	"uint8_t\000"
ARM GAS  /tmp/ccBf6c0r.s 			page 72


 3763      385F7400 
 3764              	.LASF150:
 3765 060b 2F686F6D 		.ascii	"/home/mo/ARMProjects/ChibiOS_Sample/ChibiOS_2.6.5/d"
 3765      652F6D6F 
 3765      2F41524D 
 3765      50726F6A 
 3765      65637473 
 3766 063e 656D6F73 		.ascii	"emos/_ARMCM4-STM32F407-DISCOVERY-MEMS\000"
 3766      2F5F4152 
 3766      4D434D34 
 3766      2D53544D 
 3766      33324634 
 3767              	.LASF32:
 3768 0664 705F7072 		.ascii	"p_prio\000"
 3768      696F00
 3769              	.LASF59:
 3770 066b 4576656E 		.ascii	"EventListener\000"
 3770      744C6973 
 3770      74656E65 
 3770      7200
 3771              	.LASF68:
 3772 0679 77746F62 		.ascii	"wtobjp\000"
 3772      6A7000
 3773              	.LASF92:
 3774 0680 41484231 		.ascii	"AHB1ENR\000"
 3774      454E5200 
 3775              	.LASF84:
 3776 0688 43464752 		.ascii	"CFGR\000"
 3776      00
 3777              	.LASF149:
 3778 068d 2E2E2F2E 		.ascii	"../../os/hal/platforms/STM32/USARTv1/serial_lld.c\000"
 3778      2E2F6F73 
 3778      2F68616C 
 3778      2F706C61 
 3778      74666F72 
 3779              	.LASF142:
 3780 06bf 73645F6C 		.ascii	"sd_lld_stop\000"
 3780      6C645F73 
 3780      746F7000 
 3781              	.LASF79:
 3782 06cb 715F6C69 		.ascii	"q_link\000"
 3782      6E6B00
 3783              	.LASF57:
 3784 06d2 6D5F6F77 		.ascii	"m_owner\000"
 3784      6E657200 
 3785              	.LASF33:
 3786 06da 705F6374 		.ascii	"p_ctx\000"
 3786      7800
 3787              	.LASF42:
 3788 06e0 705F7761 		.ascii	"p_waiting\000"
 3788      6974696E 
 3788      6700
 3789              		.ident	"GCC: (4.8.2-14ubuntu1+6) 4.8.2"
ARM GAS  /tmp/ccBf6c0r.s 			page 73


DEFINED SYMBOLS
                            *ABS*:0000000000000000 serial_lld.c
     /tmp/ccBf6c0r.s:19     .text.notify2:0000000000000000 $t
     /tmp/ccBf6c0r.s:24     .text.notify2:0000000000000000 notify2
     /tmp/ccBf6c0r.s:45     .text.VectorD8:0000000000000000 $t
     /tmp/ccBf6c0r.s:51     .text.VectorD8:0000000000000000 VectorD8
     /tmp/ccBf6c0r.s:562    .bss.SD2:0000000000000000 .LANCHOR0
     /tmp/ccBf6c0r.s:308    .text.VectorD8:0000000000000110 $d
     /tmp/ccBf6c0r.s:317    .text.sd_lld_init:0000000000000000 $t
     /tmp/ccBf6c0r.s:323    .text.sd_lld_init:0000000000000000 sd_lld_init
     /tmp/ccBf6c0r.s:351    .text.sd_lld_start:0000000000000000 $t
     /tmp/ccBf6c0r.s:357    .text.sd_lld_start:0000000000000000 sd_lld_start
     /tmp/ccBf6c0r.s:551    .rodata.default_config:0000000000000000 .LANCHOR1
     /tmp/ccBf6c0r.s:483    .text.sd_lld_stop:0000000000000000 $t
     /tmp/ccBf6c0r.s:489    .text.sd_lld_stop:0000000000000000 sd_lld_stop
     /tmp/ccBf6c0r.s:565    .bss.SD2:0000000000000000 SD2
     /tmp/ccBf6c0r.s:550    .rodata.default_config:0000000000000000 $d
     /tmp/ccBf6c0r.s:554    .rodata.default_config:0000000000000000 default_config
     /tmp/ccBf6c0r.s:561    .bss.SD2:0000000000000000 $d
                     .debug_frame:0000000000000010 $d
     /tmp/ccBf6c0r.s:316    .text.VectorD8:0000000000000118 $t

UNDEFINED SYMBOLS
sdIncomingDataI
chEvtBroadcastFlagsI
_port_irq_epilogue
chOQGetI
sdObjectInit
nvicEnableVector
nvicDisableVector
