ARM GAS  /tmp/ccBf6c0r.s 			page 1


   1              		.syntax unified
   2              		.cpu cortex-m4
   3              		.fpu softvfp
   4              		.eabi_attribute 20, 1
   5              		.eabi_attribute 21, 1
   6              		.eabi_attribute 23, 3
   7              		.eabi_attribute 24, 1
   8              		.eabi_attribute 25, 1
   9              		.eabi_attribute 26, 1
  10              		.eabi_attribute 30, 2
  11              		.eabi_attribute 34, 1
  12              		.eabi_attribute 18, 4
  13              		.thumb
  14              		.file	"serial_lld.c"
  15              		.text
  16              	.Ltext0:
  17              		.cfi_sections	.debug_frame
  18              		.section	.text.notify2,"ax",%progbits
  19              		.align	2
  20              		.p2align 4,,15
  21              		.thumb
  22              		.thumb_func
  23              		.type	notify2, %function
  24              	notify2:
  25              	.LFB122:
  26              		.file 1 "../../os/hal/platforms/STM32/USARTv1/serial_lld.c"
  27              		.loc 1 212 0
  28              		.cfi_startproc
  29              		@ args = 0, pretend = 0, frame = 0
  30              		@ frame_needed = 0, uses_anonymous_args = 0
  31              		@ link register save eliminated.
  32              	.LVL0:
  33              		.loc 1 215 0
  34 0000 4FF48843 		mov	r3, #17408
  35 0004 C4F20003 		movt	r3, 16384
  36 0008 9A89     		ldrh	r2, [r3, #12]
  37 000a 92B2     		uxth	r2, r2
  38 000c 42F08002 		orr	r2, r2, #128
  39 0010 9A81     		strh	r2, [r3, #12]	@ movhi
  40 0012 7047     		bx	lr
  41              		.cfi_endproc
  42              	.LFE122:
  43              		.size	notify2, .-notify2
  44              		.section	.text.VectorD8,"ax",%progbits
  45              		.align	2
  46              		.p2align 4,,15
  47              		.global	VectorD8
  48              		.thumb
  49              		.thumb_func
  50              		.type	VectorD8, %function
  51              	VectorD8:
  52              	.LFB123:
  53              		.loc 1 283 0
  54              		.cfi_startproc
  55              		@ args = 0, pretend = 0, frame = 0
  56              		@ frame_needed = 0, uses_anonymous_args = 0
  57              	.LVL1:
ARM GAS  /tmp/ccBf6c0r.s 			page 2


  58 0000 F8B5     		push	{r3, r4, r5, r6, r7, lr}
  59              		.cfi_def_cfa_offset 24
  60              		.cfi_offset 3, -24
  61              		.cfi_offset 4, -20
  62              		.cfi_offset 5, -16
  63              		.cfi_offset 6, -12
  64              		.cfi_offset 7, -8
  65              		.cfi_offset 14, -4
  66              	.LBB26:
  67              	.LBB27:
  68              		.loc 1 155 0
  69 0002 40F20006 		movw	r6, #:lower16:.LANCHOR0
  70 0006 C0F20006 		movt	r6, #:upper16:.LANCHOR0
  71 000a 756F     		ldr	r5, [r6, #116]
  72              	.LVL2:
  73              		.loc 1 156 0
  74 000c AF89     		ldrh	r7, [r5, #12]
  75              		.loc 1 157 0
  76 000e 2C88     		ldrh	r4, [r5]
  77 0010 A4B2     		uxth	r4, r4
  78              		.loc 1 160 0
  79 0012 E005     		lsls	r0, r4, #23
  80              		.loc 1 156 0
  81 0014 BFB2     		uxth	r7, r7
  82              	.LVL3:
  83              		.loc 1 160 0
  84 0016 4BD4     		bmi	.L49
  85              	.L3:
  86              	.LBB28:
  87              		.loc 1 168 0
  88 0018 2023     		movs	r3, #32
  89              	@ 168 "../../os/hal/platforms/STM32/USARTv1/serial_lld.c" 1
  90 001a 83F31188 		msr     BASEPRI, r3
  91              	@ 0 "" 2
  92              		.thumb
  93              	.LBE28:
  94              		.loc 1 169 0
  95 001e A106     		lsls	r1, r4, #26
  96 0020 24D5     		bpl	.L4
  97 0022 0BE0     		b	.L10
  98              	.LVL4:
  99              	.L5:
 100              		.loc 1 173 0
 101 0024 A988     		ldrh	r1, [r5, #4]
 102 0026 40F20000 		movw	r0, #:lower16:.LANCHOR0
 103 002a C0F20000 		movt	r0, #:upper16:.LANCHOR0
 104 002e C9B2     		uxtb	r1, r1
 105 0030 FFF7FEFF 		bl	sdIncomingDataI
 106              	.LVL5:
 107              		.loc 1 174 0
 108 0034 2C88     		ldrh	r4, [r5]
 109 0036 A4B2     		uxth	r4, r4
 110              	.LVL6:
 111              		.loc 1 169 0
 112 0038 A006     		lsls	r0, r4, #26
 113 003a 17D5     		bpl	.L4
 114              	.LVL7:
ARM GAS  /tmp/ccBf6c0r.s 			page 3


 115              	.L10:
 116              		.loc 1 171 0
 117 003c 2207     		lsls	r2, r4, #28
 118 003e F1D0     		beq	.L5
 119              	.LVL8:
 120              	.LBB29:
 121              	.LBB30:
 122              		.loc 1 136 0
 123 0040 14F0080F 		tst	r4, #8
 124 0044 14BF     		ite	ne
 125 0046 8021     		movne	r1, #128
 126 0048 0021     		moveq	r1, #0
 127              	.LVL9:
 128              		.loc 1 140 0
 129 004a 14F0010F 		tst	r4, #1
 130              		.loc 1 141 0
 131 004e 18BF     		it	ne
 132 0050 41F02001 		orrne	r1, r1, #32
 133              	.LVL10:
 134              		.loc 1 142 0
 135 0054 A307     		lsls	r3, r4, #30
 136              		.loc 1 143 0
 137 0056 48BF     		it	mi
 138 0058 41F04001 		orrmi	r1, r1, #64
 139              	.LVL11:
 140              		.loc 1 144 0
 141 005c 6407     		lsls	r4, r4, #29
 142              	.LVL12:
 143              		.loc 1 146 0
 144 005e 2C48     		ldr	r0, .L53
 145              		.loc 1 145 0
 146 0060 48BF     		it	mi
 147 0062 41F48071 		orrmi	r1, r1, #256
 148              	.LVL13:
 149              		.loc 1 146 0
 150 0066 FFF7FEFF 		bl	chEvtBroadcastFlagsI
 151              	.LVL14:
 152 006a DBE7     		b	.L5
 153              	.LVL15:
 154              	.L4:
 155              	.LBE30:
 156              	.LBE29:
 157              	.LBB31:
 158              		.loc 1 176 0
 159 006c 0023     		movs	r3, #0
 160              	@ 176 "../../os/hal/platforms/STM32/USARTv1/serial_lld.c" 1
 161 006e 83F31188 		msr     BASEPRI, r3
 162              	@ 0 "" 2
 163              		.thumb
 164              	.LBE31:
 165              		.loc 1 179 0
 166 0072 3906     		lsls	r1, r7, #24
 167 0074 01D5     		bpl	.L11
 168 0076 2206     		lsls	r2, r4, #24
 169 0078 29D4     		bmi	.L50
 170              	.L11:
 171              		.loc 1 193 0
ARM GAS  /tmp/ccBf6c0r.s 			page 4


 172 007a 6306     		lsls	r3, r4, #25
 173 007c 14D5     		bpl	.L14
 174              	.LBB32:
 175              		.loc 1 194 0
 176 007e 2023     		movs	r3, #32
 177              	@ 194 "../../os/hal/platforms/STM32/USARTv1/serial_lld.c" 1
 178 0080 83F31188 		msr     BASEPRI, r3
 179              	@ 0 "" 2
 180              		.thumb
 181              	.LBE32:
 182              		.loc 1 195 0
 183 0084 726C     		ldr	r2, [r6, #68]
 184 0086 B36C     		ldr	r3, [r6, #72]
 185 0088 40F20000 		movw	r0, #:lower16:.LANCHOR0
 186 008c 9A42     		cmp	r2, r3
 187 008e C0F20000 		movt	r0, #:upper16:.LANCHOR0
 188 0092 2BD0     		beq	.L51
 189              	.L15:
 190              		.loc 1 197 0
 191 0094 4FF6BF73 		movw	r3, #65471
 192 0098 3B40     		ands	r3, r3, r7
 193              		.loc 1 198 0
 194 009a 4FF6BF72 		movw	r2, #65471
 195              		.loc 1 197 0
 196 009e AB81     		strh	r3, [r5, #12]	@ movhi
 197              	.LBB33:
 198              		.loc 1 199 0
 199 00a0 0023     		movs	r3, #0
 200              	.LBE33:
 201              		.loc 1 198 0
 202 00a2 2A80     		strh	r2, [r5]	@ movhi
 203              	.LBB34:
 204              		.loc 1 199 0
 205              	@ 199 "../../os/hal/platforms/STM32/USARTv1/serial_lld.c" 1
 206 00a4 83F31188 		msr     BASEPRI, r3
 207              	@ 0 "" 2
 208              		.thumb
 209              	.L14:
 210              	.LBE34:
 211              	.LBE27:
 212              	.LBE26:
 213              		.loc 1 290 0
 214 00a8 BDE8F840 		pop	{r3, r4, r5, r6, r7, lr}
 215              	.LVL16:
 216              		.loc 1 289 0
 217 00ac FFF7FEBF 		b	_port_irq_epilogue
 218              	.LVL17:
 219              	.L49:
 220              	.LBB42:
 221              	.LBB41:
 222              	.LBB35:
 223              		.loc 1 161 0
 224 00b0 2023     		movs	r3, #32
 225              	@ 161 "../../os/hal/platforms/STM32/USARTv1/serial_lld.c" 1
 226 00b2 83F31188 		msr     BASEPRI, r3
 227              	@ 0 "" 2
 228              		.thumb
ARM GAS  /tmp/ccBf6c0r.s 			page 5


 229              	.LBE35:
 230              		.loc 1 162 0
 231 00b6 4FF40071 		mov	r1, #512
 232 00ba 301D     		adds	r0, r6, #4
 233 00bc FFF7FEFF 		bl	chEvtBroadcastFlagsI
 234              	.LVL18:
 235              	.LBB36:
 236              		.loc 1 163 0
 237 00c0 0023     		movs	r3, #0
 238              	@ 163 "../../os/hal/platforms/STM32/USARTv1/serial_lld.c" 1
 239 00c2 83F31188 		msr     BASEPRI, r3
 240              	@ 0 "" 2
 241              		.thumb
 242              	.LBE36:
 243              		.loc 1 164 0
 244 00c6 4FF6FF63 		movw	r3, #65279
 245 00ca 2B80     		strh	r3, [r5]	@ movhi
 246 00cc A4E7     		b	.L3
 247              	.LVL19:
 248              	.L50:
 249              	.LBB37:
 250              	.LBB38:
 251              		.loc 1 181 0
 252 00ce 2023     		movs	r3, #32
 253              	@ 181 "../../os/hal/platforms/STM32/USARTv1/serial_lld.c" 1
 254 00d0 83F31188 		msr     BASEPRI, r3
 255              	@ 0 "" 2
 256              		.thumb
 257              	.LBE38:
 258              		.loc 1 182 0
 259 00d4 0F48     		ldr	r0, .L53+4
 260 00d6 FFF7FEFF 		bl	chOQGetI
 261              	.LVL20:
 262              		.loc 1 183 0
 263 00da 0028     		cmp	r0, #0
 264              		.loc 1 188 0
 265 00dc A4BF     		itt	ge
 266 00de 80B2     		uxthge	r0, r0
 267              	.LVL21:
 268 00e0 A880     		strhge	r0, [r5, #4]	@ movhi
 269              		.loc 1 183 0
 270 00e2 0BDB     		blt	.L52
 271              	.L13:
 272              	.LBB39:
 273              		.loc 1 189 0
 274 00e4 0023     		movs	r3, #0
 275              	@ 189 "../../os/hal/platforms/STM32/USARTv1/serial_lld.c" 1
 276 00e6 83F31188 		msr     BASEPRI, r3
 277              	@ 0 "" 2
 278              		.thumb
 279 00ea C6E7     		b	.L11
 280              	.L51:
 281              	.LBE39:
 282              	.LBE37:
 283              		.loc 1 195 0
 284 00ec 836B     		ldr	r3, [r0, #56]
 285 00ee 002B     		cmp	r3, #0
ARM GAS  /tmp/ccBf6c0r.s 			page 6


 286 00f0 D0D0     		beq	.L15
 287              		.loc 1 196 0
 288 00f2 0430     		adds	r0, r0, #4
 289 00f4 1021     		movs	r1, #16
 290 00f6 FFF7FEFF 		bl	chEvtBroadcastFlagsI
 291              	.LVL22:
 292 00fa CBE7     		b	.L15
 293              	.L52:
 294              	.LBB40:
 295              		.loc 1 184 0
 296 00fc 0448     		ldr	r0, .L53
 297 00fe 0821     		movs	r1, #8
 298 0100 FFF7FEFF 		bl	chEvtBroadcastFlagsI
 299              	.LVL23:
 300              		.loc 1 185 0
 301 0104 27F0C003 		bic	r3, r7, #192
 302 0108 43F04003 		orr	r3, r3, #64
 303 010c AB81     		strh	r3, [r5, #12]	@ movhi
 304 010e E9E7     		b	.L13
 305              	.L54:
 306              		.align	2
 307              	.L53:
 308 0110 04000000 		.word	.LANCHOR0+4
 309 0114 30000000 		.word	.LANCHOR0+48
 310              	.LBE40:
 311              	.LBE41:
 312              	.LBE42:
 313              		.cfi_endproc
 314              	.LFE123:
 315              		.size	VectorD8, .-VectorD8
 316 0118 AFF30080 		.section	.text.sd_lld_init,"ax",%progbits
 316      AFF30080 
 317              		.align	2
 318              		.p2align 4,,15
 319              		.global	sd_lld_init
 320              		.thumb
 321              		.thumb_func
 322              		.type	sd_lld_init, %function
 323              	sd_lld_init:
 324              	.LFB124:
 325              		.loc 1 378 0
 326              		.cfi_startproc
 327              		@ args = 0, pretend = 0, frame = 0
 328              		@ frame_needed = 0, uses_anonymous_args = 0
 329 0000 10B5     		push	{r4, lr}
 330              		.cfi_def_cfa_offset 8
 331              		.cfi_offset 4, -8
 332              		.cfi_offset 14, -4
 333              		.loc 1 386 0
 334 0002 40F20004 		movw	r4, #:lower16:.LANCHOR0
 335 0006 C0F20004 		movt	r4, #:upper16:.LANCHOR0
 336 000a 40F20002 		movw	r2, #:lower16:notify2
 337 000e 2046     		mov	r0, r4
 338 0010 C0F20002 		movt	r2, #:upper16:notify2
 339 0014 0021     		movs	r1, #0
 340 0016 FFF7FEFF 		bl	sdObjectInit
 341              	.LVL24:
ARM GAS  /tmp/ccBf6c0r.s 			page 7


 342              		.loc 1 387 0
 343 001a 4FF48843 		mov	r3, #17408
 344 001e C4F20003 		movt	r3, 16384
 345 0022 6367     		str	r3, [r4, #116]
 346 0024 10BD     		pop	{r4, pc}
 347              		.cfi_endproc
 348              	.LFE124:
 349              		.size	sd_lld_init, .-sd_lld_init
 350 0026 00BFAFF3 		.section	.text.sd_lld_start,"ax",%progbits
 350      0080AFF3 
 350      0080
 351              		.align	2
 352              		.p2align 4,,15
 353              		.global	sd_lld_start
 354              		.thumb
 355              		.thumb_func
 356              		.type	sd_lld_start, %function
 357              	sd_lld_start:
 358              	.LFB125:
 359              		.loc 1 421 0
 360              		.cfi_startproc
 361              		@ args = 0, pretend = 0, frame = 0
 362              		@ frame_needed = 0, uses_anonymous_args = 0
 363              	.LVL25:
 364 0000 38B5     		push	{r3, r4, r5, lr}
 365              		.cfi_def_cfa_offset 16
 366              		.cfi_offset 3, -16
 367              		.cfi_offset 4, -12
 368              		.cfi_offset 5, -8
 369              		.cfi_offset 14, -4
 370              		.loc 1 424 0
 371 0002 40F20004 		movw	r4, #:lower16:.LANCHOR1
 372              		.loc 1 426 0
 373 0006 037A     		ldrb	r3, [r0, #8]	@ zero_extendqisi2
 374              		.loc 1 424 0
 375 0008 C0F20004 		movt	r4, #:upper16:.LANCHOR1
 376 000c 0029     		cmp	r1, #0
 377 000e 18BF     		it	ne
 378 0010 0C46     		movne	r4, r1
 379              	.LVL26:
 380              		.loc 1 426 0
 381 0012 012B     		cmp	r3, #1
 382              		.loc 1 421 0
 383 0014 0546     		mov	r5, r0
 384              		.loc 1 426 0
 385 0016 31D0     		beq	.L62
 386              	.LVL27:
 387              	.L58:
 388              		.loc 1 421 0
 389 0018 6B6F     		ldr	r3, [r5, #116]
 390              	.LVL28:
 391              	.LBB45:
 392              	.LBB46:
 393              		.loc 1 97 0
 394 001a 4FF4A051 		mov	r1, #5120
 395 001e 4FF48052 		mov	r2, #4096
 396 0022 C4F20102 		movt	r2, 16385
ARM GAS  /tmp/ccBf6c0r.s 			page 8


 397 0026 C4F20101 		movt	r1, 16385
 398 002a 9342     		cmp	r3, r2
 399 002c 18BF     		it	ne
 400 002e 8B42     		cmpne	r3, r1
 401              		.loc 1 101 0
 402 0030 0BBF     		itete	eq
 403 0032 2168     		ldreq	r1, [r4]
 404              		.loc 1 103 0
 405 0034 2168     		ldrne	r1, [r4]
 406              		.loc 1 101 0
 407 0036 4FF43D42 		moveq	r2, #48384
 408              		.loc 1 103 0
 409 003a 4DF68062 		movwne	r2, #56960
 410              		.loc 1 101 0
 411 003e 0CBF     		ite	eq
 412 0040 C0F20152 		movteq	r2, 1281
 413              		.loc 1 103 0
 414 0044 C0F28022 		movtne	r2, 640
 415 0048 B2FBF1F2 		udiv	r2, r2, r1
 416 004c 92B2     		uxth	r2, r2
 417 004e 1A81     		strh	r2, [r3, #8]	@ movhi
 418              		.loc 1 108 0
 419 0050 A288     		ldrh	r2, [r4, #4]
 420              		.loc 1 106 0
 421 0052 E188     		ldrh	r1, [r4, #6]
 422              		.loc 1 107 0
 423 0054 2089     		ldrh	r0, [r4, #8]
 424              		.loc 1 108 0
 425 0056 42F40452 		orr	r2, r2, #8448
 426              		.loc 1 106 0
 427 005a 41F04004 		orr	r4, r1, #64
 428              	.LVL29:
 429              		.loc 1 108 0
 430 005e 42F02C02 		orr	r2, r2, #44
 431              		.loc 1 107 0
 432 0062 40F00100 		orr	r0, r0, #1
 433              		.loc 1 108 0
 434 0066 92B2     		uxth	r2, r2
 435              		.loc 1 106 0
 436 0068 A4B2     		uxth	r4, r4
 437              		.loc 1 107 0
 438 006a 80B2     		uxth	r0, r0
 439              		.loc 1 111 0
 440 006c 0021     		movs	r1, #0
 441              		.loc 1 106 0
 442 006e 1C82     		strh	r4, [r3, #16]	@ movhi
 443              		.loc 1 107 0
 444 0070 9882     		strh	r0, [r3, #20]	@ movhi
 445              		.loc 1 108 0
 446 0072 9A81     		strh	r2, [r3, #12]	@ movhi
 447              		.loc 1 111 0
 448 0074 1980     		strh	r1, [r3]	@ movhi
 449              		.loc 1 112 0
 450 0076 1A88     		ldrh	r2, [r3]
 451              		.loc 1 113 0
 452 0078 9B88     		ldrh	r3, [r3, #4]
 453              	.LVL30:
ARM GAS  /tmp/ccBf6c0r.s 			page 9


 454 007a 38BD     		pop	{r3, r4, r5, pc}
 455              	.LVL31:
 456              	.L62:
 457              	.LBE46:
 458              	.LBE45:
 459              		.loc 1 435 0
 460 007c 40F20003 		movw	r3, #:lower16:.LANCHOR0
 461 0080 C0F20003 		movt	r3, #:upper16:.LANCHOR0
 462 0084 9842     		cmp	r0, r3
 463 0086 C7D1     		bne	.L58
 464              		.loc 1 436 0
 465 0088 4FF46053 		mov	r3, #14336
 466 008c C4F20203 		movt	r3, 16386
 467              		.loc 1 437 0
 468 0090 2620     		movs	r0, #38
 469              	.LVL32:
 470              		.loc 1 436 0
 471 0092 1A6C     		ldr	r2, [r3, #64]
 472 0094 42F40032 		orr	r2, r2, #131072
 473 0098 1A64     		str	r2, [r3, #64]
 474              		.loc 1 437 0
 475 009a C021     		movs	r1, #192
 476 009c FFF7FEFF 		bl	nvicEnableVector
 477              	.LVL33:
 478 00a0 BAE7     		b	.L58
 479              		.cfi_endproc
 480              	.LFE125:
 481              		.size	sd_lld_start, .-sd_lld_start
 482 00a2 00BFAFF3 		.section	.text.sd_lld_stop,"ax",%progbits
 482      0080AFF3 
 482      0080AFF3 
 482      0080
 483              		.align	2
 484              		.p2align 4,,15
 485              		.global	sd_lld_stop
 486              		.thumb
 487              		.thumb_func
 488              		.type	sd_lld_stop, %function
 489              	sd_lld_stop:
 490              	.LFB126:
 491              		.loc 1 482 0
 492              		.cfi_startproc
 493              		@ args = 0, pretend = 0, frame = 0
 494              		@ frame_needed = 0, uses_anonymous_args = 0
 495              		@ link register save eliminated.
 496              	.LVL34:
 497              		.loc 1 484 0
 498 0000 037A     		ldrb	r3, [r0, #8]	@ zero_extendqisi2
 499 0002 022B     		cmp	r3, #2
 500 0004 00D0     		beq	.L67
 501              	.L63:
 502 0006 7047     		bx	lr
 503              	.L67:
 504              		.loc 1 494 0
 505 0008 40F20003 		movw	r3, #:lower16:.LANCHOR0
 506              		.loc 1 485 0
 507 000c 426F     		ldr	r2, [r0, #116]
ARM GAS  /tmp/ccBf6c0r.s 			page 10


 508              	.LVL35:
 509              		.loc 1 494 0
 510 000e C0F20003 		movt	r3, #:upper16:.LANCHOR0
 511              	.LBB47:
 512              	.LBB48:
 513              		.loc 1 124 0
 514 0012 0021     		movs	r1, #0
 515              	.LBE48:
 516              	.LBE47:
 517              		.loc 1 494 0
 518 0014 9842     		cmp	r0, r3
 519              	.LBB50:
 520              	.LBB49:
 521              		.loc 1 124 0
 522 0016 9181     		strh	r1, [r2, #12]	@ movhi
 523              		.loc 1 125 0
 524 0018 1182     		strh	r1, [r2, #16]	@ movhi
 525              		.loc 1 126 0
 526 001a 9182     		strh	r1, [r2, #20]	@ movhi
 527              	.LBE49:
 528              	.LBE50:
 529              		.loc 1 494 0
 530 001c F3D1     		bne	.L63
 531              		.loc 1 495 0
 532 001e 4FF46053 		mov	r3, #14336
 533 0022 C4F20203 		movt	r3, 16386
 534              		.loc 1 496 0
 535 0026 2620     		movs	r0, #38
 536              	.LVL36:
 537              		.loc 1 495 0
 538 0028 1A6C     		ldr	r2, [r3, #64]
 539              	.LVL37:
 540 002a 22F40032 		bic	r2, r2, #131072
 541 002e 1A64     		str	r2, [r3, #64]
 542              		.loc 1 496 0
 543 0030 FFF7FEBF 		b	nvicDisableVector
 544              	.LVL38:
 545              		.cfi_endproc
 546              	.LFE126:
 547              		.size	sd_lld_stop, .-sd_lld_stop
 548              		.global	SD2
 549 0034 AFF30080 		.section	.rodata.default_config,"a",%progbits
 549      AFF30080 
 549      AFF30080 
 550              		.align	2
 551              		.set	.LANCHOR1,. + 0
 552              		.type	default_config, %object
 553              		.size	default_config, 12
 554              	default_config:
 555 0000 00960000 		.word	38400
 556 0004 0000     		.short	0
 557 0006 0040     		.short	16384
 558 0008 0000     		.short	0
 559 000a 0000     		.space	2
 560              		.section	.bss.SD2,"aw",%nobits
 561              		.align	2
 562              		.set	.LANCHOR0,. + 0
ARM GAS  /tmp/ccBf6c0r.s 			page 11


 563              		.type	SD2, %object
 564              		.size	SD2, 120
 565              	SD2:
 566 0000 00000000 		.space	120
 566      00000000 
 566      00000000 
 566      00000000 
 566      00000000 
 567              		.text
 568              	.Letext0:
 569              		.file 2 "/usr/lib/gcc/arm-none-eabi/4.8.2/include/stddef.h"
 570              		.file 3 "/usr/include/newlib/machine/_default_types.h"
 571              		.file 4 "/usr/include/newlib/stdint.h"
 572              		.file 5 "../../os/ports/GCC/ARMCMx/chtypes.h"
 573              		.file 6 "../../os/kernel/include/chlists.h"
 574              		.file 7 "../../os/kernel/include/chthreads.h"
 575              		.file 8 "../../os/ports/GCC/ARMCMx/chcore_v7m.h"
 576              		.file 9 "../../os/kernel/include/chmtx.h"
 577              		.file 10 "../../os/kernel/include/chevents.h"
 578              		.file 11 "../../os/kernel/include/chqueues.h"
 579              		.file 12 "../../os/hal/platforms/STM32F4xx/stm32f4xx.h"
 580              		.file 13 "../../os/hal/include/serial.h"
 581              		.file 14 "../../os/hal/platforms/STM32/USARTv1/serial_lld.h"
 582              		.file 15 "../../os/ports/common/ARMCMx/nvic.h"
 583              		.file 16 "../../os/ports/common/ARMCMx/CMSIS/include/core_cm4.h"