ARM GAS  /tmp/ccJuZCkp.s 			page 1


   1              		.syntax unified
   2              		.cpu cortex-m4
   3              		.fpu softvfp
   4              		.eabi_attribute 20, 1
   5              		.eabi_attribute 21, 1
   6              		.eabi_attribute 23, 3
   7              		.eabi_attribute 24, 1
   8              		.eabi_attribute 25, 1
   9              		.eabi_attribute 26, 1
  10              		.eabi_attribute 30, 2
  11              		.eabi_attribute 34, 1
  12              		.eabi_attribute 18, 4
  13              		.thumb
  14              		.file	"shell.c"
  15              		.text
  16              	.Ltext0:
  17              		.cfi_sections	.debug_frame
  18              		.section	.text.chprintf,"ax",%progbits
  19              		.align	2
  20              		.p2align 4,,15
  21              		.thumb
  22              		.thumb_func
  23              		.type	chprintf, %function
  24              	chprintf:
  25              	.LFB118:
  26              		.file 1 "../../os/various/chprintf.h"
  27              		.loc 1 69 0
  28              		.cfi_startproc
  29              		@ args = 4, pretend = 12, frame = 8
  30              		@ frame_needed = 0, uses_anonymous_args = 1
  31              	.LVL0:
  32 0000 0EB4     		push	{r1, r2, r3}
  33              		.cfi_def_cfa_offset 12
  34              		.cfi_offset 1, -12
  35              		.cfi_offset 2, -8
  36              		.cfi_offset 3, -4
  37 0002 00B5     		push	{lr}
  38              		.cfi_def_cfa_offset 16
  39              		.cfi_offset 14, -16
  40 0004 82B0     		sub	sp, sp, #8
  41              		.cfi_def_cfa_offset 24
  42              		.loc 1 69 0
  43 0006 03AB     		add	r3, sp, #12
  44 0008 53F8041B 		ldr	r1, [r3], #4
  45              		.loc 1 73 0
  46 000c 1A46     		mov	r2, r3
  47              		.loc 1 72 0
  48 000e 0193     		str	r3, [sp, #4]
  49              		.loc 1 73 0
  50 0010 FFF7FEFF 		bl	chvprintf
  51              	.LVL1:
  52              		.loc 1 75 0
  53 0014 02B0     		add	sp, sp, #8
  54              		@ sp needed
  55 0016 5DF804EB 		ldr	lr, [sp], #4
  56 001a 03B0     		add	sp, sp, #12
  57 001c 7047     		bx	lr
ARM GAS  /tmp/ccJuZCkp.s 			page 2


  58              		.cfi_endproc
  59              	.LFE118:
  60              		.size	chprintf, .-chprintf
  61 001e 00BF     		.section	.text.cmd_systime,"ax",%progbits
  62              		.align	2
  63              		.p2align 4,,15
  64              		.thumb
  65              		.thumb_func
  66              		.type	cmd_systime, %function
  67              	cmd_systime:
  68              	.LFB123:
  69              		.file 2 "../../os/various/shell.c"
  70              		.loc 2 99 0
  71              		.cfi_startproc
  72              		@ args = 0, pretend = 0, frame = 0
  73              		@ frame_needed = 0, uses_anonymous_args = 0
  74              		@ link register save eliminated.
  75              	.LVL2:
  76              		.loc 2 102 0
  77 0000 0029     		cmp	r1, #0
  78 0002 09DD     		ble	.L3
  79              	.LVL3:
  80              	.LBB24:
  81              	.LBB25:
  82              		.loc 2 56 0
  83 0004 40F20001 		movw	r1, #:lower16:.LC0
  84              	.LVL4:
  85 0008 40F20002 		movw	r2, #:lower16:.LC1
  86              	.LVL5:
  87 000c C0F20001 		movt	r1, #:upper16:.LC0
  88 0010 C0F20002 		movt	r2, #:upper16:.LC1
  89 0014 FFF7FEBF 		b	chprintf
  90              	.LVL6:
  91              	.L3:
  92              	.LBE25:
  93              	.LBE24:
  94              	.LBB26:
  95              	.LBB27:
  96              		.loc 2 106 0
  97 0018 40F20003 		movw	r3, #:lower16:vtlist
  98 001c C0F20003 		movt	r3, #:upper16:vtlist
  99 0020 40F20001 		movw	r1, #:lower16:.LC2
 100              	.LVL7:
 101 0024 DA68     		ldr	r2, [r3, #12]
 102              	.LVL8:
 103 0026 C0F20001 		movt	r1, #:upper16:.LC2
 104 002a FFF7FEBF 		b	chprintf
 105              	.LVL9:
 106              	.LBE27:
 107              	.LBE26:
 108              		.cfi_endproc
 109              	.LFE123:
 110              		.size	cmd_systime, .-cmd_systime
 111 002e 00BF     		.section	.text.cmd_info,"ax",%progbits
 112              		.align	2
 113              		.p2align 4,,15
 114              		.thumb
ARM GAS  /tmp/ccJuZCkp.s 			page 3


 115              		.thumb_func
 116              		.type	cmd_info, %function
 117              	cmd_info:
 118              	.LFB122:
 119              		.loc 2 67 0
 120              		.cfi_startproc
 121              		@ args = 0, pretend = 0, frame = 0
 122              		@ frame_needed = 0, uses_anonymous_args = 0
 123              	.LVL10:
 124 0000 30B5     		push	{r4, r5, lr}
 125              		.cfi_def_cfa_offset 12
 126              		.cfi_offset 4, -12
 127              		.cfi_offset 5, -8
 128              		.cfi_offset 14, -4
 129              		.loc 2 70 0
 130 0002 0029     		cmp	r1, #0
 131              		.loc 2 67 0
 132 0004 83B0     		sub	sp, sp, #12
 133              		.cfi_def_cfa_offset 24
 134              		.loc 2 67 0
 135 0006 0446     		mov	r4, r0
 136              		.loc 2 70 0
 137 0008 0CDD     		ble	.L6
 138              	.LVL11:
 139              	.LBB34:
 140              	.LBB35:
 141              		.loc 2 56 0
 142 000a 40F20001 		movw	r1, #:lower16:.LC0
 143              	.LVL12:
 144 000e 40F20002 		movw	r2, #:lower16:.LC3
 145              	.LVL13:
 146 0012 C0F20001 		movt	r1, #:upper16:.LC0
 147 0016 C0F20002 		movt	r2, #:upper16:.LC3
 148              	.LBE35:
 149              	.LBE34:
 150              		.loc 2 97 0
 151 001a 03B0     		add	sp, sp, #12
 152              		@ sp needed
 153 001c BDE83040 		pop	{r4, r5, lr}
 154              	.LBB37:
 155              	.LBB36:
 156              		.loc 2 56 0
 157 0020 FFF7FEBF 		b	chprintf
 158              	.LVL14:
 159              	.L6:
 160              	.LBE36:
 161              	.LBE37:
 162              	.LBB38:
 163              	.LBB39:
 164              		.loc 2 75 0
 165 0024 40F20001 		movw	r1, #:lower16:.LC4
 166              	.LVL15:
 167 0028 40F20002 		movw	r2, #:lower16:.LC5
 168              	.LVL16:
 169 002c C0F20001 		movt	r1, #:upper16:.LC4
 170 0030 C0F20002 		movt	r2, #:upper16:.LC5
 171 0034 FFF7FEFF 		bl	chprintf
ARM GAS  /tmp/ccJuZCkp.s 			page 4


 172              	.LVL17:
 173              		.loc 2 77 0
 174 0038 40F20001 		movw	r1, #:lower16:.LC6
 175 003c 40F20002 		movw	r2, #:lower16:.LC7
 176 0040 2046     		mov	r0, r4
 177 0042 C0F20001 		movt	r1, #:upper16:.LC6
 178 0046 C0F20002 		movt	r2, #:upper16:.LC7
 179 004a FFF7FEFF 		bl	chprintf
 180              	.LVL18:
 181              		.loc 2 79 0
 182 004e 40F20001 		movw	r1, #:lower16:.LC8
 183 0052 40F20002 		movw	r2, #:lower16:.LC9
 184 0056 2046     		mov	r0, r4
 185 0058 C0F20001 		movt	r1, #:upper16:.LC8
 186 005c C0F20002 		movt	r2, #:upper16:.LC9
 187 0060 FFF7FEFF 		bl	chprintf
 188              	.LVL19:
 189              		.loc 2 81 0
 190 0064 40F20001 		movw	r1, #:lower16:.LC10
 191 0068 40F20002 		movw	r2, #:lower16:.LC11
 192 006c 2046     		mov	r0, r4
 193 006e C0F20001 		movt	r1, #:upper16:.LC10
 194 0072 C0F20002 		movt	r2, #:upper16:.LC11
 195 0076 FFF7FEFF 		bl	chprintf
 196              	.LVL20:
 197              		.loc 2 84 0
 198 007a 40F20001 		movw	r1, #:lower16:.LC12
 199 007e 40F20002 		movw	r2, #:lower16:.LC13
 200 0082 2046     		mov	r0, r4
 201 0084 C0F20001 		movt	r1, #:upper16:.LC12
 202 0088 C0F20002 		movt	r2, #:upper16:.LC13
 203 008c FFF7FEFF 		bl	chprintf
 204              	.LVL21:
 205              		.loc 2 87 0
 206 0090 40F20001 		movw	r1, #:lower16:.LC14
 207 0094 40F20002 		movw	r2, #:lower16:.LC15
 208 0098 2046     		mov	r0, r4
 209 009a C0F20001 		movt	r1, #:upper16:.LC14
 210 009e C0F20002 		movt	r2, #:upper16:.LC15
 211 00a2 FFF7FEFF 		bl	chprintf
 212              	.LVL22:
 213              		.loc 2 90 0
 214 00a6 40F20001 		movw	r1, #:lower16:.LC16
 215 00aa 40F20002 		movw	r2, #:lower16:.LC17
 216 00ae 2046     		mov	r0, r4
 217 00b0 C0F20001 		movt	r1, #:upper16:.LC16
 218 00b4 C0F20002 		movt	r2, #:upper16:.LC17
 219              		.loc 2 94 0
 220 00b8 40F20005 		movw	r5, #:lower16:.LC21
 221              		.loc 2 90 0
 222 00bc FFF7FEFF 		bl	chprintf
 223              	.LVL23:
 224              		.loc 2 94 0
 225 00c0 C0F20005 		movt	r5, #:upper16:.LC21
 226 00c4 40F20001 		movw	r1, #:lower16:.LC18
 227 00c8 40F20002 		movw	r2, #:lower16:.LC19
 228 00cc 40F20003 		movw	r3, #:lower16:.LC20
ARM GAS  /tmp/ccJuZCkp.s 			page 5


 229 00d0 2046     		mov	r0, r4
 230 00d2 0095     		str	r5, [sp]
 231 00d4 C0F20001 		movt	r1, #:upper16:.LC18
 232 00d8 C0F20002 		movt	r2, #:upper16:.LC19
 233 00dc C0F20003 		movt	r3, #:upper16:.LC20
 234 00e0 FFF7FEFF 		bl	chprintf
 235              	.LVL24:
 236              	.LBE39:
 237              	.LBE38:
 238              		.loc 2 97 0
 239 00e4 03B0     		add	sp, sp, #12
 240              		@ sp needed
 241 00e6 30BD     		pop	{r4, r5, pc}
 242              		.cfi_endproc
 243              	.LFE122:
 244              		.size	cmd_info, .-cmd_info
 245 00e8 AFF30080 		.section	.text._strtok.constprop.2,"ax",%progbits
 245      AFF30080 
 246              		.align	2
 247              		.p2align 4,,15
 248              		.thumb
 249              		.thumb_func
 250              		.type	_strtok.constprop.2, %function
 251              	_strtok.constprop.2:
 252              	.LFB133:
 253              		.loc 2 37 0
 254              		.cfi_startproc
 255              		@ args = 0, pretend = 0, frame = 0
 256              		@ frame_needed = 0, uses_anonymous_args = 0
 257              	.LVL25:
 258 0000 38B5     		push	{r3, r4, r5, lr}
 259              		.cfi_def_cfa_offset 16
 260              		.cfi_offset 3, -16
 261              		.cfi_offset 4, -12
 262              		.cfi_offset 5, -8
 263              		.cfi_offset 14, -4
 264              		.loc 2 39 0
 265 0002 0446     		mov	r4, r0
 266              		.loc 2 37 0
 267 0004 0D46     		mov	r5, r1
 268              		.loc 2 39 0
 269 0006 C0B1     		cbz	r0, .L8
 270              		.loc 2 40 0
 271 0008 2860     		str	r0, [r5]
 272              	.LVL26:
 273              	.L9:
 274              		.loc 2 46 0
 275 000a 40F20001 		movw	r1, #:lower16:.LC22
 276              	.LVL27:
 277 000e C0F20001 		movt	r1, #:upper16:.LC22
 278 0012 2046     		mov	r0, r4
 279              	.LVL28:
 280 0014 FFF7FEFF 		bl	strspn
 281              	.LVL29:
 282              		.loc 2 47 0
 283 0018 40F20001 		movw	r1, #:lower16:.LC22
 284              		.loc 2 46 0
ARM GAS  /tmp/ccJuZCkp.s 			page 6


 285 001c 0444     		add	r4, r4, r0
 286              	.LVL30:
 287              		.loc 2 47 0
 288 001e 2046     		mov	r0, r4
 289 0020 C0F20001 		movt	r1, #:upper16:.LC22
 290 0024 FFF7FEFF 		bl	strpbrk
 291              	.LVL31:
 292              		.loc 2 48 0
 293 0028 60B1     		cbz	r0, .L17
 294              		.loc 2 49 0
 295 002a 421C     		adds	r2, r0, #1
 296 002c 0023     		movs	r3, #0
 297 002e 2A60     		str	r2, [r5]
 298 0030 0370     		strb	r3, [r0]
 299              	.L12:
 300              		.loc 2 51 0
 301 0032 2378     		ldrb	r3, [r4]	@ zero_extendqisi2
 302 0034 23B1     		cbz	r3, .L13
 303 0036 2046     		mov	r0, r4
 304              		.loc 2 52 0
 305 0038 38BD     		pop	{r3, r4, r5, pc}
 306              	.LVL32:
 307              	.L8:
 308              		.loc 2 41 0
 309 003a 0C68     		ldr	r4, [r1]
 310              	.LVL33:
 311              		.loc 2 43 0
 312 003c 002C     		cmp	r4, #0
 313 003e E4D1     		bne	.L9
 314              	.LVL34:
 315              	.L13:
 316              		.loc 2 44 0
 317 0040 0020     		movs	r0, #0
 318 0042 38BD     		pop	{r3, r4, r5, pc}
 319              	.LVL35:
 320              	.L17:
 321              		.loc 2 47 0
 322 0044 2860     		str	r0, [r5]
 323 0046 F4E7     		b	.L12
 324              		.cfi_endproc
 325              	.LFE133:
 326              		.size	_strtok.constprop.2, .-_strtok.constprop.2
 327 0048 AFF30080 		.section	.text.shellInit,"ax",%progbits
 327      AFF30080 
 328              		.align	2
 329              		.p2align 4,,15
 330              		.global	shellInit
 331              		.thumb
 332              		.thumb_func
 333              		.type	shellInit, %function
 334              	shellInit:
 335              	.LFB126:
 336              		.loc 2 204 0
 337              		.cfi_startproc
 338              		@ args = 0, pretend = 0, frame = 0
 339              		@ frame_needed = 0, uses_anonymous_args = 0
 340              		@ link register save eliminated.
ARM GAS  /tmp/ccJuZCkp.s 			page 7


 341              		.loc 2 206 0
 342 0000 40F20003 		movw	r3, #:lower16:.LANCHOR0
 343 0004 C0F20003 		movt	r3, #:upper16:.LANCHOR0
 344 0008 1B60     		str	r3, [r3]
 345 000a 7047     		bx	lr
 346              		.cfi_endproc
 347              	.LFE126:
 348              		.size	shellInit, .-shellInit
 349 000c AFF30080 		.section	.text.shellExit,"ax",%progbits
 350              		.align	2
 351              		.p2align 4,,15
 352              		.global	shellExit
 353              		.thumb
 354              		.thumb_func
 355              		.type	shellExit, %function
 356              	shellExit:
 357              	.LFB127:
 358              		.loc 2 218 0
 359              		.cfi_startproc
 360              		@ args = 0, pretend = 0, frame = 0
 361              		@ frame_needed = 0, uses_anonymous_args = 0
 362              	.LVL36:
 363 0000 10B5     		push	{r4, lr}
 364              		.cfi_def_cfa_offset 8
 365              		.cfi_offset 4, -8
 366              		.cfi_offset 14, -4
 367              	.LBB40:
 368              		.loc 2 222 0
 369 0002 2023     		movs	r3, #32
 370              	.LBE40:
 371              		.loc 2 218 0
 372 0004 0446     		mov	r4, r0
 373              	.LBB41:
 374              		.loc 2 222 0
 375              	@ 222 "../../os/various/shell.c" 1
 376 0006 83F31188 		msr     BASEPRI, r3
 377              	@ 0 "" 2
 378              		.thumb
 379              	.LBE41:
 380              		.loc 2 223 0
 381 000a 40F20000 		movw	r0, #:lower16:.LANCHOR0
 382              	.LVL37:
 383 000e C0F20000 		movt	r0, #:upper16:.LANCHOR0
 384 0012 0021     		movs	r1, #0
 385 0014 FFF7FEFF 		bl	chEvtBroadcastFlagsI
 386              	.LVL38:
 387              		.loc 2 224 0
 388 0018 2046     		mov	r0, r4
 389              		.loc 2 225 0
 390 001a BDE81040 		pop	{r4, lr}
 391              	.LVL39:
 392              		.loc 2 224 0
 393 001e FFF7FEBF 		b	chThdExitS
 394              	.LVL40:
 395              		.cfi_endproc
 396              	.LFE127:
 397              		.size	shellExit, .-shellExit
ARM GAS  /tmp/ccJuZCkp.s 			page 8


 398 0022 00BFAFF3 		.section	.text.shellCreate,"ax",%progbits
 398      0080AFF3 
 398      0080AFF3 
 398      0080
 399              		.align	2
 400              		.p2align 4,,15
 401              		.global	shellCreate
 402              		.thumb
 403              		.thumb_func
 404              		.type	shellCreate, %function
 405              	shellCreate:
 406              	.LFB128:
 407              		.loc 2 240 0
 408              		.cfi_startproc
 409              		@ args = 0, pretend = 0, frame = 0
 410              		@ frame_needed = 0, uses_anonymous_args = 0
 411              	.LVL41:
 412 0000 00B5     		push	{lr}
 413              		.cfi_def_cfa_offset 4
 414              		.cfi_offset 14, -4
 415 0002 83B0     		sub	sp, sp, #12
 416              		.cfi_def_cfa_offset 16
 417              		.loc 2 242 0
 418 0004 40F20003 		movw	r3, #:lower16:shell_thread
 419 0008 0090     		str	r0, [sp]
 420 000a C0F20003 		movt	r3, #:upper16:shell_thread
 421 000e 0020     		movs	r0, #0
 422              	.LVL42:
 423 0010 FFF7FEFF 		bl	chThdCreateFromHeap
 424              	.LVL43:
 425              		.loc 2 243 0
 426 0014 03B0     		add	sp, sp, #12
 427              		@ sp needed
 428 0016 5DF804FB 		ldr	pc, [sp], #4
 429              		.cfi_endproc
 430              	.LFE128:
 431              		.size	shellCreate, .-shellCreate
 432 001a 00BFAFF3 		.section	.text.shellCreateStatic,"ax",%progbits
 432      0080
 433              		.align	2
 434              		.p2align 4,,15
 435              		.global	shellCreateStatic
 436              		.thumb
 437              		.thumb_func
 438              		.type	shellCreateStatic, %function
 439              	shellCreateStatic:
 440              	.LFB129:
 441              		.loc 2 258 0
 442              		.cfi_startproc
 443              		@ args = 0, pretend = 0, frame = 0
 444              		@ frame_needed = 0, uses_anonymous_args = 0
 445              	.LVL44:
 446 0000 00B5     		push	{lr}
 447              		.cfi_def_cfa_offset 4
 448              		.cfi_offset 14, -4
 449 0002 83B0     		sub	sp, sp, #12
 450              		.cfi_def_cfa_offset 16
ARM GAS  /tmp/ccJuZCkp.s 			page 9


 451              		.loc 2 260 0
 452 0004 0090     		str	r0, [sp]
 453 0006 0846     		mov	r0, r1
 454              	.LVL45:
 455 0008 1146     		mov	r1, r2
 456              	.LVL46:
 457 000a 1A46     		mov	r2, r3
 458              	.LVL47:
 459 000c 40F20003 		movw	r3, #:lower16:shell_thread
 460              	.LVL48:
 461 0010 C0F20003 		movt	r3, #:upper16:shell_thread
 462 0014 FFF7FEFF 		bl	chThdCreateStatic
 463              	.LVL49:
 464              		.loc 2 261 0
 465 0018 03B0     		add	sp, sp, #12
 466              		@ sp needed
 467 001a 5DF804FB 		ldr	pc, [sp], #4
 468              		.cfi_endproc
 469              	.LFE129:
 470              		.size	shellCreateStatic, .-shellCreateStatic
 471 001e 00BF     		.section	.text.shellGetLine,"ax",%progbits
 472              		.align	2
 473              		.p2align 4,,15
 474              		.global	shellGetLine
 475              		.thumb
 476              		.thumb_func
 477              		.type	shellGetLine, %function
 478              	shellGetLine:
 479              	.LFB130:
 480              		.loc 2 275 0
 481              		.cfi_startproc
 482              		@ args = 0, pretend = 0, frame = 8
 483              		@ frame_needed = 0, uses_anonymous_args = 0
 484              	.LVL50:
 485 0000 F0B5     		push	{r4, r5, r6, r7, lr}
 486              		.cfi_def_cfa_offset 20
 487              		.cfi_offset 4, -20
 488              		.cfi_offset 5, -16
 489              		.cfi_offset 6, -12
 490              		.cfi_offset 7, -8
 491              		.cfi_offset 14, -4
 492              	.LBB42:
 493              		.loc 2 303 0
 494 0002 013A     		subs	r2, r2, #1
 495              	.LVL51:
 496              	.LBE42:
 497              		.loc 2 275 0
 498 0004 83B0     		sub	sp, sp, #12
 499              		.cfi_def_cfa_offset 32
 500              		.loc 2 275 0
 501 0006 0E46     		mov	r6, r1
 502              	.LVL52:
 503              	.LBB43:
 504              		.loc 2 303 0
 505 0008 8F18     		adds	r7, r1, r2
 506              	.LBE43:
 507              		.loc 2 275 0
ARM GAS  /tmp/ccJuZCkp.s 			page 10


 508 000a 0446     		mov	r4, r0
 509              		.loc 2 276 0
 510 000c 0D46     		mov	r5, r1
 511              	.LVL53:
 512              	.L23:
 513              	.LBB44:
 514              		.loc 2 281 0
 515 000e 2368     		ldr	r3, [r4]
 516 0010 2046     		mov	r0, r4
 517 0012 5B68     		ldr	r3, [r3, #4]
 518 0014 0DF10701 		add	r1, sp, #7
 519 0018 0122     		movs	r2, #1
 520 001a 9847     		blx	r3
 521              	.LVL54:
 522 001c 40B3     		cbz	r0, .L31
 523              		.loc 2 283 0
 524 001e 9DF80710 		ldrb	r1, [sp, #7]	@ zero_extendqisi2
 525 0022 0429     		cmp	r1, #4
 526 0024 27D0     		beq	.L32
 527              		.loc 2 287 0
 528 0026 0829     		cmp	r1, #8
 529 0028 0FD0     		beq	.L33
 530              		.loc 2 296 0
 531 002a 0D29     		cmp	r1, #13
 532 002c 2DD0     		beq	.L34
 533              		.loc 2 301 0
 534 002e 1F29     		cmp	r1, #31
 535 0030 EDD9     		bls	.L23
 536              		.loc 2 303 0
 537 0032 BD42     		cmp	r5, r7
 538 0034 EBD2     		bcs	.L23
 539              		.loc 2 304 0
 540 0036 2368     		ldr	r3, [r4]
 541 0038 2046     		mov	r0, r4
 542 003a 9B68     		ldr	r3, [r3, #8]
 543 003c 9847     		blx	r3
 544              	.LVL55:
 545              		.loc 2 305 0
 546 003e 9DF80730 		ldrb	r3, [sp, #7]	@ zero_extendqisi2
 547 0042 0135     		adds	r5, r5, #1
 548              	.LVL56:
 549 0044 05F8013C 		strb	r3, [r5, #-1]
 550 0048 E1E7     		b	.L23
 551              	.L33:
 552              		.loc 2 288 0
 553 004a B542     		cmp	r5, r6
 554              		.loc 2 289 0
 555 004c 2046     		mov	r0, r4
 556              		.loc 2 288 0
 557 004e DED0     		beq	.L23
 558              	.LVL57:
 559              		.loc 2 289 0
 560 0050 2368     		ldr	r3, [r4]
 561 0052 9B68     		ldr	r3, [r3, #8]
 562 0054 9847     		blx	r3
 563              	.LVL58:
 564              		.loc 2 290 0
ARM GAS  /tmp/ccJuZCkp.s 			page 11


 565 0056 2368     		ldr	r3, [r4]
 566 0058 2046     		mov	r0, r4
 567 005a 9B68     		ldr	r3, [r3, #8]
 568 005c 2021     		movs	r1, #32
 569 005e 9847     		blx	r3
 570              	.LVL59:
 571              		.loc 2 291 0
 572 0060 2368     		ldr	r3, [r4]
 573 0062 9DF80710 		ldrb	r1, [sp, #7]	@ zero_extendqisi2
 574 0066 9B68     		ldr	r3, [r3, #8]
 575 0068 2046     		mov	r0, r4
 576              		.loc 2 292 0
 577 006a 013D     		subs	r5, r5, #1
 578              	.LVL60:
 579              		.loc 2 291 0
 580 006c 9847     		blx	r3
 581              	.LVL61:
 582 006e CEE7     		b	.L23
 583              	.L31:
 584              		.loc 2 282 0
 585 0070 0120     		movs	r0, #1
 586              	.LBE44:
 587              		.loc 2 308 0
 588 0072 03B0     		add	sp, sp, #12
 589              		@ sp needed
 590 0074 F0BD     		pop	{r4, r5, r6, r7, pc}
 591              	.LVL62:
 592              	.L32:
 593              	.LBB45:
 594              		.loc 2 284 0
 595 0076 40F20001 		movw	r1, #:lower16:.LC23
 596 007a 2046     		mov	r0, r4
 597 007c C0F20001 		movt	r1, #:upper16:.LC23
 598 0080 FFF7FEFF 		bl	chprintf
 599              	.LVL63:
 600              		.loc 2 285 0
 601 0084 0120     		movs	r0, #1
 602              	.LBE45:
 603              		.loc 2 308 0
 604 0086 03B0     		add	sp, sp, #12
 605              		@ sp needed
 606 0088 F0BD     		pop	{r4, r5, r6, r7, pc}
 607              	.LVL64:
 608              	.L34:
 609              	.LBB46:
 610              		.loc 2 297 0
 611 008a 40F20001 		movw	r1, #:lower16:.LC24
 612 008e 2046     		mov	r0, r4
 613 0090 C0F20001 		movt	r1, #:upper16:.LC24
 614 0094 FFF7FEFF 		bl	chprintf
 615              	.LVL65:
 616              		.loc 2 298 0
 617 0098 0020     		movs	r0, #0
 618 009a 2870     		strb	r0, [r5]
 619              	.LBE46:
 620              		.loc 2 308 0
 621 009c 03B0     		add	sp, sp, #12
ARM GAS  /tmp/ccJuZCkp.s 			page 12


 622              		@ sp needed
 623 009e F0BD     		pop	{r4, r5, r6, r7, pc}
 624              		.cfi_endproc
 625              	.LFE130:
 626              		.size	shellGetLine, .-shellGetLine
 627              		.section	.text.shell_thread,"ax",%progbits
 628              		.align	2
 629              		.p2align 4,,15
 630              		.thumb
 631              		.thumb_func
 632              		.type	shell_thread, %function
 633              	shell_thread:
 634              	.LFB125:
 635              		.loc 2 141 0
 636              		.cfi_startproc
 637              		@ args = 0, pretend = 0, frame = 88
 638              		@ frame_needed = 0, uses_anonymous_args = 0
 639              	.LVL66:
 640 0000 2DE9F043 		push	{r4, r5, r6, r7, r8, r9, lr}
 641              		.cfi_def_cfa_offset 28
 642              		.cfi_offset 4, -28
 643              		.cfi_offset 5, -24
 644              		.cfi_offset 6, -20
 645              		.cfi_offset 7, -16
 646              		.cfi_offset 8, -12
 647              		.cfi_offset 9, -8
 648              		.cfi_offset 14, -4
 649              		.loc 2 148 0
 650 0004 40F20003 		movw	r3, #:lower16:rlist
 651 0008 C0F20003 		movt	r3, #:upper16:rlist
 652              		.loc 2 143 0
 653 000c 0668     		ldr	r6, [r0]
 654              	.LVL67:
 655              		.loc 2 148 0
 656 000e 9A69     		ldr	r2, [r3, #24]
 657              		.loc 2 144 0
 658 0010 D0F80480 		ldr	r8, [r0, #4]
 659              	.LVL68:
 660              		.loc 2 148 0
 661 0014 40F20003 		movw	r3, #:lower16:.LC25
 662 0018 C0F20003 		movt	r3, #:upper16:.LC25
 663              		.loc 2 149 0
 664 001c 40F20001 		movw	r1, #:lower16:.LC26
 665              		.loc 2 141 0
 666 0020 97B0     		sub	sp, sp, #92
 667              		.cfi_def_cfa_offset 120
 668              		.loc 2 148 0
 669 0022 9361     		str	r3, [r2, #24]
 670              		.loc 2 149 0
 671 0024 3046     		mov	r0, r6
 672              	.LVL69:
 673 0026 C0F20001 		movt	r1, #:upper16:.LC26
 674 002a FFF7FEFF 		bl	chprintf
 675              	.LVL70:
 676              	.LBB59:
 677              	.LBB60:
 678              		.loc 2 61 0
ARM GAS  /tmp/ccJuZCkp.s 			page 13


 679 002e 40F20007 		movw	r7, #:lower16:.LANCHOR1
 680 0032 C0F20007 		movt	r7, #:upper16:.LANCHOR1
 681              	.L36:
 682              	.LBE60:
 683              	.LBE59:
 684              		.loc 2 151 0
 685 0036 40F20001 		movw	r1, #:lower16:.LC27
 686 003a C0F20001 		movt	r1, #:upper16:.LC27
 687 003e 3046     		mov	r0, r6
 688 0040 FFF7FEFF 		bl	chprintf
 689              	.LVL71:
 690              		.loc 2 152 0
 691 0044 3046     		mov	r0, r6
 692 0046 06A9     		add	r1, sp, #24
 693 0048 4022     		movs	r2, #64
 694 004a FFF7FEFF 		bl	shellGetLine
 695              	.LVL72:
 696 004e 0446     		mov	r4, r0
 697 0050 0028     		cmp	r0, #0
 698 0052 3CD1     		bne	.L87
 699              		.loc 2 156 0
 700 0054 6946     		mov	r1, sp
 701 0056 06A8     		add	r0, sp, #24
 702 0058 FFF7FEFF 		bl	_strtok.constprop.2
 703              	.LVL73:
 704              		.loc 2 159 0
 705 005c 6946     		mov	r1, sp
 706              		.loc 2 156 0
 707 005e 8146     		mov	r9, r0
 708              	.LVL74:
 709              		.loc 2 159 0
 710 0060 0020     		movs	r0, #0
 711              	.LVL75:
 712 0062 6D46     		mov	r5, sp
 713 0064 FFF7FEFF 		bl	_strtok.constprop.2
 714              	.LVL76:
 715 0068 50B1     		cbz	r0, .L88
 716              	.L42:
 717              		.loc 2 160 0
 718 006a 042C     		cmp	r4, #4
 719 006c 25D0     		beq	.L89
 720              		.loc 2 165 0
 721 006e 45F8040F 		str	r0, [r5, #4]!
 722              		.loc 2 159 0
 723 0072 6946     		mov	r1, sp
 724 0074 0020     		movs	r0, #0
 725              	.LVL77:
 726              		.loc 2 165 0
 727 0076 0134     		adds	r4, r4, #1
 728              	.LVL78:
 729              		.loc 2 159 0
 730 0078 FFF7FEFF 		bl	_strtok.constprop.2
 731              	.LVL79:
 732 007c 0028     		cmp	r0, #0
 733 007e F4D1     		bne	.L42
 734              	.L88:
 735              		.loc 2 167 0
ARM GAS  /tmp/ccJuZCkp.s 			page 14


 736 0080 16AA     		add	r2, sp, #88
 737 0082 02EB8403 		add	r3, r2, r4, lsl #2
 738 0086 43F8540C 		str	r0, [r3, #-84]
 739              		.loc 2 168 0
 740 008a B9F1000F 		cmp	r9, #0
 741 008e D2D0     		beq	.L36
 742              		.loc 2 169 0
 743 0090 40F20001 		movw	r1, #:lower16:.LC30
 744 0094 C0F20001 		movt	r1, #:upper16:.LC30
 745 0098 4846     		mov	r0, r9
 746              	.LVL80:
 747 009a FFF7FEFF 		bl	strcasecmp
 748              	.LVL81:
 749 009e 20BB     		cbnz	r0, .L43
 750              		.loc 2 170 0
 751 00a0 E4B1     		cbz	r4, .L38
 752              	.LVL82:
 753              	.LBB62:
 754              	.LBB63:
 755              		.loc 2 56 0
 756 00a2 40F20001 		movw	r1, #:lower16:.LC0
 757 00a6 40F20002 		movw	r2, #:lower16:.LC30
 758 00aa C0F20001 		movt	r1, #:upper16:.LC0
 759 00ae C0F20002 		movt	r2, #:upper16:.LC30
 760 00b2 3046     		mov	r0, r6
 761 00b4 FFF7FEFF 		bl	chprintf
 762              	.LVL83:
 763              	.LBE63:
 764              	.LBE62:
 765              		.loc 2 172 0
 766 00b8 BDE7     		b	.L36
 767              	.LVL84:
 768              	.L89:
 769              		.loc 2 161 0
 770 00ba 40F20001 		movw	r1, #:lower16:.LC29
 771 00be C0F20001 		movt	r1, #:upper16:.LC29
 772 00c2 3046     		mov	r0, r6
 773              	.LVL85:
 774 00c4 FFF7FEFF 		bl	chprintf
 775              	.LVL86:
 776              		.loc 2 167 0
 777 00c8 0023     		movs	r3, #0
 778 00ca 0593     		str	r3, [sp, #20]
 779 00cc B3E7     		b	.L36
 780              	.LVL87:
 781              	.L87:
 782              		.loc 2 153 0
 783 00ce 40F20001 		movw	r1, #:lower16:.LC28
 784 00d2 3046     		mov	r0, r6
 785 00d4 C0F20001 		movt	r1, #:upper16:.LC28
 786 00d8 FFF7FEFF 		bl	chprintf
 787              	.LVL88:
 788              	.L38:
 789              		.loc 2 194 0
 790 00dc 0020     		movs	r0, #0
 791 00de FFF7FEFF 		bl	shellExit
 792              	.LVL89:
ARM GAS  /tmp/ccJuZCkp.s 			page 15


 793              		.loc 2 197 0
 794 00e2 0020     		movs	r0, #0
 795 00e4 17B0     		add	sp, sp, #92
 796              		@ sp needed
 797 00e6 BDE8F083 		pop	{r4, r5, r6, r7, r8, r9, pc}
 798              	.LVL90:
 799              	.L43:
 800              		.loc 2 176 0
 801 00ea 40F20001 		movw	r1, #:lower16:.LC31
 802 00ee C0F20001 		movt	r1, #:upper16:.LC31
 803 00f2 4846     		mov	r0, r9
 804 00f4 FFF7FEFF 		bl	strcasecmp
 805              	.LVL91:
 806 00f8 60B9     		cbnz	r0, .L90
 807              		.loc 2 177 0
 808 00fa 0CB3     		cbz	r4, .L48
 809              	.LVL92:
 810              	.LBB64:
 811              	.LBB65:
 812              		.loc 2 56 0
 813 00fc 40F20001 		movw	r1, #:lower16:.LC0
 814 0100 40F20002 		movw	r2, #:lower16:.LC31
 815 0104 C0F20001 		movt	r1, #:upper16:.LC0
 816 0108 C0F20002 		movt	r2, #:upper16:.LC31
 817 010c 3046     		mov	r0, r6
 818 010e FFF7FEFF 		bl	chprintf
 819              	.LVL93:
 820              	.LBE65:
 821              	.LBE64:
 822              		.loc 2 179 0
 823 0112 90E7     		b	.L36
 824              	.LVL94:
 825              	.L90:
 826              	.LBB66:
 827              	.LBB67:
 828              		.loc 2 121 0
 829 0114 3868     		ldr	r0, [r7]
 830 0116 40F20005 		movw	r5, #:lower16:.LANCHOR1
 831 011a C0F20005 		movt	r5, #:upper16:.LANCHOR1
 832 011e 20B9     		cbnz	r0, .L56
 833 0120 40E0     		b	.L47
 834              	.LVL95:
 835              	.L55:
 836 0122 55F8080F 		ldr	r0, [r5, #8]!
 837              	.LVL96:
 838 0126 0028     		cmp	r0, #0
 839 0128 3CD0     		beq	.L47
 840              	.LVL97:
 841              	.L56:
 842              		.loc 2 122 0
 843 012a 4946     		mov	r1, r9
 844 012c FFF7FEFF 		bl	strcasecmp
 845              	.LVL98:
 846 0130 0028     		cmp	r0, #0
 847 0132 F6D1     		bne	.L55
 848              	.LVL99:
 849              	.L86:
ARM GAS  /tmp/ccJuZCkp.s 			page 16


 850              	.LBE67:
 851              	.LBE66:
 852              	.LBB68:
 853              	.LBB69:
 854              		.loc 2 123 0
 855 0134 6B68     		ldr	r3, [r5, #4]
 856 0136 2146     		mov	r1, r4
 857 0138 3046     		mov	r0, r6
 858 013a 01AA     		add	r2, sp, #4
 859 013c 9847     		blx	r3
 860              	.LVL100:
 861 013e 7AE7     		b	.L36
 862              	.L48:
 863              	.LBE69:
 864              	.LBE68:
 865              		.loc 2 181 0
 866 0140 40F20001 		movw	r1, #:lower16:.LC32
 867 0144 C0F20001 		movt	r1, #:upper16:.LC32
 868 0148 3046     		mov	r0, r6
 869 014a FFF7FEFF 		bl	chprintf
 870              	.LVL101:
 871              	.LBB71:
 872              	.LBB61:
 873              		.loc 2 61 0
 874 014e 3A68     		ldr	r2, [r7]
 875 0150 40F20004 		movw	r4, #:lower16:.LANCHOR1
 876              	.LVL102:
 877 0154 C0F20004 		movt	r4, #:upper16:.LANCHOR1
 878 0158 52B1     		cbz	r2, .L52
 879              	.LVL103:
 880              	.L53:
 881              		.loc 2 62 0
 882 015a 40F20001 		movw	r1, #:lower16:.LC33
 883 015e C0F20001 		movt	r1, #:upper16:.LC33
 884 0162 3046     		mov	r0, r6
 885 0164 FFF7FEFF 		bl	chprintf
 886              	.LVL104:
 887              		.loc 2 61 0
 888 0168 54F8082F 		ldr	r2, [r4, #8]!
 889              	.LVL105:
 890 016c 002A     		cmp	r2, #0
 891 016e F4D1     		bne	.L53
 892              	.LVL106:
 893              	.L52:
 894              	.LBE61:
 895              	.LBE71:
 896              		.loc 2 183 0
 897 0170 B8F1000F 		cmp	r8, #0
 898 0174 0ED0     		beq	.L51
 899              	.LVL107:
 900              	.LBB72:
 901              	.LBB73:
 902              		.loc 2 61 0
 903 0176 D8F80020 		ldr	r2, [r8]
 904 017a 5AB1     		cbz	r2, .L51
 905 017c 4446     		mov	r4, r8
 906              	.LVL108:
ARM GAS  /tmp/ccJuZCkp.s 			page 17


 907              	.L54:
 908              		.loc 2 62 0
 909 017e 40F20001 		movw	r1, #:lower16:.LC33
 910 0182 C0F20001 		movt	r1, #:upper16:.LC33
 911 0186 3046     		mov	r0, r6
 912 0188 FFF7FEFF 		bl	chprintf
 913              	.LVL109:
 914              		.loc 2 61 0
 915 018c 54F8082F 		ldr	r2, [r4, #8]!
 916              	.LVL110:
 917 0190 002A     		cmp	r2, #0
 918 0192 F4D1     		bne	.L54
 919              	.LVL111:
 920              	.L51:
 921              	.LBE73:
 922              	.LBE72:
 923              		.loc 2 185 0
 924 0194 40F20001 		movw	r1, #:lower16:.LC24
 925 0198 C0F20001 		movt	r1, #:upper16:.LC24
 926 019c 3046     		mov	r0, r6
 927 019e FFF7FEFF 		bl	chprintf
 928              	.LVL112:
 929 01a2 48E7     		b	.L36
 930              	.LVL113:
 931              	.L47:
 932              		.loc 2 187 0
 933 01a4 B8F1000F 		cmp	r8, #0
 934 01a8 0DD0     		beq	.L59
 935              	.LVL114:
 936              	.LBB74:
 937              	.LBB70:
 938              		.loc 2 121 0
 939 01aa D8F80000 		ldr	r0, [r8]
 940 01ae 50B1     		cbz	r0, .L59
 941 01b0 4546     		mov	r5, r8
 942 01b2 02E0     		b	.L60
 943              	.LVL115:
 944              	.L57:
 945 01b4 55F8080F 		ldr	r0, [r5, #8]!
 946              	.LVL116:
 947 01b8 28B1     		cbz	r0, .L59
 948              	.LVL117:
 949              	.L60:
 950              		.loc 2 122 0
 951 01ba 4946     		mov	r1, r9
 952 01bc FFF7FEFF 		bl	strcasecmp
 953              	.LVL118:
 954 01c0 0028     		cmp	r0, #0
 955 01c2 F7D1     		bne	.L57
 956 01c4 B6E7     		b	.L86
 957              	.LVL119:
 958              	.L59:
 959              	.LBE70:
 960              	.LBE74:
 961              		.loc 2 189 0
 962 01c6 40F20001 		movw	r1, #:lower16:.LC34
 963 01ca 3046     		mov	r0, r6
ARM GAS  /tmp/ccJuZCkp.s 			page 18


 964 01cc 4A46     		mov	r2, r9
 965 01ce C0F20001 		movt	r1, #:upper16:.LC34
 966 01d2 FFF7FEFF 		bl	chprintf
 967              	.LVL120:
 968              		.loc 2 190 0
 969 01d6 40F20001 		movw	r1, #:lower16:.LC35
 970 01da 3046     		mov	r0, r6
 971 01dc C0F20001 		movt	r1, #:upper16:.LC35
 972 01e0 FFF7FEFF 		bl	chprintf
 973              	.LVL121:
 974 01e4 27E7     		b	.L36
 975              		.cfi_endproc
 976              	.LFE125:
 977              		.size	shell_thread, .-shell_thread
 978              		.global	shell_terminated
 979 01e6 00BFAFF3 		.section	.data.local_commands,"aw",%progbits
 979      0080AFF3 
 979      0080
 980              		.align	2
 981              		.set	.LANCHOR1,. + 0
 982              		.type	local_commands, %object
 983              		.size	local_commands, 24
 984              	local_commands:
 985 0000 1C000000 		.word	.LC3
 986 0004 00000000 		.word	cmd_info
 987 0008 0C000000 		.word	.LC1
 988 000c 00000000 		.word	cmd_systime
 989 0010 00000000 		.word	0
 990 0014 00000000 		.word	0
 991              		.section	.rodata.str1.4,"aMS",%progbits,1
 992              		.align	2
 993              	.LC0:
 994 0000 55736167 		.ascii	"Usage: %s\015\012\000"
 994      653A2025 
 994      730D0A00 
 995              	.LC1:
 996 000c 73797374 		.ascii	"systime\000"
 996      696D6500 
 997              	.LC2:
 998 0014 256C750D 		.ascii	"%lu\015\012\000"
 998      0A00
 999 001a 0000     		.space	2
 1000              	.LC3:
 1001 001c 696E666F 		.ascii	"info\000"
 1001      00
 1002 0021 000000   		.space	3
 1003              	.LC4:
 1004 0024 4B65726E 		.ascii	"Kernel:       %s\015\012\000"
 1004      656C3A20 
 1004      20202020 
 1004      20202573 
 1004      0D0A00
 1005 0037 00       		.space	1
 1006              	.LC5:
 1007 0038 322E362E 		.ascii	"2.6.5\000"
 1007      3500
 1008 003e 0000     		.space	2
ARM GAS  /tmp/ccJuZCkp.s 			page 19


 1009              	.LC6:
 1010 0040 436F6D70 		.ascii	"Compiler:     %s\015\012\000"
 1010      696C6572 
 1010      3A202020 
 1010      20202573 
 1010      0D0A00
 1011 0053 00       		.space	1
 1012              	.LC7:
 1013 0054 47434320 		.ascii	"GCC 4.8.2\000"
 1013      342E382E 
 1013      3200
 1014 005e 0000     		.space	2
 1015              	.LC8:
 1016 0060 41726368 		.ascii	"Architecture: %s\015\012\000"
 1016      69746563 
 1016      74757265 
 1016      3A202573 
 1016      0D0A00
 1017 0073 00       		.space	1
 1018              	.LC9:
 1019 0074 41524D76 		.ascii	"ARMv7-ME\000"
 1019      372D4D45 
 1019      00
 1020 007d 000000   		.space	3
 1021              	.LC10:
 1022 0080 436F7265 		.ascii	"Core Variant: %s\015\012\000"
 1022      20566172 
 1022      69616E74 
 1022      3A202573 
 1022      0D0A00
 1023 0093 00       		.space	1
 1024              	.LC11:
 1025 0094 436F7274 		.ascii	"Cortex-M4\000"
 1025      65782D4D 
 1025      3400
 1026 009e 0000     		.space	2
 1027              	.LC12:
 1028 00a0 506F7274 		.ascii	"Port Info:    %s\015\012\000"
 1028      20496E66 
 1028      6F3A2020 
 1028      20202573 
 1028      0D0A00
 1029 00b3 00       		.space	1
 1030              	.LC13:
 1031 00b4 41647661 		.ascii	"Advanced kernel mode\000"
 1031      6E636564 
 1031      206B6572 
 1031      6E656C20 
 1031      6D6F6465 
 1032 00c9 000000   		.space	3
 1033              	.LC14:
 1034 00cc 506C6174 		.ascii	"Platform:     %s\015\012\000"
 1034      666F726D 
 1034      3A202020 
 1034      20202573 
 1034      0D0A00
 1035 00df 00       		.space	1
ARM GAS  /tmp/ccJuZCkp.s 			page 20


 1036              	.LC15:
 1037 00e0 53544D33 		.ascii	"STM32F407/F417 High Performance with DSP and FPU\000"
 1037      32463430 
 1037      372F4634 
 1037      31372048 
 1037      69676820 
 1038 0111 000000   		.space	3
 1039              	.LC16:
 1040 0114 426F6172 		.ascii	"Board:        %s\015\012\000"
 1040      643A2020 
 1040      20202020 
 1040      20202573 
 1040      0D0A00
 1041 0127 00       		.space	1
 1042              	.LC17:
 1043 0128 53544D69 		.ascii	"STMicroelectronics STM32F4-Discovery\000"
 1043      63726F65 
 1043      6C656374 
 1043      726F6E69 
 1043      63732053 
 1044 014d 000000   		.space	3
 1045              	.LC18:
 1046 0150 4275696C 		.ascii	"Build time:   %s%s%s\015\012\000"
 1046      64207469 
 1046      6D653A20 
 1046      20202573 
 1046      25732573 
 1047 0167 00       		.space	1
 1048              	.LC19:
 1049 0168 53657020 		.ascii	"Sep 17 2014\000"
 1049      31372032 
 1049      30313400 
 1050              	.LC20:
 1051 0174 202D2000 		.ascii	" - \000"
 1052              	.LC21:
 1053 0178 32333A33 		.ascii	"23:37:10\000"
 1053      373A3130 
 1053      00
 1054 0181 000000   		.space	3
 1055              	.LC22:
 1056 0184 200900   		.ascii	" \011\000"
 1057 0187 00       		.space	1
 1058              	.LC23:
 1059 0188 5E4400   		.ascii	"^D\000"
 1060 018b 00       		.space	1
 1061              	.LC24:
 1062 018c 0D0A00   		.ascii	"\015\012\000"
 1063 018f 00       		.space	1
 1064              	.LC25:
 1065 0190 7368656C 		.ascii	"shell\000"
 1065      6C00
 1066 0196 0000     		.space	2
 1067              	.LC26:
 1068 0198 0D0A4368 		.ascii	"\015\012ChibiOS/RT Shell\015\012\000"
 1068      6962694F 
 1068      532F5254 
 1068      20536865 
ARM GAS  /tmp/ccJuZCkp.s 			page 21


 1068      6C6C0D0A 
 1069 01ad 000000   		.space	3
 1070              	.LC27:
 1071 01b0 63683E20 		.ascii	"ch> \000"
 1071      00
 1072 01b5 000000   		.space	3
 1073              	.LC28:
 1074 01b8 0D0A6C6F 		.ascii	"\015\012logout\000"
 1074      676F7574 
 1074      00
 1075 01c1 000000   		.space	3
 1076              	.LC29:
 1077 01c4 746F6F20 		.ascii	"too many arguments\015\012\000"
 1077      6D616E79 
 1077      20617267 
 1077      756D656E 
 1077      74730D0A 
 1078 01d9 000000   		.space	3
 1079              	.LC30:
 1080 01dc 65786974 		.ascii	"exit\000"
 1080      00
 1081 01e1 000000   		.space	3
 1082              	.LC31:
 1083 01e4 68656C70 		.ascii	"help\000"
 1083      00
 1084 01e9 000000   		.space	3
 1085              	.LC32:
 1086 01ec 436F6D6D 		.ascii	"Commands: help exit \000"
 1086      616E6473 
 1086      3A206865 
 1086      6C702065 
 1086      78697420 
 1087 0201 000000   		.space	3
 1088              	.LC33:
 1089 0204 25732000 		.ascii	"%s \000"
 1090              	.LC34:
 1091 0208 257300   		.ascii	"%s\000"
 1092 020b 00       		.space	1
 1093              	.LC35:
 1094 020c 203F0D0A 		.ascii	" ?\015\012\000"
 1094      00
 1095 0211 000000   		.section	.bss.shell_terminated,"aw",%nobits
 1096              		.align	2
 1097              		.set	.LANCHOR0,. + 0
 1098              		.type	shell_terminated, %object
 1099              		.size	shell_terminated, 4
 1100              	shell_terminated:
 1101 0000 00000000 		.space	4
 1102              		.text
 1103              	.Letext0:
 1104              		.file 3 "/usr/lib/gcc/arm-none-eabi/4.8.2/include/stddef.h"
 1105              		.file 4 "/usr/include/newlib/machine/_default_types.h"
 1106              		.file 5 "/usr/include/newlib/stdint.h"
 1107              		.file 6 "../../os/ports/GCC/ARMCMx/chtypes.h"
 1108              		.file 7 "../../os/kernel/include/chlists.h"
 1109              		.file 8 "../../os/kernel/include/chthreads.h"
 1110              		.file 9 "../../os/ports/GCC/ARMCMx/chcore_v7m.h"
ARM GAS  /tmp/ccJuZCkp.s 			page 22


 1111              		.file 10 "../../os/kernel/include/chvt.h"
 1112              		.file 11 "../../os/kernel/include/chschd.h"
 1113              		.file 12 "../../os/kernel/include/chmtx.h"
 1114              		.file 13 "../../os/kernel/include/chevents.h"
 1115              		.file 14 "../../os/kernel/include/chmemcore.h"
 1116              		.file 15 "../../os/kernel/include/chheap.h"
 1117              		.file 16 "../../os/kernel/include/chstreams.h"
 1118              		.file 17 "../../os/various/shell.h"
 1119              		.file 18 "/usr/lib/gcc/arm-none-eabi/4.8.2/include/stdarg.h"
 1120              		.file 19 "<built-in>"
 1121              		.file 20 "../../os/ports/common/ARMCMx/CMSIS/include/core_cm4.h"
 1122              		.file 21 "/usr/include/newlib/string.h"
 1123              		.file 22 "../../os/kernel/include/chdynamic.h"