ARM GAS  /tmp/ccaINj8N.s 			page 1


   1              		.syntax unified
   2              		.cpu cortex-m4
   3              		.fpu softvfp
   4              		.eabi_attribute 20, 1
   5              		.eabi_attribute 21, 1
   6              		.eabi_attribute 23, 3
   7              		.eabi_attribute 24, 1
   8              		.eabi_attribute 25, 1
   9              		.eabi_attribute 26, 1
  10              		.eabi_attribute 30, 2
  11              		.eabi_attribute 34, 1
  12              		.eabi_attribute 18, 4
  13              		.thumb
  14              		.file	"testsem.c"
  15              		.text
  16              	.Ltext0:
  17              		.cfi_sections	.debug_frame
  18              		.section	.text.sem1_execute,"ax",%progbits
  19              		.align	2
  20              		.p2align 4,,15
  21              		.thumb
  22              		.thumb_func
  23              		.type	sem1_execute, %function
  24              	sem1_execute:
  25              	.LFB9:
  26              		.file 1 "../../test/testsem.c"
  27              		.loc 1 84 0
  28              		.cfi_startproc
  29              		@ args = 0, pretend = 0, frame = 8
  30              		@ frame_needed = 0, uses_anonymous_args = 0
  31 0000 2DE9F041 		push	{r4, r5, r6, r7, r8, lr}
  32              		.cfi_def_cfa_offset 24
  33              		.cfi_offset 4, -24
  34              		.cfi_offset 5, -20
  35              		.cfi_offset 6, -16
  36              		.cfi_offset 7, -12
  37              		.cfi_offset 8, -8
  38              		.cfi_offset 14, -4
  39              		.loc 1 86 0
  40 0004 40F20005 		movw	r5, #:lower16:rlist
  41 0008 C0F20005 		movt	r5, #:upper16:rlist
  42 000c 40F20006 		movw	r6, #:lower16:wa
  43 0010 C0F20006 		movt	r6, #:upper16:wa
  44 0014 AB69     		ldr	r3, [r5, #24]
  45 0016 D6F80080 		ldr	r8, [r6]
  46 001a 9A68     		ldr	r2, [r3, #8]
  47              		.loc 1 84 0
  48 001c 84B0     		sub	sp, sp, #16
  49              		.cfi_def_cfa_offset 40
  50              		.loc 1 86 0
  51 001e 40F20007 		movw	r7, #:lower16:.LC0
  52 0022 C0F20007 		movt	r7, #:upper16:.LC0
  53 0026 40F20003 		movw	r3, #:lower16:thread1
  54 002a 0532     		adds	r2, r2, #5
  55 002c C0F20003 		movt	r3, #:upper16:thread1
  56 0030 4FF4A871 		mov	r1, #336
  57 0034 4046     		mov	r0, r8
ARM GAS  /tmp/ccaINj8N.s 			page 2


  58 0036 0097     		str	r7, [sp]
  59 0038 FFF7FEFF 		bl	chThdCreateStatic
  60              	.LVL0:
  61              		.loc 1 87 0
  62 003c 7268     		ldr	r2, [r6, #4]
  63 003e AB69     		ldr	r3, [r5, #24]
  64 0040 0392     		str	r2, [sp, #12]
  65              		.loc 1 86 0
  66 0042 40F20004 		movw	r4, #:lower16:threads
  67              		.loc 1 87 0
  68 0046 9A68     		ldr	r2, [r3, #8]
  69              		.loc 1 86 0
  70 0048 C0F20004 		movt	r4, #:upper16:threads
  71              		.loc 1 87 0
  72 004c 40F20001 		movw	r1, #:lower16:.LC1
  73 0050 C0F20001 		movt	r1, #:upper16:.LC1
  74 0054 40F20003 		movw	r3, #:lower16:thread1
  75              		.loc 1 86 0
  76 0058 2060     		str	r0, [r4]
  77              		.loc 1 87 0
  78 005a 0132     		adds	r2, r2, #1
  79 005c 0091     		str	r1, [sp]
  80 005e C0F20003 		movt	r3, #:upper16:thread1
  81 0062 4FF4A871 		mov	r1, #336
  82 0066 0398     		ldr	r0, [sp, #12]
  83 0068 FFF7FEFF 		bl	chThdCreateStatic
  84              	.LVL1:
  85              		.loc 1 88 0
  86 006c B268     		ldr	r2, [r6, #8]
  87 006e AB69     		ldr	r3, [r5, #24]
  88 0070 0392     		str	r2, [sp, #12]
  89 0072 40F20001 		movw	r1, #:lower16:.LC2
  90 0076 9A68     		ldr	r2, [r3, #8]
  91              		.loc 1 87 0
  92 0078 6060     		str	r0, [r4, #4]
  93              		.loc 1 88 0
  94 007a C0F20001 		movt	r1, #:upper16:.LC2
  95 007e 40F20003 		movw	r3, #:lower16:thread1
  96 0082 0332     		adds	r2, r2, #3
  97 0084 0091     		str	r1, [sp]
  98 0086 C0F20003 		movt	r3, #:upper16:thread1
  99 008a 4FF4A871 		mov	r1, #336
 100 008e 0398     		ldr	r0, [sp, #12]
 101 0090 FFF7FEFF 		bl	chThdCreateStatic
 102              	.LVL2:
 103              		.loc 1 89 0
 104 0094 F268     		ldr	r2, [r6, #12]
 105 0096 AB69     		ldr	r3, [r5, #24]
 106 0098 0392     		str	r2, [sp, #12]
 107 009a 40F20001 		movw	r1, #:lower16:.LC3
 108 009e 9A68     		ldr	r2, [r3, #8]
 109              		.loc 1 88 0
 110 00a0 A060     		str	r0, [r4, #8]
 111              		.loc 1 89 0
 112 00a2 C0F20001 		movt	r1, #:upper16:.LC3
 113 00a6 40F20003 		movw	r3, #:lower16:thread1
 114 00aa 0432     		adds	r2, r2, #4
ARM GAS  /tmp/ccaINj8N.s 			page 3


 115 00ac 0091     		str	r1, [sp]
 116 00ae C0F20003 		movt	r3, #:upper16:thread1
 117 00b2 4FF4A871 		mov	r1, #336
 118 00b6 0398     		ldr	r0, [sp, #12]
 119 00b8 FFF7FEFF 		bl	chThdCreateStatic
 120              	.LVL3:
 121              		.loc 1 90 0
 122 00bc AB69     		ldr	r3, [r5, #24]
 123 00be 3669     		ldr	r6, [r6, #16]
 124 00c0 9A68     		ldr	r2, [r3, #8]
 125              		.loc 1 89 0
 126 00c2 E060     		str	r0, [r4, #12]
 127              		.loc 1 90 0
 128 00c4 40F20001 		movw	r1, #:lower16:.LC4
 129 00c8 C0F20001 		movt	r1, #:upper16:.LC4
 130 00cc 40F20003 		movw	r3, #:lower16:thread1
 131 00d0 0232     		adds	r2, r2, #2
 132 00d2 C0F20003 		movt	r3, #:upper16:thread1
 133 00d6 0091     		str	r1, [sp]
 134 00d8 3046     		mov	r0, r6
 135 00da 4FF4A871 		mov	r1, #336
 136 00de FFF7FEFF 		bl	chThdCreateStatic
 137              	.LVL4:
 138 00e2 2061     		str	r0, [r4, #16]
 139              		.loc 1 91 0
 140 00e4 40F20000 		movw	r0, #:lower16:.LANCHOR0
 141 00e8 C0F20000 		movt	r0, #:upper16:.LANCHOR0
 142 00ec FFF7FEFF 		bl	chSemSignal
 143              	.LVL5:
 144              		.loc 1 92 0
 145 00f0 40F20000 		movw	r0, #:lower16:.LANCHOR0
 146 00f4 C0F20000 		movt	r0, #:upper16:.LANCHOR0
 147 00f8 FFF7FEFF 		bl	chSemSignal
 148              	.LVL6:
 149              		.loc 1 93 0
 150 00fc 40F20000 		movw	r0, #:lower16:.LANCHOR0
 151 0100 C0F20000 		movt	r0, #:upper16:.LANCHOR0
 152 0104 FFF7FEFF 		bl	chSemSignal
 153              	.LVL7:
 154              		.loc 1 94 0
 155 0108 40F20000 		movw	r0, #:lower16:.LANCHOR0
 156 010c C0F20000 		movt	r0, #:upper16:.LANCHOR0
 157 0110 FFF7FEFF 		bl	chSemSignal
 158              	.LVL8:
 159              		.loc 1 95 0
 160 0114 40F20000 		movw	r0, #:lower16:.LANCHOR0
 161 0118 C0F20000 		movt	r0, #:upper16:.LANCHOR0
 162 011c FFF7FEFF 		bl	chSemSignal
 163              	.LVL9:
 164              		.loc 1 96 0
 165 0120 FFF7FEFF 		bl	test_wait_threads
 166              	.LVL10:
 167              		.loc 1 100 0
 168 0124 40F20001 		movw	r1, #:lower16:.LC5
 169 0128 C0F20001 		movt	r1, #:upper16:.LC5
 170 012c 0120     		movs	r0, #1
 171 012e FFF7FEFF 		bl	_test_assert_sequence
ARM GAS  /tmp/ccaINj8N.s 			page 4


 172              	.LVL11:
 173 0132 10B1     		cbz	r0, .L4
 174              		.loc 1 109 0
 175 0134 04B0     		add	sp, sp, #16
 176              		@ sp needed
 177 0136 BDE8F081 		pop	{r4, r5, r6, r7, r8, pc}
 178              	.L4:
 179              		.loc 1 102 0
 180 013a AB69     		ldr	r3, [r5, #24]
 181 013c 9A68     		ldr	r2, [r3, #8]
 182 013e 0097     		str	r7, [sp]
 183 0140 40F20003 		movw	r3, #:lower16:thread1
 184 0144 0532     		adds	r2, r2, #5
 185 0146 4046     		mov	r0, r8
 186 0148 C0F20003 		movt	r3, #:upper16:thread1
 187 014c 4FF4A871 		mov	r1, #336
 188 0150 FFF7FEFF 		bl	chThdCreateStatic
 189              	.LVL12:
 190              	.LBB2:
 191              		.loc 1 103 0
 192 0154 2023     		movs	r3, #32
 193              	.LBE2:
 194              		.loc 1 102 0
 195 0156 2060     		str	r0, [r4]
 196              	.LBB3:
 197              		.loc 1 103 0
 198              	@ 103 "../../test/testsem.c" 1
 199 0158 83F31188 		msr     BASEPRI, r3
 200              	@ 0 "" 2
 201              		.thumb
 202              	.LBE3:
 203              		.loc 1 104 0
 204 015c 40F20000 		movw	r0, #:lower16:.LANCHOR0
 205 0160 C0F20000 		movt	r0, #:upper16:.LANCHOR0
 206 0164 0221     		movs	r1, #2
 207 0166 FFF7FEFF 		bl	chSemAddCounterI
 208              	.LVL13:
 209              		.loc 1 105 0
 210 016a FFF7FEFF 		bl	chSchRescheduleS
 211              	.LVL14:
 212              	.LBB4:
 213              		.loc 1 106 0
 214 016e 0023     		movs	r3, #0
 215              	@ 106 "../../test/testsem.c" 1
 216 0170 83F31188 		msr     BASEPRI, r3
 217              	@ 0 "" 2
 218              		.thumb
 219              	.LBE4:
 220              		.loc 1 107 0
 221 0174 FFF7FEFF 		bl	test_wait_threads
 222              	.LVL15:
 223              		.loc 1 108 0
 224 0178 40F20003 		movw	r3, #:lower16:.LANCHOR0
 225 017c C0F20003 		movt	r3, #:upper16:.LANCHOR0
 226 0180 0220     		movs	r0, #2
 227 0182 9968     		ldr	r1, [r3, #8]
 228 0184 4B1E     		subs	r3, r1, #1
ARM GAS  /tmp/ccaINj8N.s 			page 5


 229 0186 5942     		rsbs	r1, r3, #0
 230 0188 5941     		adcs	r1, r1, r3
 231              		.loc 1 109 0
 232 018a 04B0     		add	sp, sp, #16
 233              		@ sp needed
 234 018c BDE8F041 		pop	{r4, r5, r6, r7, r8, lr}
 235              		.loc 1 108 0
 236 0190 FFF7FEBF 		b	_test_assert
 237              	.LVL16:
 238              		.cfi_endproc
 239              	.LFE9:
 240              		.size	sem1_execute, .-sem1_execute
 241 0194 AFF30080 		.section	.text.thread3,"ax",%progbits
 241      AFF30080 
 241      AFF30080 
 242              		.align	2
 243              		.p2align 4,,15
 244              		.thumb
 245              		.thumb_func
 246              		.type	thread3, %function
 247              	thread3:
 248              	.LFB14:
 249              		.loc 1 210 0
 250              		.cfi_startproc
 251              		@ args = 0, pretend = 0, frame = 0
 252              		@ frame_needed = 0, uses_anonymous_args = 0
 253              	.LVL17:
 254 0000 10B5     		push	{r4, lr}
 255              		.cfi_def_cfa_offset 8
 256              		.cfi_offset 4, -8
 257              		.cfi_offset 14, -4
 258              		.loc 1 213 0
 259 0002 40F20004 		movw	r4, #:lower16:.LANCHOR0
 260 0006 C0F20004 		movt	r4, #:upper16:.LANCHOR0
 261 000a 2046     		mov	r0, r4
 262              	.LVL18:
 263 000c FFF7FEFF 		bl	chSemWait
 264              	.LVL19:
 265              		.loc 1 214 0
 266 0010 2046     		mov	r0, r4
 267 0012 FFF7FEFF 		bl	chSemSignal
 268              	.LVL20:
 269              		.loc 1 216 0
 270 0016 0020     		movs	r0, #0
 271 0018 10BD     		pop	{r4, pc}
 272              		.cfi_endproc
 273              	.LFE14:
 274              		.size	thread3, .-thread3
 275 001a 00BFAFF3 		.section	.text.thread1,"ax",%progbits
 275      0080
 276              		.align	2
 277              		.p2align 4,,15
 278              		.thumb
 279              		.thumb_func
 280              		.type	thread1, %function
 281              	thread1:
 282              	.LFB8:
ARM GAS  /tmp/ccaINj8N.s 			page 6


 283              		.loc 1 77 0
 284              		.cfi_startproc
 285              		@ args = 0, pretend = 0, frame = 0
 286              		@ frame_needed = 0, uses_anonymous_args = 0
 287              	.LVL21:
 288 0000 10B5     		push	{r4, lr}
 289              		.cfi_def_cfa_offset 8
 290              		.cfi_offset 4, -8
 291              		.cfi_offset 14, -4
 292              		.loc 1 77 0
 293 0002 0446     		mov	r4, r0
 294              		.loc 1 79 0
 295 0004 40F20000 		movw	r0, #:lower16:.LANCHOR0
 296              	.LVL22:
 297 0008 C0F20000 		movt	r0, #:upper16:.LANCHOR0
 298 000c FFF7FEFF 		bl	chSemWait
 299              	.LVL23:
 300              		.loc 1 80 0
 301 0010 2078     		ldrb	r0, [r4]	@ zero_extendqisi2
 302 0012 FFF7FEFF 		bl	test_emit_token
 303              	.LVL24:
 304              		.loc 1 82 0
 305 0016 0020     		movs	r0, #0
 306 0018 10BD     		pop	{r4, pc}
 307              		.cfi_endproc
 308              	.LFE8:
 309              		.size	thread1, .-thread1
 310 001a 00BFAFF3 		.section	.text.sem1_setup,"ax",%progbits
 310      0080
 311              		.align	2
 312              		.p2align 4,,15
 313              		.thumb
 314              		.thumb_func
 315              		.type	sem1_setup, %function
 316              	sem1_setup:
 317              	.LFB7:
 318              		.loc 1 72 0
 319              		.cfi_startproc
 320              		@ args = 0, pretend = 0, frame = 0
 321              		@ frame_needed = 0, uses_anonymous_args = 0
 322              		@ link register save eliminated.
 323              		.loc 1 74 0
 324 0000 40F20000 		movw	r0, #:lower16:.LANCHOR0
 325 0004 C0F20000 		movt	r0, #:upper16:.LANCHOR0
 326 0008 0021     		movs	r1, #0
 327 000a FFF7FEBF 		b	chSemInit
 328              	.LVL25:
 329              		.cfi_endproc
 330              	.LFE7:
 331              		.size	sem1_setup, .-sem1_setup
 332 000e 00BF     		.section	.text.sem2_setup,"ax",%progbits
 333              		.align	2
 334              		.p2align 4,,15
 335              		.thumb
 336              		.thumb_func
 337              		.type	sem2_setup, %function
 338              	sem2_setup:
ARM GAS  /tmp/ccaINj8N.s 			page 7


 339              	.LFB10:
 340              		.loc 1 129 0
 341              		.cfi_startproc
 342              		@ args = 0, pretend = 0, frame = 0
 343              		@ frame_needed = 0, uses_anonymous_args = 0
 344              		@ link register save eliminated.
 345              		.loc 1 131 0
 346 0000 40F20000 		movw	r0, #:lower16:.LANCHOR0
 347 0004 C0F20000 		movt	r0, #:upper16:.LANCHOR0
 348 0008 0021     		movs	r1, #0
 349 000a FFF7FEBF 		b	chSemInit
 350              	.LVL26:
 351              		.cfi_endproc
 352              	.LFE10:
 353              		.size	sem2_setup, .-sem2_setup
 354 000e 00BF     		.section	.text.sem3_setup,"ax",%progbits
 355              		.align	2
 356              		.p2align 4,,15
 357              		.thumb
 358              		.thumb_func
 359              		.type	sem3_setup, %function
 360              	sem3_setup:
 361              	.LFB13:
 362              		.loc 1 205 0
 363              		.cfi_startproc
 364              		@ args = 0, pretend = 0, frame = 0
 365              		@ frame_needed = 0, uses_anonymous_args = 0
 366              		@ link register save eliminated.
 367              		.loc 1 207 0
 368 0000 40F20000 		movw	r0, #:lower16:.LANCHOR0
 369 0004 C0F20000 		movt	r0, #:upper16:.LANCHOR0
 370 0008 0021     		movs	r1, #0
 371 000a FFF7FEBF 		b	chSemInit
 372              	.LVL27:
 373              		.cfi_endproc
 374              	.LFE13:
 375              		.size	sem3_setup, .-sem3_setup
 376 000e 00BF     		.section	.text.thread2,"ax",%progbits
 377              		.align	2
 378              		.p2align 4,,15
 379              		.thumb
 380              		.thumb_func
 381              		.type	thread2, %function
 382              	thread2:
 383              	.LFB11:
 384              		.loc 1 134 0
 385              		.cfi_startproc
 386              		@ args = 0, pretend = 0, frame = 0
 387              		@ frame_needed = 0, uses_anonymous_args = 0
 388              	.LVL28:
 389 0000 08B5     		push	{r3, lr}
 390              		.cfi_def_cfa_offset 8
 391              		.cfi_offset 3, -8
 392              		.cfi_offset 14, -4
 393              		.loc 1 137 0
 394 0002 3220     		movs	r0, #50
 395              	.LVL29:
ARM GAS  /tmp/ccaINj8N.s 			page 8


 396 0004 FFF7FEFF 		bl	chThdSleep
 397              	.LVL30:
 398              	.LBB5:
 399              		.loc 1 138 0
 400 0008 2023     		movs	r3, #32
 401              	@ 138 "../../test/testsem.c" 1
 402 000a 83F31188 		msr     BASEPRI, r3
 403              	@ 0 "" 2
 404              		.thumb
 405              	.LBE5:
 406              		.loc 1 139 0
 407 000e 40F20000 		movw	r0, #:lower16:.LANCHOR0
 408 0012 C0F20000 		movt	r0, #:upper16:.LANCHOR0
 409 0016 FFF7FEFF 		bl	chSemSignalI
 410              	.LVL31:
 411              		.loc 1 140 0
 412 001a FFF7FEFF 		bl	chSchRescheduleS
 413              	.LVL32:
 414              	.LBB6:
 415              		.loc 1 141 0
 416 001e 0023     		movs	r3, #0
 417              	@ 141 "../../test/testsem.c" 1
 418 0020 83F31188 		msr     BASEPRI, r3
 419              	@ 0 "" 2
 420              		.thumb
 421              	.LBE6:
 422              		.loc 1 143 0
 423 0024 0020     		movs	r0, #0
 424 0026 08BD     		pop	{r3, pc}
 425              		.cfi_endproc
 426              	.LFE11:
 427              		.size	thread2, .-thread2
 428 0028 AFF30080 		.section	.text.thread4,"ax",%progbits
 428      AFF30080 
 429              		.align	2
 430              		.p2align 4,,15
 431              		.thumb
 432              		.thumb_func
 433              		.type	thread4, %function
 434              	thread4:
 435              	.LFB16:
 436              		.loc 1 246 0
 437              		.cfi_startproc
 438              		@ args = 0, pretend = 0, frame = 0
 439              		@ frame_needed = 0, uses_anonymous_args = 0
 440              	.LVL33:
 441 0000 08B5     		push	{r3, lr}
 442              		.cfi_def_cfa_offset 8
 443              		.cfi_offset 3, -8
 444              		.cfi_offset 14, -4
 445              	.LBB7:
 446              		.loc 1 248 0
 447 0002 2023     		movs	r3, #32
 448              	@ 248 "../../test/testsem.c" 1
 449 0004 83F31188 		msr     BASEPRI, r3
 450              	@ 0 "" 2
 451              		.thumb
ARM GAS  /tmp/ccaINj8N.s 			page 9


 452              	.LBE7:
 453 0008 8368     		ldr	r3, [r0, #8]
 454 000a 002B     		cmp	r3, #0
 455 000c 06DD     		ble	.L13
 456              	.LVL34:
 457              	.L12:
 458              		.loc 1 248 0 is_stmt 0 discriminator 2
 459 000e FFF7FEFF 		bl	chSchRescheduleS
 460              	.LVL35:
 461              	.LBB8:
 462 0012 0023     		movs	r3, #0
 463              	@ 248 "../../test/testsem.c" 1
 464 0014 83F31188 		msr     BASEPRI, r3
 465              	@ 0 "" 2
 466              		.thumb
 467              	.LBE8:
 468              		.loc 1 250 0 is_stmt 1 discriminator 2
 469 0018 0020     		movs	r0, #0
 470 001a 08BD     		pop	{r3, pc}
 471              	.LVL36:
 472              	.L13:
 473              		.loc 1 248 0 discriminator 1
 474 001c FFF7FEFF 		bl	chSemSignalI
 475              	.LVL37:
 476 0020 F5E7     		b	.L12
 477              		.cfi_endproc
 478              	.LFE16:
 479              		.size	thread4, .-thread4
 480 0022 00BFAFF3 		.section	.text.sem4_execute,"ax",%progbits
 480      0080AFF3 
 480      0080AFF3 
 480      0080
 481              		.align	2
 482              		.p2align 4,,15
 483              		.thumb
 484              		.thumb_func
 485              		.type	sem4_execute, %function
 486              	sem4_execute:
 487              	.LFB17:
 488              		.loc 1 252 0
 489              		.cfi_startproc
 490              		@ args = 0, pretend = 0, frame = 16
 491              		@ frame_needed = 0, uses_anonymous_args = 0
 492 0000 00B5     		push	{lr}
 493              		.cfi_def_cfa_offset 4
 494              		.cfi_offset 14, -4
 495 0002 87B0     		sub	sp, sp, #28
 496              		.cfi_def_cfa_offset 32
 497              		.loc 1 256 0
 498 0004 03A8     		add	r0, sp, #12
 499 0006 0021     		movs	r1, #0
 500 0008 FFF7FEFF 		bl	chSemInit
 501              	.LVL38:
 502              		.loc 1 257 0
 503 000c 03A8     		add	r0, sp, #12
 504 000e 0021     		movs	r1, #0
 505 0010 FFF7FEFF 		bl	chSemReset
ARM GAS  /tmp/ccaINj8N.s 			page 10


 506              	.LVL39:
 507              		.loc 1 258 0
 508 0014 0599     		ldr	r1, [sp, #20]
 509 0016 0029     		cmp	r1, #0
 510 0018 CCBF     		ite	gt
 511 001a 0021     		movgt	r1, #0
 512 001c 0121     		movle	r1, #1
 513 001e 0120     		movs	r0, #1
 514 0020 FFF7FEFF 		bl	_test_assert
 515              	.LVL40:
 516 0024 10B1     		cbz	r0, .L19
 517              	.L14:
 518              		.loc 1 280 0
 519 0026 07B0     		add	sp, sp, #28
 520              		@ sp needed
 521 0028 5DF804FB 		ldr	pc, [sp], #4
 522              	.L19:
 523              		.loc 1 262 0
 524 002c 40F20002 		movw	r2, #:lower16:rlist
 525 0030 C0F20002 		movt	r2, #:upper16:rlist
 526              		.loc 1 261 0
 527 0034 40F20003 		movw	r3, #:lower16:wa
 528              		.loc 1 262 0
 529 0038 9269     		ldr	r2, [r2, #24]
 530              		.loc 1 261 0
 531 003a C0F20003 		movt	r3, #:upper16:wa
 532 003e 9268     		ldr	r2, [r2, #8]
 533 0040 1868     		ldr	r0, [r3]
 534 0042 03AB     		add	r3, sp, #12
 535 0044 0093     		str	r3, [sp]
 536 0046 40F20003 		movw	r3, #:lower16:thread4
 537 004a 4FF4A871 		mov	r1, #336
 538 004e 013A     		subs	r2, r2, #1
 539 0050 C0F20003 		movt	r3, #:upper16:thread4
 540 0054 FFF7FEFF 		bl	chThdCreateStatic
 541              	.LVL41:
 542 0058 40F20003 		movw	r3, #:lower16:threads
 543 005c C0F20003 		movt	r3, #:upper16:threads
 544 0060 1860     		str	r0, [r3]
 545              		.loc 1 265 0
 546 0062 03A8     		add	r0, sp, #12
 547 0064 FFF7FEFF 		bl	chSemWait
 548              	.LVL42:
 549              		.loc 1 268 0
 550 0068 0599     		ldr	r1, [sp, #20]
 551 006a 0029     		cmp	r1, #0
 552 006c CCBF     		ite	gt
 553 006e 0021     		movgt	r1, #0
 554 0070 0121     		movle	r1, #1
 555 0072 0220     		movs	r0, #2
 556 0074 FFF7FEFF 		bl	_test_assert
 557              	.LVL43:
 558 0078 0028     		cmp	r0, #0
 559 007a D4D1     		bne	.L14
 560              	.LBB9:
 561              		.loc 1 272 0
 562 007c 2023     		movs	r3, #32
ARM GAS  /tmp/ccaINj8N.s 			page 11


 563              	@ 272 "../../test/testsem.c" 1
 564 007e 83F31188 		msr     BASEPRI, r3
 565              	@ 0 "" 2
 566              		.thumb
 567              	.LBE9:
 568 0082 059B     		ldr	r3, [sp, #20]
 569 0084 002B     		cmp	r3, #0
 570 0086 37DD     		ble	.L20
 571              	.L16:
 572              		.loc 1 272 0 is_stmt 0 discriminator 2
 573 0088 FFF7FEFF 		bl	chSchRescheduleS
 574              	.LVL44:
 575              	.LBB10:
 576 008c 0023     		movs	r3, #0
 577              	@ 272 "../../test/testsem.c" 1
 578 008e 83F31188 		msr     BASEPRI, r3
 579              	@ 0 "" 2
 580              		.thumb
 581              	.LBE10:
 582              		.loc 1 273 0 is_stmt 1 discriminator 2
 583 0092 0599     		ldr	r1, [sp, #20]
 584 0094 0029     		cmp	r1, #0
 585 0096 D4BF     		ite	le
 586 0098 0021     		movle	r1, #0
 587 009a 0121     		movgt	r1, #1
 588 009c 0320     		movs	r0, #3
 589 009e FFF7FEFF 		bl	_test_assert
 590              	.LVL45:
 591 00a2 0028     		cmp	r0, #0
 592 00a4 BFD1     		bne	.L14
 593              		.loc 1 274 0
 594 00a6 0599     		ldr	r1, [sp, #20]
 595 00a8 B1F1010E 		subs	lr, r1, #1
 596 00ac DEF10001 		rsbs	r1, lr, #0
 597 00b0 51EB0E01 		adcs	r1, r1, lr
 598 00b4 0420     		movs	r0, #4
 599 00b6 FFF7FEFF 		bl	_test_assert
 600              	.LVL46:
 601 00ba 0028     		cmp	r0, #0
 602 00bc B3D1     		bne	.L14
 603              	.LBB11:
 604              		.loc 1 277 0
 605 00be 2023     		movs	r3, #32
 606              	@ 277 "../../test/testsem.c" 1
 607 00c0 83F31188 		msr     BASEPRI, r3
 608              	@ 0 "" 2
 609              		.thumb
 610              	.LBE11:
 611 00c4 059B     		ldr	r3, [sp, #20]
 612 00c6 002B     		cmp	r3, #0
 613 00c8 1ADD     		ble	.L21
 614              	.L17:
 615              		.loc 1 277 0 is_stmt 0 discriminator 2
 616 00ca FFF7FEFF 		bl	chSchRescheduleS
 617              	.LVL47:
 618              	.LBB12:
 619 00ce 0023     		movs	r3, #0
ARM GAS  /tmp/ccaINj8N.s 			page 12


 620              	@ 277 "../../test/testsem.c" 1
 621 00d0 83F31188 		msr     BASEPRI, r3
 622              	@ 0 "" 2
 623              		.thumb
 624              	.LBE12:
 625              		.loc 1 278 0 is_stmt 1 discriminator 2
 626 00d4 0599     		ldr	r1, [sp, #20]
 627 00d6 0029     		cmp	r1, #0
 628 00d8 D4BF     		ite	le
 629 00da 0021     		movle	r1, #0
 630 00dc 0121     		movgt	r1, #1
 631 00de 0320     		movs	r0, #3
 632 00e0 FFF7FEFF 		bl	_test_assert
 633              	.LVL48:
 634 00e4 0028     		cmp	r0, #0
 635 00e6 9ED1     		bne	.L14
 636              		.loc 1 279 0
 637 00e8 0599     		ldr	r1, [sp, #20]
 638 00ea 4A1E     		subs	r2, r1, #1
 639 00ec 5142     		rsbs	r1, r2, #0
 640 00ee 5141     		adcs	r1, r1, r2
 641 00f0 0520     		movs	r0, #5
 642 00f2 FFF7FEFF 		bl	_test_assert
 643              	.LVL49:
 644 00f6 96E7     		b	.L14
 645              	.L20:
 646              		.loc 1 272 0 discriminator 1
 647 00f8 03A8     		add	r0, sp, #12
 648 00fa FFF7FEFF 		bl	chSemSignalI
 649              	.LVL50:
 650 00fe C3E7     		b	.L16
 651              	.L21:
 652              		.loc 1 277 0 discriminator 1
 653 0100 03A8     		add	r0, sp, #12
 654 0102 FFF7FEFF 		bl	chSemSignalI
 655              	.LVL51:
 656 0106 E0E7     		b	.L17
 657              		.cfi_endproc
 658              	.LFE17:
 659              		.size	sem4_execute, .-sem4_execute
 660 0108 AFF30080 		.section	.text.sem2_execute,"ax",%progbits
 660      AFF30080 
 661              		.align	2
 662              		.p2align 4,,15
 663              		.thumb
 664              		.thumb_func
 665              		.type	sem2_execute, %function
 666              	sem2_execute:
 667              	.LFB12:
 668              		.loc 1 145 0
 669              		.cfi_startproc
 670              		@ args = 0, pretend = 0, frame = 0
 671              		@ frame_needed = 0, uses_anonymous_args = 0
 672 0000 70B5     		push	{r4, r5, r6, lr}
 673              		.cfi_def_cfa_offset 16
 674              		.cfi_offset 4, -16
 675              		.cfi_offset 5, -12
ARM GAS  /tmp/ccaINj8N.s 			page 13


 676              		.cfi_offset 6, -8
 677              		.cfi_offset 14, -4
 678              		.loc 1 153 0
 679 0002 40F20004 		movw	r4, #:lower16:.LANCHOR0
 680 0006 C0F20004 		movt	r4, #:upper16:.LANCHOR0
 681              		.loc 1 145 0
 682 000a 82B0     		sub	sp, sp, #8
 683              		.cfi_def_cfa_offset 24
 684              		.loc 1 153 0
 685 000c 0021     		movs	r1, #0
 686 000e 2046     		mov	r0, r4
 687 0010 FFF7FEFF 		bl	chSemWaitTimeout
 688              	.LVL52:
 689              		.loc 1 154 0
 690 0014 B0F1FF36 		subs	r6, r0, #-1
 691 0018 7142     		rsbs	r1, r6, #0
 692 001a 7141     		adcs	r1, r1, r6
 693 001c 0120     		movs	r0, #1
 694              	.LVL53:
 695 001e FFF7FEFF 		bl	_test_assert
 696              	.LVL54:
 697 0022 08B1     		cbz	r0, .L28
 698              	.LVL55:
 699              	.L22:
 700              		.loc 1 183 0
 701 0024 02B0     		add	sp, sp, #8
 702              		@ sp needed
 703 0026 70BD     		pop	{r4, r5, r6, pc}
 704              	.LVL56:
 705              	.L28:
 706              		.loc 1 155 0
 707 0028 2168     		ldr	r1, [r4]
 708 002a 0D1B     		subs	r5, r1, r4
 709 002c 6942     		rsbs	r1, r5, #0
 710 002e 6941     		adcs	r1, r1, r5
 711 0030 0220     		movs	r0, #2
 712 0032 FFF7FEFF 		bl	_test_assert
 713              	.LVL57:
 714 0036 0028     		cmp	r0, #0
 715 0038 F4D1     		bne	.L22
 716              		.loc 1 156 0
 717 003a A168     		ldr	r1, [r4, #8]
 718 003c D1F10101 		rsbs	r1, r1, #1
 719 0040 38BF     		it	cc
 720 0042 0021     		movcc	r1, #0
 721 0044 0320     		movs	r0, #3
 722 0046 FFF7FEFF 		bl	_test_assert
 723              	.LVL58:
 724 004a 0028     		cmp	r0, #0
 725 004c EAD1     		bne	.L22
 726              	.LBB15:
 727              	.LBB16:
 728              		.loc 1 161 0
 729 004e 40F20002 		movw	r2, #:lower16:rlist
 730 0052 C0F20002 		movt	r2, #:upper16:rlist
 731 0056 40F20003 		movw	r3, #:lower16:wa
 732 005a 9269     		ldr	r2, [r2, #24]
ARM GAS  /tmp/ccaINj8N.s 			page 14


 733 005c C0F20003 		movt	r3, #:upper16:wa
 734 0060 9268     		ldr	r2, [r2, #8]
 735 0062 1968     		ldr	r1, [r3]
 736 0064 0090     		str	r0, [sp]
 737 0066 40F20003 		movw	r3, #:lower16:thread2
 738 006a 013A     		subs	r2, r2, #1
 739 006c 0846     		mov	r0, r1
 740 006e C0F20003 		movt	r3, #:upper16:thread2
 741 0072 4FF4A871 		mov	r1, #336
 742 0076 FFF7FEFF 		bl	chThdCreateStatic
 743              	.LVL59:
 744 007a 40F20003 		movw	r3, #:lower16:threads
 745 007e C0F20003 		movt	r3, #:upper16:threads
 746              		.loc 1 163 0
 747 0082 4FF4FA71 		mov	r1, #500
 748              		.loc 1 161 0
 749 0086 1860     		str	r0, [r3]
 750              		.loc 1 163 0
 751 0088 2046     		mov	r0, r4
 752 008a FFF7FEFF 		bl	chSemWaitTimeout
 753              	.LVL60:
 754 008e 0546     		mov	r5, r0
 755              	.LVL61:
 756              		.loc 1 164 0
 757 0090 FFF7FEFF 		bl	test_wait_threads
 758              	.LVL62:
 759              		.loc 1 165 0
 760 0094 D5F10101 		rsbs	r1, r5, #1
 761 0098 38BF     		it	cc
 762 009a 0021     		movcc	r1, #0
 763 009c 0420     		movs	r0, #4
 764 009e FFF7FEFF 		bl	_test_assert
 765              	.LVL63:
 766 00a2 0028     		cmp	r0, #0
 767 00a4 BED1     		bne	.L22
 768              		.loc 1 166 0
 769 00a6 2168     		ldr	r1, [r4]
 770 00a8 0A1B     		subs	r2, r1, r4
 771 00aa 5142     		rsbs	r1, r2, #0
 772 00ac 5141     		adcs	r1, r1, r2
 773 00ae 0520     		movs	r0, #5
 774 00b0 FFF7FEFF 		bl	_test_assert
 775              	.LVL64:
 776 00b4 0028     		cmp	r0, #0
 777 00b6 B5D1     		bne	.L22
 778              		.loc 1 167 0
 779 00b8 A168     		ldr	r1, [r4, #8]
 780 00ba D1F10101 		rsbs	r1, r1, #1
 781 00be 38BF     		it	cc
 782 00c0 0021     		movcc	r1, #0
 783 00c2 0620     		movs	r0, #6
 784 00c4 FFF7FEFF 		bl	_test_assert
 785              	.LVL65:
 786 00c8 0028     		cmp	r0, #0
 787 00ca ABD1     		bne	.L22
 788              		.loc 1 172 0
 789 00cc FFF7FEFF 		bl	test_wait_tick
ARM GAS  /tmp/ccaINj8N.s 			page 15


 790              	.LVL66:
 791              		.loc 1 173 0
 792 00d0 40F20003 		movw	r3, #:lower16:vtlist
 793 00d4 C0F20003 		movt	r3, #:upper16:vtlist
 794 00d8 4125     		movs	r5, #65
 795              	.LVL67:
 796 00da DE68     		ldr	r6, [r3, #12]
 797              	.LVL68:
 798              	.L27:
 799              		.loc 1 175 0
 800 00dc 2846     		mov	r0, r5
 801 00de FFF7FEFF 		bl	test_emit_token
 802              	.LVL69:
 803              		.loc 1 176 0
 804 00e2 40F20000 		movw	r0, #:lower16:.LANCHOR0
 805 00e6 4FF4FA71 		mov	r1, #500
 806 00ea C0F20000 		movt	r0, #:upper16:.LANCHOR0
 807 00ee FFF7FEFF 		bl	chSemWaitTimeout
 808              	.LVL70:
 809              		.loc 1 177 0
 810 00f2 B0F1FF33 		subs	r3, r0, #-1
 811 00f6 5942     		rsbs	r1, r3, #0
 812 00f8 5941     		adcs	r1, r1, r3
 813 00fa 0720     		movs	r0, #7
 814              	.LVL71:
 815 00fc FFF7FEFF 		bl	_test_assert
 816              	.LVL72:
 817 0100 0028     		cmp	r0, #0
 818 0102 8FD1     		bne	.L22
 819              		.loc 1 178 0
 820 0104 2168     		ldr	r1, [r4]
 821 0106 B1EB040C 		subs	ip, r1, r4
 822 010a DCF10001 		rsbs	r1, ip, #0
 823 010e 51EB0C01 		adcs	r1, r1, ip
 824 0112 0820     		movs	r0, #8
 825 0114 FFF7FEFF 		bl	_test_assert
 826              	.LVL73:
 827 0118 0028     		cmp	r0, #0
 828 011a 83D1     		bne	.L22
 829              		.loc 1 179 0
 830 011c A168     		ldr	r1, [r4, #8]
 831 011e D1F10101 		rsbs	r1, r1, #1
 832 0122 4FF00900 		mov	r0, #9
 833 0126 38BF     		it	cc
 834 0128 0021     		movcc	r1, #0
 835 012a FFF7FEFF 		bl	_test_assert
 836              	.LVL74:
 837 012e 0135     		adds	r5, r5, #1
 838 0130 EDB2     		uxtb	r5, r5
 839 0132 0028     		cmp	r0, #0
 840 0134 7FF476AF 		bne	.L22
 841              		.loc 1 174 0
 842 0138 462D     		cmp	r5, #70
 843 013a CFD1     		bne	.L27
 844              		.loc 1 181 0
 845 013c 40F20001 		movw	r1, #:lower16:.LC5
 846 0140 C0F20001 		movt	r1, #:upper16:.LC5
ARM GAS  /tmp/ccaINj8N.s 			page 16


 847 0144 0A20     		movs	r0, #10
 848 0146 FFF7FEFF 		bl	_test_assert_sequence
 849              	.LVL75:
 850 014a 0028     		cmp	r0, #0
 851 014c 7FF46AAF 		bne	.L22
 852              		.loc 1 182 0
 853 0150 0B20     		movs	r0, #11
 854 0152 06F6C411 		addw	r1, r6, #2500
 855 0156 06F6C912 		addw	r2, r6, #2505
 856              	.LBE16:
 857              	.LBE15:
 858              		.loc 1 183 0
 859 015a 02B0     		add	sp, sp, #8
 860              		@ sp needed
 861 015c BDE87040 		pop	{r4, r5, r6, lr}
 862              	.LVL76:
 863              	.LBB18:
 864              	.LBB17:
 865              		.loc 1 182 0
 866 0160 FFF7FEBF 		b	_test_assert_time_window
 867              	.LVL77:
 868              	.LBE17:
 869              	.LBE18:
 870              		.cfi_endproc
 871              	.LFE12:
 872              		.size	sem2_execute, .-sem2_execute
 873 0164 AFF30080 		.section	.text.sem3_execute,"ax",%progbits
 873      AFF30080 
 873      AFF30080 
 874              		.align	2
 875              		.p2align 4,,15
 876              		.thumb
 877              		.thumb_func
 878              		.type	sem3_execute, %function
 879              	sem3_execute:
 880              	.LFB15:
 881              		.loc 1 218 0
 882              		.cfi_startproc
 883              		@ args = 0, pretend = 0, frame = 0
 884              		@ frame_needed = 0, uses_anonymous_args = 0
 885 0000 10B5     		push	{r4, lr}
 886              		.cfi_def_cfa_offset 8
 887              		.cfi_offset 4, -8
 888              		.cfi_offset 14, -4
 889              		.loc 1 220 0
 890 0002 40F20002 		movw	r2, #:lower16:rlist
 891 0006 C0F20002 		movt	r2, #:upper16:rlist
 892 000a 40F20003 		movw	r3, #:lower16:wa
 893 000e 9269     		ldr	r2, [r2, #24]
 894 0010 C0F20003 		movt	r3, #:upper16:wa
 895              		.loc 1 218 0
 896 0014 82B0     		sub	sp, sp, #8
 897              		.cfi_def_cfa_offset 16
 898              		.loc 1 220 0
 899 0016 9268     		ldr	r2, [r2, #8]
 900 0018 1868     		ldr	r0, [r3]
 901 001a 0021     		movs	r1, #0
ARM GAS  /tmp/ccaINj8N.s 			page 17


 902 001c 40F20003 		movw	r3, #:lower16:thread3
 903 0020 0132     		adds	r2, r2, #1
 904 0022 0091     		str	r1, [sp]
 905 0024 C0F20003 		movt	r3, #:upper16:thread3
 906 0028 4FF4A871 		mov	r1, #336
 907 002c FFF7FEFF 		bl	chThdCreateStatic
 908              	.LVL78:
 909 0030 40F20003 		movw	r3, #:lower16:threads
 910 0034 C0F20003 		movt	r3, #:upper16:threads
 911              		.loc 1 221 0
 912 0038 40F20004 		movw	r4, #:lower16:.LANCHOR0
 913 003c C0F20004 		movt	r4, #:upper16:.LANCHOR0
 914              		.loc 1 220 0
 915 0040 1860     		str	r0, [r3]
 916              		.loc 1 221 0
 917 0042 2146     		mov	r1, r4
 918 0044 2046     		mov	r0, r4
 919 0046 FFF7FEFF 		bl	chSemSignalWait
 920              	.LVL79:
 921              		.loc 1 222 0
 922 004a 2168     		ldr	r1, [r4]
 923 004c B1EB040C 		subs	ip, r1, r4
 924 0050 DCF10001 		rsbs	r1, ip, #0
 925 0054 51EB0C01 		adcs	r1, r1, ip
 926 0058 0120     		movs	r0, #1
 927 005a FFF7FEFF 		bl	_test_assert
 928              	.LVL80:
 929 005e 08B1     		cbz	r0, .L33
 930              	.L29:
 931              		.loc 1 228 0
 932 0060 02B0     		add	sp, sp, #8
 933              		@ sp needed
 934 0062 10BD     		pop	{r4, pc}
 935              	.L33:
 936              		.loc 1 223 0
 937 0064 A168     		ldr	r1, [r4, #8]
 938 0066 D1F10101 		rsbs	r1, r1, #1
 939 006a 38BF     		it	cc
 940 006c 0021     		movcc	r1, #0
 941 006e 0220     		movs	r0, #2
 942 0070 FFF7FEFF 		bl	_test_assert
 943              	.LVL81:
 944 0074 0028     		cmp	r0, #0
 945 0076 F3D1     		bne	.L29
 946              	.LBB21:
 947              	.LBB22:
 948              		.loc 1 225 0
 949 0078 2146     		mov	r1, r4
 950 007a 2046     		mov	r0, r4
 951 007c FFF7FEFF 		bl	chSemSignalWait
 952              	.LVL82:
 953              		.loc 1 226 0
 954 0080 2168     		ldr	r1, [r4]
 955 0082 B1EB040E 		subs	lr, r1, r4
 956 0086 DEF10001 		rsbs	r1, lr, #0
 957 008a 51EB0E01 		adcs	r1, r1, lr
 958 008e 0320     		movs	r0, #3
ARM GAS  /tmp/ccaINj8N.s 			page 18


 959 0090 FFF7FEFF 		bl	_test_assert
 960              	.LVL83:
 961 0094 0028     		cmp	r0, #0
 962 0096 E3D1     		bne	.L29
 963              		.loc 1 227 0
 964 0098 A168     		ldr	r1, [r4, #8]
 965 009a D1F10101 		rsbs	r1, r1, #1
 966 009e 4FF00400 		mov	r0, #4
 967 00a2 38BF     		it	cc
 968 00a4 0021     		movcc	r1, #0
 969              	.LBE22:
 970              	.LBE21:
 971              		.loc 1 228 0
 972 00a6 02B0     		add	sp, sp, #8
 973              		@ sp needed
 974 00a8 BDE81040 		pop	{r4, lr}
 975              	.LBB24:
 976              	.LBB23:
 977              		.loc 1 227 0
 978 00ac FFF7FEBF 		b	_test_assert
 979              	.LVL84:
 980              	.LBE23:
 981              	.LBE24:
 982              		.cfi_endproc
 983              	.LFE15:
 984              		.size	sem3_execute, .-sem3_execute
 985              		.global	patternsem
 986              		.global	testsem4
 987              		.global	testsem3
 988              		.global	testsem2
 989              		.global	testsem1
 990              		.section	.rodata.testsem1,"a",%progbits
 991              		.align	2
 992              		.type	testsem1, %object
 993              		.size	testsem1, 16
 994              	testsem1:
 995 0000 74000000 		.word	.LC9
 996 0004 00000000 		.word	sem1_setup
 997 0008 00000000 		.word	0
 998 000c 00000000 		.word	sem1_execute
 999              		.section	.rodata.testsem2,"a",%progbits
 1000              		.align	2
 1001              		.type	testsem2, %object
 1002              		.size	testsem2, 16
 1003              	testsem2:
 1004 0000 60000000 		.word	.LC8
 1005 0004 00000000 		.word	sem2_setup
 1006 0008 00000000 		.word	0
 1007 000c 00000000 		.word	sem2_execute
 1008              		.section	.rodata.testsem3,"a",%progbits
 1009              		.align	2
 1010              		.type	testsem3, %object
 1011              		.size	testsem3, 16
 1012              	testsem3:
 1013 0000 40000000 		.word	.LC7
 1014 0004 00000000 		.word	sem3_setup
 1015 0008 00000000 		.word	0
ARM GAS  /tmp/ccaINj8N.s 			page 19


 1016 000c 00000000 		.word	sem3_execute
 1017              		.section	.rodata.testsem4,"a",%progbits
 1018              		.align	2
 1019              		.type	testsem4, %object
 1020              		.size	testsem4, 16
 1021              	testsem4:
 1022 0000 1C000000 		.word	.LC6
 1023 0004 00000000 		.word	0
 1024 0008 00000000 		.word	0
 1025 000c 00000000 		.word	sem4_execute
 1026              		.section	.data.sem1,"aw",%progbits
 1027              		.align	2
 1028              		.set	.LANCHOR0,. + 0
 1029              		.type	sem1, %object
 1030              		.size	sem1, 12
 1031              	sem1:
 1032 0000 00000000 		.word	sem1
 1033 0004 00000000 		.word	sem1
 1034 0008 00000000 		.word	0
 1035              		.section	.rodata.patternsem,"a",%progbits
 1036              		.align	2
 1037              		.type	patternsem, %object
 1038              		.size	patternsem, 20
 1039              	patternsem:
 1040 0000 00000000 		.word	testsem1
 1041 0004 00000000 		.word	testsem2
 1042 0008 00000000 		.word	testsem3
 1043 000c 00000000 		.word	testsem4
 1044 0010 00000000 		.word	0
 1045              		.section	.rodata.str1.4,"aMS",%progbits,1
 1046              		.align	2
 1047              	.LC0:
 1048 0000 4100     		.ascii	"A\000"
 1049 0002 0000     		.space	2
 1050              	.LC1:
 1051 0004 4200     		.ascii	"B\000"
 1052 0006 0000     		.space	2
 1053              	.LC2:
 1054 0008 4300     		.ascii	"C\000"
 1055 000a 0000     		.space	2
 1056              	.LC3:
 1057 000c 4400     		.ascii	"D\000"
 1058 000e 0000     		.space	2
 1059              	.LC4:
 1060 0010 4500     		.ascii	"E\000"
 1061 0012 0000     		.space	2
 1062              	.LC5:
 1063 0014 41424344 		.ascii	"ABCDE\000"
 1063      4500
 1064 001a 0000     		.space	2
 1065              	.LC6:
 1066 001c 42696E61 		.ascii	"Binary Semaphores, functionality\000"
 1066      72792053 
 1066      656D6170 
 1066      686F7265 
 1066      732C2066 
 1067 003d 000000   		.space	3
ARM GAS  /tmp/ccaINj8N.s 			page 20


 1068              	.LC7:
 1069 0040 53656D61 		.ascii	"Semaphores, atomic signal-wait\000"
 1069      70686F72 
 1069      65732C20 
 1069      61746F6D 
 1069      69632073 
 1070 005f 00       		.space	1
 1071              	.LC8:
 1072 0060 53656D61 		.ascii	"Semaphores, timeout\000"
 1072      70686F72 
 1072      65732C20 
 1072      74696D65 
 1072      6F757400 
 1073              	.LC9:
 1074 0074 53656D61 		.ascii	"Semaphores, enqueuing\000"
 1074      70686F72 
 1074      65732C20 
 1074      656E7175 
 1074      6575696E 
 1075 008a 0000     		.text
 1076              	.Letext0:
 1077              		.file 2 "/usr/lib/gcc/arm-none-eabi/4.8.2/include/stddef.h"
 1078              		.file 3 "/usr/include/newlib/machine/_default_types.h"
 1079              		.file 4 "/usr/include/newlib/stdint.h"
 1080              		.file 5 "../../os/ports/GCC/ARMCMx/chtypes.h"
 1081              		.file 6 "../../os/kernel/include/chlists.h"
 1082              		.file 7 "../../os/kernel/include/chthreads.h"
 1083              		.file 8 "../../os/ports/GCC/ARMCMx/chcore_v7m.h"
 1084              		.file 9 "../../os/kernel/include/chvt.h"
 1085              		.file 10 "../../os/kernel/include/chschd.h"
 1086              		.file 11 "../../os/kernel/include/chsem.h"
 1087              		.file 12 "../../os/kernel/include/chbsem.h"
 1088              		.file 13 "../../os/kernel/include/chmtx.h"
 1089              		.file 14 "../../test/test.h"