ARM GAS  /tmp/ccaP86JW.s 			page 1


   1              		.syntax unified
   2              		.cpu cortex-m4
   3              		.fpu softvfp
   4              		.eabi_attribute 20, 1
   5              		.eabi_attribute 21, 1
   6              		.eabi_attribute 23, 3
   7              		.eabi_attribute 24, 1
   8              		.eabi_attribute 25, 1
   9              		.eabi_attribute 26, 1
  10              		.eabi_attribute 30, 2
  11              		.eabi_attribute 34, 1
  12              		.eabi_attribute 18, 4
  13              		.thumb
  14              		.file	"chqueues.c"
  15              		.text
  16              	.Ltext0:
  17              		.cfi_sections	.debug_frame
  18              		.section	.text.qwait,"ax",%progbits
  19              		.align	2
  20              		.p2align 4,,15
  21              		.thumb
  22              		.thumb_func
  23              		.type	qwait, %function
  24              	qwait:
  25              	.LFB7:
  26              		.file 1 "../include/ChibiOS_2.6.5/os/kernel/src/chqueues.c"
  27              		.loc 1 70 0
  28              		.cfi_startproc
  29              		@ args = 0, pretend = 0, frame = 0
  30              		@ frame_needed = 0, uses_anonymous_args = 0
  31              		@ link register save eliminated.
  32              	.LVL0:
  33 0000 10B4     		push	{r4}
  34              		.cfi_def_cfa_offset 4
  35              		.cfi_offset 4, -4
  36              		.loc 1 70 0
  37 0002 0246     		mov	r2, r0
  38              		.loc 1 72 0
  39 0004 79B1     		cbz	r1, .L2
  40              		.loc 1 74 0
  41 0006 40F20003 		movw	r3, #:lower16:rlist
  42 000a C0F20003 		movt	r3, #:upper16:rlist
  43              		.loc 1 76 0
  44 000e 0D20     		movs	r0, #13
  45              	.LVL1:
  46              		.loc 1 74 0
  47 0010 9B69     		ldr	r3, [r3, #24]
  48 0012 5A62     		str	r2, [r3, #36]
  49              	.LVL2:
  50              	.LBB12:
  51              	.LBB13:
  52              		.file 2 "../include/ChibiOS_2.6.5/os/kernel/include/chinline.h"
  53              		.loc 2 55 0
  54 0014 5468     		ldr	r4, [r2, #4]
  55 0016 83E81400 		stmia	r3, {r2, r4}
  56              		.loc 2 56 0
  57 001a 5360     		str	r3, [r2, #4]
ARM GAS  /tmp/ccaP86JW.s 			page 2


  58 001c 2360     		str	r3, [r4]
  59              	.LBE13:
  60              	.LBE12:
  61              		.loc 1 77 0
  62 001e 5DF8044B 		ldr	r4, [sp], #4
  63              		.loc 1 76 0
  64 0022 FFF7FEBF 		b	chSchGoSleepTimeoutS
  65              	.LVL3:
  66              	.L2:
  67              		.loc 1 77 0
  68 0026 4FF0FF30 		mov	r0, #-1
  69              	.LVL4:
  70 002a 5DF8044B 		ldr	r4, [sp], #4
  71 002e 7047     		bx	lr
  72              		.cfi_endproc
  73              	.LFE7:
  74              		.size	qwait, .-qwait
  75              		.section	.text.chIQInit,"ax",%progbits
  76              		.align	2
  77              		.p2align 4,,15
  78              		.global	chIQInit
  79              		.thumb
  80              		.thumb_func
  81              		.type	chIQInit, %function
  82              	chIQInit:
  83              	.LFB8:
  84              		.loc 1 96 0
  85              		.cfi_startproc
  86              		@ args = 4, pretend = 0, frame = 0
  87              		@ frame_needed = 0, uses_anonymous_args = 0
  88              		@ link register save eliminated.
  89              	.LVL5:
  90 0000 30B4     		push	{r4, r5}
  91              		.cfi_def_cfa_offset 8
  92              		.cfi_offset 4, -8
  93              		.cfi_offset 5, -4
  94              		.loc 1 96 0
  95 0002 029C     		ldr	r4, [sp, #8]
  96              		.loc 1 98 0
  97 0004 4060     		str	r0, [r0, #4]
  98              		.loc 1 99 0
  99 0006 0025     		movs	r5, #0
 100              		.loc 1 101 0
 101 0008 0A44     		add	r2, r2, r1
 102              	.LVL6:
 103              		.loc 1 99 0
 104 000a 8560     		str	r5, [r0, #8]
 105              		.loc 1 103 0
 106 000c 0462     		str	r4, [r0, #32]
 107              		.loc 1 101 0
 108 000e 0261     		str	r2, [r0, #16]
 109              		.loc 1 98 0
 110 0010 0060     		str	r0, [r0]
 111              		.loc 1 100 0
 112 0012 4161     		str	r1, [r0, #20]
 113 0014 8161     		str	r1, [r0, #24]
 114 0016 C160     		str	r1, [r0, #12]
ARM GAS  /tmp/ccaP86JW.s 			page 3


 115              		.loc 1 102 0
 116 0018 C361     		str	r3, [r0, #28]
 117              		.loc 1 104 0
 118 001a 30BC     		pop	{r4, r5}
 119              	.LVL7:
 120 001c 7047     		bx	lr
 121              		.cfi_endproc
 122              	.LFE8:
 123              		.size	chIQInit, .-chIQInit
 124 001e 00BF     		.section	.text.chIQResetI,"ax",%progbits
 125              		.align	2
 126              		.p2align 4,,15
 127              		.global	chIQResetI
 128              		.thumb
 129              		.thumb_func
 130              		.type	chIQResetI, %function
 131              	chIQResetI:
 132              	.LFB9:
 133              		.loc 1 117 0
 134              		.cfi_startproc
 135              		@ args = 0, pretend = 0, frame = 0
 136              		@ frame_needed = 0, uses_anonymous_args = 0
 137              	.LVL8:
 138 0000 38B5     		push	{r3, r4, r5, lr}
 139              		.cfi_def_cfa_offset 16
 140              		.cfi_offset 3, -16
 141              		.cfi_offset 4, -12
 142              		.cfi_offset 5, -8
 143              		.cfi_offset 14, -4
 144              		.loc 1 117 0
 145 0002 0446     		mov	r4, r0
 146              		.loc 1 121 0
 147 0004 C368     		ldr	r3, [r0, #12]
 148              		.loc 1 123 0
 149 0006 0068     		ldr	r0, [r0]
 150              	.LVL9:
 151              		.loc 1 121 0
 152 0008 6361     		str	r3, [r4, #20]
 153              		.loc 1 122 0
 154 000a 0022     		movs	r2, #0
 155              		.loc 1 123 0
 156 000c A042     		cmp	r0, r4
 157              		.loc 1 122 0
 158 000e A260     		str	r2, [r4, #8]
 159              		.loc 1 121 0
 160 0010 A361     		str	r3, [r4, #24]
 161              		.loc 1 123 0
 162 0012 0AD0     		beq	.L5
 163              		.loc 1 124 0
 164 0014 6FF00105 		mvn	r5, #1
 165              	.L8:
 166              	.LVL10:
 167              	.LBB14:
 168              	.LBB15:
 169              		.loc 2 62 0
 170 0018 0368     		ldr	r3, [r0]
 171 001a 2360     		str	r3, [r4]
ARM GAS  /tmp/ccaP86JW.s 			page 4


 172 001c 5C60     		str	r4, [r3, #4]
 173              	.LBE15:
 174              	.LBE14:
 175              		.loc 1 124 0
 176 001e FFF7FEFF 		bl	chSchReadyI
 177              	.LVL11:
 178 0022 4562     		str	r5, [r0, #36]
 179              		.loc 1 123 0
 180 0024 2068     		ldr	r0, [r4]
 181 0026 A042     		cmp	r0, r4
 182 0028 F6D1     		bne	.L8
 183              	.LVL12:
 184              	.L5:
 185 002a 38BD     		pop	{r3, r4, r5, pc}
 186              		.cfi_endproc
 187              	.LFE9:
 188              		.size	chIQResetI, .-chIQResetI
 189 002c AFF30080 		.section	.text.chIQPutI,"ax",%progbits
 190              		.align	2
 191              		.p2align 4,,15
 192              		.global	chIQPutI
 193              		.thumb
 194              		.thumb_func
 195              		.type	chIQPutI, %function
 196              	chIQPutI:
 197              	.LFB10:
 198              		.loc 1 140 0
 199              		.cfi_startproc
 200              		@ args = 0, pretend = 0, frame = 0
 201              		@ frame_needed = 0, uses_anonymous_args = 0
 202              	.LVL13:
 203 0000 0346     		mov	r3, r0
 204              		.loc 1 144 0
 205 0002 4269     		ldr	r2, [r0, #20]
 206 0004 8069     		ldr	r0, [r0, #24]
 207              	.LVL14:
 208 0006 8242     		cmp	r2, r0
 209              		.loc 1 140 0
 210 0008 10B5     		push	{r4, lr}
 211              		.cfi_def_cfa_offset 8
 212              		.cfi_offset 4, -8
 213              		.cfi_offset 14, -4
 214              		.loc 1 144 0
 215 000a 9C68     		ldr	r4, [r3, #8]
 216 000c 1BD0     		beq	.L18
 217              	.L12:
 218              		.loc 1 148 0
 219 000e 501C     		adds	r0, r2, #1
 220              		.loc 1 147 0
 221 0010 0134     		adds	r4, r4, #1
 222              		.loc 1 148 0
 223 0012 5861     		str	r0, [r3, #20]
 224              		.loc 1 147 0
 225 0014 9C60     		str	r4, [r3, #8]
 226              		.loc 1 148 0
 227 0016 1170     		strb	r1, [r2]
 228              		.loc 1 149 0
ARM GAS  /tmp/ccaP86JW.s 			page 5


 229 0018 5969     		ldr	r1, [r3, #20]
 230              	.LVL15:
 231 001a 1A69     		ldr	r2, [r3, #16]
 232              	.LVL16:
 233 001c 9142     		cmp	r1, r2
 234 001e 0BD2     		bcs	.L13
 235              		.loc 1 152 0
 236 0020 1868     		ldr	r0, [r3]
 237              	.LVL17:
 238 0022 9842     		cmp	r0, r3
 239 0024 0DD0     		beq	.L16
 240              	.L19:
 241              	.LVL18:
 242              	.LBB16:
 243              	.LBB17:
 244              		.loc 2 62 0
 245 0026 0268     		ldr	r2, [r0]
 246 0028 1A60     		str	r2, [r3]
 247 002a 5360     		str	r3, [r2, #4]
 248              	.LBE17:
 249              	.LBE16:
 250              		.loc 1 153 0
 251 002c FFF7FEFF 		bl	chSchReadyI
 252              	.LVL19:
 253 0030 0023     		movs	r3, #0
 254 0032 4362     		str	r3, [r0, #36]
 255              		.loc 1 155 0
 256 0034 1846     		mov	r0, r3
 257 0036 10BD     		pop	{r4, pc}
 258              	.LVL20:
 259              	.L13:
 260              		.loc 1 152 0
 261 0038 1868     		ldr	r0, [r3]
 262              	.LVL21:
 263              		.loc 1 150 0
 264 003a DA68     		ldr	r2, [r3, #12]
 265              		.loc 1 152 0
 266 003c 9842     		cmp	r0, r3
 267              		.loc 1 150 0
 268 003e 5A61     		str	r2, [r3, #20]
 269              		.loc 1 152 0
 270 0040 F1D1     		bne	.L19
 271              	.L16:
 272              		.loc 1 155 0
 273 0042 0020     		movs	r0, #0
 274 0044 10BD     		pop	{r4, pc}
 275              	.LVL22:
 276              	.L18:
 277              		.loc 1 144 0 discriminator 1
 278 0046 002C     		cmp	r4, #0
 279 0048 E1D0     		beq	.L12
 280              		.loc 1 145 0
 281 004a 6FF00300 		mvn	r0, #3
 282 004e 10BD     		pop	{r4, pc}
 283              		.cfi_endproc
 284              	.LFE10:
 285              		.size	chIQPutI, .-chIQPutI
ARM GAS  /tmp/ccaP86JW.s 			page 6


 286              		.section	.text.chIQGetTimeout,"ax",%progbits
 287              		.align	2
 288              		.p2align 4,,15
 289              		.global	chIQGetTimeout
 290              		.thumb
 291              		.thumb_func
 292              		.type	chIQGetTimeout, %function
 293              	chIQGetTimeout:
 294              	.LFB11:
 295              		.loc 1 178 0
 296              		.cfi_startproc
 297              		@ args = 0, pretend = 0, frame = 0
 298              		@ frame_needed = 0, uses_anonymous_args = 0
 299              	.LVL23:
 300 0000 70B5     		push	{r4, r5, r6, lr}
 301              		.cfi_def_cfa_offset 16
 302              		.cfi_offset 4, -16
 303              		.cfi_offset 5, -12
 304              		.cfi_offset 6, -8
 305              		.cfi_offset 14, -4
 306              	.LBB18:
 307              		.loc 1 181 0
 308 0002 2023     		movs	r3, #32
 309              	.LBE18:
 310              		.loc 1 178 0
 311 0004 0446     		mov	r4, r0
 312 0006 0E46     		mov	r6, r1
 313              	.LBB19:
 314              		.loc 1 181 0
 315              	@ 181 "../include/ChibiOS_2.6.5/os/kernel/src/chqueues.c" 1
 316 0008 83F31188 		msr     BASEPRI, r3
 317              	@ 0 "" 2
 318              		.thumb
 319              	.LBE19:
 320              		.loc 1 182 0
 321 000c C369     		ldr	r3, [r0, #28]
 322 000e 2BB1     		cbz	r3, .L23
 323              		.loc 1 183 0
 324 0010 9847     		blx	r3
 325              	.LVL24:
 326 0012 03E0     		b	.L23
 327              	.LVL25:
 328              	.L25:
 329              	.LBB20:
 330              		.loc 1 187 0
 331 0014 FFF7FEFF 		bl	qwait
 332              	.LVL26:
 333 0018 0028     		cmp	r0, #0
 334 001a 15DB     		blt	.L30
 335              	.LVL27:
 336              	.L23:
 337              	.LBE20:
 338              		.loc 1 185 0 discriminator 1
 339 001c A568     		ldr	r5, [r4, #8]
 340              	.LBB22:
 341              		.loc 1 187 0 discriminator 1
 342 001e 2046     		mov	r0, r4
ARM GAS  /tmp/ccaP86JW.s 			page 7


 343 0020 3146     		mov	r1, r6
 344              	.LBE22:
 345              		.loc 1 185 0 discriminator 1
 346 0022 002D     		cmp	r5, #0
 347 0024 F6D0     		beq	.L25
 348              	.LVL28:
 349              		.loc 1 194 0
 350 0026 A269     		ldr	r2, [r4, #24]
 351              		.loc 1 195 0
 352 0028 2169     		ldr	r1, [r4, #16]
 353              	.LVL29:
 354              		.loc 1 194 0
 355 002a 531C     		adds	r3, r2, #1
 356              		.loc 1 195 0
 357 002c 8B42     		cmp	r3, r1
 358              		.loc 1 194 0
 359 002e A361     		str	r3, [r4, #24]
 360              		.loc 1 193 0
 361 0030 05F1FF35 		add	r5, r5, #-1
 362              		.loc 1 196 0
 363 0034 28BF     		it	cs
 364 0036 E368     		ldrcs	r3, [r4, #12]
 365              		.loc 1 193 0
 366 0038 A560     		str	r5, [r4, #8]
 367              		.loc 1 194 0
 368 003a 1078     		ldrb	r0, [r2]	@ zero_extendqisi2
 369              	.LVL30:
 370              		.loc 1 196 0
 371 003c 28BF     		it	cs
 372 003e A361     		strcs	r3, [r4, #24]
 373              	.LVL31:
 374              	.LBB23:
 375              		.loc 1 198 0
 376 0040 0023     		movs	r3, #0
 377              	@ 198 "../include/ChibiOS_2.6.5/os/kernel/src/chqueues.c" 1
 378 0042 83F31188 		msr     BASEPRI, r3
 379              	@ 0 "" 2
 380              		.thumb
 381              	.LBE23:
 382              		.loc 1 200 0
 383 0046 70BD     		pop	{r4, r5, r6, pc}
 384              	.LVL32:
 385              	.L30:
 386              	.LBB24:
 387              	.LBB21:
 388              		.loc 1 188 0
 389 0048 2B46     		mov	r3, r5
 390              	@ 188 "../include/ChibiOS_2.6.5/os/kernel/src/chqueues.c" 1
 391 004a 83F31188 		msr     BASEPRI, r3
 392              	@ 0 "" 2
 393              		.thumb
 394              	.LBE21:
 395              		.loc 1 189 0
 396 004e 70BD     		pop	{r4, r5, r6, pc}
 397              	.LBE24:
 398              		.cfi_endproc
 399              	.LFE11:
ARM GAS  /tmp/ccaP86JW.s 			page 8


 400              		.size	chIQGetTimeout, .-chIQGetTimeout
 401              		.section	.text.chIQReadTimeout,"ax",%progbits
 402              		.align	2
 403              		.p2align 4,,15
 404              		.global	chIQReadTimeout
 405              		.thumb
 406              		.thumb_func
 407              		.type	chIQReadTimeout, %function
 408              	chIQReadTimeout:
 409              	.LFB12:
 410              		.loc 1 227 0
 411              		.cfi_startproc
 412              		@ args = 0, pretend = 0, frame = 0
 413              		@ frame_needed = 0, uses_anonymous_args = 0
 414              	.LVL33:
 415 0000 2DE9F047 		push	{r4, r5, r6, r7, r8, r9, r10, lr}
 416              		.cfi_def_cfa_offset 32
 417              		.cfi_offset 4, -32
 418              		.cfi_offset 5, -28
 419              		.cfi_offset 6, -24
 420              		.cfi_offset 7, -20
 421              		.cfi_offset 8, -16
 422              		.cfi_offset 9, -12
 423              		.cfi_offset 10, -8
 424              		.cfi_offset 14, -4
 425              		.loc 1 227 0
 426 0004 1E46     		mov	r6, r3
 427 0006 0446     		mov	r4, r0
 428              		.loc 1 228 0
 429 0008 D0F81C80 		ldr	r8, [r0, #28]
 430              	.LVL34:
 431              	.LBB25:
 432              		.loc 1 233 0
 433 000c 2023     		movs	r3, #32
 434              	.LVL35:
 435              	@ 233 "../include/ChibiOS_2.6.5/os/kernel/src/chqueues.c" 1
 436 000e 83F31188 		msr     BASEPRI, r3
 437              	@ 0 "" 2
 438              		.thumb
 439              	.LBE25:
 440              		.loc 1 229 0
 441 0012 4FF00009 		mov	r9, #0
 442 0016 01EB020A 		add	r10, r1, r2
 443 001a 4F1C     		adds	r7, r1, #1
 444              	.LVL36:
 445              	.L38:
 446              		.loc 1 235 0
 447 001c B8F1000F 		cmp	r8, #0
 448 0020 05D0     		beq	.L34
 449              		.loc 1 236 0
 450 0022 2046     		mov	r0, r4
 451              	.LVL37:
 452 0024 C047     		blx	r8
 453              	.LVL38:
 454 0026 02E0     		b	.L34
 455              	.LVL39:
 456              	.L36:
ARM GAS  /tmp/ccaP86JW.s 			page 9


 457              		.loc 1 239 0
 458 0028 FFF7FEFF 		bl	qwait
 459              	.LVL40:
 460 002c F0B9     		cbnz	r0, .L42
 461              	.L34:
 462              		.loc 1 238 0 discriminator 1
 463 002e A568     		ldr	r5, [r4, #8]
 464              		.loc 1 239 0 discriminator 1
 465 0030 2046     		mov	r0, r4
 466 0032 3146     		mov	r1, r6
 467              		.loc 1 238 0 discriminator 1
 468 0034 002D     		cmp	r5, #0
 469 0036 F7D0     		beq	.L36
 470              	.LVL41:
 471              		.loc 1 246 0
 472 0038 A369     		ldr	r3, [r4, #24]
 473              		.loc 1 245 0
 474 003a 013D     		subs	r5, r5, #1
 475              		.loc 1 246 0
 476 003c 5A1C     		adds	r2, r3, #1
 477 003e A261     		str	r2, [r4, #24]
 478              		.loc 1 245 0
 479 0040 A560     		str	r5, [r4, #8]
 480              	.LVL42:
 481              		.loc 1 246 0
 482 0042 1B78     		ldrb	r3, [r3]	@ zero_extendqisi2
 483 0044 07F8013C 		strb	r3, [r7, #-1]
 484              		.loc 1 247 0
 485 0048 2369     		ldr	r3, [r4, #16]
 486 004a A269     		ldr	r2, [r4, #24]
 487 004c 9A42     		cmp	r2, r3
 488              		.loc 1 248 0
 489 004e 24BF     		itt	cs
 490 0050 E368     		ldrcs	r3, [r4, #12]
 491 0052 A361     		strcs	r3, [r4, #24]
 492              	.LBB26:
 493              		.loc 1 250 0
 494 0054 0023     		movs	r3, #0
 495              	@ 250 "../include/ChibiOS_2.6.5/os/kernel/src/chqueues.c" 1
 496 0056 83F31188 		msr     BASEPRI, r3
 497              	@ 0 "" 2
 498              		.thumb
 499              	.LBE26:
 500              		.loc 1 252 0
 501 005a 5745     		cmp	r7, r10
 502              		.loc 1 251 0
 503 005c 09F10109 		add	r9, r9, #1
 504              	.LVL43:
 505              		.loc 1 252 0
 506 0060 07D0     		beq	.L35
 507              	.LBB27:
 508              		.loc 1 255 0
 509 0062 2023     		movs	r3, #32
 510              	@ 255 "../include/ChibiOS_2.6.5/os/kernel/src/chqueues.c" 1
 511 0064 83F31188 		msr     BASEPRI, r3
 512              	@ 0 "" 2
 513              		.thumb
ARM GAS  /tmp/ccaP86JW.s 			page 10


 514 0068 0137     		adds	r7, r7, #1
 515              	.LBE27:
 516              		.loc 1 256 0
 517 006a D7E7     		b	.L38
 518              	.LVL44:
 519              	.L42:
 520              	.LBB28:
 521              		.loc 1 240 0
 522 006c 2B46     		mov	r3, r5
 523              	@ 240 "../include/ChibiOS_2.6.5/os/kernel/src/chqueues.c" 1
 524 006e 83F31188 		msr     BASEPRI, r3
 525              	@ 0 "" 2
 526              	.LVL45:
 527              		.thumb
 528              	.L35:
 529              	.LBE28:
 530              		.loc 1 257 0
 531 0072 4846     		mov	r0, r9
 532 0074 BDE8F087 		pop	{r4, r5, r6, r7, r8, r9, r10, pc}
 533              		.cfi_endproc
 534              	.LFE12:
 535              		.size	chIQReadTimeout, .-chIQReadTimeout
 536 0078 AFF30080 		.section	.text.chOQInit,"ax",%progbits
 536      AFF30080 
 537              		.align	2
 538              		.p2align 4,,15
 539              		.global	chOQInit
 540              		.thumb
 541              		.thumb_func
 542              		.type	chOQInit, %function
 543              	chOQInit:
 544              	.LFB13:
 545              		.loc 1 276 0
 546              		.cfi_startproc
 547              		@ args = 4, pretend = 0, frame = 0
 548              		@ frame_needed = 0, uses_anonymous_args = 0
 549              		@ link register save eliminated.
 550              	.LVL46:
 551 0000 30B4     		push	{r4, r5}
 552              		.cfi_def_cfa_offset 8
 553              		.cfi_offset 4, -8
 554              		.cfi_offset 5, -4
 555              		.loc 1 276 0
 556 0002 029C     		ldr	r4, [sp, #8]
 557              		.loc 1 278 0
 558 0004 4060     		str	r0, [r0, #4]
 559              		.loc 1 281 0
 560 0006 8D18     		adds	r5, r1, r2
 561 0008 0561     		str	r5, [r0, #16]
 562              		.loc 1 283 0
 563 000a 0462     		str	r4, [r0, #32]
 564              		.loc 1 278 0
 565 000c 0060     		str	r0, [r0]
 566              		.loc 1 279 0
 567 000e 8260     		str	r2, [r0, #8]
 568              		.loc 1 280 0
 569 0010 4161     		str	r1, [r0, #20]
ARM GAS  /tmp/ccaP86JW.s 			page 11


 570 0012 8161     		str	r1, [r0, #24]
 571 0014 C160     		str	r1, [r0, #12]
 572              		.loc 1 282 0
 573 0016 C361     		str	r3, [r0, #28]
 574              		.loc 1 284 0
 575 0018 30BC     		pop	{r4, r5}
 576              	.LVL47:
 577 001a 7047     		bx	lr
 578              		.cfi_endproc
 579              	.LFE13:
 580              		.size	chOQInit, .-chOQInit
 581              		.section	.text.chOQResetI,"ax",%progbits
 582              		.align	2
 583              		.p2align 4,,15
 584              		.global	chOQResetI
 585              		.thumb
 586              		.thumb_func
 587              		.type	chOQResetI, %function
 588              	chOQResetI:
 589              	.LFB14:
 590              		.loc 1 297 0
 591              		.cfi_startproc
 592              		@ args = 0, pretend = 0, frame = 0
 593              		@ frame_needed = 0, uses_anonymous_args = 0
 594              	.LVL48:
 595 0000 38B5     		push	{r3, r4, r5, lr}
 596              		.cfi_def_cfa_offset 16
 597              		.cfi_offset 3, -16
 598              		.cfi_offset 4, -12
 599              		.cfi_offset 5, -8
 600              		.cfi_offset 14, -4
 601              		.loc 1 302 0
 602 0002 0269     		ldr	r2, [r0, #16]
 603              		.loc 1 301 0
 604 0004 C368     		ldr	r3, [r0, #12]
 605              		.loc 1 297 0
 606 0006 0446     		mov	r4, r0
 607              		.loc 1 303 0
 608 0008 0068     		ldr	r0, [r0]
 609              	.LVL49:
 610              		.loc 1 301 0
 611 000a 6361     		str	r3, [r4, #20]
 612              		.loc 1 302 0
 613 000c D21A     		subs	r2, r2, r3
 614              		.loc 1 303 0
 615 000e A042     		cmp	r0, r4
 616              		.loc 1 301 0
 617 0010 A361     		str	r3, [r4, #24]
 618              		.loc 1 302 0
 619 0012 A260     		str	r2, [r4, #8]
 620              		.loc 1 303 0
 621 0014 0AD0     		beq	.L44
 622              		.loc 1 304 0
 623 0016 6FF00105 		mvn	r5, #1
 624              	.L47:
 625              	.LVL50:
 626              	.LBB29:
ARM GAS  /tmp/ccaP86JW.s 			page 12


 627              	.LBB30:
 628              		.loc 2 62 0
 629 001a 0368     		ldr	r3, [r0]
 630 001c 2360     		str	r3, [r4]
 631 001e 5C60     		str	r4, [r3, #4]
 632              	.LBE30:
 633              	.LBE29:
 634              		.loc 1 304 0
 635 0020 FFF7FEFF 		bl	chSchReadyI
 636              	.LVL51:
 637 0024 4562     		str	r5, [r0, #36]
 638              		.loc 1 303 0
 639 0026 2068     		ldr	r0, [r4]
 640 0028 A042     		cmp	r0, r4
 641 002a F6D1     		bne	.L47
 642              	.LVL52:
 643              	.L44:
 644 002c 38BD     		pop	{r3, r4, r5, pc}
 645              		.cfi_endproc
 646              	.LFE14:
 647              		.size	chOQResetI, .-chOQResetI
 648 002e 00BF     		.section	.text.chOQPutTimeout,"ax",%progbits
 649              		.align	2
 650              		.p2align 4,,15
 651              		.global	chOQPutTimeout
 652              		.thumb
 653              		.thumb_func
 654              		.type	chOQPutTimeout, %function
 655              	chOQPutTimeout:
 656              	.LFB15:
 657              		.loc 1 329 0
 658              		.cfi_startproc
 659              		@ args = 0, pretend = 0, frame = 0
 660              		@ frame_needed = 0, uses_anonymous_args = 0
 661              	.LVL53:
 662 0000 F8B5     		push	{r3, r4, r5, r6, r7, lr}
 663              		.cfi_def_cfa_offset 24
 664              		.cfi_offset 3, -24
 665              		.cfi_offset 4, -20
 666              		.cfi_offset 5, -16
 667              		.cfi_offset 6, -12
 668              		.cfi_offset 7, -8
 669              		.cfi_offset 14, -4
 670              		.loc 1 329 0
 671 0002 0446     		mov	r4, r0
 672 0004 0F46     		mov	r7, r1
 673 0006 1646     		mov	r6, r2
 674              	.LBB31:
 675              		.loc 1 331 0
 676 0008 2023     		movs	r3, #32
 677              	@ 331 "../include/ChibiOS_2.6.5/os/kernel/src/chqueues.c" 1
 678 000a 83F31188 		msr     BASEPRI, r3
 679              	@ 0 "" 2
 680              		.thumb
 681              	.LBE31:
 682              		.loc 1 332 0
 683 000e 03E0     		b	.L49
ARM GAS  /tmp/ccaP86JW.s 			page 13


 684              	.LVL54:
 685              	.L52:
 686              	.LBB32:
 687              		.loc 1 335 0
 688 0010 FFF7FEFF 		bl	qwait
 689              	.LVL55:
 690 0014 0028     		cmp	r0, #0
 691 0016 19DB     		blt	.L58
 692              	.LVL56:
 693              	.L49:
 694              	.LBE32:
 695              		.loc 1 332 0 discriminator 1
 696 0018 A568     		ldr	r5, [r4, #8]
 697              	.LBB34:
 698              		.loc 1 335 0 discriminator 1
 699 001a 2046     		mov	r0, r4
 700 001c 3146     		mov	r1, r6
 701              	.LBE34:
 702              		.loc 1 332 0 discriminator 1
 703 001e 002D     		cmp	r5, #0
 704 0020 F6D0     		beq	.L52
 705              	.LVL57:
 706              		.loc 1 342 0
 707 0022 6369     		ldr	r3, [r4, #20]
 708              		.loc 1 341 0
 709 0024 013D     		subs	r5, r5, #1
 710              		.loc 1 342 0
 711 0026 5A1C     		adds	r2, r3, #1
 712 0028 6261     		str	r2, [r4, #20]
 713              		.loc 1 341 0
 714 002a A560     		str	r5, [r4, #8]
 715              		.loc 1 342 0
 716 002c 1F70     		strb	r7, [r3]
 717              		.loc 1 343 0
 718 002e 2369     		ldr	r3, [r4, #16]
 719 0030 6269     		ldr	r2, [r4, #20]
 720 0032 9A42     		cmp	r2, r3
 721              		.loc 1 344 0
 722 0034 24BF     		itt	cs
 723 0036 E368     		ldrcs	r3, [r4, #12]
 724 0038 6361     		strcs	r3, [r4, #20]
 725              		.loc 1 346 0
 726 003a E369     		ldr	r3, [r4, #28]
 727 003c 0BB1     		cbz	r3, .L54
 728              		.loc 1 347 0
 729 003e 2046     		mov	r0, r4
 730              	.LVL58:
 731 0040 9847     		blx	r3
 732              	.LVL59:
 733              	.L54:
 734              	.LBB35:
 735              		.loc 1 349 0
 736 0042 0023     		movs	r3, #0
 737              	@ 349 "../include/ChibiOS_2.6.5/os/kernel/src/chqueues.c" 1
 738 0044 83F31188 		msr     BASEPRI, r3
 739              	@ 0 "" 2
 740              		.thumb
ARM GAS  /tmp/ccaP86JW.s 			page 14


 741              	.LBE35:
 742              		.loc 1 350 0
 743 0048 0020     		movs	r0, #0
 744              		.loc 1 351 0
 745 004a F8BD     		pop	{r3, r4, r5, r6, r7, pc}
 746              	.LVL60:
 747              	.L58:
 748              	.LBB36:
 749              	.LBB33:
 750              		.loc 1 336 0
 751 004c 2B46     		mov	r3, r5
 752              	@ 336 "../include/ChibiOS_2.6.5/os/kernel/src/chqueues.c" 1
 753 004e 83F31188 		msr     BASEPRI, r3
 754              	@ 0 "" 2
 755              		.thumb
 756              	.LBE33:
 757              		.loc 1 337 0
 758 0052 F8BD     		pop	{r3, r4, r5, r6, r7, pc}
 759              	.LBE36:
 760              		.cfi_endproc
 761              	.LFE15:
 762              		.size	chOQPutTimeout, .-chOQPutTimeout
 763 0054 AFF30080 		.section	.text.chOQGetI,"ax",%progbits
 763      AFF30080 
 763      AFF30080 
 764              		.align	2
 765              		.p2align 4,,15
 766              		.global	chOQGetI
 767              		.thumb
 768              		.thumb_func
 769              		.type	chOQGetI, %function
 770              	chOQGetI:
 771              	.LFB16:
 772              		.loc 1 363 0
 773              		.cfi_startproc
 774              		@ args = 0, pretend = 0, frame = 0
 775              		@ frame_needed = 0, uses_anonymous_args = 0
 776              	.LVL61:
 777              		.loc 1 368 0
 778 0000 8269     		ldr	r2, [r0, #24]
 779 0002 4169     		ldr	r1, [r0, #20]
 780 0004 9142     		cmp	r1, r2
 781              		.loc 1 363 0
 782 0006 10B5     		push	{r4, lr}
 783              		.cfi_def_cfa_offset 8
 784              		.cfi_offset 4, -8
 785              		.cfi_offset 14, -4
 786              		.loc 1 363 0
 787 0008 0346     		mov	r3, r0
 788              		.loc 1 368 0
 789 000a 8468     		ldr	r4, [r0, #8]
 790 000c 16D0     		beq	.L68
 791              	.L62:
 792              		.loc 1 373 0
 793 000e 1869     		ldr	r0, [r3, #16]
 794              	.LVL62:
 795              		.loc 1 371 0
ARM GAS  /tmp/ccaP86JW.s 			page 15


 796 0010 0134     		adds	r4, r4, #1
 797              		.loc 1 372 0
 798 0012 511C     		adds	r1, r2, #1
 799              		.loc 1 371 0
 800 0014 9C60     		str	r4, [r3, #8]
 801              		.loc 1 372 0
 802 0016 9961     		str	r1, [r3, #24]
 803              		.loc 1 373 0
 804 0018 8142     		cmp	r1, r0
 805              		.loc 1 372 0
 806 001a 1478     		ldrb	r4, [r2]	@ zero_extendqisi2
 807              	.LVL63:
 808              		.loc 1 373 0
 809 001c 0BD2     		bcs	.L64
 810              	.LVL64:
 811              	.L65:
 812              		.loc 1 376 0
 813 001e 1868     		ldr	r0, [r3]
 814 0020 9842     		cmp	r0, r3
 815 0022 06D0     		beq	.L63
 816              	.LVL65:
 817              	.LBB37:
 818              	.LBB38:
 819              		.loc 2 62 0
 820 0024 0268     		ldr	r2, [r0]
 821 0026 1A60     		str	r2, [r3]
 822 0028 5360     		str	r3, [r2, #4]
 823              	.LBE38:
 824              	.LBE37:
 825              		.loc 1 377 0
 826 002a FFF7FEFF 		bl	chSchReadyI
 827              	.LVL66:
 828 002e 0023     		movs	r3, #0
 829 0030 4362     		str	r3, [r0, #36]
 830              	.LVL67:
 831              	.L63:
 832              		.loc 1 379 0
 833 0032 2046     		mov	r0, r4
 834 0034 10BD     		pop	{r4, pc}
 835              	.LVL68:
 836              	.L64:
 837              		.loc 1 374 0
 838 0036 DA68     		ldr	r2, [r3, #12]
 839              	.LVL69:
 840 0038 9A61     		str	r2, [r3, #24]
 841              	.LVL70:
 842 003a F0E7     		b	.L65
 843              	.LVL71:
 844              	.L68:
 845              		.loc 1 368 0 discriminator 1
 846 003c 002C     		cmp	r4, #0
 847 003e E6D0     		beq	.L62
 848              		.loc 1 369 0
 849 0040 6FF00200 		mvn	r0, #2
 850              	.LVL72:
 851 0044 10BD     		pop	{r4, pc}
 852              		.cfi_endproc
ARM GAS  /tmp/ccaP86JW.s 			page 16


 853              	.LFE16:
 854              		.size	chOQGetI, .-chOQGetI
 855 0046 00BFAFF3 		.section	.text.chOQWriteTimeout,"ax",%progbits
 855      0080AFF3 
 855      0080
 856              		.align	2
 857              		.p2align 4,,15
 858              		.global	chOQWriteTimeout
 859              		.thumb
 860              		.thumb_func
 861              		.type	chOQWriteTimeout, %function
 862              	chOQWriteTimeout:
 863              	.LFB17:
 864              		.loc 1 407 0
 865              		.cfi_startproc
 866              		@ args = 0, pretend = 0, frame = 0
 867              		@ frame_needed = 0, uses_anonymous_args = 0
 868              	.LVL73:
 869 0000 2DE9F84F 		push	{r3, r4, r5, r6, r7, r8, r9, r10, fp, lr}
 870              		.cfi_def_cfa_offset 40
 871              		.cfi_offset 3, -40
 872              		.cfi_offset 4, -36
 873              		.cfi_offset 5, -32
 874              		.cfi_offset 6, -28
 875              		.cfi_offset 7, -24
 876              		.cfi_offset 8, -20
 877              		.cfi_offset 9, -16
 878              		.cfi_offset 10, -12
 879              		.cfi_offset 11, -8
 880              		.cfi_offset 14, -4
 881              		.loc 1 407 0
 882 0004 9A46     		mov	r10, r3
 883 0006 0446     		mov	r4, r0
 884 0008 0E46     		mov	r6, r1
 885 000a 1746     		mov	r7, r2
 886              		.loc 1 408 0
 887 000c D0F81C90 		ldr	r9, [r0, #28]
 888              	.LVL74:
 889              	.LBB39:
 890              		.loc 1 413 0
 891 0010 2023     		movs	r3, #32
 892              	.LVL75:
 893              	@ 413 "../include/ChibiOS_2.6.5/os/kernel/src/chqueues.c" 1
 894 0012 83F31188 		msr     BASEPRI, r3
 895              	@ 0 "" 2
 896              		.thumb
 897              	.LBE39:
 898              		.loc 1 409 0
 899 0016 4FF00008 		mov	r8, #0
 900              	.LVL76:
 901              	.L70:
 902              		.loc 1 415 0 discriminator 1
 903 001a A568     		ldr	r5, [r4, #8]
 904              		.loc 1 422 0 discriminator 1
 905 001c 06F1010B 		add	fp, r6, #1
 906              	.LVL77:
 907              		.loc 1 427 0 discriminator 1
ARM GAS  /tmp/ccaP86JW.s 			page 17


 908 0020 2046     		mov	r0, r4
 909              		.loc 1 421 0 discriminator 1
 910 0022 6B1E     		subs	r3, r5, #1
 911              		.loc 1 415 0 discriminator 1
 912 0024 DDB1     		cbz	r5, .L73
 913              	.LVL78:
 914              		.loc 1 422 0
 915 0026 6269     		ldr	r2, [r4, #20]
 916              		.loc 1 421 0
 917 0028 A360     		str	r3, [r4, #8]
 918              		.loc 1 422 0
 919 002a 531C     		adds	r3, r2, #1
 920 002c 6361     		str	r3, [r4, #20]
 921 002e 3378     		ldrb	r3, [r6]	@ zero_extendqisi2
 922 0030 1370     		strb	r3, [r2]
 923              		.loc 1 423 0
 924 0032 2369     		ldr	r3, [r4, #16]
 925 0034 6269     		ldr	r2, [r4, #20]
 926 0036 9A42     		cmp	r2, r3
 927              		.loc 1 424 0
 928 0038 24BF     		itt	cs
 929 003a E368     		ldrcs	r3, [r4, #12]
 930 003c 6361     		strcs	r3, [r4, #20]
 931              		.loc 1 426 0
 932 003e B9F1000F 		cmp	r9, #0
 933 0042 00D0     		beq	.L75
 934              		.loc 1 427 0
 935 0044 C847     		blx	r9
 936              	.LVL79:
 937              	.L75:
 938              	.LBB40:
 939              		.loc 1 429 0
 940 0046 0023     		movs	r3, #0
 941              	@ 429 "../include/ChibiOS_2.6.5/os/kernel/src/chqueues.c" 1
 942 0048 83F31188 		msr     BASEPRI, r3
 943              	@ 0 "" 2
 944              		.thumb
 945              	.LBE40:
 946              		.loc 1 431 0
 947 004c 013F     		subs	r7, r7, #1
 948              	.LVL80:
 949              		.loc 1 430 0
 950 004e 08F10108 		add	r8, r8, #1
 951              	.LVL81:
 952              		.loc 1 431 0
 953 0052 0DD0     		beq	.L72
 954              	.LBB41:
 955              		.loc 1 433 0
 956 0054 2023     		movs	r3, #32
 957              	@ 433 "../include/ChibiOS_2.6.5/os/kernel/src/chqueues.c" 1
 958 0056 83F31188 		msr     BASEPRI, r3
 959              	@ 0 "" 2
 960              		.thumb
 961              	.LBE41:
 962              		.loc 1 422 0
 963 005a 5E46     		mov	r6, fp
 964              		.loc 1 434 0
ARM GAS  /tmp/ccaP86JW.s 			page 18


 965 005c DDE7     		b	.L70
 966              	.LVL82:
 967              	.L73:
 968              		.loc 1 416 0
 969 005e 2046     		mov	r0, r4
 970              	.LVL83:
 971 0060 5146     		mov	r1, r10
 972 0062 FFF7FEFF 		bl	qwait
 973              	.LVL84:
 974 0066 0028     		cmp	r0, #0
 975 0068 D7D0     		beq	.L70
 976              	.LBB42:
 977              		.loc 1 417 0
 978 006a 2B46     		mov	r3, r5
 979              	@ 417 "../include/ChibiOS_2.6.5/os/kernel/src/chqueues.c" 1
 980 006c 83F31188 		msr     BASEPRI, r3
 981              	@ 0 "" 2
 982              	.LVL85:
 983              		.thumb
 984              	.L72:
 985              	.LBE42:
 986              		.loc 1 435 0
 987 0070 4046     		mov	r0, r8
 988 0072 BDE8F88F 		pop	{r3, r4, r5, r6, r7, r8, r9, r10, fp, pc}
 989              		.cfi_endproc
 990              	.LFE17:
 991              		.size	chOQWriteTimeout, .-chOQWriteTimeout
 992 0076 00BFAFF3 		.text
 992      0080AFF3 
 992      0080
 993              	.Letext0:
 994              		.file 3 "/usr/lib/gcc/arm-none-eabi/4.8.2/include/stddef.h"
 995              		.file 4 "/usr/include/newlib/machine/_default_types.h"
 996              		.file 5 "/usr/include/newlib/stdint.h"
 997              		.file 6 "../include/ChibiOS_2.6.5/os/ports/GCC/ARMCMx/chtypes.h"
 998              		.file 7 "../include/ChibiOS_2.6.5/os/kernel/include/chlists.h"
 999              		.file 8 "../include/ChibiOS_2.6.5/os/kernel/include/chthreads.h"
 1000              		.file 9 "../include/ChibiOS_2.6.5/os/ports/GCC/ARMCMx/chcore_v7m.h"
 1001              		.file 10 "../include/ChibiOS_2.6.5/os/kernel/include/chschd.h"
 1002              		.file 11 "../include/ChibiOS_2.6.5/os/kernel/include/chmtx.h"
 1003              		.file 12 "../include/ChibiOS_2.6.5/os/kernel/include/chqueues.h"