ARM GAS  /tmp/ccaP86JW.s 			page 1


   1              		.syntax unified
   2              		.cpu cortex-m4
   3              		.fpu softvfp
   4              		.eabi_attribute 20, 1
   5              		.eabi_attribute 21, 1
   6              		.eabi_attribute 23, 3
   7              		.eabi_attribute 24, 1
   8              		.eabi_attribute 25, 1
   9              		.eabi_attribute 26, 1
  10              		.eabi_attribute 30, 2
  11              		.eabi_attribute 34, 1
  12              		.eabi_attribute 18, 4
  13              		.thumb
  14              		.file	"chqueues.c"
  15              		.text
  16              	.Ltext0:
  17              		.cfi_sections	.debug_frame
  18              		.section	.text.qwait,"ax",%progbits
  19              		.align	2
  20              		.p2align 4,,15
  21              		.thumb
  22              		.thumb_func
  23              		.type	qwait, %function
  24              	qwait:
  25              	.LFB7:
  26              		.file 1 "../include/ChibiOS_2.6.5/os/kernel/src/chqueues.c"
  27              		.loc 1 70 0
  28              		.cfi_startproc
  29              		@ args = 0, pretend = 0, frame = 0
  30              		@ frame_needed = 0, uses_anonymous_args = 0
  31              		@ link register save eliminated.
  32              	.LVL0:
  33 0000 10B4     		push	{r4}
  34              		.cfi_def_cfa_offset 4
  35              		.cfi_offset 4, -4
  36              		.loc 1 70 0
  37 0002 0246     		mov	r2, r0
  38              		.loc 1 72 0
  39 0004 79B1     		cbz	r1, .L2
  40              		.loc 1 74 0
  41 0006 40F20003 		movw	r3, #:lower16:rlist
  42 000a C0F20003 		movt	r3, #:upper16:rlist
  43              		.loc 1 76 0
  44 000e 0D20     		movs	r0, #13
  45              	.LVL1:
  46              		.loc 1 74 0
  47 0010 9B69     		ldr	r3, [r3, #24]
  48 0012 5A62     		str	r2, [r3, #36]
  49              	.LVL2:
  50              	.LBB12:
  51              	.LBB13:
  52              		.file 2 "../include/ChibiOS_2.6.5/os/kernel/include/chinline.h"
  53              		.loc 2 55 0
  54 0014 5468     		ldr	r4, [r2, #4]
  55 0016 83E81400 		stmia	r3, {r2, r4}
  56              		.loc 2 56 0
  57 001a 5360     		str	r3, [r2, #4]
ARM GAS  /tmp/ccaP86JW.s 			page 2


  58 001c 2360     		str	r3, [r4]
  59              	.LBE13:
  60              	.LBE12:
  61              		.loc 1 77 0
  62 001e 5DF8044B 		ldr	r4, [sp], #4
  63              		.loc 1 76 0
  64 0022 FFF7FEBF 		b	chSchGoSleepTimeoutS
  65              	.LVL3:
  66              	.L2:
  67              		.loc 1 77 0
  68 0026 4FF0FF30 		mov	r0, #-1
  69              	.LVL4:
  70 002a 5DF8044B 		ldr	r4, [sp], #4
  71 002e 7047     		bx	lr
  72              		.cfi_endproc
  73              	.LFE7:
  74              		.size	qwait, .-qwait
  75              		.section	.text.chIQInit,"ax",%progbits
  76              		.align	2
  77              		.p2align 4,,15
  78              		.global	chIQInit
  79              		.thumb
  80              		.thumb_func
  81              		.type	chIQInit, %function
  82              	chIQInit:
  83              	.LFB8:
  84              		.loc 1 96 0
  85              		.cfi_startproc
  86              		@ args = 4, pretend = 0, frame = 0
  87              		@ frame_needed = 0, uses_anonymous_args = 0
  88              		@ link register save eliminated.
  89              	.LVL5:
  90 0000 30B4     		push	{r4, r5}
  91              		.cfi_def_cfa_offset 8
  92              		.cfi_offset 4, -8
  93              		.cfi_offset 5, -4
  94              		.loc 1 96 0
  95 0002 029C     		ldr	r4, [sp, #8]
  96              		.loc 1 98 0
  97 0004 4060     		str	r0, [r0, #4]
  98              		.loc 1 99 0
  99 0006 0025     		movs	r5, #0
 100              		.loc 1 101 0
 101 0008 0A44     		add	r2, r2, r1
 102              	.LVL6:
 103              		.loc 1 99 0
 104 000a 8560     		str	r5, [r0, #8]
 105              		.loc 1 103 0
 106 000c 0462     		str	r4, [r0, #32]
 107              		.loc 1 101 0
 108 000e 0261     		str	r2, [r0, #16]
 109              		.loc 1 98 0
 110 0010 0060     		str	r0, [r0]
 111              		.loc 1 100 0
 112 0012 4161     		str	r1, [r0, #20]
 113 0014 8161     		str	r1, [r0, #24]
 114 0016 C160     		str	r1, [r0, #12]
ARM GAS  /tmp/ccaP86JW.s 			page 3


 115              		.loc 1 102 0
 116 0018 C361     		str	r3, [r0, #28]
 117              		.loc 1 104 0
 118 001a 30BC     		pop	{r4, r5}
 119              	.LVL7:
 120 001c 7047     		bx	lr
 121              		.cfi_endproc
 122              	.LFE8:
 123              		.size	chIQInit, .-chIQInit
 124 001e 00BF     		.section	.text.chIQResetI,"ax",%progbits
 125              		.align	2
 126              		.p2align 4,,15
 127              		.global	chIQResetI
 128              		.thumb
 129              		.thumb_func
 130              		.type	chIQResetI, %function
 131              	chIQResetI:
 132              	.LFB9:
 133              		.loc 1 117 0
 134              		.cfi_startproc
 135              		@ args = 0, pretend = 0, frame = 0
 136              		@ frame_needed = 0, uses_anonymous_args = 0
 137              	.LVL8:
 138 0000 38B5     		push	{r3, r4, r5, lr}
 139              		.cfi_def_cfa_offset 16
 140              		.cfi_offset 3, -16
 141              		.cfi_offset 4, -12
 142              		.cfi_offset 5, -8
 143              		.cfi_offset 14, -4
 144              		.loc 1 117 0
 145 0002 0446     		mov	r4, r0
 146              		.loc 1 121 0
 147 0004 C368     		ldr	r3, [r0, #12]
 148              		.loc 1 123 0
 149 0006 0068     		ldr	r0, [r0]
 150              	.LVL9:
 151              		.loc 1 121 0
 152 0008 6361     		str	r3, [r4, #20]
 153              		.loc 1 122 0
 154 000a 0022     		movs	r2, #0
 155              		.loc 1 123 0
 156 000c A042     		cmp	r0, r4
 157              		.loc 1 122 0
 158 000e A260     		str	r2, [r4, #8]
 159              		.loc 1 121 0
 160 0010 A361     		str	r3, [r4, #24]
 161              		.loc 1 123 0
 162 0012 0AD0     		beq	.L5
 163              		.loc 1 124 0
 164 0014 6FF00105 		mvn	r5, #1
 165              	.L8:
 166              	.LVL10:
 167              	.LBB14:
 168              	.LBB15:
 169              		.loc 2 62 0
 170 0018 0368     		ldr	r3, [r0]
 171 001a 2360     		str	r3, [r4]
ARM GAS  /tmp/ccaP86JW.s 			page 4


 172 001c 5C60     		str	r4, [r3, #4]
 173              	.LBE15:
 174              	.LBE14:
 175              		.loc 1 124 0
 176 001e FFF7FEFF 		bl	chSchReadyI
 177              	.LVL11:
 178 0022 4562     		str	r5, [r0, #36]
 179              		.loc 1 123 0
 180 0024 2068     		ldr	r0, [r4]
 181 0026 A042     		cmp	r0, r4
 182 0028 F6D1     		bne	.L8
 183              	.LVL12:
 184              	.L5:
 185 002a 38BD     		pop	{r3, r4, r5, pc}
 186              		.cfi_endproc
 187              	.LFE9:
 188              		.size	chIQResetI, .-chIQResetI
 189 002c AFF30080 		.section	.text.chIQPutI,"ax",%progbits
 190              		.align	2
 191              		.p2align 4,,15
 192              		.global	chIQPutI
 193              		.thumb
 194              		.thumb_func
 195              		.type	chIQPutI, %function
 196              	chIQPutI:
 197              	.LFB10:
 198              		.loc 1 140 0
 199              		.cfi_startproc
 200              		@ args = 0, pretend = 0, frame = 0
 201              		@ frame_needed = 0, uses_anonymous_args = 0
 202              	.LVL13:
 203 0000 0346     		mov	r3, r0
 204              		.loc 1 144 0
 205 0002 4269     		ldr	r2, [r0, #20]
 206 0004 8069     		ldr	r0, [r0, #24]
 207              	.LVL14:
 208 0006 8242     		cmp	r2, r0
 209              		.loc 1 140 0
 210 0008 10B5     		push	{r4, lr}
 211              		.cfi_def_cfa_offset 8
 212              		.cfi_offset 4, -8
 213              		.cfi_offset 14, -4
 214              		.loc 1 144 0
 215 000a 9C68     		ldr	r4, [r3, #8]
 216 000c 1BD0     		beq	.L18
 217              	.L12:
 218              		.loc 1 148 0
 219 000e 501C     		adds	r0, r2, #1
 220              		.loc 1 147 0
 221 0010 0134     		adds	r4, r4, #1
 222              		.loc 1 148 0
 223 0012 5861     		str	r0, [r3, #20]
 224              		.loc 1 147 0
 225 0014 9C60     		str	r4, [r3, #8]
 226              		.loc 1 148 0
 227 0016 1170     		strb	r1, [r2]
 228              		.loc 1 149 0
ARM GAS  /tmp/ccaP86JW.s 			page 5


 229 0018 5969     		ldr	r1, [r3, #20]
 230              	.LVL15:
 231 001a 1A69     		ldr	r2, [r3, #16]
 232              	.LVL16:
 233 001c 9142     		cmp	r1, r2
 234 001e 0BD2     		bcs	.L13
 235              		.loc 1 152 0
 236 0020 1868     		ldr	r0, [r3]
 237              	.LVL17:
 238 0022 9842     		cmp	r0, r3
 239 0024 0DD0     		beq	.L16
 240              	.L19:
 241              	.LVL18:
 242              	.LBB16:
 243              	.LBB17:
 244              		.loc 2 62 0
 245 0026 0268     		ldr	r2, [r0]
 246 0028 1A60     		str	r2, [r3]
 247 002a 5360     		str	r3, [r2, #4]
 248              	.LBE17:
 249              	.LBE16:
 250              		.loc 1 153 0
 251 002c FFF7FEFF 		bl	chSchReadyI
 252              	.LVL19:
 253 0030 0023     		movs	r3, #0
 254 0032 4362     		str	r3, [r0, #36]
 255              		.loc 1 155 0
 256 0034 1846     		mov	r0, r3
 257 0036 10BD     		pop	{r4, pc}
 258              	.LVL20:
 259              	.L13:
 260              		.loc 1 152 0
 261 0038 1868     		ldr	r0, [r3]
 262              	.LVL21:
 263              		.loc 1 150 0
 264 003a DA68     		ldr	r2, [r3, #12]
 265              		.loc 1 152 0
 266 003c 9842     		cmp	r0, r3
 267              		.loc 1 150 0
 268 003e 5A61     		str	r2, [r3, #20]
 269              		.loc 1 152 0
 270 0040 F1D1     		bne	.L19
 271              	.L16:
 272              		.loc 1 155 0
 273 0042 0020     		movs	r0, #0
 274 0044 10BD     		pop	{r4, pc}
 275              	.LVL22:
 276              	.L18:
 277              		.loc 1 144 0 discriminator 1
 278 0046 002C     		cmp	r4, #0
 279 0048 E1D0     		beq	.L12
 280              		.loc 1 145 0
 281 004a 6FF00300 		mvn	r0, #3
 282 004e 10BD     		pop	{r4, pc}
 283              		.cfi_endproc
 284              	.LFE10:
 285              		.size	chIQPutI, .-chIQPutI
ARM GAS  /tmp/ccaP86JW.s 			page 6


 286              		.section	.text.chIQGetTimeout,"ax",%progbits
 287              		.align	2
 288              		.p2align 4,,15
 289              		.global	chIQGetTimeout
 290              		.thumb
 291              		.thumb_func
 292              		.type	chIQGetTimeout, %function
 293              	chIQGetTimeout:
 294              	.LFB11:
 295              		.loc 1 178 0
 296              		.cfi_startproc
 297              		@ args = 0, pretend = 0, frame = 0
 298              		@ frame_needed = 0, uses_anonymous_args = 0
 299              	.LVL23:
 300 0000 70B5     		push	{r4, r5, r6, lr}
 301              		.cfi_def_cfa_offset 16
 302              		.cfi_offset 4, -16
 303              		.cfi_offset 5, -12
 304              		.cfi_offset 6, -8
 305              		.cfi_offset 14, -4
 306              	.LBB18:
 307              		.loc 1 181 0
 308 0002 2023     		movs	r3, #32
 309              	.LBE18:
 310              		.loc 1 178 0
 311 0004 0446     		mov	r4, r0
 312 0006 0E46     		mov	r6, r1
 313              	.LBB19:
 314              		.loc 1 181 0
 315              	@ 181 "../include/ChibiOS_2.6.5/os/kernel/src/chqueues.c" 1
 316 0008 83F31188 		msr     BASEPRI, r3
 317              	@ 0 "" 2
 318              		.thumb
 319              	.LBE19:
 320              		.loc 1 182 0
 321 000c C369     		ldr	r3, [r0, #28]
 322 000e 2BB1     		cbz	r3, .L23
 323              		.loc 1 183 0
 324 0010 9847     		blx	r3
 325              	.LVL24:
 326 0012 03E0     		b	.L23
 327              	.LVL25:
 328              	.L25:
 329              	.LBB20:
 330              		.loc 1 187 0
 331 0014 FFF7FEFF 		bl	qwait
 332              	.LVL26:
 333 0018 0028     		cmp	r0, #0
 334 001a 15DB     		blt	.L30
 335              	.LVL27:
 336              	.L23:
 337              	.LBE20:
 338              		.loc 1 185 0 discriminator 1
 339 001c A568     		ldr	r5, [r4, #8]
 340              	.LBB22:
 341              		.loc 1 187 0 discriminator 1
 342 001e 2046     		mov	r0, r4
ARM GAS  /tmp/ccaP86JW.s 			page 7


 343 0020 3146     		mov	r1, r6
 344              	.LBE22:
 345              		.loc 1 185 0 discriminator 1
 346 0022 002D     		cmp	r5, #0
 347 0024 F6D0     		beq	.L25
 348              	.LVL28:
 349              		.loc 1 194 0
 350 0026 A269     		ldr	r2, [r4, #24]
 351              		.loc 1 195 0
 352 0028 2169     		ldr	r1, [r4, #16]
 353              	.LVL29:
 354              		.loc 1 194 0
 355 002a 531C     		adds	r3, r2, #1
 356              		.loc 1 195 0
 357 002c 8B42     		cmp	r3, r1
 358              		.loc 1 194 0
 359 002e A361     		str	r3, [r4, #24]
 360              		.loc 1 193 0
 361 0030 05F1FF35 		add	r5, r5, #-1
 362              		.loc 1 196 0
 363 0034 28BF     		it	cs
 364 0036 E368     		ldrcs	r3, [r4, #12]
 365              		.loc 1 193 0
 366 0038 A560     		str	r5, [r4, #8]
 367              		.loc 1 194 0
 368 003a 1078     		ldrb	r0, [r2]	@ zero_extendqisi2
 369              	.LVL30:
 370              		.loc 1 196 0
 371 003c 28BF     		it	cs
 372 003e A361     		strcs	r3, [r4, #24]
 373              	.LVL31:
 374              	.LBB23:
 375              		.loc 1 198 0
 376 0040 0023     		movs	r3, #0
 377              	@ 198 "../include/ChibiOS_2.6.5/os/kernel/src/chqueues.c" 1
 378 0042 83F31188 		msr     BASEPRI, r3
 379              	@ 0 "" 2
 380              		.thumb
 381              	.LBE23:
 382              		.loc 1 200 0
 383 0046 70BD     		pop	{r4, r5, r6, pc}
 384              	.LVL32:
 385              	.L30:
 386              	.LBB24:
 387              	.LBB21:
 388              		.loc 1 188 0
 389 0048 2B46     		mov	r3, r5
 390              	@ 188 "../include/ChibiOS_2.6.5/os/kernel/src/chqueues.c" 1
 391 004a 83F31188 		msr     BASEPRI, r3
 392              	@ 0 "" 2
 393              		.thumb
 394              	.LBE21:
 395              		.loc 1 189 0
 396 004e 70BD     		pop	{r4, r5, r6, pc}
 397              	.LBE24:
 398              		.cfi_endproc
 399              	.LFE11:
ARM GAS  /tmp/ccaP86JW.s 			page 8


 400              		.size	chIQGetTimeout, .-chIQGetTimeout
 401              		.section	.text.chIQReadTimeout,"ax",%progbits
 402              		.align	2
 403              		.p2align 4,,15
 404              		.global	chIQReadTimeout
 405              		.thumb
 406              		.thumb_func
 407              		.type	chIQReadTimeout, %function
 408              	chIQReadTimeout:
 409              	.LFB12:
 410              		.loc 1 227 0
 411              		.cfi_startproc
 412              		@ args = 0, pretend = 0, frame = 0
 413              		@ frame_needed = 0, uses_anonymous_args = 0
 414              	.LVL33:
 415 0000 2DE9F047 		push	{r4, r5, r6, r7, r8, r9, r10, lr}
 416              		.cfi_def_cfa_offset 32
 417              		.cfi_offset 4, -32
 418              		.cfi_offset 5, -28
 419              		.cfi_offset 6, -24
 420              		.cfi_offset 7, -20
 421              		.cfi_offset 8, -16
 422              		.cfi_offset 9, -12
 423              		.cfi_offset 10, -8
 424              		.cfi_offset 14, -4
 425              		.loc 1 227 0
 426 0004 1E46     		mov	r6, r3
 427 0006 0446     		mov	r4, r0
 428              		.loc 1 228 0
 429 0008 D0F81C80 		ldr	r8, [r0, #28]
 430              	.LVL34:
 431              	.LBB25:
 432              		.loc 1 233 0
 433 000c 2023     		movs	r3, #32
 434              	.LVL35:
 435              	@ 233 "../include/ChibiOS_2.6.5/os/kernel/src/chqueues.c" 1
 436 000e 83F31188 		msr     BASEPRI, r3
 437              	@ 0 "" 2
 438              		.thumb
 439              	.LBE25:
 440              		.loc 1 229 0
 441 0012 4FF00009 		mov	r9, #0
 442 0016 01EB020A 		add	r10, r1, r2
 443 001a 4F1C     		adds	r7, r1, #1
 444              	.LVL36:
 445              	.L38:
 446              		.loc 1 235 0
 447 001c B8F1000F 		cmp	r8, #0
 448 0020 05D0     		beq	.L34
 449              		.loc 1 236 0
 450 0022 2046     		mov	r0, r4
 451              	.LVL37:
 452 0024 C047     		blx	r8
 453              	.LVL38:
 454 0026 02E0     		b	.L34
 455              	.LVL39:
 456              	.L36:
ARM GAS  /tmp/ccaP86JW.s 			page 9


 457              		.loc 1 239 0
 458 0028 FFF7FEFF 		bl	qwait
 459              	.LVL40:
 460 002c F0B9     		cbnz	r0, .L42
 461              	.L34:
 462              		.loc 1 238 0 discriminator 1
 463 002e A568     		ldr	r5, [r4, #8]
 464              		.loc 1 239 0 discriminator 1
 465 0030 2046     		mov	r0, r4
 466 0032 3146     		mov	r1, r6
 467              		.loc 1 238 0 discriminator 1
 468 0034 002D     		cmp	r5, #0
 469 0036 F7D0     		beq	.L36
 470              	.LVL41:
 471              		.loc 1 246 0
 472 0038 A369     		ldr	r3, [r4, #24]
 473              		.loc 1 245 0
 474 003a 013D     		subs	r5, r5, #1
 475              		.loc 1 246 0
 476 003c 5A1C     		adds	r2, r3, #1
 477 003e A261     		str	r2, [r4, #24]
 478              		.loc 1 245 0
 479 0040 A560     		str	r5, [r4, #8]
 480              	.LVL42:
 481              		.loc 1 246 0
 482 0042 1B78     		ldrb	r3, [r3]	@ zero_extendqisi2
 483 0044 07F8013C 		strb	r3, [r7, #-1]
 484              		.loc 1 247 0
 485 0048 2369     		ldr	r3, [r4, #16]
 486 004a A269     		ldr	r2, [r4, #24]
 487 004c 9A42     		cmp	r2, r3
 488              		.loc 1 248 0
 489 004e 24BF     		itt	cs
 490 0050 E368     		ldrcs	r3, [r4, #12]
 491 0052 A361     		strcs	r3, [r4, #24]
 492              	.LBB26:
 493              		.loc 1 250 0
 494 0054 0023     		movs	r3, #0
 495              	@ 250 "../include/ChibiOS_2.6.5/os/kernel/src/chqueues.c" 1
 496 0056 83F31188 		msr     BASEPRI, r3
 497              	@ 0 "" 2
 498              		.thumb
 499              	.LBE26:
 500              		.loc 1 252 0
 501 005a 5745     		cmp	r7, r10
 502              		.loc 1 251 0
 503 005c 09F10109 		add	r9, r9, #1
 504              	.LVL43:
 505              		.loc 1 252 0
 506 0060 07D0     		beq	.L35
 507              	.LBB27:
 508              		.loc 1 255 0
 509 0062 2023     		movs	r3, #32
 510              	@ 255 "../include/ChibiOS_2.6.5/os/kernel/src/chqueues.c" 1
 511 0064 83F31188 		msr     BASEPRI, r3
 512              	@ 0 "" 2
 513              		.thumb
ARM GAS  /tmp/ccaP86JW.s 			page 10


 514 0068 0137     		adds	r7, r7, #1
 515              	.LBE27:
 516              		.loc 1 256 0
 517 006a D7E7     		b	.L38
 518              	.LVL44:
 519              	.L42:
 520              	.LBB28:
 521              		.loc 1 240 0
 522 006c 2B46     		mov	r3, r5
 523              	@ 240 "../include/ChibiOS_2.6.5/os/kernel/src/chqueues.c" 1
 524 006e 83F31188 		msr     BASEPRI, r3
 525              	@ 0 "" 2
 526              	.LVL45:
 527              		.thumb
 528              	.L35:
 529              	.LBE28:
 530              		.loc 1 257 0
 531 0072 4846     		mov	r0, r9
 532 0074 BDE8F087 		pop	{r4, r5, r6, r7, r8, r9, r10, pc}
 533              		.cfi_endproc
 534              	.LFE12:
 535              		.size	chIQReadTimeout, .-chIQReadTimeout
 536 0078 AFF30080 		.section	.text.chOQInit,"ax",%progbits
 536      AFF30080 
 537              		.align	2
 538              		.p2align 4,,15
 539              		.global	chOQInit
 540              		.thumb
 541              		.thumb_func
 542              		.type	chOQInit, %function
 543              	chOQInit:
 544              	.LFB13:
 545              		.loc 1 276 0
 546              		.cfi_startproc
 547              		@ args = 4, pretend = 0, frame = 0
 548              		@ frame_needed = 0, uses_anonymous_args = 0
 549              		@ link register save eliminated.
 550              	.LVL46:
 551 0000 30B4     		push	{r4, r5}
 552              		.cfi_def_cfa_offset 8
 553              		.cfi_offset 4, -8
 554              		.cfi_offset 5, -4
 555              		.loc 1 276 0
 556 0002 029C     		ldr	r4, [sp, #8]
 557              		.loc 1 278 0
 558 0004 4060     		str	r0, [r0, #4]
 559              		.loc 1 281 0
 560 0006 8D18     		adds	r5, r1, r2
 561 0008 0561     		str	r5, [r0, #16]
 562              		.loc 1 283 0
 563 000a 0462     		str	r4, [r0, #32]
 564              		.loc 1 278 0
 565 000c 0060     		str	r0, [r0]
 566              		.loc 1 279 0
 567 000e 8260     		str	r2, [r0, #8]
 568              		.loc 1 280 0
 569 0010 4161     		str	r1, [r0, #20]
ARM GAS  /tmp/ccaP86JW.s 			page 11


 570 0012 8161     		str	r1, [r0, #24]
 571 0014 C160     		str	r1, [r0, #12]
 572              		.loc 1 282 0
 573 0016 C361     		str	r3, [r0, #28]
 574              		.loc 1 284 0
 575 0018 30BC     		pop	{r4, r5}
 576              	.LVL47:
 577 001a 7047     		bx	lr
 578              		.cfi_endproc
 579              	.LFE13:
 580              		.size	chOQInit, .-chOQInit
 581              		.section	.text.chOQResetI,"ax",%progbits
 582              		.align	2
 583              		.p2align 4,,15
 584              		.global	chOQResetI
 585              		.thumb
 586              		.thumb_func
 587              		.type	chOQResetI, %function
 588              	chOQResetI:
 589              	.LFB14:
 590              		.loc 1 297 0
 591              		.cfi_startproc
 592              		@ args = 0, pretend = 0, frame = 0
 593              		@ frame_needed = 0, uses_anonymous_args = 0
 594              	.LVL48:
 595 0000 38B5     		push	{r3, r4, r5, lr}
 596              		.cfi_def_cfa_offset 16
 597              		.cfi_offset 3, -16
 598              		.cfi_offset 4, -12
 599              		.cfi_offset 5, -8
 600              		.cfi_offset 14, -4
 601              		.loc 1 302 0
 602 0002 0269     		ldr	r2, [r0, #16]
 603              		.loc 1 301 0
 604 0004 C368     		ldr	r3, [r0, #12]
 605              		.loc 1 297 0
 606 0006 0446     		mov	r4, r0
 607              		.loc 1 303 0
 608 0008 0068     		ldr	r0, [r0]
 609              	.LVL49:
 610              		.loc 1 301 0
 611 000a 6361     		str	r3, [r4, #20]
 612              		.loc 1 302 0
 613 000c D21A     		subs	r2, r2, r3
 614              		.loc 1 303 0
 615 000e A042     		cmp	r0, r4
 616              		.loc 1 301 0
 617 0010 A361     		str	r3, [r4, #24]
 618              		.loc 1 302 0
 619 0012 A260     		str	r2, [r4, #8]
 620              		.loc 1 303 0
 621 0014 0AD0     		beq	.L44
 622              		.loc 1 304 0
 623 0016 6FF00105 		mvn	r5, #1
 624              	.L47:
 625              	.LVL50:
 626              	.LBB29:
ARM GAS  /tmp/ccaP86JW.s 			page 12


 627              	.LBB30:
 628              		.loc 2 62 0
 629 001a 0368     		ldr	r3, [r0]
 630 001c 2360     		str	r3, [r4]
 631 001e 5C60     		str	r4, [r3, #4]
 632              	.LBE30:
 633              	.LBE29:
 634              		.loc 1 304 0
 635 0020 FFF7FEFF 		bl	chSchReadyI
 636              	.LVL51:
 637 0024 4562     		str	r5, [r0, #36]
 638              		.loc 1 303 0
 639 0026 2068     		ldr	r0, [r4]
 640 0028 A042     		cmp	r0, r4
 641 002a F6D1     		bne	.L47
 642              	.LVL52:
 643              	.L44:
 644 002c 38BD     		pop	{r3, r4, r5, pc}
 645              		.cfi_endproc
 646              	.LFE14:
 647              		.size	chOQResetI, .-chOQResetI
 648 002e 00BF     		.section	.text.chOQPutTimeout,"ax",%progbits
 649              		.align	2
 650              		.p2align 4,,15
 651              		.global	chOQPutTimeout
 652              		.thumb
 653              		.thumb_func
 654              		.type	chOQPutTimeout, %function
 655              	chOQPutTimeout:
 656              	.LFB15:
 657              		.loc 1 329 0
 658              		.cfi_startproc
 659              		@ args = 0, pretend = 0, frame = 0
 660              		@ frame_needed = 0, uses_anonymous_args = 0
 661              	.LVL53:
 662 0000 F8B5     		push	{r3, r4, r5, r6, r7, lr}
 663              		.cfi_def_cfa_offset 24
 664              		.cfi_offset 3, -24
 665              		.cfi_offset 4, -20
 666              		.cfi_offset 5, -16
 667              		.cfi_offset 6, -12
 668              		.cfi_offset 7, -8
 669              		.cfi_offset 14, -4
 670              		.loc 1 329 0
 671 0002 0446     		mov	r4, r0
 672 0004 0F46     		mov	r7, r1
 673 0006 1646     		mov	r6, r2
 674              	.LBB31:
 675              		.loc 1 331 0
 676 0008 2023     		movs	r3, #32
 677              	@ 331 "../include/ChibiOS_2.6.5/os/kernel/src/chqueues.c" 1
 678 000a 83F31188 		msr     BASEPRI, r3
 679              	@ 0 "" 2
 680              		.thumb
 681              	.LBE31:
 682              		.loc 1 332 0
 683 000e 03E0     		b	.L49
ARM GAS  /tmp/ccaP86JW.s 			page 13


 684              	.LVL54:
 685              	.L52:
 686              	.LBB32:
 687              		.loc 1 335 0
 688 0010 FFF7FEFF 		bl	qwait
 689              	.LVL55:
 690 0014 0028     		cmp	r0, #0
 691 0016 19DB     		blt	.L58
 692              	.LVL56:
 693              	.L49:
 694              	.LBE32:
 695              		.loc 1 332 0 discriminator 1
 696 0018 A568     		ldr	r5, [r4, #8]
 697              	.LBB34:
 698              		.loc 1 335 0 discriminator 1
 699 001a 2046     		mov	r0, r4
 700 001c 3146     		mov	r1, r6
 701              	.LBE34:
 702              		.loc 1 332 0 discriminator 1
 703 001e 002D     		cmp	r5, #0
 704 0020 F6D0     		beq	.L52
 705              	.LVL57:
 706              		.loc 1 342 0
 707 0022 6369     		ldr	r3, [r4, #20]
 708              		.loc 1 341 0
 709 0024 013D     		subs	r5, r5, #1
 710              		.loc 1 342 0
 711 0026 5A1C     		adds	r2, r3, #1
 712 0028 6261     		str	r2, [r4, #20]
 713              		.loc 1 341 0
 714 002a A560     		str	r5, [r4, #8]
 715              		.loc 1 342 0
 716 002c 1F70     		strb	r7, [r3]
 717              		.loc 1 343 0
 718 002e 2369     		ldr	r3, [r4, #16]
 719 0030 6269     		ldr	r2, [r4, #20]
 720 0032 9A42     		cmp	r2, r3
 721              		.loc 1 344 0
 722 0034 24BF     		itt	cs
 723 0036 E368     		ldrcs	r3, [r4, #12]
 724 0038 6361     		strcs	r3, [r4, #20]
 725              		.loc 1 346 0
 726 003a E369     		ldr	r3, [r4, #28]
 727 003c 0BB1     		cbz	r3, .L54
 728              		.loc 1 347 0
 729 003e 2046     		mov	r0, r4
 730              	.LVL58:
 731 0040 9847     		blx	r3
 732              	.LVL59:
 733              	.L54:
 734              	.LBB35:
 735              		.loc 1 349 0
 736 0042 0023     		movs	r3, #0
 737              	@ 349 "../include/ChibiOS_2.6.5/os/kernel/src/chqueues.c" 1
 738 0044 83F31188 		msr     BASEPRI, r3
 739              	@ 0 "" 2
 740              		.thumb
ARM GAS  /tmp/ccaP86JW.s 			page 14


 741              	.LBE35:
 742              		.loc 1 350 0
 743 0048 0020     		movs	r0, #0
 744              		.loc 1 351 0
 745 004a F8BD     		pop	{r3, r4, r5, r6, r7, pc}
 746              	.LVL60:
 747              	.L58:
 748              	.LBB36:
 749              	.LBB33:
 750              		.loc 1 336 0
 751 004c 2B46     		mov	r3, r5
 752              	@ 336 "../include/ChibiOS_2.6.5/os/kernel/src/chqueues.c" 1
 753 004e 83F31188 		msr     BASEPRI, r3
 754              	@ 0 "" 2
 755              		.thumb
 756              	.LBE33:
 757              		.loc 1 337 0
 758 0052 F8BD     		pop	{r3, r4, r5, r6, r7, pc}
 759              	.LBE36:
 760              		.cfi_endproc
 761              	.LFE15:
 762              		.size	chOQPutTimeout, .-chOQPutTimeout
 763 0054 AFF30080 		.section	.text.chOQGetI,"ax",%progbits
 763      AFF30080 
 763      AFF30080 
 764              		.align	2
 765              		.p2align 4,,15
 766              		.global	chOQGetI
 767              		.thumb
 768              		.thumb_func
 769              		.type	chOQGetI, %function
 770              	chOQGetI:
 771              	.LFB16:
 772              		.loc 1 363 0
 773              		.cfi_startproc
 774              		@ args = 0, pretend = 0, frame = 0
 775              		@ frame_needed = 0, uses_anonymous_args = 0
 776              	.LVL61:
 777              		.loc 1 368 0
 778 0000 8269     		ldr	r2, [r0, #24]
 779 0002 4169     		ldr	r1, [r0, #20]
 780 0004 9142     		cmp	r1, r2
 781              		.loc 1 363 0
 782 0006 10B5     		push	{r4, lr}
 783              		.cfi_def_cfa_offset 8
 784              		.cfi_offset 4, -8
 785              		.cfi_offset 14, -4
 786              		.loc 1 363 0
 787 0008 0346     		mov	r3, r0
 788              		.loc 1 368 0
 789 000a 8468     		ldr	r4, [r0, #8]
 790 000c 16D0     		beq	.L68
 791              	.L62:
 792              		.loc 1 373 0
 793 000e 1869     		ldr	r0, [r3, #16]
 794              	.LVL62:
 795              		.loc 1 371 0
ARM GAS  /tmp/ccaP86JW.s 			page 15


 796 0010 0134     		adds	r4, r4, #1
 797              		.loc 1 372 0
 798 0012 511C     		adds	r1, r2, #1
 799              		.loc 1 371 0
 800 0014 9C60     		str	r4, [r3, #8]
 801              		.loc 1 372 0
 802 0016 9961     		str	r1, [r3, #24]
 803              		.loc 1 373 0
 804 0018 8142     		cmp	r1, r0
 805              		.loc 1 372 0
 806 001a 1478     		ldrb	r4, [r2]	@ zero_extendqisi2
 807              	.LVL63:
 808              		.loc 1 373 0
 809 001c 0BD2     		bcs	.L64
 810              	.LVL64:
 811              	.L65:
 812              		.loc 1 376 0
 813 001e 1868     		ldr	r0, [r3]
 814 0020 9842     		cmp	r0, r3
 815 0022 06D0     		beq	.L63
 816              	.LVL65:
 817              	.LBB37:
 818              	.LBB38:
 819              		.loc 2 62 0
 820 0024 0268     		ldr	r2, [r0]
 821 0026 1A60     		str	r2, [r3]
 822 0028 5360     		str	r3, [r2, #4]
 823              	.LBE38:
 824              	.LBE37:
 825              		.loc 1 377 0
 826 002a FFF7FEFF 		bl	chSchReadyI
 827              	.LVL66:
 828 002e 0023     		movs	r3, #0
 829 0030 4362     		str	r3, [r0, #36]
 830              	.LVL67:
 831              	.L63:
 832              		.loc 1 379 0
 833 0032 2046     		mov	r0, r4
 834 0034 10BD     		pop	{r4, pc}
 835              	.LVL68:
 836              	.L64:
 837              		.loc 1 374 0
 838 0036 DA68     		ldr	r2, [r3, #12]
 839              	.LVL69:
 840 0038 9A61     		str	r2, [r3, #24]
 841              	.LVL70:
 842 003a F0E7     		b	.L65
 843              	.LVL71:
 844              	.L68:
 845              		.loc 1 368 0 discriminator 1
 846 003c 002C     		cmp	r4, #0
 847 003e E6D0     		beq	.L62
 848              		.loc 1 369 0
 849 0040 6FF00200 		mvn	r0, #2
 850              	.LVL72:
 851 0044 10BD     		pop	{r4, pc}
 852              		.cfi_endproc
ARM GAS  /tmp/ccaP86JW.s 			page 16


 853              	.LFE16:
 854              		.size	chOQGetI, .-chOQGetI
 855 0046 00BFAFF3 		.section	.text.chOQWriteTimeout,"ax",%progbits
 855      0080AFF3 
 855      0080
 856              		.align	2
 857              		.p2align 4,,15
 858              		.global	chOQWriteTimeout
 859              		.thumb
 860              		.thumb_func
 861              		.type	chOQWriteTimeout, %function
 862              	chOQWriteTimeout:
 863              	.LFB17:
 864              		.loc 1 407 0
 865              		.cfi_startproc
 866              		@ args = 0, pretend = 0, frame = 0
 867              		@ frame_needed = 0, uses_anonymous_args = 0
 868              	.LVL73:
 869 0000 2DE9F84F 		push	{r3, r4, r5, r6, r7, r8, r9, r10, fp, lr}
 870              		.cfi_def_cfa_offset 40
 871              		.cfi_offset 3, -40
 872              		.cfi_offset 4, -36
 873              		.cfi_offset 5, -32
 874              		.cfi_offset 6, -28
 875              		.cfi_offset 7, -24
 876              		.cfi_offset 8, -20
 877              		.cfi_offset 9, -16
 878              		.cfi_offset 10, -12
 879              		.cfi_offset 11, -8
 880              		.cfi_offset 14, -4
 881              		.loc 1 407 0
 882 0004 9A46     		mov	r10, r3
 883 0006 0446     		mov	r4, r0
 884 0008 0E46     		mov	r6, r1
 885 000a 1746     		mov	r7, r2
 886              		.loc 1 408 0
 887 000c D0F81C90 		ldr	r9, [r0, #28]
 888              	.LVL74:
 889              	.LBB39:
 890              		.loc 1 413 0
 891 0010 2023     		movs	r3, #32
 892              	.LVL75:
 893              	@ 413 "../include/ChibiOS_2.6.5/os/kernel/src/chqueues.c" 1
 894 0012 83F31188 		msr     BASEPRI, r3
 895              	@ 0 "" 2
 896              		.thumb
 897              	.LBE39:
 898              		.loc 1 409 0
 899 0016 4FF00008 		mov	r8, #0
 900              	.LVL76:
 901              	.L70:
 902              		.loc 1 415 0 discriminator 1
 903 001a A568     		ldr	r5, [r4, #8]
 904              		.loc 1 422 0 discriminator 1
 905 001c 06F1010B 		add	fp, r6, #1
 906              	.LVL77:
 907              		.loc 1 427 0 discriminator 1
ARM GAS  /tmp/ccaP86JW.s 			page 17


 908 0020 2046     		mov	r0, r4
 909              		.loc 1 421 0 discriminator 1
 910 0022 6B1E     		subs	r3, r5, #1
 911              		.loc 1 415 0 discriminator 1
 912 0024 DDB1     		cbz	r5, .L73
 913              	.LVL78:
 914              		.loc 1 422 0
 915 0026 6269     		ldr	r2, [r4, #20]
 916              		.loc 1 421 0
 917 0028 A360     		str	r3, [r4, #8]
 918              		.loc 1 422 0
 919 002a 531C     		adds	r3, r2, #1
 920 002c 6361     		str	r3, [r4, #20]
 921 002e 3378     		ldrb	r3, [r6]	@ zero_extendqisi2
 922 0030 1370     		strb	r3, [r2]
 923              		.loc 1 423 0
 924 0032 2369     		ldr	r3, [r4, #16]
 925 0034 6269     		ldr	r2, [r4, #20]
 926 0036 9A42     		cmp	r2, r3
 927              		.loc 1 424 0
 928 0038 24BF     		itt	cs
 929 003a E368     		ldrcs	r3, [r4, #12]
 930 003c 6361     		strcs	r3, [r4, #20]
 931              		.loc 1 426 0
 932 003e B9F1000F 		cmp	r9, #0
 933 0042 00D0     		beq	.L75
 934              		.loc 1 427 0
 935 0044 C847     		blx	r9
 936              	.LVL79:
 937              	.L75:
 938              	.LBB40:
 939              		.loc 1 429 0
 940 0046 0023     		movs	r3, #0
 941              	@ 429 "../include/ChibiOS_2.6.5/os/kernel/src/chqueues.c" 1
 942 0048 83F31188 		msr     BASEPRI, r3
 943              	@ 0 "" 2
 944              		.thumb
 945              	.LBE40:
 946              		.loc 1 431 0
 947 004c 013F     		subs	r7, r7, #1
 948              	.LVL80:
 949              		.loc 1 430 0
 950 004e 08F10108 		add	r8, r8, #1
 951              	.LVL81:
 952              		.loc 1 431 0
 953 0052 0DD0     		beq	.L72
 954              	.LBB41:
 955              		.loc 1 433 0
 956 0054 2023     		movs	r3, #32
 957              	@ 433 "../include/ChibiOS_2.6.5/os/kernel/src/chqueues.c" 1
 958 0056 83F31188 		msr     BASEPRI, r3
 959              	@ 0 "" 2
 960              		.thumb
 961              	.LBE41:
 962              		.loc 1 422 0
 963 005a 5E46     		mov	r6, fp
 964              		.loc 1 434 0
ARM GAS  /tmp/ccaP86JW.s 			page 18


 965 005c DDE7     		b	.L70
 966              	.LVL82:
 967              	.L73:
 968              		.loc 1 416 0
 969 005e 2046     		mov	r0, r4
 970              	.LVL83:
 971 0060 5146     		mov	r1, r10
 972 0062 FFF7FEFF 		bl	qwait
 973              	.LVL84:
 974 0066 0028     		cmp	r0, #0
 975 0068 D7D0     		beq	.L70
 976              	.LBB42:
 977              		.loc 1 417 0
 978 006a 2B46     		mov	r3, r5
 979              	@ 417 "../include/ChibiOS_2.6.5/os/kernel/src/chqueues.c" 1
 980 006c 83F31188 		msr     BASEPRI, r3
 981              	@ 0 "" 2
 982              	.LVL85:
 983              		.thumb
 984              	.L72:
 985              	.LBE42:
 986              		.loc 1 435 0
 987 0070 4046     		mov	r0, r8
 988 0072 BDE8F88F 		pop	{r3, r4, r5, r6, r7, r8, r9, r10, fp, pc}
 989              		.cfi_endproc
 990              	.LFE17:
 991              		.size	chOQWriteTimeout, .-chOQWriteTimeout
 992 0076 00BFAFF3 		.text
 992      0080AFF3 
 992      0080
 993              	.Letext0:
 994              		.file 3 "/usr/lib/gcc/arm-none-eabi/4.8.2/include/stddef.h"
 995              		.file 4 "/usr/include/newlib/machine/_default_types.h"
 996              		.file 5 "/usr/include/newlib/stdint.h"
 997              		.file 6 "../include/ChibiOS_2.6.5/os/ports/GCC/ARMCMx/chtypes.h"
 998              		.file 7 "../include/ChibiOS_2.6.5/os/kernel/include/chlists.h"
 999              		.file 8 "../include/ChibiOS_2.6.5/os/kernel/include/chthreads.h"
 1000              		.file 9 "../include/ChibiOS_2.6.5/os/ports/GCC/ARMCMx/chcore_v7m.h"
 1001              		.file 10 "../include/ChibiOS_2.6.5/os/kernel/include/chschd.h"
 1002              		.file 11 "../include/ChibiOS_2.6.5/os/kernel/include/chmtx.h"
 1003              		.file 12 "../include/ChibiOS_2.6.5/os/kernel/include/chqueues.h"
 1004              		.section	.debug_info,"",%progbits
 1005              	.Ldebug_info0:
 1006 0000 BF0B0000 		.4byte	0xbbf
 1007 0004 0400     		.2byte	0x4
 1008 0006 00000000 		.4byte	.Ldebug_abbrev0
 1009 000a 04       		.byte	0x4
 1010 000b 01       		.uleb128 0x1
 1011 000c 5E000000 		.4byte	.LASF95
 1012 0010 01       		.byte	0x1
 1013 0011 FE030000 		.4byte	.LASF96
 1014 0015 32020000 		.4byte	.LASF97
 1015 0019 58000000 		.4byte	.Ldebug_ranges0+0x58
 1016 001d 00000000 		.4byte	0
 1017 0021 00000000 		.4byte	.Ldebug_line0
 1018 0025 02       		.uleb128 0x2
 1019 0026 04       		.byte	0x4
ARM GAS  /tmp/ccaP86JW.s 			page 19


 1020 0027 05       		.byte	0x5
 1021 0028 696E7400 		.ascii	"int\000"
 1022 002c 03       		.uleb128 0x3
 1023 002d 21000000 		.4byte	.LASF2
 1024 0031 03       		.byte	0x3
 1025 0032 D4       		.byte	0xd4
 1026 0033 37000000 		.4byte	0x37
 1027 0037 04       		.uleb128 0x4
 1028 0038 04       		.byte	0x4
 1029 0039 07       		.byte	0x7
 1030 003a D2010000 		.4byte	.LASF0
 1031 003e 04       		.uleb128 0x4
 1032 003f 01       		.byte	0x1
 1033 0040 06       		.byte	0x6
 1034 0041 3A010000 		.4byte	.LASF1
 1035 0045 03       		.uleb128 0x3
 1036 0046 44000000 		.4byte	.LASF3
 1037 004a 04       		.byte	0x4
 1038 004b 1C       		.byte	0x1c
 1039 004c 50000000 		.4byte	0x50
 1040 0050 04       		.uleb128 0x4
 1041 0051 01       		.byte	0x1
 1042 0052 08       		.byte	0x8
 1043 0053 1E030000 		.4byte	.LASF4
 1044 0057 04       		.uleb128 0x4
 1045 0058 02       		.byte	0x2
 1046 0059 05       		.byte	0x5
 1047 005a 36030000 		.4byte	.LASF5
 1048 005e 04       		.uleb128 0x4
 1049 005f 02       		.byte	0x2
 1050 0060 07       		.byte	0x7
 1051 0061 09020000 		.4byte	.LASF6
 1052 0065 03       		.uleb128 0x3
 1053 0066 D0030000 		.4byte	.LASF7
 1054 006a 04       		.byte	0x4
 1055 006b 37       		.byte	0x37
 1056 006c 70000000 		.4byte	0x70
 1057 0070 04       		.uleb128 0x4
 1058 0071 04       		.byte	0x4
 1059 0072 05       		.byte	0x5
 1060 0073 6D010000 		.4byte	.LASF8
 1061 0077 03       		.uleb128 0x3
 1062 0078 A1010000 		.4byte	.LASF9
 1063 007c 04       		.byte	0x4
 1064 007d 38       		.byte	0x38
 1065 007e 82000000 		.4byte	0x82
 1066 0082 04       		.uleb128 0x4
 1067 0083 04       		.byte	0x4
 1068 0084 07       		.byte	0x7
 1069 0085 EA010000 		.4byte	.LASF10
 1070 0089 04       		.uleb128 0x4
 1071 008a 08       		.byte	0x8
 1072 008b 05       		.byte	0x5
 1073 008c 2C010000 		.4byte	.LASF11
 1074 0090 04       		.uleb128 0x4
 1075 0091 08       		.byte	0x8
 1076 0092 07       		.byte	0x7
ARM GAS  /tmp/ccaP86JW.s 			page 20


 1077 0093 FB000000 		.4byte	.LASF12
 1078 0097 03       		.uleb128 0x3
 1079 0098 56040000 		.4byte	.LASF13
 1080 009c 05       		.byte	0x5
 1081 009d 2A       		.byte	0x2a
 1082 009e 45000000 		.4byte	0x45
 1083 00a2 03       		.uleb128 0x3
 1084 00a3 16030000 		.4byte	.LASF14
 1085 00a7 05       		.byte	0x5
 1086 00a8 41       		.byte	0x41
 1087 00a9 65000000 		.4byte	0x65
 1088 00ad 03       		.uleb128 0x3
 1089 00ae 86030000 		.4byte	.LASF15
 1090 00b2 05       		.byte	0x5
 1091 00b3 42       		.byte	0x42
 1092 00b4 77000000 		.4byte	0x77
 1093 00b8 03       		.uleb128 0x3
 1094 00b9 4E010000 		.4byte	.LASF16
 1095 00bd 06       		.byte	0x6
 1096 00be 2B       		.byte	0x2b
 1097 00bf C3000000 		.4byte	0xc3
 1098 00c3 04       		.uleb128 0x4
 1099 00c4 01       		.byte	0x1
 1100 00c5 02       		.byte	0x2
 1101 00c6 10030000 		.4byte	.LASF17
 1102 00ca 03       		.uleb128 0x3
 1103 00cb 2A020000 		.4byte	.LASF18
 1104 00cf 06       		.byte	0x6
 1105 00d0 2C       		.byte	0x2c
 1106 00d1 97000000 		.4byte	0x97
 1107 00d5 03       		.uleb128 0x3
 1108 00d6 76010000 		.4byte	.LASF19
 1109 00da 06       		.byte	0x6
 1110 00db 2D       		.byte	0x2d
 1111 00dc 97000000 		.4byte	0x97
 1112 00e0 03       		.uleb128 0x3
 1113 00e1 E7020000 		.4byte	.LASF20
 1114 00e5 06       		.byte	0x6
 1115 00e6 2E       		.byte	0x2e
 1116 00e7 97000000 		.4byte	0x97
 1117 00eb 03       		.uleb128 0x3
 1118 00ec 5D010000 		.4byte	.LASF21
 1119 00f0 06       		.byte	0x6
 1120 00f1 2F       		.byte	0x2f
 1121 00f2 97000000 		.4byte	0x97
 1122 00f6 03       		.uleb128 0x3
 1123 00f7 00030000 		.4byte	.LASF22
 1124 00fb 06       		.byte	0x6
 1125 00fc 30       		.byte	0x30
 1126 00fd AD000000 		.4byte	0xad
 1127 0101 03       		.uleb128 0x3
 1128 0102 1C020000 		.4byte	.LASF23
 1129 0106 06       		.byte	0x6
 1130 0107 31       		.byte	0x31
 1131 0108 A2000000 		.4byte	0xa2
 1132 010c 03       		.uleb128 0x3
 1133 010d 67020000 		.4byte	.LASF24
ARM GAS  /tmp/ccaP86JW.s 			page 21


 1134 0111 06       		.byte	0x6
 1135 0112 33       		.byte	0x33
 1136 0113 AD000000 		.4byte	0xad
 1137 0117 03       		.uleb128 0x3
 1138 0118 BB030000 		.4byte	.LASF25
 1139 011c 06       		.byte	0x6
 1140 011d 35       		.byte	0x35
 1141 011e AD000000 		.4byte	0xad
 1142 0122 03       		.uleb128 0x3
 1143 0123 74030000 		.4byte	.LASF26
 1144 0127 07       		.byte	0x7
 1145 0128 2A       		.byte	0x2a
 1146 0129 2D010000 		.4byte	0x12d
 1147 012d 05       		.uleb128 0x5
 1148 012e 74030000 		.4byte	.LASF26
 1149 0132 48       		.byte	0x48
 1150 0133 08       		.byte	0x8
 1151 0134 5E       		.byte	0x5e
 1152 0135 2A020000 		.4byte	0x22a
 1153 0139 06       		.uleb128 0x6
 1154 013a 60030000 		.4byte	.LASF27
 1155 013e 08       		.byte	0x8
 1156 013f 5F       		.byte	0x5f
 1157 0140 4B020000 		.4byte	0x24b
 1158 0144 00       		.byte	0
 1159 0145 06       		.uleb128 0x6
 1160 0146 F9020000 		.4byte	.LASF28
 1161 014a 08       		.byte	0x8
 1162 014b 61       		.byte	0x61
 1163 014c 4B020000 		.4byte	0x24b
 1164 0150 04       		.byte	0x4
 1165 0151 06       		.uleb128 0x6
 1166 0152 1B010000 		.4byte	.LASF29
 1167 0156 08       		.byte	0x8
 1168 0157 63       		.byte	0x63
 1169 0158 F6000000 		.4byte	0xf6
 1170 015c 08       		.byte	0x8
 1171 015d 06       		.uleb128 0x6
 1172 015e 90040000 		.4byte	.LASF30
 1173 0162 08       		.byte	0x8
 1174 0163 64       		.byte	0x64
 1175 0164 05030000 		.4byte	0x305
 1176 0168 0C       		.byte	0xc
 1177 0169 06       		.uleb128 0x6
 1178 016a 99010000 		.4byte	.LASF31
 1179 016e 08       		.byte	0x8
 1180 016f 66       		.byte	0x66
 1181 0170 4B020000 		.4byte	0x24b
 1182 0174 10       		.byte	0x10
 1183 0175 06       		.uleb128 0x6
 1184 0176 B5020000 		.4byte	.LASF32
 1185 017a 08       		.byte	0x8
 1186 017b 67       		.byte	0x67
 1187 017c 4B020000 		.4byte	0x24b
 1188 0180 14       		.byte	0x14
 1189 0181 06       		.uleb128 0x6
 1190 0182 65040000 		.4byte	.LASF33
ARM GAS  /tmp/ccaP86JW.s 			page 22


 1191 0186 08       		.byte	0x8
 1192 0187 6E       		.byte	0x6e
 1193 0188 05040000 		.4byte	0x405
 1194 018c 18       		.byte	0x18
 1195 018d 06       		.uleb128 0x6
 1196 018e 40030000 		.4byte	.LASF34
 1197 0192 08       		.byte	0x8
 1198 0193 79       		.byte	0x79
 1199 0194 D5000000 		.4byte	0xd5
 1200 0198 1C       		.byte	0x1c
 1201 0199 06       		.uleb128 0x6
 1202 019a 6C030000 		.4byte	.LASF35
 1203 019e 08       		.byte	0x8
 1204 019f 7D       		.byte	0x7d
 1205 01a0 CA000000 		.4byte	0xca
 1206 01a4 1D       		.byte	0x1d
 1207 01a5 06       		.uleb128 0x6
 1208 01a6 36040000 		.4byte	.LASF36
 1209 01aa 08       		.byte	0x8
 1210 01ab 82       		.byte	0x82
 1211 01ac E0000000 		.4byte	0xe0
 1212 01b0 1E       		.byte	0x1e
 1213 01b1 06       		.uleb128 0x6
 1214 01b2 48030000 		.4byte	.LASF37
 1215 01b6 08       		.byte	0x8
 1216 01b7 88       		.byte	0x88
 1217 01b8 EB000000 		.4byte	0xeb
 1218 01bc 1F       		.byte	0x1f
 1219 01bd 06       		.uleb128 0x6
 1220 01be E5030000 		.4byte	.LASF38
 1221 01c2 08       		.byte	0x8
 1222 01c3 8F       		.byte	0x8f
 1223 01c4 2D030000 		.4byte	0x32d
 1224 01c8 20       		.byte	0x20
 1225 01c9 07       		.uleb128 0x7
 1226 01ca 705F7500 		.ascii	"p_u\000"
 1227 01ce 08       		.byte	0x8
 1228 01cf B4       		.byte	0xb4
 1229 01d0 D0030000 		.4byte	0x3d0
 1230 01d4 24       		.byte	0x24
 1231 01d5 06       		.uleb128 0x6
 1232 01d6 96040000 		.4byte	.LASF39
 1233 01da 08       		.byte	0x8
 1234 01db B9       		.byte	0xb9
 1235 01dc 71020000 		.4byte	0x271
 1236 01e0 28       		.byte	0x28
 1237 01e1 06       		.uleb128 0x6
 1238 01e2 F3030000 		.4byte	.LASF40
 1239 01e6 08       		.byte	0x8
 1240 01e7 BF       		.byte	0xbf
 1241 01e8 51020000 		.4byte	0x251
 1242 01ec 2C       		.byte	0x2c
 1243 01ed 06       		.uleb128 0x6
 1244 01ee 09000000 		.4byte	.LASF41
 1245 01f2 08       		.byte	0x8
 1246 01f3 C3       		.byte	0xc3
 1247 01f4 01010000 		.4byte	0x101
ARM GAS  /tmp/ccaP86JW.s 			page 23


 1248 01f8 34       		.byte	0x34
 1249 01f9 06       		.uleb128 0x6
 1250 01fa 7B030000 		.4byte	.LASF42
 1251 01fe 08       		.byte	0x8
 1252 01ff C9       		.byte	0xc9
 1253 0200 0C010000 		.4byte	0x10c
 1254 0204 38       		.byte	0x38
 1255 0205 06       		.uleb128 0x6
 1256 0206 2C030000 		.4byte	.LASF43
 1257 020a 08       		.byte	0x8
 1258 020b D0       		.byte	0xd0
 1259 020c 17040000 		.4byte	0x417
 1260 0210 3C       		.byte	0x3c
 1261 0211 06       		.uleb128 0x6
 1262 0212 C5030000 		.4byte	.LASF44
 1263 0216 08       		.byte	0x8
 1264 0217 D4       		.byte	0xd4
 1265 0218 F6000000 		.4byte	0xf6
 1266 021c 40       		.byte	0x40
 1267 021d 06       		.uleb128 0x6
 1268 021e 46010000 		.4byte	.LASF45
 1269 0222 08       		.byte	0x8
 1270 0223 DA       		.byte	0xda
 1271 0224 87020000 		.4byte	0x287
 1272 0228 44       		.byte	0x44
 1273 0229 00       		.byte	0
 1274 022a 08       		.uleb128 0x8
 1275 022b 08       		.byte	0x8
 1276 022c 07       		.byte	0x7
 1277 022d 61       		.byte	0x61
 1278 022e 4B020000 		.4byte	0x24b
 1279 0232 06       		.uleb128 0x6
 1280 0233 60030000 		.4byte	.LASF27
 1281 0237 07       		.byte	0x7
 1282 0238 62       		.byte	0x62
 1283 0239 4B020000 		.4byte	0x24b
 1284 023d 00       		.byte	0
 1285 023e 06       		.uleb128 0x6
 1286 023f F9020000 		.4byte	.LASF28
 1287 0243 07       		.byte	0x7
 1288 0244 64       		.byte	0x64
 1289 0245 4B020000 		.4byte	0x24b
 1290 0249 04       		.byte	0x4
 1291 024a 00       		.byte	0
 1292 024b 09       		.uleb128 0x9
 1293 024c 04       		.byte	0x4
 1294 024d 22010000 		.4byte	0x122
 1295 0251 03       		.uleb128 0x3
 1296 0252 C3020000 		.4byte	.LASF46
 1297 0256 07       		.byte	0x7
 1298 0257 66       		.byte	0x66
 1299 0258 2A020000 		.4byte	0x22a
 1300 025c 08       		.uleb128 0x8
 1301 025d 04       		.byte	0x4
 1302 025e 07       		.byte	0x7
 1303 025f 6B       		.byte	0x6b
 1304 0260 71020000 		.4byte	0x271
ARM GAS  /tmp/ccaP86JW.s 			page 24


 1305 0264 06       		.uleb128 0x6
 1306 0265 60030000 		.4byte	.LASF27
 1307 0269 07       		.byte	0x7
 1308 026a 6D       		.byte	0x6d
 1309 026b 4B020000 		.4byte	0x24b
 1310 026f 00       		.byte	0
 1311 0270 00       		.byte	0
 1312 0271 03       		.uleb128 0x3
 1313 0272 5B020000 		.4byte	.LASF47
 1314 0276 07       		.byte	0x7
 1315 0277 70       		.byte	0x70
 1316 0278 5C020000 		.4byte	0x25c
 1317 027c 03       		.uleb128 0x3
 1318 027d AC010000 		.4byte	.LASF48
 1319 0281 09       		.byte	0x9
 1320 0282 E5       		.byte	0xe5
 1321 0283 87020000 		.4byte	0x287
 1322 0287 0A       		.uleb128 0xa
 1323 0288 04       		.byte	0x4
 1324 0289 0B       		.uleb128 0xb
 1325 028a EC030000 		.4byte	.LASF49
 1326 028e 24       		.byte	0x24
 1327 028f 09       		.byte	0x9
 1328 0290 0C01     		.2byte	0x10c
 1329 0292 05030000 		.4byte	0x305
 1330 0296 0C       		.uleb128 0xc
 1331 0297 723400   		.ascii	"r4\000"
 1332 029a 09       		.byte	0x9
 1333 029b 1F01     		.2byte	0x11f
 1334 029d 7C020000 		.4byte	0x27c
 1335 02a1 00       		.byte	0
 1336 02a2 0C       		.uleb128 0xc
 1337 02a3 723500   		.ascii	"r5\000"
 1338 02a6 09       		.byte	0x9
 1339 02a7 2001     		.2byte	0x120
 1340 02a9 7C020000 		.4byte	0x27c
 1341 02ad 04       		.byte	0x4
 1342 02ae 0C       		.uleb128 0xc
 1343 02af 723600   		.ascii	"r6\000"
 1344 02b2 09       		.byte	0x9
 1345 02b3 2101     		.2byte	0x121
 1346 02b5 7C020000 		.4byte	0x27c
 1347 02b9 08       		.byte	0x8
 1348 02ba 0C       		.uleb128 0xc
 1349 02bb 723700   		.ascii	"r7\000"
 1350 02be 09       		.byte	0x9
 1351 02bf 2201     		.2byte	0x122
 1352 02c1 7C020000 		.4byte	0x27c
 1353 02c5 0C       		.byte	0xc
 1354 02c6 0C       		.uleb128 0xc
 1355 02c7 723800   		.ascii	"r8\000"
 1356 02ca 09       		.byte	0x9
 1357 02cb 2301     		.2byte	0x123
 1358 02cd 7C020000 		.4byte	0x27c
 1359 02d1 10       		.byte	0x10
 1360 02d2 0C       		.uleb128 0xc
 1361 02d3 723900   		.ascii	"r9\000"
ARM GAS  /tmp/ccaP86JW.s 			page 25


 1362 02d6 09       		.byte	0x9
 1363 02d7 2401     		.2byte	0x124
 1364 02d9 7C020000 		.4byte	0x27c
 1365 02dd 14       		.byte	0x14
 1366 02de 0C       		.uleb128 0xc
 1367 02df 72313000 		.ascii	"r10\000"
 1368 02e3 09       		.byte	0x9
 1369 02e4 2501     		.2byte	0x125
 1370 02e6 7C020000 		.4byte	0x27c
 1371 02ea 18       		.byte	0x18
 1372 02eb 0C       		.uleb128 0xc
 1373 02ec 72313100 		.ascii	"r11\000"
 1374 02f0 09       		.byte	0x9
 1375 02f1 2601     		.2byte	0x126
 1376 02f3 7C020000 		.4byte	0x27c
 1377 02f7 1C       		.byte	0x1c
 1378 02f8 0C       		.uleb128 0xc
 1379 02f9 6C7200   		.ascii	"lr\000"
 1380 02fc 09       		.byte	0x9
 1381 02fd 2701     		.2byte	0x127
 1382 02ff 7C020000 		.4byte	0x27c
 1383 0303 20       		.byte	0x20
 1384 0304 00       		.byte	0
 1385 0305 0B       		.uleb128 0xb
 1386 0306 FC010000 		.4byte	.LASF50
 1387 030a 04       		.byte	0x4
 1388 030b 09       		.byte	0x9
 1389 030c 3101     		.2byte	0x131
 1390 030e 20030000 		.4byte	0x320
 1391 0312 0C       		.uleb128 0xc
 1392 0313 72313300 		.ascii	"r13\000"
 1393 0317 09       		.byte	0x9
 1394 0318 3201     		.2byte	0x132
 1395 031a 20030000 		.4byte	0x320
 1396 031e 00       		.byte	0
 1397 031f 00       		.byte	0
 1398 0320 09       		.uleb128 0x9
 1399 0321 04       		.byte	0x4
 1400 0322 89020000 		.4byte	0x289
 1401 0326 04       		.uleb128 0x4
 1402 0327 04       		.byte	0x4
 1403 0328 07       		.byte	0x7
 1404 0329 A2020000 		.4byte	.LASF51
 1405 032d 0D       		.uleb128 0xd
 1406 032e 17010000 		.4byte	0x117
 1407 0332 08       		.uleb128 0x8
 1408 0333 1C       		.byte	0x1c
 1409 0334 0A       		.byte	0xa
 1410 0335 5E       		.byte	0x5e
 1411 0336 83030000 		.4byte	0x383
 1412 033a 06       		.uleb128 0x6
 1413 033b 8F030000 		.4byte	.LASF52
 1414 033f 0A       		.byte	0xa
 1415 0340 5F       		.byte	0x5f
 1416 0341 51020000 		.4byte	0x251
 1417 0345 00       		.byte	0
 1418 0346 06       		.uleb128 0x6
ARM GAS  /tmp/ccaP86JW.s 			page 26


 1419 0347 52030000 		.4byte	.LASF53
 1420 034b 0A       		.byte	0xa
 1421 034c 60       		.byte	0x60
 1422 034d F6000000 		.4byte	0xf6
 1423 0351 08       		.byte	0x8
 1424 0352 06       		.uleb128 0x6
 1425 0353 BD020000 		.4byte	.LASF54
 1426 0357 0A       		.byte	0xa
 1427 0358 62       		.byte	0x62
 1428 0359 05030000 		.4byte	0x305
 1429 035d 0C       		.byte	0xc
 1430 035e 06       		.uleb128 0x6
 1431 035f 22020000 		.4byte	.LASF55
 1432 0363 0A       		.byte	0xa
 1433 0364 65       		.byte	0x65
 1434 0365 4B020000 		.4byte	0x24b
 1435 0369 10       		.byte	0x10
 1436 036a 06       		.uleb128 0x6
 1437 036b DF020000 		.4byte	.LASF56
 1438 036f 0A       		.byte	0xa
 1439 0370 66       		.byte	0x66
 1440 0371 4B020000 		.4byte	0x24b
 1441 0375 14       		.byte	0x14
 1442 0376 06       		.uleb128 0x6
 1443 0377 D5020000 		.4byte	.LASF57
 1444 037b 0A       		.byte	0xa
 1445 037c 69       		.byte	0x69
 1446 037d 4B020000 		.4byte	0x24b
 1447 0381 18       		.byte	0x18
 1448 0382 00       		.byte	0
 1449 0383 03       		.uleb128 0x3
 1450 0384 3D040000 		.4byte	.LASF58
 1451 0388 0A       		.byte	0xa
 1452 0389 6B       		.byte	0x6b
 1453 038a 32030000 		.4byte	0x332
 1454 038e 05       		.uleb128 0x5
 1455 038f 7E020000 		.4byte	.LASF59
 1456 0393 10       		.byte	0x10
 1457 0394 0B       		.byte	0xb
 1458 0395 2C       		.byte	0x2c
 1459 0396 BF030000 		.4byte	0x3bf
 1460 039a 06       		.uleb128 0x6
 1461 039b 55010000 		.4byte	.LASF60
 1462 039f 0B       		.byte	0xb
 1463 03a0 2D       		.byte	0x2d
 1464 03a1 51020000 		.4byte	0x251
 1465 03a5 00       		.byte	0
 1466 03a6 06       		.uleb128 0x6
 1467 03a7 88040000 		.4byte	.LASF61
 1468 03ab 0B       		.byte	0xb
 1469 03ac 2F       		.byte	0x2f
 1470 03ad 4B020000 		.4byte	0x24b
 1471 03b1 08       		.byte	0x8
 1472 03b2 06       		.uleb128 0x6
 1473 03b3 B4030000 		.4byte	.LASF62
 1474 03b7 0B       		.byte	0xb
 1475 03b8 31       		.byte	0x31
ARM GAS  /tmp/ccaP86JW.s 			page 27


 1476 03b9 BF030000 		.4byte	0x3bf
 1477 03bd 0C       		.byte	0xc
 1478 03be 00       		.byte	0
 1479 03bf 09       		.uleb128 0x9
 1480 03c0 04       		.byte	0x4
 1481 03c1 8E030000 		.4byte	0x38e
 1482 03c5 03       		.uleb128 0x3
 1483 03c6 7E020000 		.4byte	.LASF59
 1484 03ca 0B       		.byte	0xb
 1485 03cb 33       		.byte	0x33
 1486 03cc 8E030000 		.4byte	0x38e
 1487 03d0 0E       		.uleb128 0xe
 1488 03d1 04       		.byte	0x4
 1489 03d2 08       		.byte	0x8
 1490 03d3 96       		.byte	0x96
 1491 03d4 05040000 		.4byte	0x405
 1492 03d8 0F       		.uleb128 0xf
 1493 03d9 28000000 		.4byte	.LASF63
 1494 03dd 08       		.byte	0x8
 1495 03de 9D       		.byte	0x9d
 1496 03df 01010000 		.4byte	0x101
 1497 03e3 0F       		.uleb128 0xf
 1498 03e4 12010000 		.4byte	.LASF64
 1499 03e8 08       		.byte	0x8
 1500 03e9 A4       		.byte	0xa4
 1501 03ea 01010000 		.4byte	0x101
 1502 03ee 0F       		.uleb128 0xf
 1503 03ef 5E040000 		.4byte	.LASF65
 1504 03f3 08       		.byte	0x8
 1505 03f4 AB       		.byte	0xab
 1506 03f5 87020000 		.4byte	0x287
 1507 03f9 0F       		.uleb128 0xf
 1508 03fa 59030000 		.4byte	.LASF66
 1509 03fe 08       		.byte	0x8
 1510 03ff B2       		.byte	0xb2
 1511 0400 0C010000 		.4byte	0x10c
 1512 0404 00       		.byte	0
 1513 0405 09       		.uleb128 0x9
 1514 0406 04       		.byte	0x4
 1515 0407 0B040000 		.4byte	0x40b
 1516 040b 10       		.uleb128 0x10
 1517 040c 10040000 		.4byte	0x410
 1518 0410 04       		.uleb128 0x4
 1519 0411 01       		.byte	0x1
 1520 0412 08       		.byte	0x8
 1521 0413 A3030000 		.4byte	.LASF67
 1522 0417 09       		.uleb128 0x9
 1523 0418 04       		.byte	0x4
 1524 0419 C5030000 		.4byte	0x3c5
 1525 041d 03       		.uleb128 0x3
 1526 041e 84020000 		.4byte	.LASF68
 1527 0422 0C       		.byte	0xc
 1528 0423 37       		.byte	0x37
 1529 0424 28040000 		.4byte	0x428
 1530 0428 05       		.uleb128 0x5
 1531 0429 84020000 		.4byte	.LASF68
 1532 042d 24       		.byte	0x24
ARM GAS  /tmp/ccaP86JW.s 			page 28


 1533 042e 0C       		.byte	0xc
 1534 042f 45       		.byte	0x45
 1535 0430 95040000 		.4byte	0x495
 1536 0434 06       		.uleb128 0x6
 1537 0435 22010000 		.4byte	.LASF69
 1538 0439 0C       		.byte	0xc
 1539 043a 46       		.byte	0x46
 1540 043b 51020000 		.4byte	0x251
 1541 043f 00       		.byte	0
 1542 0440 06       		.uleb128 0x6
 1543 0441 AB020000 		.4byte	.LASF70
 1544 0445 0C       		.byte	0xc
 1545 0446 47       		.byte	0x47
 1546 0447 2C000000 		.4byte	0x2c
 1547 044b 08       		.byte	0x8
 1548 044c 06       		.uleb128 0x6
 1549 044d 88010000 		.4byte	.LASF71
 1550 0451 0C       		.byte	0xc
 1551 0452 48       		.byte	0x48
 1552 0453 B7040000 		.4byte	0x4b7
 1553 0457 0C       		.byte	0xc
 1554 0458 06       		.uleb128 0x6
 1555 0459 30040000 		.4byte	.LASF72
 1556 045d 0C       		.byte	0xc
 1557 045e 49       		.byte	0x49
 1558 045f B7040000 		.4byte	0x4b7
 1559 0463 10       		.byte	0x10
 1560 0464 06       		.uleb128 0x6
 1561 0465 91010000 		.4byte	.LASF73
 1562 0469 0C       		.byte	0xc
 1563 046a 4B       		.byte	0x4b
 1564 046b B7040000 		.4byte	0x4b7
 1565 046f 14       		.byte	0x14
 1566 0470 06       		.uleb128 0x6
 1567 0471 08030000 		.4byte	.LASF74
 1568 0475 0C       		.byte	0xc
 1569 0476 4C       		.byte	0x4c
 1570 0477 B7040000 		.4byte	0x4b7
 1571 047b 18       		.byte	0x18
 1572 047c 06       		.uleb128 0x6
 1573 047d 47040000 		.4byte	.LASF75
 1574 0481 0C       		.byte	0xc
 1575 0482 4D       		.byte	0x4d
 1576 0483 95040000 		.4byte	0x495
 1577 0487 1C       		.byte	0x1c
 1578 0488 06       		.uleb128 0x6
 1579 0489 81040000 		.4byte	.LASF76
 1580 048d 0C       		.byte	0xc
 1581 048e 4E       		.byte	0x4e
 1582 048f 87020000 		.4byte	0x287
 1583 0493 20       		.byte	0x20
 1584 0494 00       		.byte	0
 1585 0495 03       		.uleb128 0x3
 1586 0496 EF020000 		.4byte	.LASF77
 1587 049a 0C       		.byte	0xc
 1588 049b 3A       		.byte	0x3a
 1589 049c A0040000 		.4byte	0x4a0
ARM GAS  /tmp/ccaP86JW.s 			page 29


 1590 04a0 09       		.uleb128 0x9
 1591 04a1 04       		.byte	0x4
 1592 04a2 A6040000 		.4byte	0x4a6
 1593 04a6 11       		.uleb128 0x11
 1594 04a7 B1040000 		.4byte	0x4b1
 1595 04ab 12       		.uleb128 0x12
 1596 04ac B1040000 		.4byte	0x4b1
 1597 04b0 00       		.byte	0
 1598 04b1 09       		.uleb128 0x9
 1599 04b2 04       		.byte	0x4
 1600 04b3 1D040000 		.4byte	0x41d
 1601 04b7 09       		.uleb128 0x9
 1602 04b8 04       		.byte	0x4
 1603 04b9 97000000 		.4byte	0x97
 1604 04bd 03       		.uleb128 0x3
 1605 04be 73020000 		.4byte	.LASF78
 1606 04c2 0C       		.byte	0xc
 1607 04c3 82       		.byte	0x82
 1608 04c4 1D040000 		.4byte	0x41d
 1609 04c8 03       		.uleb128 0x3
 1610 04c9 38000000 		.4byte	.LASF79
 1611 04cd 0C       		.byte	0xc
 1612 04ce F5       		.byte	0xf5
 1613 04cf 1D040000 		.4byte	0x41d
 1614 04d3 09       		.uleb128 0x9
 1615 04d4 04       		.byte	0x4
 1616 04d5 D9040000 		.4byte	0x4d9
 1617 04d9 10       		.uleb128 0x10
 1618 04da 97000000 		.4byte	0x97
 1619 04de 13       		.uleb128 0x13
 1620 04df 0F000000 		.4byte	.LASF98
 1621 04e3 02       		.byte	0x2
 1622 04e4 34       		.byte	0x34
 1623 04e5 03       		.byte	0x3
 1624 04e6 00050000 		.4byte	0x500
 1625 04ea 14       		.uleb128 0x14
 1626 04eb 747000   		.ascii	"tp\000"
 1627 04ee 02       		.byte	0x2
 1628 04ef 34       		.byte	0x34
 1629 04f0 4B020000 		.4byte	0x24b
 1630 04f4 14       		.uleb128 0x14
 1631 04f5 74717000 		.ascii	"tqp\000"
 1632 04f9 02       		.byte	0x2
 1633 04fa 34       		.byte	0x34
 1634 04fb 00050000 		.4byte	0x500
 1635 04ff 00       		.byte	0
 1636 0500 09       		.uleb128 0x9
 1637 0501 04       		.byte	0x4
 1638 0502 51020000 		.4byte	0x251
 1639 0506 15       		.uleb128 0x15
 1640 0507 A8030000 		.4byte	.LASF99
 1641 050b 02       		.byte	0x2
 1642 050c 3B       		.byte	0x3b
 1643 050d 4B020000 		.4byte	0x24b
 1644 0511 03       		.byte	0x3
 1645 0512 2C050000 		.4byte	0x52c
 1646 0516 14       		.uleb128 0x14
ARM GAS  /tmp/ccaP86JW.s 			page 30


 1647 0517 74717000 		.ascii	"tqp\000"
 1648 051b 02       		.byte	0x2
 1649 051c 3B       		.byte	0x3b
 1650 051d 00050000 		.4byte	0x500
 1651 0521 16       		.uleb128 0x16
 1652 0522 747000   		.ascii	"tp\000"
 1653 0525 02       		.byte	0x2
 1654 0526 3C       		.byte	0x3c
 1655 0527 4B020000 		.4byte	0x24b
 1656 052b 00       		.byte	0
 1657 052c 17       		.uleb128 0x17
 1658 052d 67010000 		.4byte	.LASF100
 1659 0531 01       		.byte	0x1
 1660 0532 46       		.byte	0x46
 1661 0533 01010000 		.4byte	0x101
 1662 0537 00000000 		.4byte	.LFB7
 1663 053b 30000000 		.4byte	.LFE7-.LFB7
 1664 053f 01       		.uleb128 0x1
 1665 0540 9C       		.byte	0x9c
 1666 0541 9F050000 		.4byte	0x59f
 1667 0545 18       		.uleb128 0x18
 1668 0546 717000   		.ascii	"qp\000"
 1669 0549 01       		.byte	0x1
 1670 054a 46       		.byte	0x46
 1671 054b B1040000 		.4byte	0x4b1
 1672 054f 00000000 		.4byte	.LLST0
 1673 0553 19       		.uleb128 0x19
 1674 0554 D0020000 		.4byte	.LASF80
 1675 0558 01       		.byte	0x1
 1676 0559 46       		.byte	0x46
 1677 055a 17010000 		.4byte	0x117
 1678 055e 42000000 		.4byte	.LLST1
 1679 0562 1A       		.uleb128 0x1a
 1680 0563 DE040000 		.4byte	0x4de
 1681 0567 14000000 		.4byte	.LBB12
 1682 056b 0A000000 		.4byte	.LBE12-.LBB12
 1683 056f 01       		.byte	0x1
 1684 0570 4B       		.byte	0x4b
 1685 0571 88050000 		.4byte	0x588
 1686 0575 1B       		.uleb128 0x1b
 1687 0576 F4040000 		.4byte	0x4f4
 1688 057a 6E000000 		.4byte	.LLST2
 1689 057e 1B       		.uleb128 0x1b
 1690 057f EA040000 		.4byte	0x4ea
 1691 0583 8F000000 		.4byte	.LLST3
 1692 0587 00       		.byte	0
 1693 0588 1C       		.uleb128 0x1c
 1694 0589 26000000 		.4byte	.LVL3
 1695 058d 970B0000 		.4byte	0xb97
 1696 0591 1D       		.uleb128 0x1d
 1697 0592 01       		.uleb128 0x1
 1698 0593 51       		.byte	0x51
 1699 0594 03       		.uleb128 0x3
 1700 0595 F3       		.byte	0xf3
 1701 0596 01       		.uleb128 0x1
 1702 0597 51       		.byte	0x51
 1703 0598 1D       		.uleb128 0x1d
ARM GAS  /tmp/ccaP86JW.s 			page 31


 1704 0599 01       		.uleb128 0x1
 1705 059a 50       		.byte	0x50
 1706 059b 01       		.uleb128 0x1
 1707 059c 3D       		.byte	0x3d
 1708 059d 00       		.byte	0
 1709 059e 00       		.byte	0
 1710 059f 1E       		.uleb128 0x1e
 1711 05a0 2F000000 		.4byte	.LASF84
 1712 05a4 01       		.byte	0x1
 1713 05a5 5F       		.byte	0x5f
 1714 05a6 00000000 		.4byte	.LFB8
 1715 05aa 1E000000 		.4byte	.LFE8-.LFB8
 1716 05ae 01       		.uleb128 0x1
 1717 05af 9C       		.byte	0x9c
 1718 05b0 F9050000 		.4byte	0x5f9
 1719 05b4 1F       		.uleb128 0x1f
 1720 05b5 69717000 		.ascii	"iqp\000"
 1721 05b9 01       		.byte	0x1
 1722 05ba 5F       		.byte	0x5f
 1723 05bb F9050000 		.4byte	0x5f9
 1724 05bf 01       		.uleb128 0x1
 1725 05c0 50       		.byte	0x50
 1726 05c1 1F       		.uleb128 0x1f
 1727 05c2 627000   		.ascii	"bp\000"
 1728 05c5 01       		.byte	0x1
 1729 05c6 5F       		.byte	0x5f
 1730 05c7 B7040000 		.4byte	0x4b7
 1731 05cb 01       		.uleb128 0x1
 1732 05cc 51       		.byte	0x51
 1733 05cd 19       		.uleb128 0x19
 1734 05ce 04020000 		.4byte	.LASF81
 1735 05d2 01       		.byte	0x1
 1736 05d3 5F       		.byte	0x5f
 1737 05d4 2C000000 		.4byte	0x2c
 1738 05d8 A2000000 		.4byte	.LLST4
 1739 05dc 20       		.uleb128 0x20
 1740 05dd 67030000 		.4byte	.LASF82
 1741 05e1 01       		.byte	0x1
 1742 05e2 5F       		.byte	0x5f
 1743 05e3 95040000 		.4byte	0x495
 1744 05e7 01       		.uleb128 0x1
 1745 05e8 53       		.byte	0x53
 1746 05e9 19       		.uleb128 0x19
 1747 05ea B5010000 		.4byte	.LASF83
 1748 05ee 01       		.byte	0x1
 1749 05ef 60       		.byte	0x60
 1750 05f0 87020000 		.4byte	0x287
 1751 05f4 C3000000 		.4byte	.LLST5
 1752 05f8 00       		.byte	0
 1753 05f9 09       		.uleb128 0x9
 1754 05fa 04       		.byte	0x4
 1755 05fb BD040000 		.4byte	0x4bd
 1756 05ff 1E       		.uleb128 0x1e
 1757 0600 DF010000 		.4byte	.LASF85
 1758 0604 01       		.byte	0x1
 1759 0605 75       		.byte	0x75
 1760 0606 00000000 		.4byte	.LFB9
ARM GAS  /tmp/ccaP86JW.s 			page 32


 1761 060a 2C000000 		.4byte	.LFE9-.LFB9
 1762 060e 01       		.uleb128 0x1
 1763 060f 9C       		.byte	0x9c
 1764 0610 5D060000 		.4byte	0x65d
 1765 0614 18       		.uleb128 0x18
 1766 0615 69717000 		.ascii	"iqp\000"
 1767 0619 01       		.byte	0x1
 1768 061a 75       		.byte	0x75
 1769 061b F9050000 		.4byte	0x5f9
 1770 061f E3000000 		.4byte	.LLST6
 1771 0623 1A       		.uleb128 0x1a
 1772 0624 06050000 		.4byte	0x506
 1773 0628 18000000 		.4byte	.LBB14
 1774 062c 06000000 		.4byte	.LBE14-.LBB14
 1775 0630 01       		.byte	0x1
 1776 0631 7C       		.byte	0x7c
 1777 0632 53060000 		.4byte	0x653
 1778 0636 1B       		.uleb128 0x1b
 1779 0637 16050000 		.4byte	0x516
 1780 063b 01010000 		.4byte	.LLST7
 1781 063f 21       		.uleb128 0x21
 1782 0640 18000000 		.4byte	.LBB15
 1783 0644 06000000 		.4byte	.LBE15-.LBB15
 1784 0648 22       		.uleb128 0x22
 1785 0649 21050000 		.4byte	0x521
 1786 064d 14010000 		.4byte	.LLST8
 1787 0651 00       		.byte	0
 1788 0652 00       		.byte	0
 1789 0653 23       		.uleb128 0x23
 1790 0654 22000000 		.4byte	.LVL11
 1791 0658 B10B0000 		.4byte	0xbb1
 1792 065c 00       		.byte	0
 1793 065d 24       		.uleb128 0x24
 1794 065e C9010000 		.4byte	.LASF86
 1795 0662 01       		.byte	0x1
 1796 0663 8C       		.byte	0x8c
 1797 0664 01010000 		.4byte	0x101
 1798 0668 00000000 		.4byte	.LFB10
 1799 066c 50000000 		.4byte	.LFE10-.LFB10
 1800 0670 01       		.uleb128 0x1
 1801 0671 9C       		.byte	0x9c
 1802 0672 CC060000 		.4byte	0x6cc
 1803 0676 18       		.uleb128 0x18
 1804 0677 69717000 		.ascii	"iqp\000"
 1805 067b 01       		.byte	0x1
 1806 067c 8C       		.byte	0x8c
 1807 067d F9050000 		.4byte	0x5f9
 1808 0681 27010000 		.4byte	.LLST9
 1809 0685 18       		.uleb128 0x18
 1810 0686 6200     		.ascii	"b\000"
 1811 0688 01       		.byte	0x1
 1812 0689 8C       		.byte	0x8c
 1813 068a 97000000 		.4byte	0x97
 1814 068e 5E010000 		.4byte	.LLST10
 1815 0692 1A       		.uleb128 0x1a
 1816 0693 06050000 		.4byte	0x506
 1817 0697 26000000 		.4byte	.LBB16
ARM GAS  /tmp/ccaP86JW.s 			page 33


 1818 069b 06000000 		.4byte	.LBE16-.LBB16
 1819 069f 01       		.byte	0x1
 1820 06a0 99       		.byte	0x99
 1821 06a1 C2060000 		.4byte	0x6c2
 1822 06a5 1B       		.uleb128 0x1b
 1823 06a6 16050000 		.4byte	0x516
 1824 06aa BC010000 		.4byte	.LLST11
 1825 06ae 21       		.uleb128 0x21
 1826 06af 26000000 		.4byte	.LBB17
 1827 06b3 06000000 		.4byte	.LBE17-.LBB17
 1828 06b7 22       		.uleb128 0x22
 1829 06b8 21050000 		.4byte	0x521
 1830 06bc DD010000 		.4byte	.LLST12
 1831 06c0 00       		.byte	0
 1832 06c1 00       		.byte	0
 1833 06c2 23       		.uleb128 0x23
 1834 06c3 30000000 		.4byte	.LVL19
 1835 06c7 B10B0000 		.4byte	0xbb1
 1836 06cb 00       		.byte	0
 1837 06cc 24       		.uleb128 0x24
 1838 06cd A0040000 		.4byte	.LASF87
 1839 06d1 01       		.byte	0x1
 1840 06d2 B2       		.byte	0xb2
 1841 06d3 01010000 		.4byte	0x101
 1842 06d7 00000000 		.4byte	.LFB11
 1843 06db 50000000 		.4byte	.LFE11-.LFB11
 1844 06df 01       		.uleb128 0x1
 1845 06e0 9C       		.byte	0x9c
 1846 06e1 8C070000 		.4byte	0x78c
 1847 06e5 18       		.uleb128 0x18
 1848 06e6 69717000 		.ascii	"iqp\000"
 1849 06ea 01       		.byte	0x1
 1850 06eb B2       		.byte	0xb2
 1851 06ec F9050000 		.4byte	0x5f9
 1852 06f0 F0010000 		.4byte	.LLST13
 1853 06f4 19       		.uleb128 0x19
 1854 06f5 D0020000 		.4byte	.LASF80
 1855 06f9 01       		.byte	0x1
 1856 06fa B2       		.byte	0xb2
 1857 06fb 17010000 		.4byte	0x117
 1858 06ff 3A020000 		.4byte	.LLST14
 1859 0703 25       		.uleb128 0x25
 1860 0704 6200     		.ascii	"b\000"
 1861 0706 01       		.byte	0x1
 1862 0707 B3       		.byte	0xb3
 1863 0708 97000000 		.4byte	0x97
 1864 070c 84020000 		.4byte	.LLST15
 1865 0710 26       		.uleb128 0x26
 1866 0711 00000000 		.4byte	.Ldebug_ranges0+0
 1867 0715 27070000 		.4byte	0x727
 1868 0719 27       		.uleb128 0x27
 1869 071a 746D7000 		.ascii	"tmp\000"
 1870 071e 01       		.byte	0x1
 1871 071f B5       		.byte	0xb5
 1872 0720 AD000000 		.4byte	0xad
 1873 0724 01       		.uleb128 0x1
 1874 0725 53       		.byte	0x53
ARM GAS  /tmp/ccaP86JW.s 			page 34


 1875 0726 00       		.byte	0
 1876 0727 26       		.uleb128 0x26
 1877 0728 18000000 		.4byte	.Ldebug_ranges0+0x18
 1878 072c 64070000 		.4byte	0x764
 1879 0730 25       		.uleb128 0x25
 1880 0731 6D736700 		.ascii	"msg\000"
 1881 0735 01       		.byte	0x1
 1882 0736 BA       		.byte	0xba
 1883 0737 01010000 		.4byte	0x101
 1884 073b A3020000 		.4byte	.LLST16
 1885 073f 28       		.uleb128 0x28
 1886 0740 48000000 		.4byte	.LBB21
 1887 0744 06000000 		.4byte	.LBE21-.LBB21
 1888 0748 5A070000 		.4byte	0x75a
 1889 074c 27       		.uleb128 0x27
 1890 074d 746D7000 		.ascii	"tmp\000"
 1891 0751 01       		.byte	0x1
 1892 0752 BC       		.byte	0xbc
 1893 0753 AD000000 		.4byte	0xad
 1894 0757 01       		.uleb128 0x1
 1895 0758 53       		.byte	0x53
 1896 0759 00       		.byte	0
 1897 075a 23       		.uleb128 0x23
 1898 075b 18000000 		.4byte	.LVL26
 1899 075f 2C050000 		.4byte	0x52c
 1900 0763 00       		.byte	0
 1901 0764 28       		.uleb128 0x28
 1902 0765 40000000 		.4byte	.LBB23
 1903 0769 06000000 		.4byte	.LBE23-.LBB23
 1904 076d 7F070000 		.4byte	0x77f
 1905 0771 27       		.uleb128 0x27
 1906 0772 746D7000 		.ascii	"tmp\000"
 1907 0776 01       		.byte	0x1
 1908 0777 C6       		.byte	0xc6
 1909 0778 AD000000 		.4byte	0xad
 1910 077c 01       		.uleb128 0x1
 1911 077d 53       		.byte	0x53
 1912 077e 00       		.byte	0
 1913 077f 29       		.uleb128 0x29
 1914 0780 12000000 		.4byte	.LVL24
 1915 0784 1D       		.uleb128 0x1d
 1916 0785 01       		.uleb128 0x1
 1917 0786 50       		.byte	0x50
 1918 0787 02       		.uleb128 0x2
 1919 0788 74       		.byte	0x74
 1920 0789 00       		.sleb128 0
 1921 078a 00       		.byte	0
 1922 078b 00       		.byte	0
 1923 078c 24       		.uleb128 0x24
 1924 078d 4E000000 		.4byte	.LASF88
 1925 0791 01       		.byte	0x1
 1926 0792 E2       		.byte	0xe2
 1927 0793 2C000000 		.4byte	0x2c
 1928 0797 00000000 		.4byte	.LFB12
 1929 079b 78000000 		.4byte	.LFE12-.LFB12
 1930 079f 01       		.uleb128 0x1
 1931 07a0 9C       		.byte	0x9c
ARM GAS  /tmp/ccaP86JW.s 			page 35


 1932 07a1 7E080000 		.4byte	0x87e
 1933 07a5 18       		.uleb128 0x18
 1934 07a6 69717000 		.ascii	"iqp\000"
 1935 07aa 01       		.byte	0x1
 1936 07ab E2       		.byte	0xe2
 1937 07ac F9050000 		.4byte	0x5f9
 1938 07b0 C1020000 		.4byte	.LLST17
 1939 07b4 18       		.uleb128 0x18
 1940 07b5 627000   		.ascii	"bp\000"
 1941 07b8 01       		.byte	0x1
 1942 07b9 E2       		.byte	0xe2
 1943 07ba B7040000 		.4byte	0x4b7
 1944 07be 0B030000 		.4byte	.LLST18
 1945 07c2 18       		.uleb128 0x18
 1946 07c3 6E00     		.ascii	"n\000"
 1947 07c5 01       		.byte	0x1
 1948 07c6 E3       		.byte	0xe3
 1949 07c7 2C000000 		.4byte	0x2c
 1950 07cb 64030000 		.4byte	.LLST19
 1951 07cf 19       		.uleb128 0x19
 1952 07d0 D0020000 		.4byte	.LASF80
 1953 07d4 01       		.byte	0x1
 1954 07d5 E3       		.byte	0xe3
 1955 07d6 17010000 		.4byte	0x117
 1956 07da 88030000 		.4byte	.LLST20
 1957 07de 27       		.uleb128 0x27
 1958 07df 6E667900 		.ascii	"nfy\000"
 1959 07e3 01       		.byte	0x1
 1960 07e4 E4       		.byte	0xe4
 1961 07e5 95040000 		.4byte	0x495
 1962 07e9 01       		.uleb128 0x1
 1963 07ea 58       		.byte	0x58
 1964 07eb 25       		.uleb128 0x25
 1965 07ec 7200     		.ascii	"r\000"
 1966 07ee 01       		.byte	0x1
 1967 07ef E5       		.byte	0xe5
 1968 07f0 2C000000 		.4byte	0x2c
 1969 07f4 D2030000 		.4byte	.LLST21
 1970 07f8 28       		.uleb128 0x28
 1971 07f9 0C000000 		.4byte	.LBB25
 1972 07fd 06000000 		.4byte	.LBE25-.LBB25
 1973 0801 13080000 		.4byte	0x813
 1974 0805 27       		.uleb128 0x27
 1975 0806 746D7000 		.ascii	"tmp\000"
 1976 080a 01       		.byte	0x1
 1977 080b E9       		.byte	0xe9
 1978 080c AD000000 		.4byte	0xad
 1979 0810 01       		.uleb128 0x1
 1980 0811 53       		.byte	0x53
 1981 0812 00       		.byte	0
 1982 0813 28       		.uleb128 0x28
 1983 0814 54000000 		.4byte	.LBB26
 1984 0818 06000000 		.4byte	.LBE26-.LBB26
 1985 081c 2E080000 		.4byte	0x82e
 1986 0820 27       		.uleb128 0x27
 1987 0821 746D7000 		.ascii	"tmp\000"
 1988 0825 01       		.byte	0x1
ARM GAS  /tmp/ccaP86JW.s 			page 36


 1989 0826 FA       		.byte	0xfa
 1990 0827 AD000000 		.4byte	0xad
 1991 082b 01       		.uleb128 0x1
 1992 082c 53       		.byte	0x53
 1993 082d 00       		.byte	0
 1994 082e 28       		.uleb128 0x28
 1995 082f 62000000 		.4byte	.LBB27
 1996 0833 08000000 		.4byte	.LBE27-.LBB27
 1997 0837 49080000 		.4byte	0x849
 1998 083b 27       		.uleb128 0x27
 1999 083c 746D7000 		.ascii	"tmp\000"
 2000 0840 01       		.byte	0x1
 2001 0841 FF       		.byte	0xff
 2002 0842 AD000000 		.4byte	0xad
 2003 0846 01       		.uleb128 0x1
 2004 0847 53       		.byte	0x53
 2005 0848 00       		.byte	0
 2006 0849 28       		.uleb128 0x28
 2007 084a 6C000000 		.4byte	.LBB28
 2008 084e 06000000 		.4byte	.LBE28-.LBB28
 2009 0852 64080000 		.4byte	0x864
 2010 0856 27       		.uleb128 0x27
 2011 0857 746D7000 		.ascii	"tmp\000"
 2012 085b 01       		.byte	0x1
 2013 085c F0       		.byte	0xf0
 2014 085d AD000000 		.4byte	0xad
 2015 0861 01       		.uleb128 0x1
 2016 0862 53       		.byte	0x53
 2017 0863 00       		.byte	0
 2018 0864 2A       		.uleb128 0x2a
 2019 0865 26000000 		.4byte	.LVL38
 2020 0869 74080000 		.4byte	0x874
 2021 086d 1D       		.uleb128 0x1d
 2022 086e 01       		.uleb128 0x1
 2023 086f 50       		.byte	0x50
 2024 0870 02       		.uleb128 0x2
 2025 0871 74       		.byte	0x74
 2026 0872 00       		.sleb128 0
 2027 0873 00       		.byte	0
 2028 0874 23       		.uleb128 0x23
 2029 0875 2C000000 		.4byte	.LVL40
 2030 0879 2C050000 		.4byte	0x52c
 2031 087d 00       		.byte	0
 2032 087e 2B       		.uleb128 0x2b
 2033 087f 00000000 		.4byte	.LASF89
 2034 0883 01       		.byte	0x1
 2035 0884 1301     		.2byte	0x113
 2036 0886 00000000 		.4byte	.LFB13
 2037 088a 1C000000 		.4byte	.LFE13-.LFB13
 2038 088e 01       		.uleb128 0x1
 2039 088f 9C       		.byte	0x9c
 2040 0890 DC080000 		.4byte	0x8dc
 2041 0894 2C       		.uleb128 0x2c
 2042 0895 6F717000 		.ascii	"oqp\000"
 2043 0899 01       		.byte	0x1
 2044 089a 1301     		.2byte	0x113
 2045 089c DC080000 		.4byte	0x8dc
ARM GAS  /tmp/ccaP86JW.s 			page 37


 2046 08a0 01       		.uleb128 0x1
 2047 08a1 50       		.byte	0x50
 2048 08a2 2C       		.uleb128 0x2c
 2049 08a3 627000   		.ascii	"bp\000"
 2050 08a6 01       		.byte	0x1
 2051 08a7 1301     		.2byte	0x113
 2052 08a9 B7040000 		.4byte	0x4b7
 2053 08ad 01       		.uleb128 0x1
 2054 08ae 51       		.byte	0x51
 2055 08af 2D       		.uleb128 0x2d
 2056 08b0 04020000 		.4byte	.LASF81
 2057 08b4 01       		.byte	0x1
 2058 08b5 1301     		.2byte	0x113
 2059 08b7 2C000000 		.4byte	0x2c
 2060 08bb 01       		.uleb128 0x1
 2061 08bc 52       		.byte	0x52
 2062 08bd 2D       		.uleb128 0x2d
 2063 08be 1C000000 		.4byte	.LASF90
 2064 08c2 01       		.byte	0x1
 2065 08c3 1301     		.2byte	0x113
 2066 08c5 95040000 		.4byte	0x495
 2067 08c9 01       		.uleb128 0x1
 2068 08ca 53       		.byte	0x53
 2069 08cb 2E       		.uleb128 0x2e
 2070 08cc B5010000 		.4byte	.LASF83
 2071 08d0 01       		.byte	0x1
 2072 08d1 1401     		.2byte	0x114
 2073 08d3 87020000 		.4byte	0x287
 2074 08d7 F1030000 		.4byte	.LLST22
 2075 08db 00       		.byte	0
 2076 08dc 09       		.uleb128 0x9
 2077 08dd 04       		.byte	0x4
 2078 08de C8040000 		.4byte	0x4c8
 2079 08e2 2B       		.uleb128 0x2b
 2080 08e3 DA030000 		.4byte	.LASF91
 2081 08e7 01       		.byte	0x1
 2082 08e8 2901     		.2byte	0x129
 2083 08ea 00000000 		.4byte	.LFB14
 2084 08ee 2E000000 		.4byte	.LFE14-.LFB14
 2085 08f2 01       		.uleb128 0x1
 2086 08f3 9C       		.byte	0x9c
 2087 08f4 43090000 		.4byte	0x943
 2088 08f8 2F       		.uleb128 0x2f
 2089 08f9 6F717000 		.ascii	"oqp\000"
 2090 08fd 01       		.byte	0x1
 2091 08fe 2901     		.2byte	0x129
 2092 0900 DC080000 		.4byte	0x8dc
 2093 0904 11040000 		.4byte	.LLST23
 2094 0908 30       		.uleb128 0x30
 2095 0909 06050000 		.4byte	0x506
 2096 090d 1A000000 		.4byte	.LBB29
 2097 0911 06000000 		.4byte	.LBE29-.LBB29
 2098 0915 01       		.byte	0x1
 2099 0916 3001     		.2byte	0x130
 2100 0918 39090000 		.4byte	0x939
 2101 091c 1B       		.uleb128 0x1b
 2102 091d 16050000 		.4byte	0x516
ARM GAS  /tmp/ccaP86JW.s 			page 38


 2103 0921 2F040000 		.4byte	.LLST24
 2104 0925 21       		.uleb128 0x21
 2105 0926 1A000000 		.4byte	.LBB30
 2106 092a 06000000 		.4byte	.LBE30-.LBB30
 2107 092e 22       		.uleb128 0x22
 2108 092f 21050000 		.4byte	0x521
 2109 0933 42040000 		.4byte	.LLST25
 2110 0937 00       		.byte	0
 2111 0938 00       		.byte	0
 2112 0939 23       		.uleb128 0x23
 2113 093a 24000000 		.4byte	.LVL51
 2114 093e B10B0000 		.4byte	0xbb1
 2115 0942 00       		.byte	0
 2116 0943 31       		.uleb128 0x31
 2117 0944 BA010000 		.4byte	.LASF92
 2118 0948 01       		.byte	0x1
 2119 0949 4901     		.2byte	0x149
 2120 094b 01010000 		.4byte	0x101
 2121 094f 00000000 		.4byte	.LFB15
 2122 0953 54000000 		.4byte	.LFE15-.LFB15
 2123 0957 01       		.uleb128 0x1
 2124 0958 9C       		.byte	0x9c
 2125 0959 0F0A0000 		.4byte	0xa0f
 2126 095d 2F       		.uleb128 0x2f
 2127 095e 6F717000 		.ascii	"oqp\000"
 2128 0962 01       		.byte	0x1
 2129 0963 4901     		.2byte	0x149
 2130 0965 DC080000 		.4byte	0x8dc
 2131 0969 55040000 		.4byte	.LLST26
 2132 096d 2F       		.uleb128 0x2f
 2133 096e 6200     		.ascii	"b\000"
 2134 0970 01       		.byte	0x1
 2135 0971 4901     		.2byte	0x149
 2136 0973 97000000 		.4byte	0x97
 2137 0977 89040000 		.4byte	.LLST27
 2138 097b 2E       		.uleb128 0x2e
 2139 097c D0020000 		.4byte	.LASF80
 2140 0980 01       		.byte	0x1
 2141 0981 4901     		.2byte	0x149
 2142 0983 17010000 		.4byte	0x117
 2143 0987 AA040000 		.4byte	.LLST28
 2144 098b 28       		.uleb128 0x28
 2145 098c 08000000 		.4byte	.LBB31
 2146 0990 06000000 		.4byte	.LBE31-.LBB31
 2147 0994 A7090000 		.4byte	0x9a7
 2148 0998 32       		.uleb128 0x32
 2149 0999 746D7000 		.ascii	"tmp\000"
 2150 099d 01       		.byte	0x1
 2151 099e 4B01     		.2byte	0x14b
 2152 09a0 AD000000 		.4byte	0xad
 2153 09a4 01       		.uleb128 0x1
 2154 09a5 53       		.byte	0x53
 2155 09a6 00       		.byte	0
 2156 09a7 26       		.uleb128 0x26
 2157 09a8 38000000 		.4byte	.Ldebug_ranges0+0x38
 2158 09ac E6090000 		.4byte	0x9e6
 2159 09b0 33       		.uleb128 0x33
ARM GAS  /tmp/ccaP86JW.s 			page 39


 2160 09b1 6D736700 		.ascii	"msg\000"
 2161 09b5 01       		.byte	0x1
 2162 09b6 4D01     		.2byte	0x14d
 2163 09b8 01010000 		.4byte	0x101
 2164 09bc E9040000 		.4byte	.LLST29
 2165 09c0 28       		.uleb128 0x28
 2166 09c1 4C000000 		.4byte	.LBB33
 2167 09c5 06000000 		.4byte	.LBE33-.LBB33
 2168 09c9 DC090000 		.4byte	0x9dc
 2169 09cd 32       		.uleb128 0x32
 2170 09ce 746D7000 		.ascii	"tmp\000"
 2171 09d2 01       		.byte	0x1
 2172 09d3 5001     		.2byte	0x150
 2173 09d5 AD000000 		.4byte	0xad
 2174 09d9 01       		.uleb128 0x1
 2175 09da 53       		.byte	0x53
 2176 09db 00       		.byte	0
 2177 09dc 23       		.uleb128 0x23
 2178 09dd 14000000 		.4byte	.LVL55
 2179 09e1 2C050000 		.4byte	0x52c
 2180 09e5 00       		.byte	0
 2181 09e6 28       		.uleb128 0x28
 2182 09e7 42000000 		.4byte	.LBB35
 2183 09eb 06000000 		.4byte	.LBE35-.LBB35
 2184 09ef 020A0000 		.4byte	0xa02
 2185 09f3 32       		.uleb128 0x32
 2186 09f4 746D7000 		.ascii	"tmp\000"
 2187 09f8 01       		.byte	0x1
 2188 09f9 5D01     		.2byte	0x15d
 2189 09fb AD000000 		.4byte	0xad
 2190 09ff 01       		.uleb128 0x1
 2191 0a00 53       		.byte	0x53
 2192 0a01 00       		.byte	0
 2193 0a02 29       		.uleb128 0x29
 2194 0a03 42000000 		.4byte	.LVL59
 2195 0a07 1D       		.uleb128 0x1d
 2196 0a08 01       		.uleb128 0x1
 2197 0a09 50       		.byte	0x50
 2198 0a0a 02       		.uleb128 0x2
 2199 0a0b 74       		.byte	0x74
 2200 0a0c 00       		.sleb128 0
 2201 0a0d 00       		.byte	0
 2202 0a0e 00       		.byte	0
 2203 0a0f 31       		.uleb128 0x31
 2204 0a10 7F010000 		.4byte	.LASF93
 2205 0a14 01       		.byte	0x1
 2206 0a15 6B01     		.2byte	0x16b
 2207 0a17 01010000 		.4byte	0x101
 2208 0a1b 00000000 		.4byte	.LFB16
 2209 0a1f 46000000 		.4byte	.LFE16-.LFB16
 2210 0a23 01       		.uleb128 0x1
 2211 0a24 9C       		.byte	0x9c
 2212 0a25 820A0000 		.4byte	0xa82
 2213 0a29 2F       		.uleb128 0x2f
 2214 0a2a 6F717000 		.ascii	"oqp\000"
 2215 0a2e 01       		.byte	0x1
 2216 0a2f 6B01     		.2byte	0x16b
ARM GAS  /tmp/ccaP86JW.s 			page 40


 2217 0a31 DC080000 		.4byte	0x8dc
 2218 0a35 07050000 		.4byte	.LLST30
 2219 0a39 33       		.uleb128 0x33
 2220 0a3a 6200     		.ascii	"b\000"
 2221 0a3c 01       		.byte	0x1
 2222 0a3d 6C01     		.2byte	0x16c
 2223 0a3f 97000000 		.4byte	0x97
 2224 0a43 54050000 		.4byte	.LLST31
 2225 0a47 30       		.uleb128 0x30
 2226 0a48 06050000 		.4byte	0x506
 2227 0a4c 24000000 		.4byte	.LBB37
 2228 0a50 06000000 		.4byte	.LBE37-.LBB37
 2229 0a54 01       		.byte	0x1
 2230 0a55 7901     		.2byte	0x179
 2231 0a57 780A0000 		.4byte	0xa78
 2232 0a5b 1B       		.uleb128 0x1b
 2233 0a5c 16050000 		.4byte	0x516
 2234 0a60 96050000 		.4byte	.LLST32
 2235 0a64 21       		.uleb128 0x21
 2236 0a65 24000000 		.4byte	.LBB38
 2237 0a69 06000000 		.4byte	.LBE38-.LBB38
 2238 0a6d 22       		.uleb128 0x22
 2239 0a6e 21050000 		.4byte	0x521
 2240 0a72 B7050000 		.4byte	.LLST33
 2241 0a76 00       		.byte	0
 2242 0a77 00       		.byte	0
 2243 0a78 23       		.uleb128 0x23
 2244 0a79 2E000000 		.4byte	.LVL66
 2245 0a7d B10B0000 		.4byte	0xbb1
 2246 0a81 00       		.byte	0
 2247 0a82 31       		.uleb128 0x31
 2248 0a83 91020000 		.4byte	.LASF94
 2249 0a87 01       		.byte	0x1
 2250 0a88 9601     		.2byte	0x196
 2251 0a8a 2C000000 		.4byte	0x2c
 2252 0a8e 00000000 		.4byte	.LFB17
 2253 0a92 76000000 		.4byte	.LFE17-.LFB17
 2254 0a96 01       		.uleb128 0x1
 2255 0a97 9C       		.byte	0x9c
 2256 0a98 8C0B0000 		.4byte	0xb8c
 2257 0a9c 2F       		.uleb128 0x2f
 2258 0a9d 6F717000 		.ascii	"oqp\000"
 2259 0aa1 01       		.byte	0x1
 2260 0aa2 9601     		.2byte	0x196
 2261 0aa4 DC080000 		.4byte	0x8dc
 2262 0aa8 CA050000 		.4byte	.LLST34
 2263 0aac 2F       		.uleb128 0x2f
 2264 0aad 627000   		.ascii	"bp\000"
 2265 0ab0 01       		.byte	0x1
 2266 0ab1 9601     		.2byte	0x196
 2267 0ab3 D3040000 		.4byte	0x4d3
 2268 0ab7 14060000 		.4byte	.LLST35
 2269 0abb 2F       		.uleb128 0x2f
 2270 0abc 6E00     		.ascii	"n\000"
 2271 0abe 01       		.byte	0x1
 2272 0abf 9701     		.2byte	0x197
 2273 0ac1 2C000000 		.4byte	0x2c
ARM GAS  /tmp/ccaP86JW.s 			page 41


 2274 0ac5 3D060000 		.4byte	.LLST36
 2275 0ac9 2E       		.uleb128 0x2e
 2276 0aca D0020000 		.4byte	.LASF80
 2277 0ace 01       		.byte	0x1
 2278 0acf 9701     		.2byte	0x197
 2279 0ad1 17010000 		.4byte	0x117
 2280 0ad5 73060000 		.4byte	.LLST37
 2281 0ad9 32       		.uleb128 0x32
 2282 0ada 6E667900 		.ascii	"nfy\000"
 2283 0ade 01       		.byte	0x1
 2284 0adf 9801     		.2byte	0x198
 2285 0ae1 95040000 		.4byte	0x495
 2286 0ae5 01       		.uleb128 0x1
 2287 0ae6 59       		.byte	0x59
 2288 0ae7 33       		.uleb128 0x33
 2289 0ae8 7700     		.ascii	"w\000"
 2290 0aea 01       		.byte	0x1
 2291 0aeb 9901     		.2byte	0x199
 2292 0aed 2C000000 		.4byte	0x2c
 2293 0af1 91060000 		.4byte	.LLST38
 2294 0af5 28       		.uleb128 0x28
 2295 0af6 10000000 		.4byte	.LBB39
 2296 0afa 06000000 		.4byte	.LBE39-.LBB39
 2297 0afe 110B0000 		.4byte	0xb11
 2298 0b02 32       		.uleb128 0x32
 2299 0b03 746D7000 		.ascii	"tmp\000"
 2300 0b07 01       		.byte	0x1
 2301 0b08 9D01     		.2byte	0x19d
 2302 0b0a AD000000 		.4byte	0xad
 2303 0b0e 01       		.uleb128 0x1
 2304 0b0f 53       		.byte	0x53
 2305 0b10 00       		.byte	0
 2306 0b11 28       		.uleb128 0x28
 2307 0b12 46000000 		.4byte	.LBB40
 2308 0b16 06000000 		.4byte	.LBE40-.LBB40
 2309 0b1a 2D0B0000 		.4byte	0xb2d
 2310 0b1e 32       		.uleb128 0x32
 2311 0b1f 746D7000 		.ascii	"tmp\000"
 2312 0b23 01       		.byte	0x1
 2313 0b24 AD01     		.2byte	0x1ad
 2314 0b26 AD000000 		.4byte	0xad
 2315 0b2a 01       		.uleb128 0x1
 2316 0b2b 53       		.byte	0x53
 2317 0b2c 00       		.byte	0
 2318 0b2d 28       		.uleb128 0x28
 2319 0b2e 54000000 		.4byte	.LBB41
 2320 0b32 06000000 		.4byte	.LBE41-.LBB41
 2321 0b36 490B0000 		.4byte	0xb49
 2322 0b3a 32       		.uleb128 0x32
 2323 0b3b 746D7000 		.ascii	"tmp\000"
 2324 0b3f 01       		.byte	0x1
 2325 0b40 B101     		.2byte	0x1b1
 2326 0b42 AD000000 		.4byte	0xad
 2327 0b46 01       		.uleb128 0x1
 2328 0b47 53       		.byte	0x53
 2329 0b48 00       		.byte	0
 2330 0b49 28       		.uleb128 0x28
ARM GAS  /tmp/ccaP86JW.s 			page 42


 2331 0b4a 6A000000 		.4byte	.LBB42
 2332 0b4e 06000000 		.4byte	.LBE42-.LBB42
 2333 0b52 650B0000 		.4byte	0xb65
 2334 0b56 32       		.uleb128 0x32
 2335 0b57 746D7000 		.ascii	"tmp\000"
 2336 0b5b 01       		.byte	0x1
 2337 0b5c A101     		.2byte	0x1a1
 2338 0b5e AD000000 		.4byte	0xad
 2339 0b62 01       		.uleb128 0x1
 2340 0b63 53       		.byte	0x53
 2341 0b64 00       		.byte	0
 2342 0b65 2A       		.uleb128 0x2a
 2343 0b66 46000000 		.4byte	.LVL79
 2344 0b6a 750B0000 		.4byte	0xb75
 2345 0b6e 1D       		.uleb128 0x1d
 2346 0b6f 01       		.uleb128 0x1
 2347 0b70 50       		.byte	0x50
 2348 0b71 02       		.uleb128 0x2
 2349 0b72 74       		.byte	0x74
 2350 0b73 00       		.sleb128 0
 2351 0b74 00       		.byte	0
 2352 0b75 34       		.uleb128 0x34
 2353 0b76 66000000 		.4byte	.LVL84
 2354 0b7a 2C050000 		.4byte	0x52c
 2355 0b7e 1D       		.uleb128 0x1d
 2356 0b7f 01       		.uleb128 0x1
 2357 0b80 51       		.byte	0x51
 2358 0b81 02       		.uleb128 0x2
 2359 0b82 7A       		.byte	0x7a
 2360 0b83 00       		.sleb128 0
 2361 0b84 1D       		.uleb128 0x1d
 2362 0b85 01       		.uleb128 0x1
 2363 0b86 50       		.byte	0x50
 2364 0b87 02       		.uleb128 0x2
 2365 0b88 74       		.byte	0x74
 2366 0b89 00       		.sleb128 0
 2367 0b8a 00       		.byte	0
 2368 0b8b 00       		.byte	0
 2369 0b8c 35       		.uleb128 0x35
 2370 0b8d 50040000 		.4byte	.LASF101
 2371 0b91 0A       		.byte	0xa
 2372 0b92 6F       		.byte	0x6f
 2373 0b93 83030000 		.4byte	0x383
 2374 0b97 36       		.uleb128 0x36
 2375 0b98 6C040000 		.4byte	.LASF102
 2376 0b9c 0A       		.byte	0xa
 2377 0b9d 96       		.byte	0x96
 2378 0b9e 01010000 		.4byte	0x101
 2379 0ba2 B10B0000 		.4byte	0xbb1
 2380 0ba6 12       		.uleb128 0x12
 2381 0ba7 D5000000 		.4byte	0xd5
 2382 0bab 12       		.uleb128 0x12
 2383 0bac 17010000 		.4byte	0x117
 2384 0bb0 00       		.byte	0
 2385 0bb1 37       		.uleb128 0x37
 2386 0bb2 97030000 		.4byte	.LASF103
 2387 0bb6 0A       		.byte	0xa
ARM GAS  /tmp/ccaP86JW.s 			page 43


 2388 0bb7 90       		.byte	0x90
 2389 0bb8 4B020000 		.4byte	0x24b
 2390 0bbc 12       		.uleb128 0x12
 2391 0bbd 4B020000 		.4byte	0x24b
 2392 0bc1 00       		.byte	0
 2393 0bc2 00       		.byte	0
 2394              		.section	.debug_abbrev,"",%progbits
 2395              	.Ldebug_abbrev0:
 2396 0000 01       		.uleb128 0x1
 2397 0001 11       		.uleb128 0x11
 2398 0002 01       		.byte	0x1
 2399 0003 25       		.uleb128 0x25
 2400 0004 0E       		.uleb128 0xe
 2401 0005 13       		.uleb128 0x13
 2402 0006 0B       		.uleb128 0xb
 2403 0007 03       		.uleb128 0x3
 2404 0008 0E       		.uleb128 0xe
 2405 0009 1B       		.uleb128 0x1b
 2406 000a 0E       		.uleb128 0xe
 2407 000b 55       		.uleb128 0x55
 2408 000c 17       		.uleb128 0x17
 2409 000d 11       		.uleb128 0x11
 2410 000e 01       		.uleb128 0x1
 2411 000f 10       		.uleb128 0x10
 2412 0010 17       		.uleb128 0x17
 2413 0011 00       		.byte	0
 2414 0012 00       		.byte	0
 2415 0013 02       		.uleb128 0x2
 2416 0014 24       		.uleb128 0x24
 2417 0015 00       		.byte	0
 2418 0016 0B       		.uleb128 0xb
 2419 0017 0B       		.uleb128 0xb
 2420 0018 3E       		.uleb128 0x3e
 2421 0019 0B       		.uleb128 0xb
 2422 001a 03       		.uleb128 0x3
 2423 001b 08       		.uleb128 0x8
 2424 001c 00       		.byte	0
 2425 001d 00       		.byte	0
 2426 001e 03       		.uleb128 0x3
 2427 001f 16       		.uleb128 0x16
 2428 0020 00       		.byte	0
 2429 0021 03       		.uleb128 0x3
 2430 0022 0E       		.uleb128 0xe
 2431 0023 3A       		.uleb128 0x3a
 2432 0024 0B       		.uleb128 0xb
 2433 0025 3B       		.uleb128 0x3b
 2434 0026 0B       		.uleb128 0xb
 2435 0027 49       		.uleb128 0x49
 2436 0028 13       		.uleb128 0x13
 2437 0029 00       		.byte	0
 2438 002a 00       		.byte	0
 2439 002b 04       		.uleb128 0x4
 2440 002c 24       		.uleb128 0x24
 2441 002d 00       		.byte	0
 2442 002e 0B       		.uleb128 0xb
 2443 002f 0B       		.uleb128 0xb
 2444 0030 3E       		.uleb128 0x3e
ARM GAS  /tmp/ccaP86JW.s 			page 44


 2445 0031 0B       		.uleb128 0xb
 2446 0032 03       		.uleb128 0x3
 2447 0033 0E       		.uleb128 0xe
 2448 0034 00       		.byte	0
 2449 0035 00       		.byte	0
 2450 0036 05       		.uleb128 0x5
 2451 0037 13       		.uleb128 0x13
 2452 0038 01       		.byte	0x1
 2453 0039 03       		.uleb128 0x3
 2454 003a 0E       		.uleb128 0xe
 2455 003b 0B       		.uleb128 0xb
 2456 003c 0B       		.uleb128 0xb
 2457 003d 3A       		.uleb128 0x3a
 2458 003e 0B       		.uleb128 0xb
 2459 003f 3B       		.uleb128 0x3b
 2460 0040 0B       		.uleb128 0xb
 2461 0041 01       		.uleb128 0x1
 2462 0042 13       		.uleb128 0x13
 2463 0043 00       		.byte	0
 2464 0044 00       		.byte	0
 2465 0045 06       		.uleb128 0x6
 2466 0046 0D       		.uleb128 0xd
 2467 0047 00       		.byte	0
 2468 0048 03       		.uleb128 0x3
 2469 0049 0E       		.uleb128 0xe
 2470 004a 3A       		.uleb128 0x3a
 2471 004b 0B       		.uleb128 0xb
 2472 004c 3B       		.uleb128 0x3b
 2473 004d 0B       		.uleb128 0xb
 2474 004e 49       		.uleb128 0x49
 2475 004f 13       		.uleb128 0x13
 2476 0050 38       		.uleb128 0x38
 2477 0051 0B       		.uleb128 0xb
 2478 0052 00       		.byte	0
 2479 0053 00       		.byte	0
 2480 0054 07       		.uleb128 0x7
 2481 0055 0D       		.uleb128 0xd
 2482 0056 00       		.byte	0
 2483 0057 03       		.uleb128 0x3
 2484 0058 08       		.uleb128 0x8
 2485 0059 3A       		.uleb128 0x3a
 2486 005a 0B       		.uleb128 0xb
 2487 005b 3B       		.uleb128 0x3b
 2488 005c 0B       		.uleb128 0xb
 2489 005d 49       		.uleb128 0x49
 2490 005e 13       		.uleb128 0x13
 2491 005f 38       		.uleb128 0x38
 2492 0060 0B       		.uleb128 0xb
 2493 0061 00       		.byte	0
 2494 0062 00       		.byte	0
 2495 0063 08       		.uleb128 0x8
 2496 0064 13       		.uleb128 0x13
 2497 0065 01       		.byte	0x1
 2498 0066 0B       		.uleb128 0xb
 2499 0067 0B       		.uleb128 0xb
 2500 0068 3A       		.uleb128 0x3a
 2501 0069 0B       		.uleb128 0xb
ARM GAS  /tmp/ccaP86JW.s 			page 45


 2502 006a 3B       		.uleb128 0x3b
 2503 006b 0B       		.uleb128 0xb
 2504 006c 01       		.uleb128 0x1
 2505 006d 13       		.uleb128 0x13
 2506 006e 00       		.byte	0
 2507 006f 00       		.byte	0
 2508 0070 09       		.uleb128 0x9
 2509 0071 0F       		.uleb128 0xf
 2510 0072 00       		.byte	0
 2511 0073 0B       		.uleb128 0xb
 2512 0074 0B       		.uleb128 0xb
 2513 0075 49       		.uleb128 0x49
 2514 0076 13       		.uleb128 0x13
 2515 0077 00       		.byte	0
 2516 0078 00       		.byte	0
 2517 0079 0A       		.uleb128 0xa
 2518 007a 0F       		.uleb128 0xf
 2519 007b 00       		.byte	0
 2520 007c 0B       		.uleb128 0xb
 2521 007d 0B       		.uleb128 0xb
 2522 007e 00       		.byte	0
 2523 007f 00       		.byte	0
 2524 0080 0B       		.uleb128 0xb
 2525 0081 13       		.uleb128 0x13
 2526 0082 01       		.byte	0x1
 2527 0083 03       		.uleb128 0x3
 2528 0084 0E       		.uleb128 0xe
 2529 0085 0B       		.uleb128 0xb
 2530 0086 0B       		.uleb128 0xb
 2531 0087 3A       		.uleb128 0x3a
 2532 0088 0B       		.uleb128 0xb
 2533 0089 3B       		.uleb128 0x3b
 2534 008a 05       		.uleb128 0x5
 2535 008b 01       		.uleb128 0x1
 2536 008c 13       		.uleb128 0x13
 2537 008d 00       		.byte	0
 2538 008e 00       		.byte	0
 2539 008f 0C       		.uleb128 0xc
 2540 0090 0D       		.uleb128 0xd
 2541 0091 00       		.byte	0
 2542 0092 03       		.uleb128 0x3
 2543 0093 08       		.uleb128 0x8
 2544 0094 3A       		.uleb128 0x3a
 2545 0095 0B       		.uleb128 0xb
 2546 0096 3B       		.uleb128 0x3b
 2547 0097 05       		.uleb128 0x5
 2548 0098 49       		.uleb128 0x49
 2549 0099 13       		.uleb128 0x13
 2550 009a 38       		.uleb128 0x38
 2551 009b 0B       		.uleb128 0xb
 2552 009c 00       		.byte	0
 2553 009d 00       		.byte	0
 2554 009e 0D       		.uleb128 0xd
 2555 009f 35       		.uleb128 0x35
 2556 00a0 00       		.byte	0
 2557 00a1 49       		.uleb128 0x49
 2558 00a2 13       		.uleb128 0x13
ARM GAS  /tmp/ccaP86JW.s 			page 46


 2559 00a3 00       		.byte	0
 2560 00a4 00       		.byte	0
 2561 00a5 0E       		.uleb128 0xe
 2562 00a6 17       		.uleb128 0x17
 2563 00a7 01       		.byte	0x1
 2564 00a8 0B       		.uleb128 0xb
 2565 00a9 0B       		.uleb128 0xb
 2566 00aa 3A       		.uleb128 0x3a
 2567 00ab 0B       		.uleb128 0xb
 2568 00ac 3B       		.uleb128 0x3b
 2569 00ad 0B       		.uleb128 0xb
 2570 00ae 01       		.uleb128 0x1
 2571 00af 13       		.uleb128 0x13
 2572 00b0 00       		.byte	0
 2573 00b1 00       		.byte	0
 2574 00b2 0F       		.uleb128 0xf
 2575 00b3 0D       		.uleb128 0xd
 2576 00b4 00       		.byte	0
 2577 00b5 03       		.uleb128 0x3
 2578 00b6 0E       		.uleb128 0xe
 2579 00b7 3A       		.uleb128 0x3a
 2580 00b8 0B       		.uleb128 0xb
 2581 00b9 3B       		.uleb128 0x3b
 2582 00ba 0B       		.uleb128 0xb
 2583 00bb 49       		.uleb128 0x49
 2584 00bc 13       		.uleb128 0x13
 2585 00bd 00       		.byte	0
 2586 00be 00       		.byte	0
 2587 00bf 10       		.uleb128 0x10
 2588 00c0 26       		.uleb128 0x26
 2589 00c1 00       		.byte	0
 2590 00c2 49       		.uleb128 0x49
 2591 00c3 13       		.uleb128 0x13
 2592 00c4 00       		.byte	0
 2593 00c5 00       		.byte	0
 2594 00c6 11       		.uleb128 0x11
 2595 00c7 15       		.uleb128 0x15
 2596 00c8 01       		.byte	0x1
 2597 00c9 27       		.uleb128 0x27
 2598 00ca 19       		.uleb128 0x19
 2599 00cb 01       		.uleb128 0x1
 2600 00cc 13       		.uleb128 0x13
 2601 00cd 00       		.byte	0
 2602 00ce 00       		.byte	0
 2603 00cf 12       		.uleb128 0x12
 2604 00d0 05       		.uleb128 0x5
 2605 00d1 00       		.byte	0
 2606 00d2 49       		.uleb128 0x49
 2607 00d3 13       		.uleb128 0x13
 2608 00d4 00       		.byte	0
 2609 00d5 00       		.byte	0
 2610 00d6 13       		.uleb128 0x13
 2611 00d7 2E       		.uleb128 0x2e
 2612 00d8 01       		.byte	0x1
 2613 00d9 03       		.uleb128 0x3
 2614 00da 0E       		.uleb128 0xe
 2615 00db 3A       		.uleb128 0x3a
ARM GAS  /tmp/ccaP86JW.s 			page 47


 2616 00dc 0B       		.uleb128 0xb
 2617 00dd 3B       		.uleb128 0x3b
 2618 00de 0B       		.uleb128 0xb
 2619 00df 27       		.uleb128 0x27
 2620 00e0 19       		.uleb128 0x19
 2621 00e1 20       		.uleb128 0x20
 2622 00e2 0B       		.uleb128 0xb
 2623 00e3 01       		.uleb128 0x1
 2624 00e4 13       		.uleb128 0x13
 2625 00e5 00       		.byte	0
 2626 00e6 00       		.byte	0
 2627 00e7 14       		.uleb128 0x14
 2628 00e8 05       		.uleb128 0x5
 2629 00e9 00       		.byte	0
 2630 00ea 03       		.uleb128 0x3
 2631 00eb 08       		.uleb128 0x8
 2632 00ec 3A       		.uleb128 0x3a
 2633 00ed 0B       		.uleb128 0xb
 2634 00ee 3B       		.uleb128 0x3b
 2635 00ef 0B       		.uleb128 0xb
 2636 00f0 49       		.uleb128 0x49
 2637 00f1 13       		.uleb128 0x13
 2638 00f2 00       		.byte	0
 2639 00f3 00       		.byte	0
 2640 00f4 15       		.uleb128 0x15
 2641 00f5 2E       		.uleb128 0x2e
 2642 00f6 01       		.byte	0x1
 2643 00f7 03       		.uleb128 0x3
 2644 00f8 0E       		.uleb128 0xe
 2645 00f9 3A       		.uleb128 0x3a
 2646 00fa 0B       		.uleb128 0xb
 2647 00fb 3B       		.uleb128 0x3b
 2648 00fc 0B       		.uleb128 0xb
 2649 00fd 27       		.uleb128 0x27
 2650 00fe 19       		.uleb128 0x19
 2651 00ff 49       		.uleb128 0x49
 2652 0100 13       		.uleb128 0x13
 2653 0101 20       		.uleb128 0x20
 2654 0102 0B       		.uleb128 0xb
 2655 0103 01       		.uleb128 0x1
 2656 0104 13       		.uleb128 0x13
 2657 0105 00       		.byte	0
 2658 0106 00       		.byte	0
 2659 0107 16       		.uleb128 0x16
 2660 0108 34       		.uleb128 0x34
 2661 0109 00       		.byte	0
 2662 010a 03       		.uleb128 0x3
 2663 010b 08       		.uleb128 0x8
 2664 010c 3A       		.uleb128 0x3a
 2665 010d 0B       		.uleb128 0xb
 2666 010e 3B       		.uleb128 0x3b
 2667 010f 0B       		.uleb128 0xb
 2668 0110 49       		.uleb128 0x49
 2669 0111 13       		.uleb128 0x13
 2670 0112 00       		.byte	0
 2671 0113 00       		.byte	0
 2672 0114 17       		.uleb128 0x17
ARM GAS  /tmp/ccaP86JW.s 			page 48


 2673 0115 2E       		.uleb128 0x2e
 2674 0116 01       		.byte	0x1
 2675 0117 03       		.uleb128 0x3
 2676 0118 0E       		.uleb128 0xe
 2677 0119 3A       		.uleb128 0x3a
 2678 011a 0B       		.uleb128 0xb
 2679 011b 3B       		.uleb128 0x3b
 2680 011c 0B       		.uleb128 0xb
 2681 011d 27       		.uleb128 0x27
 2682 011e 19       		.uleb128 0x19
 2683 011f 49       		.uleb128 0x49
 2684 0120 13       		.uleb128 0x13
 2685 0121 11       		.uleb128 0x11
 2686 0122 01       		.uleb128 0x1
 2687 0123 12       		.uleb128 0x12
 2688 0124 06       		.uleb128 0x6
 2689 0125 40       		.uleb128 0x40
 2690 0126 18       		.uleb128 0x18
 2691 0127 9742     		.uleb128 0x2117
 2692 0129 19       		.uleb128 0x19
 2693 012a 01       		.uleb128 0x1
 2694 012b 13       		.uleb128 0x13
 2695 012c 00       		.byte	0
 2696 012d 00       		.byte	0
 2697 012e 18       		.uleb128 0x18
 2698 012f 05       		.uleb128 0x5
 2699 0130 00       		.byte	0
 2700 0131 03       		.uleb128 0x3
 2701 0132 08       		.uleb128 0x8
 2702 0133 3A       		.uleb128 0x3a
 2703 0134 0B       		.uleb128 0xb
 2704 0135 3B       		.uleb128 0x3b
 2705 0136 0B       		.uleb128 0xb
 2706 0137 49       		.uleb128 0x49
 2707 0138 13       		.uleb128 0x13
 2708 0139 02       		.uleb128 0x2
 2709 013a 17       		.uleb128 0x17
 2710 013b 00       		.byte	0
 2711 013c 00       		.byte	0
 2712 013d 19       		.uleb128 0x19
 2713 013e 05       		.uleb128 0x5
 2714 013f 00       		.byte	0
 2715 0140 03       		.uleb128 0x3
 2716 0141 0E       		.uleb128 0xe
 2717 0142 3A       		.uleb128 0x3a
 2718 0143 0B       		.uleb128 0xb
 2719 0144 3B       		.uleb128 0x3b
 2720 0145 0B       		.uleb128 0xb
 2721 0146 49       		.uleb128 0x49
 2722 0147 13       		.uleb128 0x13
 2723 0148 02       		.uleb128 0x2
 2724 0149 17       		.uleb128 0x17
 2725 014a 00       		.byte	0
 2726 014b 00       		.byte	0
 2727 014c 1A       		.uleb128 0x1a
 2728 014d 1D       		.uleb128 0x1d
 2729 014e 01       		.byte	0x1
ARM GAS  /tmp/ccaP86JW.s 			page 49


 2730 014f 31       		.uleb128 0x31
 2731 0150 13       		.uleb128 0x13
 2732 0151 11       		.uleb128 0x11
 2733 0152 01       		.uleb128 0x1
 2734 0153 12       		.uleb128 0x12
 2735 0154 06       		.uleb128 0x6
 2736 0155 58       		.uleb128 0x58
 2737 0156 0B       		.uleb128 0xb
 2738 0157 59       		.uleb128 0x59
 2739 0158 0B       		.uleb128 0xb
 2740 0159 01       		.uleb128 0x1
 2741 015a 13       		.uleb128 0x13
 2742 015b 00       		.byte	0
 2743 015c 00       		.byte	0
 2744 015d 1B       		.uleb128 0x1b
 2745 015e 05       		.uleb128 0x5
 2746 015f 00       		.byte	0
 2747 0160 31       		.uleb128 0x31
 2748 0161 13       		.uleb128 0x13
 2749 0162 02       		.uleb128 0x2
 2750 0163 17       		.uleb128 0x17
 2751 0164 00       		.byte	0
 2752 0165 00       		.byte	0
 2753 0166 1C       		.uleb128 0x1c
 2754 0167 898201   		.uleb128 0x4109
 2755 016a 01       		.byte	0x1
 2756 016b 11       		.uleb128 0x11
 2757 016c 01       		.uleb128 0x1
 2758 016d 9542     		.uleb128 0x2115
 2759 016f 19       		.uleb128 0x19
 2760 0170 31       		.uleb128 0x31
 2761 0171 13       		.uleb128 0x13
 2762 0172 00       		.byte	0
 2763 0173 00       		.byte	0
 2764 0174 1D       		.uleb128 0x1d
 2765 0175 8A8201   		.uleb128 0x410a
 2766 0178 00       		.byte	0
 2767 0179 02       		.uleb128 0x2
 2768 017a 18       		.uleb128 0x18
 2769 017b 9142     		.uleb128 0x2111
 2770 017d 18       		.uleb128 0x18
 2771 017e 00       		.byte	0
 2772 017f 00       		.byte	0
 2773 0180 1E       		.uleb128 0x1e
 2774 0181 2E       		.uleb128 0x2e
 2775 0182 01       		.byte	0x1
 2776 0183 3F       		.uleb128 0x3f
 2777 0184 19       		.uleb128 0x19
 2778 0185 03       		.uleb128 0x3
 2779 0186 0E       		.uleb128 0xe
 2780 0187 3A       		.uleb128 0x3a
 2781 0188 0B       		.uleb128 0xb
 2782 0189 3B       		.uleb128 0x3b
 2783 018a 0B       		.uleb128 0xb
 2784 018b 27       		.uleb128 0x27
 2785 018c 19       		.uleb128 0x19
 2786 018d 11       		.uleb128 0x11
ARM GAS  /tmp/ccaP86JW.s 			page 50


 2787 018e 01       		.uleb128 0x1
 2788 018f 12       		.uleb128 0x12
 2789 0190 06       		.uleb128 0x6
 2790 0191 40       		.uleb128 0x40
 2791 0192 18       		.uleb128 0x18
 2792 0193 9742     		.uleb128 0x2117
 2793 0195 19       		.uleb128 0x19
 2794 0196 01       		.uleb128 0x1
 2795 0197 13       		.uleb128 0x13
 2796 0198 00       		.byte	0
 2797 0199 00       		.byte	0
 2798 019a 1F       		.uleb128 0x1f
 2799 019b 05       		.uleb128 0x5
 2800 019c 00       		.byte	0
 2801 019d 03       		.uleb128 0x3
 2802 019e 08       		.uleb128 0x8
 2803 019f 3A       		.uleb128 0x3a
 2804 01a0 0B       		.uleb128 0xb
 2805 01a1 3B       		.uleb128 0x3b
 2806 01a2 0B       		.uleb128 0xb
 2807 01a3 49       		.uleb128 0x49
 2808 01a4 13       		.uleb128 0x13
 2809 01a5 02       		.uleb128 0x2
 2810 01a6 18       		.uleb128 0x18
 2811 01a7 00       		.byte	0
 2812 01a8 00       		.byte	0
 2813 01a9 20       		.uleb128 0x20
 2814 01aa 05       		.uleb128 0x5
 2815 01ab 00       		.byte	0
 2816 01ac 03       		.uleb128 0x3
 2817 01ad 0E       		.uleb128 0xe
 2818 01ae 3A       		.uleb128 0x3a
 2819 01af 0B       		.uleb128 0xb
 2820 01b0 3B       		.uleb128 0x3b
 2821 01b1 0B       		.uleb128 0xb
 2822 01b2 49       		.uleb128 0x49
 2823 01b3 13       		.uleb128 0x13
 2824 01b4 02       		.uleb128 0x2
 2825 01b5 18       		.uleb128 0x18
 2826 01b6 00       		.byte	0
 2827 01b7 00       		.byte	0
 2828 01b8 21       		.uleb128 0x21
 2829 01b9 0B       		.uleb128 0xb
 2830 01ba 01       		.byte	0x1
 2831 01bb 11       		.uleb128 0x11
 2832 01bc 01       		.uleb128 0x1
 2833 01bd 12       		.uleb128 0x12
 2834 01be 06       		.uleb128 0x6
 2835 01bf 00       		.byte	0
 2836 01c0 00       		.byte	0
 2837 01c1 22       		.uleb128 0x22
 2838 01c2 34       		.uleb128 0x34
 2839 01c3 00       		.byte	0
 2840 01c4 31       		.uleb128 0x31
 2841 01c5 13       		.uleb128 0x13
 2842 01c6 02       		.uleb128 0x2
 2843 01c7 17       		.uleb128 0x17
ARM GAS  /tmp/ccaP86JW.s 			page 51


 2844 01c8 00       		.byte	0
 2845 01c9 00       		.byte	0
 2846 01ca 23       		.uleb128 0x23
 2847 01cb 898201   		.uleb128 0x4109
 2848 01ce 00       		.byte	0
 2849 01cf 11       		.uleb128 0x11
 2850 01d0 01       		.uleb128 0x1
 2851 01d1 31       		.uleb128 0x31
 2852 01d2 13       		.uleb128 0x13
 2853 01d3 00       		.byte	0
 2854 01d4 00       		.byte	0
 2855 01d5 24       		.uleb128 0x24
 2856 01d6 2E       		.uleb128 0x2e
 2857 01d7 01       		.byte	0x1
 2858 01d8 3F       		.uleb128 0x3f
 2859 01d9 19       		.uleb128 0x19
 2860 01da 03       		.uleb128 0x3
 2861 01db 0E       		.uleb128 0xe
 2862 01dc 3A       		.uleb128 0x3a
 2863 01dd 0B       		.uleb128 0xb
 2864 01de 3B       		.uleb128 0x3b
 2865 01df 0B       		.uleb128 0xb
 2866 01e0 27       		.uleb128 0x27
 2867 01e1 19       		.uleb128 0x19
 2868 01e2 49       		.uleb128 0x49
 2869 01e3 13       		.uleb128 0x13
 2870 01e4 11       		.uleb128 0x11
 2871 01e5 01       		.uleb128 0x1
 2872 01e6 12       		.uleb128 0x12
 2873 01e7 06       		.uleb128 0x6
 2874 01e8 40       		.uleb128 0x40
 2875 01e9 18       		.uleb128 0x18
 2876 01ea 9742     		.uleb128 0x2117
 2877 01ec 19       		.uleb128 0x19
 2878 01ed 01       		.uleb128 0x1
 2879 01ee 13       		.uleb128 0x13
 2880 01ef 00       		.byte	0
 2881 01f0 00       		.byte	0
 2882 01f1 25       		.uleb128 0x25
 2883 01f2 34       		.uleb128 0x34
 2884 01f3 00       		.byte	0
 2885 01f4 03       		.uleb128 0x3
 2886 01f5 08       		.uleb128 0x8
 2887 01f6 3A       		.uleb128 0x3a
 2888 01f7 0B       		.uleb128 0xb
 2889 01f8 3B       		.uleb128 0x3b
 2890 01f9 0B       		.uleb128 0xb
 2891 01fa 49       		.uleb128 0x49
 2892 01fb 13       		.uleb128 0x13
 2893 01fc 02       		.uleb128 0x2
 2894 01fd 17       		.uleb128 0x17
 2895 01fe 00       		.byte	0
 2896 01ff 00       		.byte	0
 2897 0200 26       		.uleb128 0x26
 2898 0201 0B       		.uleb128 0xb
 2899 0202 01       		.byte	0x1
 2900 0203 55       		.uleb128 0x55
ARM GAS  /tmp/ccaP86JW.s 			page 52


 2901 0204 17       		.uleb128 0x17
 2902 0205 01       		.uleb128 0x1
 2903 0206 13       		.uleb128 0x13
 2904 0207 00       		.byte	0
 2905 0208 00       		.byte	0
 2906 0209 27       		.uleb128 0x27
 2907 020a 34       		.uleb128 0x34
 2908 020b 00       		.byte	0
 2909 020c 03       		.uleb128 0x3
 2910 020d 08       		.uleb128 0x8
 2911 020e 3A       		.uleb128 0x3a
 2912 020f 0B       		.uleb128 0xb
 2913 0210 3B       		.uleb128 0x3b
 2914 0211 0B       		.uleb128 0xb
 2915 0212 49       		.uleb128 0x49
 2916 0213 13       		.uleb128 0x13
 2917 0214 02       		.uleb128 0x2
 2918 0215 18       		.uleb128 0x18
 2919 0216 00       		.byte	0
 2920 0217 00       		.byte	0
 2921 0218 28       		.uleb128 0x28
 2922 0219 0B       		.uleb128 0xb
 2923 021a 01       		.byte	0x1
 2924 021b 11       		.uleb128 0x11
 2925 021c 01       		.uleb128 0x1
 2926 021d 12       		.uleb128 0x12
 2927 021e 06       		.uleb128 0x6
 2928 021f 01       		.uleb128 0x1
 2929 0220 13       		.uleb128 0x13
 2930 0221 00       		.byte	0
 2931 0222 00       		.byte	0
 2932 0223 29       		.uleb128 0x29
 2933 0224 898201   		.uleb128 0x4109
 2934 0227 01       		.byte	0x1
 2935 0228 11       		.uleb128 0x11
 2936 0229 01       		.uleb128 0x1
 2937 022a 00       		.byte	0
 2938 022b 00       		.byte	0
 2939 022c 2A       		.uleb128 0x2a
 2940 022d 898201   		.uleb128 0x4109
 2941 0230 01       		.byte	0x1
 2942 0231 11       		.uleb128 0x11
 2943 0232 01       		.uleb128 0x1
 2944 0233 01       		.uleb128 0x1
 2945 0234 13       		.uleb128 0x13
 2946 0235 00       		.byte	0
 2947 0236 00       		.byte	0
 2948 0237 2B       		.uleb128 0x2b
 2949 0238 2E       		.uleb128 0x2e
 2950 0239 01       		.byte	0x1
 2951 023a 3F       		.uleb128 0x3f
 2952 023b 19       		.uleb128 0x19
 2953 023c 03       		.uleb128 0x3
 2954 023d 0E       		.uleb128 0xe
 2955 023e 3A       		.uleb128 0x3a
 2956 023f 0B       		.uleb128 0xb
 2957 0240 3B       		.uleb128 0x3b
ARM GAS  /tmp/ccaP86JW.s 			page 53


 2958 0241 05       		.uleb128 0x5
 2959 0242 27       		.uleb128 0x27
 2960 0243 19       		.uleb128 0x19
 2961 0244 11       		.uleb128 0x11
 2962 0245 01       		.uleb128 0x1
 2963 0246 12       		.uleb128 0x12
 2964 0247 06       		.uleb128 0x6
 2965 0248 40       		.uleb128 0x40
 2966 0249 18       		.uleb128 0x18
 2967 024a 9742     		.uleb128 0x2117
 2968 024c 19       		.uleb128 0x19
 2969 024d 01       		.uleb128 0x1
 2970 024e 13       		.uleb128 0x13
 2971 024f 00       		.byte	0
 2972 0250 00       		.byte	0
 2973 0251 2C       		.uleb128 0x2c
 2974 0252 05       		.uleb128 0x5
 2975 0253 00       		.byte	0
 2976 0254 03       		.uleb128 0x3
 2977 0255 08       		.uleb128 0x8
 2978 0256 3A       		.uleb128 0x3a
 2979 0257 0B       		.uleb128 0xb
 2980 0258 3B       		.uleb128 0x3b
 2981 0259 05       		.uleb128 0x5
 2982 025a 49       		.uleb128 0x49
 2983 025b 13       		.uleb128 0x13
 2984 025c 02       		.uleb128 0x2
 2985 025d 18       		.uleb128 0x18
 2986 025e 00       		.byte	0
 2987 025f 00       		.byte	0
 2988 0260 2D       		.uleb128 0x2d
 2989 0261 05       		.uleb128 0x5
 2990 0262 00       		.byte	0
 2991 0263 03       		.uleb128 0x3
 2992 0264 0E       		.uleb128 0xe
 2993 0265 3A       		.uleb128 0x3a
 2994 0266 0B       		.uleb128 0xb
 2995 0267 3B       		.uleb128 0x3b
 2996 0268 05       		.uleb128 0x5
 2997 0269 49       		.uleb128 0x49
 2998 026a 13       		.uleb128 0x13
 2999 026b 02       		.uleb128 0x2
 3000 026c 18       		.uleb128 0x18
 3001 026d 00       		.byte	0
 3002 026e 00       		.byte	0
 3003 026f 2E       		.uleb128 0x2e
 3004 0270 05       		.uleb128 0x5
 3005 0271 00       		.byte	0
 3006 0272 03       		.uleb128 0x3
 3007 0273 0E       		.uleb128 0xe
 3008 0274 3A       		.uleb128 0x3a
 3009 0275 0B       		.uleb128 0xb
 3010 0276 3B       		.uleb128 0x3b
 3011 0277 05       		.uleb128 0x5
 3012 0278 49       		.uleb128 0x49
 3013 0279 13       		.uleb128 0x13
 3014 027a 02       		.uleb128 0x2
ARM GAS  /tmp/ccaP86JW.s 			page 54


 3015 027b 17       		.uleb128 0x17
 3016 027c 00       		.byte	0
 3017 027d 00       		.byte	0
 3018 027e 2F       		.uleb128 0x2f
 3019 027f 05       		.uleb128 0x5
 3020 0280 00       		.byte	0
 3021 0281 03       		.uleb128 0x3
 3022 0282 08       		.uleb128 0x8
 3023 0283 3A       		.uleb128 0x3a
 3024 0284 0B       		.uleb128 0xb
 3025 0285 3B       		.uleb128 0x3b
 3026 0286 05       		.uleb128 0x5
 3027 0287 49       		.uleb128 0x49
 3028 0288 13       		.uleb128 0x13
 3029 0289 02       		.uleb128 0x2
 3030 028a 17       		.uleb128 0x17
 3031 028b 00       		.byte	0
 3032 028c 00       		.byte	0
 3033 028d 30       		.uleb128 0x30
 3034 028e 1D       		.uleb128 0x1d
 3035 028f 01       		.byte	0x1
 3036 0290 31       		.uleb128 0x31
 3037 0291 13       		.uleb128 0x13
 3038 0292 11       		.uleb128 0x11
 3039 0293 01       		.uleb128 0x1
 3040 0294 12       		.uleb128 0x12
 3041 0295 06       		.uleb128 0x6
 3042 0296 58       		.uleb128 0x58
 3043 0297 0B       		.uleb128 0xb
 3044 0298 59       		.uleb128 0x59
 3045 0299 05       		.uleb128 0x5
 3046 029a 01       		.uleb128 0x1
 3047 029b 13       		.uleb128 0x13
 3048 029c 00       		.byte	0
 3049 029d 00       		.byte	0
 3050 029e 31       		.uleb128 0x31
 3051 029f 2E       		.uleb128 0x2e
 3052 02a0 01       		.byte	0x1
 3053 02a1 3F       		.uleb128 0x3f
 3054 02a2 19       		.uleb128 0x19
 3055 02a3 03       		.uleb128 0x3
 3056 02a4 0E       		.uleb128 0xe
 3057 02a5 3A       		.uleb128 0x3a
 3058 02a6 0B       		.uleb128 0xb
 3059 02a7 3B       		.uleb128 0x3b
 3060 02a8 05       		.uleb128 0x5
 3061 02a9 27       		.uleb128 0x27
 3062 02aa 19       		.uleb128 0x19
 3063 02ab 49       		.uleb128 0x49
 3064 02ac 13       		.uleb128 0x13
 3065 02ad 11       		.uleb128 0x11
 3066 02ae 01       		.uleb128 0x1
 3067 02af 12       		.uleb128 0x12
 3068 02b0 06       		.uleb128 0x6
 3069 02b1 40       		.uleb128 0x40
 3070 02b2 18       		.uleb128 0x18
 3071 02b3 9742     		.uleb128 0x2117
ARM GAS  /tmp/ccaP86JW.s 			page 55


 3072 02b5 19       		.uleb128 0x19
 3073 02b6 01       		.uleb128 0x1
 3074 02b7 13       		.uleb128 0x13
 3075 02b8 00       		.byte	0
 3076 02b9 00       		.byte	0
 3077 02ba 32       		.uleb128 0x32
 3078 02bb 34       		.uleb128 0x34
 3079 02bc 00       		.byte	0
 3080 02bd 03       		.uleb128 0x3
 3081 02be 08       		.uleb128 0x8
 3082 02bf 3A       		.uleb128 0x3a
 3083 02c0 0B       		.uleb128 0xb
 3084 02c1 3B       		.uleb128 0x3b
 3085 02c2 05       		.uleb128 0x5
 3086 02c3 49       		.uleb128 0x49
 3087 02c4 13       		.uleb128 0x13
 3088 02c5 02       		.uleb128 0x2
 3089 02c6 18       		.uleb128 0x18
 3090 02c7 00       		.byte	0
 3091 02c8 00       		.byte	0
 3092 02c9 33       		.uleb128 0x33
 3093 02ca 34       		.uleb128 0x34
 3094 02cb 00       		.byte	0
 3095 02cc 03       		.uleb128 0x3
 3096 02cd 08       		.uleb128 0x8
 3097 02ce 3A       		.uleb128 0x3a
 3098 02cf 0B       		.uleb128 0xb
 3099 02d0 3B       		.uleb128 0x3b
 3100 02d1 05       		.uleb128 0x5
 3101 02d2 49       		.uleb128 0x49
 3102 02d3 13       		.uleb128 0x13
 3103 02d4 02       		.uleb128 0x2
 3104 02d5 17       		.uleb128 0x17
 3105 02d6 00       		.byte	0
 3106 02d7 00       		.byte	0
 3107 02d8 34       		.uleb128 0x34
 3108 02d9 898201   		.uleb128 0x4109
 3109 02dc 01       		.byte	0x1
 3110 02dd 11       		.uleb128 0x11
 3111 02de 01       		.uleb128 0x1
 3112 02df 31       		.uleb128 0x31
 3113 02e0 13       		.uleb128 0x13
 3114 02e1 00       		.byte	0
 3115 02e2 00       		.byte	0
 3116 02e3 35       		.uleb128 0x35
 3117 02e4 34       		.uleb128 0x34
 3118 02e5 00       		.byte	0
 3119 02e6 03       		.uleb128 0x3
 3120 02e7 0E       		.uleb128 0xe
 3121 02e8 3A       		.uleb128 0x3a
 3122 02e9 0B       		.uleb128 0xb
 3123 02ea 3B       		.uleb128 0x3b
 3124 02eb 0B       		.uleb128 0xb
 3125 02ec 49       		.uleb128 0x49
 3126 02ed 13       		.uleb128 0x13
 3127 02ee 3F       		.uleb128 0x3f
 3128 02ef 19       		.uleb128 0x19
ARM GAS  /tmp/ccaP86JW.s 			page 56


 3129 02f0 3C       		.uleb128 0x3c
 3130 02f1 19       		.uleb128 0x19
 3131 02f2 00       		.byte	0
 3132 02f3 00       		.byte	0
 3133 02f4 36       		.uleb128 0x36
 3134 02f5 2E       		.uleb128 0x2e
 3135 02f6 01       		.byte	0x1
 3136 02f7 3F       		.uleb128 0x3f
 3137 02f8 19       		.uleb128 0x19
 3138 02f9 03       		.uleb128 0x3
 3139 02fa 0E       		.uleb128 0xe
 3140 02fb 3A       		.uleb128 0x3a
 3141 02fc 0B       		.uleb128 0xb
 3142 02fd 3B       		.uleb128 0x3b
 3143 02fe 0B       		.uleb128 0xb
 3144 02ff 27       		.uleb128 0x27
 3145 0300 19       		.uleb128 0x19
 3146 0301 49       		.uleb128 0x49
 3147 0302 13       		.uleb128 0x13
 3148 0303 3C       		.uleb128 0x3c
 3149 0304 19       		.uleb128 0x19
 3150 0305 01       		.uleb128 0x1
 3151 0306 13       		.uleb128 0x13
 3152 0307 00       		.byte	0
 3153 0308 00       		.byte	0
 3154 0309 37       		.uleb128 0x37
 3155 030a 2E       		.uleb128 0x2e
 3156 030b 01       		.byte	0x1
 3157 030c 3F       		.uleb128 0x3f
 3158 030d 19       		.uleb128 0x19
 3159 030e 03       		.uleb128 0x3
 3160 030f 0E       		.uleb128 0xe
 3161 0310 3A       		.uleb128 0x3a
 3162 0311 0B       		.uleb128 0xb
 3163 0312 3B       		.uleb128 0x3b
 3164 0313 0B       		.uleb128 0xb
 3165 0314 27       		.uleb128 0x27
 3166 0315 19       		.uleb128 0x19
 3167 0316 49       		.uleb128 0x49
 3168 0317 13       		.uleb128 0x13
 3169 0318 3C       		.uleb128 0x3c
 3170 0319 19       		.uleb128 0x19
 3171 031a 00       		.byte	0
 3172 031b 00       		.byte	0
 3173 031c 00       		.byte	0
 3174              		.section	.debug_loc,"",%progbits
 3175              	.Ldebug_loc0:
 3176              	.LLST0:
 3177 0000 00000000 		.4byte	.LVL0
 3178 0004 10000000 		.4byte	.LVL1
 3179 0008 0100     		.2byte	0x1
 3180 000a 50       		.byte	0x50
 3181 000b 10000000 		.4byte	.LVL1
 3182 000f 25000000 		.4byte	.LVL3-1
 3183 0013 0100     		.2byte	0x1
 3184 0015 52       		.byte	0x52
 3185 0016 25000000 		.4byte	.LVL3-1
ARM GAS  /tmp/ccaP86JW.s 			page 57


 3186 001a 26000000 		.4byte	.LVL3
 3187 001e 0400     		.2byte	0x4
 3188 0020 F3       		.byte	0xf3
 3189 0021 01       		.uleb128 0x1
 3190 0022 50       		.byte	0x50
 3191 0023 9F       		.byte	0x9f
 3192 0024 26000000 		.4byte	.LVL3
 3193 0028 2A000000 		.4byte	.LVL4
 3194 002c 0100     		.2byte	0x1
 3195 002e 50       		.byte	0x50
 3196 002f 2A000000 		.4byte	.LVL4
 3197 0033 30000000 		.4byte	.LFE7
 3198 0037 0100     		.2byte	0x1
 3199 0039 52       		.byte	0x52
 3200 003a 00000000 		.4byte	0
 3201 003e 00000000 		.4byte	0
 3202              	.LLST1:
 3203 0042 00000000 		.4byte	.LVL0
 3204 0046 25000000 		.4byte	.LVL3-1
 3205 004a 0100     		.2byte	0x1
 3206 004c 51       		.byte	0x51
 3207 004d 25000000 		.4byte	.LVL3-1
 3208 0051 26000000 		.4byte	.LVL3
 3209 0055 0400     		.2byte	0x4
 3210 0057 F3       		.byte	0xf3
 3211 0058 01       		.uleb128 0x1
 3212 0059 51       		.byte	0x51
 3213 005a 9F       		.byte	0x9f
 3214 005b 26000000 		.4byte	.LVL3
 3215 005f 30000000 		.4byte	.LFE7
 3216 0063 0100     		.2byte	0x1
 3217 0065 51       		.byte	0x51
 3218 0066 00000000 		.4byte	0
 3219 006a 00000000 		.4byte	0
 3220              	.LLST2:
 3221 006e 14000000 		.4byte	.LVL2
 3222 0072 25000000 		.4byte	.LVL3-1
 3223 0076 0100     		.2byte	0x1
 3224 0078 52       		.byte	0x52
 3225 0079 25000000 		.4byte	.LVL3-1
 3226 007d 26000000 		.4byte	.LVL3
 3227 0081 0400     		.2byte	0x4
 3228 0083 F3       		.byte	0xf3
 3229 0084 01       		.uleb128 0x1
 3230 0085 50       		.byte	0x50
 3231 0086 9F       		.byte	0x9f
 3232 0087 00000000 		.4byte	0
 3233 008b 00000000 		.4byte	0
 3234              	.LLST3:
 3235 008f 14000000 		.4byte	.LVL2
 3236 0093 25000000 		.4byte	.LVL3-1
 3237 0097 0100     		.2byte	0x1
 3238 0099 53       		.byte	0x53
 3239 009a 00000000 		.4byte	0
 3240 009e 00000000 		.4byte	0
 3241              	.LLST4:
 3242 00a2 00000000 		.4byte	.LVL5
ARM GAS  /tmp/ccaP86JW.s 			page 58


 3243 00a6 0A000000 		.4byte	.LVL6
 3244 00aa 0100     		.2byte	0x1
 3245 00ac 52       		.byte	0x52
 3246 00ad 0A000000 		.4byte	.LVL6
 3247 00b1 1E000000 		.4byte	.LFE8
 3248 00b5 0400     		.2byte	0x4
 3249 00b7 F3       		.byte	0xf3
 3250 00b8 01       		.uleb128 0x1
 3251 00b9 52       		.byte	0x52
 3252 00ba 9F       		.byte	0x9f
 3253 00bb 00000000 		.4byte	0
 3254 00bf 00000000 		.4byte	0
 3255              	.LLST5:
 3256 00c3 00000000 		.4byte	.LVL5
 3257 00c7 1C000000 		.4byte	.LVL7
 3258 00cb 0200     		.2byte	0x2
 3259 00cd 91       		.byte	0x91
 3260 00ce 00       		.sleb128 0
 3261 00cf 1C000000 		.4byte	.LVL7
 3262 00d3 1E000000 		.4byte	.LFE8
 3263 00d7 0200     		.2byte	0x2
 3264 00d9 7D       		.byte	0x7d
 3265 00da 00       		.sleb128 0
 3266 00db 00000000 		.4byte	0
 3267 00df 00000000 		.4byte	0
 3268              	.LLST6:
 3269 00e3 00000000 		.4byte	.LVL8
 3270 00e7 08000000 		.4byte	.LVL9
 3271 00eb 0100     		.2byte	0x1
 3272 00ed 50       		.byte	0x50
 3273 00ee 08000000 		.4byte	.LVL9
 3274 00f2 2C000000 		.4byte	.LFE9
 3275 00f6 0100     		.2byte	0x1
 3276 00f8 54       		.byte	0x54
 3277 00f9 00000000 		.4byte	0
 3278 00fd 00000000 		.4byte	0
 3279              	.LLST7:
 3280 0101 18000000 		.4byte	.LVL10
 3281 0105 2A000000 		.4byte	.LVL12
 3282 0109 0100     		.2byte	0x1
 3283 010b 54       		.byte	0x54
 3284 010c 00000000 		.4byte	0
 3285 0110 00000000 		.4byte	0
 3286              	.LLST8:
 3287 0114 18000000 		.4byte	.LVL10
 3288 0118 21000000 		.4byte	.LVL11-1
 3289 011c 0100     		.2byte	0x1
 3290 011e 50       		.byte	0x50
 3291 011f 00000000 		.4byte	0
 3292 0123 00000000 		.4byte	0
 3293              	.LLST9:
 3294 0127 00000000 		.4byte	.LVL13
 3295 012b 06000000 		.4byte	.LVL14
 3296 012f 0100     		.2byte	0x1
 3297 0131 50       		.byte	0x50
 3298 0132 06000000 		.4byte	.LVL14
 3299 0136 2F000000 		.4byte	.LVL19-1
ARM GAS  /tmp/ccaP86JW.s 			page 59


 3300 013a 0100     		.2byte	0x1
 3301 013c 53       		.byte	0x53
 3302 013d 2F000000 		.4byte	.LVL19-1
 3303 0141 38000000 		.4byte	.LVL20
 3304 0145 0400     		.2byte	0x4
 3305 0147 F3       		.byte	0xf3
 3306 0148 01       		.uleb128 0x1
 3307 0149 50       		.byte	0x50
 3308 014a 9F       		.byte	0x9f
 3309 014b 38000000 		.4byte	.LVL20
 3310 014f 50000000 		.4byte	.LFE10
 3311 0153 0100     		.2byte	0x1
 3312 0155 53       		.byte	0x53
 3313 0156 00000000 		.4byte	0
 3314 015a 00000000 		.4byte	0
 3315              	.LLST10:
 3316 015e 00000000 		.4byte	.LVL13
 3317 0162 1A000000 		.4byte	.LVL15
 3318 0166 0100     		.2byte	0x1
 3319 0168 51       		.byte	0x51
 3320 0169 1A000000 		.4byte	.LVL15
 3321 016d 1C000000 		.4byte	.LVL16
 3322 0171 0200     		.2byte	0x2
 3323 0173 72       		.byte	0x72
 3324 0174 00       		.sleb128 0
 3325 0175 1C000000 		.4byte	.LVL16
 3326 0179 22000000 		.4byte	.LVL17
 3327 017d 0200     		.2byte	0x2
 3328 017f 70       		.byte	0x70
 3329 0180 7F       		.sleb128 -1
 3330 0181 22000000 		.4byte	.LVL17
 3331 0185 38000000 		.4byte	.LVL20
 3332 0189 0400     		.2byte	0x4
 3333 018b F3       		.byte	0xf3
 3334 018c 01       		.uleb128 0x1
 3335 018d 51       		.byte	0x51
 3336 018e 9F       		.byte	0x9f
 3337 018f 38000000 		.4byte	.LVL20
 3338 0193 3A000000 		.4byte	.LVL21
 3339 0197 0200     		.2byte	0x2
 3340 0199 70       		.byte	0x70
 3341 019a 7F       		.sleb128 -1
 3342 019b 3A000000 		.4byte	.LVL21
 3343 019f 46000000 		.4byte	.LVL22
 3344 01a3 0400     		.2byte	0x4
 3345 01a5 F3       		.byte	0xf3
 3346 01a6 01       		.uleb128 0x1
 3347 01a7 51       		.byte	0x51
 3348 01a8 9F       		.byte	0x9f
 3349 01a9 46000000 		.4byte	.LVL22
 3350 01ad 50000000 		.4byte	.LFE10
 3351 01b1 0100     		.2byte	0x1
 3352 01b3 51       		.byte	0x51
 3353 01b4 00000000 		.4byte	0
 3354 01b8 00000000 		.4byte	0
 3355              	.LLST11:
 3356 01bc 26000000 		.4byte	.LVL18
ARM GAS  /tmp/ccaP86JW.s 			page 60


 3357 01c0 2F000000 		.4byte	.LVL19-1
 3358 01c4 0100     		.2byte	0x1
 3359 01c6 53       		.byte	0x53
 3360 01c7 2F000000 		.4byte	.LVL19-1
 3361 01cb 38000000 		.4byte	.LVL20
 3362 01cf 0400     		.2byte	0x4
 3363 01d1 F3       		.byte	0xf3
 3364 01d2 01       		.uleb128 0x1
 3365 01d3 50       		.byte	0x50
 3366 01d4 9F       		.byte	0x9f
 3367 01d5 00000000 		.4byte	0
 3368 01d9 00000000 		.4byte	0
 3369              	.LLST12:
 3370 01dd 26000000 		.4byte	.LVL18
 3371 01e1 2F000000 		.4byte	.LVL19-1
 3372 01e5 0100     		.2byte	0x1
 3373 01e7 50       		.byte	0x50
 3374 01e8 00000000 		.4byte	0
 3375 01ec 00000000 		.4byte	0
 3376              	.LLST13:
 3377 01f0 00000000 		.4byte	.LVL23
 3378 01f4 11000000 		.4byte	.LVL24-1
 3379 01f8 0100     		.2byte	0x1
 3380 01fa 50       		.byte	0x50
 3381 01fb 11000000 		.4byte	.LVL24-1
 3382 01ff 14000000 		.4byte	.LVL25
 3383 0203 0100     		.2byte	0x1
 3384 0205 54       		.byte	0x54
 3385 0206 14000000 		.4byte	.LVL25
 3386 020a 17000000 		.4byte	.LVL26-1
 3387 020e 0100     		.2byte	0x1
 3388 0210 50       		.byte	0x50
 3389 0211 17000000 		.4byte	.LVL26-1
 3390 0215 26000000 		.4byte	.LVL28
 3391 0219 0100     		.2byte	0x1
 3392 021b 54       		.byte	0x54
 3393 021c 26000000 		.4byte	.LVL28
 3394 0220 3C000000 		.4byte	.LVL30
 3395 0224 0100     		.2byte	0x1
 3396 0226 50       		.byte	0x50
 3397 0227 3C000000 		.4byte	.LVL30
 3398 022b 50000000 		.4byte	.LFE11
 3399 022f 0100     		.2byte	0x1
 3400 0231 54       		.byte	0x54
 3401 0232 00000000 		.4byte	0
 3402 0236 00000000 		.4byte	0
 3403              	.LLST14:
 3404 023a 00000000 		.4byte	.LVL23
 3405 023e 11000000 		.4byte	.LVL24-1
 3406 0242 0100     		.2byte	0x1
 3407 0244 51       		.byte	0x51
 3408 0245 11000000 		.4byte	.LVL24-1
 3409 0249 14000000 		.4byte	.LVL25
 3410 024d 0100     		.2byte	0x1
 3411 024f 56       		.byte	0x56
 3412 0250 14000000 		.4byte	.LVL25
 3413 0254 17000000 		.4byte	.LVL26-1
ARM GAS  /tmp/ccaP86JW.s 			page 61


 3414 0258 0100     		.2byte	0x1
 3415 025a 51       		.byte	0x51
 3416 025b 17000000 		.4byte	.LVL26-1
 3417 025f 26000000 		.4byte	.LVL28
 3418 0263 0100     		.2byte	0x1
 3419 0265 56       		.byte	0x56
 3420 0266 26000000 		.4byte	.LVL28
 3421 026a 2A000000 		.4byte	.LVL29
 3422 026e 0100     		.2byte	0x1
 3423 0270 51       		.byte	0x51
 3424 0271 2A000000 		.4byte	.LVL29
 3425 0275 50000000 		.4byte	.LFE11
 3426 0279 0100     		.2byte	0x1
 3427 027b 56       		.byte	0x56
 3428 027c 00000000 		.4byte	0
 3429 0280 00000000 		.4byte	0
 3430              	.LLST15:
 3431 0284 3C000000 		.4byte	.LVL30
 3432 0288 40000000 		.4byte	.LVL31
 3433 028c 0200     		.2byte	0x2
 3434 028e 72       		.byte	0x72
 3435 028f 00       		.sleb128 0
 3436 0290 40000000 		.4byte	.LVL31
 3437 0294 48000000 		.4byte	.LVL32
 3438 0298 0100     		.2byte	0x1
 3439 029a 50       		.byte	0x50
 3440 029b 00000000 		.4byte	0
 3441 029f 00000000 		.4byte	0
 3442              	.LLST16:
 3443 02a3 18000000 		.4byte	.LVL26
 3444 02a7 1C000000 		.4byte	.LVL27
 3445 02ab 0100     		.2byte	0x1
 3446 02ad 50       		.byte	0x50
 3447 02ae 48000000 		.4byte	.LVL32
 3448 02b2 50000000 		.4byte	.LFE11
 3449 02b6 0100     		.2byte	0x1
 3450 02b8 50       		.byte	0x50
 3451 02b9 00000000 		.4byte	0
 3452 02bd 00000000 		.4byte	0
 3453              	.LLST17:
 3454 02c1 00000000 		.4byte	.LVL33
 3455 02c5 24000000 		.4byte	.LVL37
 3456 02c9 0100     		.2byte	0x1
 3457 02cb 50       		.byte	0x50
 3458 02cc 24000000 		.4byte	.LVL37
 3459 02d0 28000000 		.4byte	.LVL39
 3460 02d4 0100     		.2byte	0x1
 3461 02d6 54       		.byte	0x54
 3462 02d7 28000000 		.4byte	.LVL39
 3463 02db 2B000000 		.4byte	.LVL40-1
 3464 02df 0100     		.2byte	0x1
 3465 02e1 50       		.byte	0x50
 3466 02e2 2B000000 		.4byte	.LVL40-1
 3467 02e6 38000000 		.4byte	.LVL41
 3468 02ea 0100     		.2byte	0x1
 3469 02ec 54       		.byte	0x54
 3470 02ed 38000000 		.4byte	.LVL41
ARM GAS  /tmp/ccaP86JW.s 			page 62


 3471 02f1 6C000000 		.4byte	.LVL44
 3472 02f5 0100     		.2byte	0x1
 3473 02f7 50       		.byte	0x50
 3474 02f8 6C000000 		.4byte	.LVL44
 3475 02fc 78000000 		.4byte	.LFE12
 3476 0300 0100     		.2byte	0x1
 3477 0302 54       		.byte	0x54
 3478 0303 00000000 		.4byte	0
 3479 0307 00000000 		.4byte	0
 3480              	.LLST18:
 3481 030b 00000000 		.4byte	.LVL33
 3482 030f 1C000000 		.4byte	.LVL36
 3483 0313 0100     		.2byte	0x1
 3484 0315 51       		.byte	0x51
 3485 0316 1C000000 		.4byte	.LVL36
 3486 031a 42000000 		.4byte	.LVL42
 3487 031e 0700     		.2byte	0x7
 3488 0320 F3       		.byte	0xf3
 3489 0321 01       		.uleb128 0x1
 3490 0322 51       		.byte	0x51
 3491 0323 79       		.byte	0x79
 3492 0324 00       		.sleb128 0
 3493 0325 22       		.byte	0x22
 3494 0326 9F       		.byte	0x9f
 3495 0327 42000000 		.4byte	.LVL42
 3496 032b 60000000 		.4byte	.LVL43
 3497 032f 0900     		.2byte	0x9
 3498 0331 F3       		.byte	0xf3
 3499 0332 01       		.uleb128 0x1
 3500 0333 51       		.byte	0x51
 3501 0334 79       		.byte	0x79
 3502 0335 00       		.sleb128 0
 3503 0336 22       		.byte	0x22
 3504 0337 23       		.byte	0x23
 3505 0338 01       		.uleb128 0x1
 3506 0339 9F       		.byte	0x9f
 3507 033a 60000000 		.4byte	.LVL43
 3508 033e 6C000000 		.4byte	.LVL44
 3509 0342 0700     		.2byte	0x7
 3510 0344 79       		.byte	0x79
 3511 0345 00       		.sleb128 0
 3512 0346 F3       		.byte	0xf3
 3513 0347 01       		.uleb128 0x1
 3514 0348 51       		.byte	0x51
 3515 0349 22       		.byte	0x22
 3516 034a 9F       		.byte	0x9f
 3517 034b 6C000000 		.4byte	.LVL44
 3518 034f 72000000 		.4byte	.LVL45
 3519 0353 0700     		.2byte	0x7
 3520 0355 F3       		.byte	0xf3
 3521 0356 01       		.uleb128 0x1
 3522 0357 51       		.byte	0x51
 3523 0358 79       		.byte	0x79
 3524 0359 00       		.sleb128 0
 3525 035a 22       		.byte	0x22
 3526 035b 9F       		.byte	0x9f
 3527 035c 00000000 		.4byte	0
ARM GAS  /tmp/ccaP86JW.s 			page 63


 3528 0360 00000000 		.4byte	0
 3529              	.LLST19:
 3530 0364 00000000 		.4byte	.LVL33
 3531 0368 1C000000 		.4byte	.LVL36
 3532 036c 0100     		.2byte	0x1
 3533 036e 52       		.byte	0x52
 3534 036f 1C000000 		.4byte	.LVL36
 3535 0373 72000000 		.4byte	.LVL45
 3536 0377 0700     		.2byte	0x7
 3537 0379 F3       		.byte	0xf3
 3538 037a 01       		.uleb128 0x1
 3539 037b 52       		.byte	0x52
 3540 037c 79       		.byte	0x79
 3541 037d 00       		.sleb128 0
 3542 037e 1C       		.byte	0x1c
 3543 037f 9F       		.byte	0x9f
 3544 0380 00000000 		.4byte	0
 3545 0384 00000000 		.4byte	0
 3546              	.LLST20:
 3547 0388 00000000 		.4byte	.LVL33
 3548 038c 0E000000 		.4byte	.LVL35
 3549 0390 0100     		.2byte	0x1
 3550 0392 53       		.byte	0x53
 3551 0393 0E000000 		.4byte	.LVL35
 3552 0397 28000000 		.4byte	.LVL39
 3553 039b 0100     		.2byte	0x1
 3554 039d 56       		.byte	0x56
 3555 039e 28000000 		.4byte	.LVL39
 3556 03a2 2B000000 		.4byte	.LVL40-1
 3557 03a6 0100     		.2byte	0x1
 3558 03a8 51       		.byte	0x51
 3559 03a9 2B000000 		.4byte	.LVL40-1
 3560 03ad 38000000 		.4byte	.LVL41
 3561 03b1 0100     		.2byte	0x1
 3562 03b3 56       		.byte	0x56
 3563 03b4 38000000 		.4byte	.LVL41
 3564 03b8 6C000000 		.4byte	.LVL44
 3565 03bc 0100     		.2byte	0x1
 3566 03be 51       		.byte	0x51
 3567 03bf 6C000000 		.4byte	.LVL44
 3568 03c3 78000000 		.4byte	.LFE12
 3569 03c7 0100     		.2byte	0x1
 3570 03c9 56       		.byte	0x56
 3571 03ca 00000000 		.4byte	0
 3572 03ce 00000000 		.4byte	0
 3573              	.LLST21:
 3574 03d2 0C000000 		.4byte	.LVL34
 3575 03d6 1C000000 		.4byte	.LVL36
 3576 03da 0200     		.2byte	0x2
 3577 03dc 30       		.byte	0x30
 3578 03dd 9F       		.byte	0x9f
 3579 03de 1C000000 		.4byte	.LVL36
 3580 03e2 78000000 		.4byte	.LFE12
 3581 03e6 0100     		.2byte	0x1
 3582 03e8 59       		.byte	0x59
 3583 03e9 00000000 		.4byte	0
 3584 03ed 00000000 		.4byte	0
ARM GAS  /tmp/ccaP86JW.s 			page 64


 3585              	.LLST22:
 3586 03f1 00000000 		.4byte	.LVL46
 3587 03f5 1A000000 		.4byte	.LVL47
 3588 03f9 0200     		.2byte	0x2
 3589 03fb 91       		.byte	0x91
 3590 03fc 00       		.sleb128 0
 3591 03fd 1A000000 		.4byte	.LVL47
 3592 0401 1C000000 		.4byte	.LFE13
 3593 0405 0200     		.2byte	0x2
 3594 0407 7D       		.byte	0x7d
 3595 0408 00       		.sleb128 0
 3596 0409 00000000 		.4byte	0
 3597 040d 00000000 		.4byte	0
 3598              	.LLST23:
 3599 0411 00000000 		.4byte	.LVL48
 3600 0415 0A000000 		.4byte	.LVL49
 3601 0419 0100     		.2byte	0x1
 3602 041b 50       		.byte	0x50
 3603 041c 0A000000 		.4byte	.LVL49
 3604 0420 2E000000 		.4byte	.LFE14
 3605 0424 0100     		.2byte	0x1
 3606 0426 54       		.byte	0x54
 3607 0427 00000000 		.4byte	0
 3608 042b 00000000 		.4byte	0
 3609              	.LLST24:
 3610 042f 1A000000 		.4byte	.LVL50
 3611 0433 2C000000 		.4byte	.LVL52
 3612 0437 0100     		.2byte	0x1
 3613 0439 54       		.byte	0x54
 3614 043a 00000000 		.4byte	0
 3615 043e 00000000 		.4byte	0
 3616              	.LLST25:
 3617 0442 1A000000 		.4byte	.LVL50
 3618 0446 23000000 		.4byte	.LVL51-1
 3619 044a 0100     		.2byte	0x1
 3620 044c 50       		.byte	0x50
 3621 044d 00000000 		.4byte	0
 3622 0451 00000000 		.4byte	0
 3623              	.LLST26:
 3624 0455 00000000 		.4byte	.LVL53
 3625 0459 13000000 		.4byte	.LVL55-1
 3626 045d 0100     		.2byte	0x1
 3627 045f 50       		.byte	0x50
 3628 0460 13000000 		.4byte	.LVL55-1
 3629 0464 22000000 		.4byte	.LVL57
 3630 0468 0100     		.2byte	0x1
 3631 046a 54       		.byte	0x54
 3632 046b 22000000 		.4byte	.LVL57
 3633 046f 40000000 		.4byte	.LVL58
 3634 0473 0100     		.2byte	0x1
 3635 0475 50       		.byte	0x50
 3636 0476 40000000 		.4byte	.LVL58
 3637 047a 54000000 		.4byte	.LFE15
 3638 047e 0100     		.2byte	0x1
 3639 0480 54       		.byte	0x54
 3640 0481 00000000 		.4byte	0
 3641 0485 00000000 		.4byte	0
ARM GAS  /tmp/ccaP86JW.s 			page 65


 3642              	.LLST27:
 3643 0489 00000000 		.4byte	.LVL53
 3644 048d 10000000 		.4byte	.LVL54
 3645 0491 0100     		.2byte	0x1
 3646 0493 51       		.byte	0x51
 3647 0494 10000000 		.4byte	.LVL54
 3648 0498 54000000 		.4byte	.LFE15
 3649 049c 0400     		.2byte	0x4
 3650 049e F3       		.byte	0xf3
 3651 049f 01       		.uleb128 0x1
 3652 04a0 51       		.byte	0x51
 3653 04a1 9F       		.byte	0x9f
 3654 04a2 00000000 		.4byte	0
 3655 04a6 00000000 		.4byte	0
 3656              	.LLST28:
 3657 04aa 00000000 		.4byte	.LVL53
 3658 04ae 10000000 		.4byte	.LVL54
 3659 04b2 0100     		.2byte	0x1
 3660 04b4 52       		.byte	0x52
 3661 04b5 10000000 		.4byte	.LVL54
 3662 04b9 13000000 		.4byte	.LVL55-1
 3663 04bd 0100     		.2byte	0x1
 3664 04bf 51       		.byte	0x51
 3665 04c0 13000000 		.4byte	.LVL55-1
 3666 04c4 22000000 		.4byte	.LVL57
 3667 04c8 0100     		.2byte	0x1
 3668 04ca 56       		.byte	0x56
 3669 04cb 22000000 		.4byte	.LVL57
 3670 04cf 41000000 		.4byte	.LVL59-1
 3671 04d3 0100     		.2byte	0x1
 3672 04d5 51       		.byte	0x51
 3673 04d6 41000000 		.4byte	.LVL59-1
 3674 04da 54000000 		.4byte	.LFE15
 3675 04de 0100     		.2byte	0x1
 3676 04e0 56       		.byte	0x56
 3677 04e1 00000000 		.4byte	0
 3678 04e5 00000000 		.4byte	0
 3679              	.LLST29:
 3680 04e9 14000000 		.4byte	.LVL55
 3681 04ed 18000000 		.4byte	.LVL56
 3682 04f1 0100     		.2byte	0x1
 3683 04f3 50       		.byte	0x50
 3684 04f4 4C000000 		.4byte	.LVL60
 3685 04f8 54000000 		.4byte	.LFE15
 3686 04fc 0100     		.2byte	0x1
 3687 04fe 50       		.byte	0x50
 3688 04ff 00000000 		.4byte	0
 3689 0503 00000000 		.4byte	0
 3690              	.LLST30:
 3691 0507 00000000 		.4byte	.LVL61
 3692 050b 10000000 		.4byte	.LVL62
 3693 050f 0100     		.2byte	0x1
 3694 0511 50       		.byte	0x50
 3695 0512 10000000 		.4byte	.LVL62
 3696 0516 2D000000 		.4byte	.LVL66-1
 3697 051a 0100     		.2byte	0x1
 3698 051c 53       		.byte	0x53
ARM GAS  /tmp/ccaP86JW.s 			page 66


 3699 051d 2D000000 		.4byte	.LVL66-1
 3700 0521 36000000 		.4byte	.LVL68
 3701 0525 0400     		.2byte	0x4
 3702 0527 F3       		.byte	0xf3
 3703 0528 01       		.uleb128 0x1
 3704 0529 50       		.byte	0x50
 3705 052a 9F       		.byte	0x9f
 3706 052b 36000000 		.4byte	.LVL68
 3707 052f 3C000000 		.4byte	.LVL71
 3708 0533 0100     		.2byte	0x1
 3709 0535 53       		.byte	0x53
 3710 0536 3C000000 		.4byte	.LVL71
 3711 053a 44000000 		.4byte	.LVL72
 3712 053e 0100     		.2byte	0x1
 3713 0540 50       		.byte	0x50
 3714 0541 44000000 		.4byte	.LVL72
 3715 0545 46000000 		.4byte	.LFE16
 3716 0549 0100     		.2byte	0x1
 3717 054b 53       		.byte	0x53
 3718 054c 00000000 		.4byte	0
 3719 0550 00000000 		.4byte	0
 3720              	.LLST31:
 3721 0554 1C000000 		.4byte	.LVL63
 3722 0558 1E000000 		.4byte	.LVL64
 3723 055c 0200     		.2byte	0x2
 3724 055e 72       		.byte	0x72
 3725 055f 00       		.sleb128 0
 3726 0560 1E000000 		.4byte	.LVL64
 3727 0564 36000000 		.4byte	.LVL68
 3728 0568 0100     		.2byte	0x1
 3729 056a 54       		.byte	0x54
 3730 056b 36000000 		.4byte	.LVL68
 3731 056f 38000000 		.4byte	.LVL69
 3732 0573 0200     		.2byte	0x2
 3733 0575 72       		.byte	0x72
 3734 0576 00       		.sleb128 0
 3735 0577 38000000 		.4byte	.LVL69
 3736 057b 3A000000 		.4byte	.LVL70
 3737 057f 0200     		.2byte	0x2
 3738 0581 71       		.byte	0x71
 3739 0582 7F       		.sleb128 -1
 3740 0583 3A000000 		.4byte	.LVL70
 3741 0587 3C000000 		.4byte	.LVL71
 3742 058b 0100     		.2byte	0x1
 3743 058d 54       		.byte	0x54
 3744 058e 00000000 		.4byte	0
 3745 0592 00000000 		.4byte	0
 3746              	.LLST32:
 3747 0596 24000000 		.4byte	.LVL65
 3748 059a 2D000000 		.4byte	.LVL66-1
 3749 059e 0100     		.2byte	0x1
 3750 05a0 53       		.byte	0x53
 3751 05a1 2D000000 		.4byte	.LVL66-1
 3752 05a5 32000000 		.4byte	.LVL67
 3753 05a9 0400     		.2byte	0x4
 3754 05ab F3       		.byte	0xf3
 3755 05ac 01       		.uleb128 0x1
ARM GAS  /tmp/ccaP86JW.s 			page 67


 3756 05ad 50       		.byte	0x50
 3757 05ae 9F       		.byte	0x9f
 3758 05af 00000000 		.4byte	0
 3759 05b3 00000000 		.4byte	0
 3760              	.LLST33:
 3761 05b7 24000000 		.4byte	.LVL65
 3762 05bb 2D000000 		.4byte	.LVL66-1
 3763 05bf 0100     		.2byte	0x1
 3764 05c1 50       		.byte	0x50
 3765 05c2 00000000 		.4byte	0
 3766 05c6 00000000 		.4byte	0
 3767              	.LLST34:
 3768 05ca 00000000 		.4byte	.LVL73
 3769 05ce 1A000000 		.4byte	.LVL76
 3770 05d2 0100     		.2byte	0x1
 3771 05d4 50       		.byte	0x50
 3772 05d5 1A000000 		.4byte	.LVL76
 3773 05d9 26000000 		.4byte	.LVL78
 3774 05dd 0100     		.2byte	0x1
 3775 05df 54       		.byte	0x54
 3776 05e0 26000000 		.4byte	.LVL78
 3777 05e4 45000000 		.4byte	.LVL79-1
 3778 05e8 0100     		.2byte	0x1
 3779 05ea 50       		.byte	0x50
 3780 05eb 45000000 		.4byte	.LVL79-1
 3781 05ef 5E000000 		.4byte	.LVL82
 3782 05f3 0100     		.2byte	0x1
 3783 05f5 54       		.byte	0x54
 3784 05f6 5E000000 		.4byte	.LVL82
 3785 05fa 60000000 		.4byte	.LVL83
 3786 05fe 0100     		.2byte	0x1
 3787 0600 50       		.byte	0x50
 3788 0601 60000000 		.4byte	.LVL83
 3789 0605 76000000 		.4byte	.LFE17
 3790 0609 0100     		.2byte	0x1
 3791 060b 54       		.byte	0x54
 3792 060c 00000000 		.4byte	0
 3793 0610 00000000 		.4byte	0
 3794              	.LLST35:
 3795 0614 00000000 		.4byte	.LVL73
 3796 0618 1A000000 		.4byte	.LVL76
 3797 061c 0100     		.2byte	0x1
 3798 061e 51       		.byte	0x51
 3799 061f 1A000000 		.4byte	.LVL76
 3800 0623 20000000 		.4byte	.LVL77
 3801 0627 0100     		.2byte	0x1
 3802 0629 56       		.byte	0x56
 3803 062a 20000000 		.4byte	.LVL77
 3804 062e 76000000 		.4byte	.LFE17
 3805 0632 0100     		.2byte	0x1
 3806 0634 5B       		.byte	0x5b
 3807 0635 00000000 		.4byte	0
 3808 0639 00000000 		.4byte	0
 3809              	.LLST36:
 3810 063d 00000000 		.4byte	.LVL73
 3811 0641 1A000000 		.4byte	.LVL76
 3812 0645 0100     		.2byte	0x1
ARM GAS  /tmp/ccaP86JW.s 			page 68


 3813 0647 52       		.byte	0x52
 3814 0648 1A000000 		.4byte	.LVL76
 3815 064c 4E000000 		.4byte	.LVL80
 3816 0650 0100     		.2byte	0x1
 3817 0652 57       		.byte	0x57
 3818 0653 4E000000 		.4byte	.LVL80
 3819 0657 52000000 		.4byte	.LVL81
 3820 065b 0300     		.2byte	0x3
 3821 065d 77       		.byte	0x77
 3822 065e 01       		.sleb128 1
 3823 065f 9F       		.byte	0x9f
 3824 0660 5E000000 		.4byte	.LVL82
 3825 0664 70000000 		.4byte	.LVL85
 3826 0668 0100     		.2byte	0x1
 3827 066a 57       		.byte	0x57
 3828 066b 00000000 		.4byte	0
 3829 066f 00000000 		.4byte	0
 3830              	.LLST37:
 3831 0673 00000000 		.4byte	.LVL73
 3832 0677 12000000 		.4byte	.LVL75
 3833 067b 0100     		.2byte	0x1
 3834 067d 53       		.byte	0x53
 3835 067e 12000000 		.4byte	.LVL75
 3836 0682 76000000 		.4byte	.LFE17
 3837 0686 0100     		.2byte	0x1
 3838 0688 5A       		.byte	0x5a
 3839 0689 00000000 		.4byte	0
 3840 068d 00000000 		.4byte	0
 3841              	.LLST38:
 3842 0691 10000000 		.4byte	.LVL74
 3843 0695 1A000000 		.4byte	.LVL76
 3844 0699 0200     		.2byte	0x2
 3845 069b 30       		.byte	0x30
 3846 069c 9F       		.byte	0x9f
 3847 069d 1A000000 		.4byte	.LVL76
 3848 06a1 76000000 		.4byte	.LFE17
 3849 06a5 0100     		.2byte	0x1
 3850 06a7 58       		.byte	0x58
 3851 06a8 00000000 		.4byte	0
 3852 06ac 00000000 		.4byte	0
 3853              		.section	.debug_aranges,"",%progbits
 3854 0000 6C000000 		.4byte	0x6c
 3855 0004 0200     		.2byte	0x2
 3856 0006 00000000 		.4byte	.Ldebug_info0
 3857 000a 04       		.byte	0x4
 3858 000b 00       		.byte	0
 3859 000c 0000     		.2byte	0
 3860 000e 0000     		.2byte	0
 3861 0010 00000000 		.4byte	.LFB7
 3862 0014 30000000 		.4byte	.LFE7-.LFB7
 3863 0018 00000000 		.4byte	.LFB8
 3864 001c 1E000000 		.4byte	.LFE8-.LFB8
 3865 0020 00000000 		.4byte	.LFB9
 3866 0024 2C000000 		.4byte	.LFE9-.LFB9
 3867 0028 00000000 		.4byte	.LFB10
 3868 002c 50000000 		.4byte	.LFE10-.LFB10
 3869 0030 00000000 		.4byte	.LFB11
ARM GAS  /tmp/ccaP86JW.s 			page 69


 3870 0034 50000000 		.4byte	.LFE11-.LFB11
 3871 0038 00000000 		.4byte	.LFB12
 3872 003c 78000000 		.4byte	.LFE12-.LFB12
 3873 0040 00000000 		.4byte	.LFB13
 3874 0044 1C000000 		.4byte	.LFE13-.LFB13
 3875 0048 00000000 		.4byte	.LFB14
 3876 004c 2E000000 		.4byte	.LFE14-.LFB14
 3877 0050 00000000 		.4byte	.LFB15
 3878 0054 54000000 		.4byte	.LFE15-.LFB15
 3879 0058 00000000 		.4byte	.LFB16
 3880 005c 46000000 		.4byte	.LFE16-.LFB16
 3881 0060 00000000 		.4byte	.LFB17
 3882 0064 76000000 		.4byte	.LFE17-.LFB17
 3883 0068 00000000 		.4byte	0
 3884 006c 00000000 		.4byte	0
 3885              		.section	.debug_ranges,"",%progbits
 3886              	.Ldebug_ranges0:
 3887 0000 02000000 		.4byte	.LBB18
 3888 0004 04000000 		.4byte	.LBE18
 3889 0008 08000000 		.4byte	.LBB19
 3890 000c 0C000000 		.4byte	.LBE19
 3891 0010 00000000 		.4byte	0
 3892 0014 00000000 		.4byte	0
 3893 0018 14000000 		.4byte	.LBB20
 3894 001c 1C000000 		.4byte	.LBE20
 3895 0020 1E000000 		.4byte	.LBB22
 3896 0024 22000000 		.4byte	.LBE22
 3897 0028 48000000 		.4byte	.LBB24
 3898 002c 50000000 		.4byte	.LBE24
 3899 0030 00000000 		.4byte	0
 3900 0034 00000000 		.4byte	0
 3901 0038 10000000 		.4byte	.LBB32
 3902 003c 18000000 		.4byte	.LBE32
 3903 0040 1A000000 		.4byte	.LBB34
 3904 0044 1E000000 		.4byte	.LBE34
 3905 0048 4C000000 		.4byte	.LBB36
 3906 004c 54000000 		.4byte	.LBE36
 3907 0050 00000000 		.4byte	0
 3908 0054 00000000 		.4byte	0
 3909 0058 00000000 		.4byte	.LFB7
 3910 005c 30000000 		.4byte	.LFE7
 3911 0060 00000000 		.4byte	.LFB8
 3912 0064 1E000000 		.4byte	.LFE8
 3913 0068 00000000 		.4byte	.LFB9
 3914 006c 2C000000 		.4byte	.LFE9
 3915 0070 00000000 		.4byte	.LFB10
 3916 0074 50000000 		.4byte	.LFE10
 3917 0078 00000000 		.4byte	.LFB11
 3918 007c 50000000 		.4byte	.LFE11
 3919 0080 00000000 		.4byte	.LFB12
 3920 0084 78000000 		.4byte	.LFE12
 3921 0088 00000000 		.4byte	.LFB13
 3922 008c 1C000000 		.4byte	.LFE13
 3923 0090 00000000 		.4byte	.LFB14
 3924 0094 2E000000 		.4byte	.LFE14
 3925 0098 00000000 		.4byte	.LFB15
 3926 009c 54000000 		.4byte	.LFE15
ARM GAS  /tmp/ccaP86JW.s 			page 70


 3927 00a0 00000000 		.4byte	.LFB16
 3928 00a4 46000000 		.4byte	.LFE16
 3929 00a8 00000000 		.4byte	.LFB17
 3930 00ac 76000000 		.4byte	.LFE17
 3931 00b0 00000000 		.4byte	0
 3932 00b4 00000000 		.4byte	0
 3933              		.section	.debug_line,"",%progbits
 3934              	.Ldebug_line0:
 3935 0000 91030000 		.section	.debug_str,"MS",%progbits,1
 3935      02009101 
 3935      00000201 
 3935      FB0E0D00 
 3935      01010101 
 3936              	.LASF89:
 3937 0000 63684F51 		.ascii	"chOQInit\000"
 3937      496E6974 
 3937      00
 3938              	.LASF41:
 3939 0009 705F6D73 		.ascii	"p_msg\000"
 3939      6700
 3940              	.LASF98:
 3941 000f 71756575 		.ascii	"queue_insert\000"
 3941      655F696E 
 3941      73657274 
 3941      00
 3942              	.LASF90:
 3943 001c 6F6E6679 		.ascii	"onfy\000"
 3943      00
 3944              	.LASF2:
 3945 0021 73697A65 		.ascii	"size_t\000"
 3945      5F7400
 3946              	.LASF63:
 3947 0028 7264796D 		.ascii	"rdymsg\000"
 3947      736700
 3948              	.LASF84:
 3949 002f 63684951 		.ascii	"chIQInit\000"
 3949      496E6974 
 3949      00
 3950              	.LASF79:
 3951 0038 4F757470 		.ascii	"OutputQueue\000"
 3951      75745175 
 3951      65756500 
 3952              	.LASF3:
 3953 0044 5F5F7569 		.ascii	"__uint8_t\000"
 3953      6E74385F 
 3953      7400
 3954              	.LASF88:
 3955 004e 63684951 		.ascii	"chIQReadTimeout\000"
 3955      52656164 
 3955      54696D65 
 3955      6F757400 
 3956              	.LASF95:
 3957 005e 474E5520 		.ascii	"GNU C 4.8.2 -mcpu=cortex-m4 -mno-thumb-interwork -m"
 3957      4320342E 
 3957      382E3220 
 3957      2D6D6370 
 3957      753D636F 
ARM GAS  /tmp/ccaP86JW.s 			page 71


 3958 0091 7468756D 		.ascii	"thumb -ggdb -O2 -fomit-frame-pointer -falign-functi"
 3958      62202D67 
 3958      67646220 
 3958      2D4F3220 
 3958      2D666F6D 
 3959 00c4 6F6E733D 		.ascii	"ons=16 -ffunction-sections -fdata-sections -fno-com"
 3959      3136202D 
 3959      6666756E 
 3959      6374696F 
 3959      6E2D7365 
 3960 00f7 6D6F6E00 		.ascii	"mon\000"
 3961              	.LASF12:
 3962 00fb 6C6F6E67 		.ascii	"long long unsigned int\000"
 3962      206C6F6E 
 3962      6720756E 
 3962      7369676E 
 3962      65642069 
 3963              	.LASF64:
 3964 0112 65786974 		.ascii	"exitcode\000"
 3964      636F6465 
 3964      00
 3965              	.LASF29:
 3966 011b 705F7072 		.ascii	"p_prio\000"
 3966      696F00
 3967              	.LASF69:
 3968 0122 715F7761 		.ascii	"q_waiting\000"
 3968      6974696E 
 3968      6700
 3969              	.LASF11:
 3970 012c 6C6F6E67 		.ascii	"long long int\000"
 3970      206C6F6E 
 3970      6720696E 
 3970      7400
 3971              	.LASF1:
 3972 013a 7369676E 		.ascii	"signed char\000"
 3972      65642063 
 3972      68617200 
 3973              	.LASF45:
 3974 0146 705F6D70 		.ascii	"p_mpool\000"
 3974      6F6F6C00 
 3975              	.LASF16:
 3976 014e 626F6F6C 		.ascii	"bool_t\000"
 3976      5F7400
 3977              	.LASF60:
 3978 0155 6D5F7175 		.ascii	"m_queue\000"
 3978      65756500 
 3979              	.LASF21:
 3980 015d 74736C69 		.ascii	"tslices_t\000"
 3980      6365735F 
 3980      7400
 3981              	.LASF100:
 3982 0167 71776169 		.ascii	"qwait\000"
 3982      7400
 3983              	.LASF8:
 3984 016d 6C6F6E67 		.ascii	"long int\000"
 3984      20696E74 
 3984      00
ARM GAS  /tmp/ccaP86JW.s 			page 72


 3985              	.LASF19:
 3986 0176 74737461 		.ascii	"tstate_t\000"
 3986      74655F74 
 3986      00
 3987              	.LASF93:
 3988 017f 63684F51 		.ascii	"chOQGetI\000"
 3988      47657449 
 3988      00
 3989              	.LASF71:
 3990 0188 715F6275 		.ascii	"q_buffer\000"
 3990      66666572 
 3990      00
 3991              	.LASF73:
 3992 0191 715F7772 		.ascii	"q_wrptr\000"
 3992      70747200 
 3993              	.LASF31:
 3994 0199 705F6E65 		.ascii	"p_newer\000"
 3994      77657200 
 3995              	.LASF9:
 3996 01a1 5F5F7569 		.ascii	"__uint32_t\000"
 3996      6E743332 
 3996      5F7400
 3997              	.LASF48:
 3998 01ac 72656761 		.ascii	"regarm_t\000"
 3998      726D5F74 
 3998      00
 3999              	.LASF83:
 4000 01b5 6C696E6B 		.ascii	"link\000"
 4000      00
 4001              	.LASF92:
 4002 01ba 63684F51 		.ascii	"chOQPutTimeout\000"
 4002      50757454 
 4002      696D656F 
 4002      757400
 4003              	.LASF86:
 4004 01c9 63684951 		.ascii	"chIQPutI\000"
 4004      50757449 
 4004      00
 4005              	.LASF0:
 4006 01d2 756E7369 		.ascii	"unsigned int\000"
 4006      676E6564 
 4006      20696E74 
 4006      00
 4007              	.LASF85:
 4008 01df 63684951 		.ascii	"chIQResetI\000"
 4008      52657365 
 4008      744900
 4009              	.LASF10:
 4010 01ea 6C6F6E67 		.ascii	"long unsigned int\000"
 4010      20756E73 
 4010      69676E65 
 4010      6420696E 
 4010      7400
 4011              	.LASF50:
 4012 01fc 636F6E74 		.ascii	"context\000"
 4012      65787400 
 4013              	.LASF81:
ARM GAS  /tmp/ccaP86JW.s 			page 73


 4014 0204 73697A65 		.ascii	"size\000"
 4014      00
 4015              	.LASF6:
 4016 0209 73686F72 		.ascii	"short unsigned int\000"
 4016      7420756E 
 4016      7369676E 
 4016      65642069 
 4016      6E7400
 4017              	.LASF23:
 4018 021c 6D73675F 		.ascii	"msg_t\000"
 4018      7400
 4019              	.LASF55:
 4020 0222 725F6E65 		.ascii	"r_newer\000"
 4020      77657200 
 4021              	.LASF18:
 4022 022a 746D6F64 		.ascii	"tmode_t\000"
 4022      655F7400 
 4023              	.LASF97:
 4024 0232 2F686F6D 		.ascii	"/home/mo/ARMProjects/STM32F4/ChibiOS/src\000"
 4024      652F6D6F 
 4024      2F41524D 
 4024      50726F6A 
 4024      65637473 
 4025              	.LASF47:
 4026 025b 54687265 		.ascii	"ThreadsList\000"
 4026      6164734C 
 4026      69737400 
 4027              	.LASF24:
 4028 0267 6576656E 		.ascii	"eventmask_t\000"
 4028      746D6173 
 4028      6B5F7400 
 4029              	.LASF78:
 4030 0273 496E7075 		.ascii	"InputQueue\000"
 4030      74517565 
 4030      756500
 4031              	.LASF59:
 4032 027e 4D757465 		.ascii	"Mutex\000"
 4032      7800
 4033              	.LASF68:
 4034 0284 47656E65 		.ascii	"GenericQueue\000"
 4034      72696351 
 4034      75657565 
 4034      00
 4035              	.LASF94:
 4036 0291 63684F51 		.ascii	"chOQWriteTimeout\000"
 4036      57726974 
 4036      6554696D 
 4036      656F7574 
 4036      00
 4037              	.LASF51:
 4038 02a2 73697A65 		.ascii	"sizetype\000"
 4038      74797065 
 4038      00
 4039              	.LASF70:
 4040 02ab 715F636F 		.ascii	"q_counter\000"
 4040      756E7465 
 4040      7200
ARM GAS  /tmp/ccaP86JW.s 			page 74


 4041              	.LASF32:
 4042 02b5 705F6F6C 		.ascii	"p_older\000"
 4042      64657200 
 4043              	.LASF54:
 4044 02bd 725F6374 		.ascii	"r_ctx\000"
 4044      7800
 4045              	.LASF46:
 4046 02c3 54687265 		.ascii	"ThreadsQueue\000"
 4046      61647351 
 4046      75657565 
 4046      00
 4047              	.LASF80:
 4048 02d0 74696D65 		.ascii	"time\000"
 4048      00
 4049              	.LASF57:
 4050 02d5 725F6375 		.ascii	"r_current\000"
 4050      7272656E 
 4050      7400
 4051              	.LASF56:
 4052 02df 725F6F6C 		.ascii	"r_older\000"
 4052      64657200 
 4053              	.LASF20:
 4054 02e7 74726566 		.ascii	"trefs_t\000"
 4054      735F7400 
 4055              	.LASF77:
 4056 02ef 716E6F74 		.ascii	"qnotify_t\000"
 4056      6966795F 
 4056      7400
 4057              	.LASF28:
 4058 02f9 705F7072 		.ascii	"p_prev\000"
 4058      657600
 4059              	.LASF22:
 4060 0300 74707269 		.ascii	"tprio_t\000"
 4060      6F5F7400 
 4061              	.LASF74:
 4062 0308 715F7264 		.ascii	"q_rdptr\000"
 4062      70747200 
 4063              	.LASF17:
 4064 0310 5F426F6F 		.ascii	"_Bool\000"
 4064      6C00
 4065              	.LASF14:
 4066 0316 696E7433 		.ascii	"int32_t\000"
 4066      325F7400 
 4067              	.LASF4:
 4068 031e 756E7369 		.ascii	"unsigned char\000"
 4068      676E6564 
 4068      20636861 
 4068      7200
 4069              	.LASF43:
 4070 032c 705F6D74 		.ascii	"p_mtxlist\000"
 4070      786C6973 
 4070      7400
 4071              	.LASF5:
 4072 0336 73686F72 		.ascii	"short int\000"
 4072      7420696E 
 4072      7400
 4073              	.LASF34:
ARM GAS  /tmp/ccaP86JW.s 			page 75


 4074 0340 705F7374 		.ascii	"p_state\000"
 4074      61746500 
 4075              	.LASF37:
 4076 0348 705F7072 		.ascii	"p_preempt\000"
 4076      65656D70 
 4076      7400
 4077              	.LASF53:
 4078 0352 725F7072 		.ascii	"r_prio\000"
 4078      696F00
 4079              	.LASF66:
 4080 0359 65776D61 		.ascii	"ewmask\000"
 4080      736B00
 4081              	.LASF27:
 4082 0360 705F6E65 		.ascii	"p_next\000"
 4082      787400
 4083              	.LASF82:
 4084 0367 696E6679 		.ascii	"infy\000"
 4084      00
 4085              	.LASF35:
 4086 036c 705F666C 		.ascii	"p_flags\000"
 4086      61677300 
 4087              	.LASF26:
 4088 0374 54687265 		.ascii	"Thread\000"
 4088      616400
 4089              	.LASF42:
 4090 037b 705F6570 		.ascii	"p_epending\000"
 4090      656E6469 
 4090      6E6700
 4091              	.LASF15:
 4092 0386 75696E74 		.ascii	"uint32_t\000"
 4092      33325F74 
 4092      00
 4093              	.LASF52:
 4094 038f 725F7175 		.ascii	"r_queue\000"
 4094      65756500 
 4095              	.LASF103:
 4096 0397 63685363 		.ascii	"chSchReadyI\000"
 4096      68526561 
 4096      64794900 
 4097              	.LASF67:
 4098 03a3 63686172 		.ascii	"char\000"
 4098      00
 4099              	.LASF99:
 4100 03a8 6669666F 		.ascii	"fifo_remove\000"
 4100      5F72656D 
 4100      6F766500 
 4101              	.LASF62:
 4102 03b4 6D5F6E65 		.ascii	"m_next\000"
 4102      787400
 4103              	.LASF25:
 4104 03bb 73797374 		.ascii	"systime_t\000"
 4104      696D655F 
 4104      7400
 4105              	.LASF44:
 4106 03c5 705F7265 		.ascii	"p_realprio\000"
 4106      616C7072 
 4106      696F00
ARM GAS  /tmp/ccaP86JW.s 			page 76


 4107              	.LASF7:
 4108 03d0 5F5F696E 		.ascii	"__int32_t\000"
 4108      7433325F 
 4108      7400
 4109              	.LASF91:
 4110 03da 63684F51 		.ascii	"chOQResetI\000"
 4110      52657365 
 4110      744900
 4111              	.LASF38:
 4112 03e5 705F7469 		.ascii	"p_time\000"
 4112      6D6500
 4113              	.LASF49:
 4114 03ec 696E7463 		.ascii	"intctx\000"
 4114      747800
 4115              	.LASF40:
 4116 03f3 705F6D73 		.ascii	"p_msgqueue\000"
 4116      67717565 
 4116      756500
 4117              	.LASF96:
 4118 03fe 2E2E2F69 		.ascii	"../include/ChibiOS_2.6.5/os/kernel/src/chqueues.c\000"
 4118      6E636C75 
 4118      64652F43 
 4118      68696269 
 4118      4F535F32 
 4119              	.LASF72:
 4120 0430 715F746F 		.ascii	"q_top\000"
 4120      7000
 4121              	.LASF36:
 4122 0436 705F7265 		.ascii	"p_refs\000"
 4122      667300
 4123              	.LASF58:
 4124 043d 52656164 		.ascii	"ReadyList\000"
 4124      794C6973 
 4124      7400
 4125              	.LASF75:
 4126 0447 715F6E6F 		.ascii	"q_notify\000"
 4126      74696679 
 4126      00
 4127              	.LASF101:
 4128 0450 726C6973 		.ascii	"rlist\000"
 4128      7400
 4129              	.LASF13:
 4130 0456 75696E74 		.ascii	"uint8_t\000"
 4130      385F7400 
 4131              	.LASF65:
 4132 045e 77746F62 		.ascii	"wtobjp\000"
 4132      6A7000
 4133              	.LASF33:
 4134 0465 705F6E61 		.ascii	"p_name\000"
 4134      6D6500
 4135              	.LASF102:
 4136 046c 63685363 		.ascii	"chSchGoSleepTimeoutS\000"
 4136      68476F53 
 4136      6C656570 
 4136      54696D65 
 4136      6F757453 
 4137              	.LASF76:
ARM GAS  /tmp/ccaP86JW.s 			page 77


 4138 0481 715F6C69 		.ascii	"q_link\000"
 4138      6E6B00
 4139              	.LASF61:
 4140 0488 6D5F6F77 		.ascii	"m_owner\000"
 4140      6E657200 
 4141              	.LASF30:
 4142 0490 705F6374 		.ascii	"p_ctx\000"
 4142      7800
 4143              	.LASF39:
 4144 0496 705F7761 		.ascii	"p_waiting\000"
 4144      6974696E 
 4144      6700
 4145              	.LASF87:
 4146 04a0 63684951 		.ascii	"chIQGetTimeout\000"
 4146      47657454 
 4146      696D656F 
 4146      757400
 4147              		.ident	"GCC: (4.8.2-14ubuntu1+6) 4.8.2"
ARM GAS  /tmp/ccaP86JW.s 			page 78


DEFINED SYMBOLS
                            *ABS*:0000000000000000 chqueues.c
     /tmp/ccaP86JW.s:19     .text.qwait:0000000000000000 $t
     /tmp/ccaP86JW.s:24     .text.qwait:0000000000000000 qwait
     /tmp/ccaP86JW.s:76     .text.chIQInit:0000000000000000 $t
     /tmp/ccaP86JW.s:82     .text.chIQInit:0000000000000000 chIQInit
     /tmp/ccaP86JW.s:125    .text.chIQResetI:0000000000000000 $t
     /tmp/ccaP86JW.s:131    .text.chIQResetI:0000000000000000 chIQResetI
     /tmp/ccaP86JW.s:190    .text.chIQPutI:0000000000000000 $t
     /tmp/ccaP86JW.s:196    .text.chIQPutI:0000000000000000 chIQPutI
     /tmp/ccaP86JW.s:287    .text.chIQGetTimeout:0000000000000000 $t
     /tmp/ccaP86JW.s:293    .text.chIQGetTimeout:0000000000000000 chIQGetTimeout
     /tmp/ccaP86JW.s:402    .text.chIQReadTimeout:0000000000000000 $t
     /tmp/ccaP86JW.s:408    .text.chIQReadTimeout:0000000000000000 chIQReadTimeout
     /tmp/ccaP86JW.s:537    .text.chOQInit:0000000000000000 $t
     /tmp/ccaP86JW.s:543    .text.chOQInit:0000000000000000 chOQInit
     /tmp/ccaP86JW.s:582    .text.chOQResetI:0000000000000000 $t
     /tmp/ccaP86JW.s:588    .text.chOQResetI:0000000000000000 chOQResetI
     /tmp/ccaP86JW.s:649    .text.chOQPutTimeout:0000000000000000 $t
     /tmp/ccaP86JW.s:655    .text.chOQPutTimeout:0000000000000000 chOQPutTimeout
     /tmp/ccaP86JW.s:764    .text.chOQGetI:0000000000000000 $t
     /tmp/ccaP86JW.s:770    .text.chOQGetI:0000000000000000 chOQGetI
     /tmp/ccaP86JW.s:856    .text.chOQWriteTimeout:0000000000000000 $t
     /tmp/ccaP86JW.s:862    .text.chOQWriteTimeout:0000000000000000 chOQWriteTimeout
                     .debug_frame:0000000000000010 $d

UNDEFINED SYMBOLS
rlist
chSchGoSleepTimeoutS
chSchReadyI
