ARM GAS  /tmp/cc2mjD3c.s 			page 1


   1              		.syntax unified
   2              		.cpu cortex-m4
   3              		.fpu softvfp
   4              		.eabi_attribute 20, 1
   5              		.eabi_attribute 21, 1
   6              		.eabi_attribute 23, 3
   7              		.eabi_attribute 24, 1
   8              		.eabi_attribute 25, 1
   9              		.eabi_attribute 26, 1
  10              		.eabi_attribute 30, 2
  11              		.eabi_attribute 34, 1
  12              		.eabi_attribute 18, 4
  13              		.thumb
  14              		.file	"pal_lld.c"
  15              		.text
  16              	.Ltext0:
  17              		.cfi_sections	.debug_frame
  18              		.section	.text._pal_lld_init,"ax",%progbits
  19              		.align	2
  20              		.p2align 4,,15
  21              		.global	_pal_lld_init
  22              		.thumb
  23              		.thumb_func
  24              		.type	_pal_lld_init, %function
  25              	_pal_lld_init:
  26              	.LFB119:
  27              		.file 1 "../include/ChibiOS_2.6.5/os/hal/platforms/STM32/GPIOv2/pal_lld.c"
  28              		.loc 1 113 0
  29              		.cfi_startproc
  30              		@ args = 0, pretend = 0, frame = 0
  31              		@ frame_needed = 0, uses_anonymous_args = 0
  32              		@ link register save eliminated.
  33              	.LVL0:
  34              		.loc 1 126 0
  35 0000 4FF46053 		mov	r3, #14336
  36 0004 C4F20203 		movt	r3, 16386
  37 0008 1A6B     		ldr	r2, [r3, #48]
  38 000a 6FEA5222 		mvn	r2, r2, lsr #9
  39 000e 6FEA4222 		mvn	r2, r2, lsl #9
  40 0012 1A63     		str	r2, [r3, #48]
  41              		.loc 1 127 0
  42 0014 1A6D     		ldr	r2, [r3, #80]
  43 0016 6FEA5222 		mvn	r2, r2, lsr #9
  44 001a 6FEA4222 		mvn	r2, r2, lsl #9
  45 001e 1A65     		str	r2, [r3, #80]
  46              	.LVL1:
  47              	.LBB20:
  48              	.LBB21:
  49              		.loc 1 88 0
  50 0020 0023     		movs	r3, #0
  51 0022 4168     		ldr	r1, [r0, #4]
  52 0024 C4F20203 		movt	r3, 16386
  53              	.LBE21:
  54              	.LBE20:
  55              	.LBB23:
  56              	.LBB24:
  57 0028 4FF48062 		mov	r2, #1024
ARM GAS  /tmp/cc2mjD3c.s 			page 2


  58              	.LBE24:
  59              	.LBE23:
  60              	.LBB27:
  61              	.LBB22:
  62 002c 5960     		str	r1, [r3, #4]
  63              		.loc 1 89 0
  64 002e 8168     		ldr	r1, [r0, #8]
  65 0030 9960     		str	r1, [r3, #8]
  66              		.loc 1 90 0
  67 0032 C168     		ldr	r1, [r0, #12]
  68 0034 D960     		str	r1, [r3, #12]
  69              		.loc 1 91 0
  70 0036 0169     		ldr	r1, [r0, #16]
  71 0038 5961     		str	r1, [r3, #20]
  72              		.loc 1 92 0
  73 003a 4169     		ldr	r1, [r0, #20]
  74 003c 1962     		str	r1, [r3, #32]
  75              		.loc 1 93 0
  76 003e 8169     		ldr	r1, [r0, #24]
  77 0040 5962     		str	r1, [r3, #36]
  78              		.loc 1 94 0
  79 0042 0168     		ldr	r1, [r0]
  80 0044 1960     		str	r1, [r3]
  81              	.LVL2:
  82              	.LBE22:
  83              	.LBE27:
  84              	.LBB28:
  85              	.LBB25:
  86              		.loc 1 88 0
  87 0046 016A     		ldr	r1, [r0, #32]
  88 0048 C4F20202 		movt	r2, 16386
  89              	.LBE25:
  90              	.LBE28:
  91              	.LBB29:
  92              	.LBB30:
  93 004c 4FF40063 		mov	r3, #2048
  94              	.LBE30:
  95              	.LBE29:
  96              	.LBB33:
  97              	.LBB26:
  98 0050 5160     		str	r1, [r2, #4]
  99              		.loc 1 89 0
 100 0052 416A     		ldr	r1, [r0, #36]
 101 0054 9160     		str	r1, [r2, #8]
 102              		.loc 1 90 0
 103 0056 816A     		ldr	r1, [r0, #40]
 104 0058 D160     		str	r1, [r2, #12]
 105              		.loc 1 91 0
 106 005a C16A     		ldr	r1, [r0, #44]
 107 005c 5161     		str	r1, [r2, #20]
 108              		.loc 1 92 0
 109 005e 016B     		ldr	r1, [r0, #48]
 110 0060 1162     		str	r1, [r2, #32]
 111              		.loc 1 93 0
 112 0062 416B     		ldr	r1, [r0, #52]
 113 0064 5162     		str	r1, [r2, #36]
 114              		.loc 1 94 0
ARM GAS  /tmp/cc2mjD3c.s 			page 3


 115 0066 C169     		ldr	r1, [r0, #28]
 116 0068 1160     		str	r1, [r2]
 117              	.LVL3:
 118              	.LBE26:
 119              	.LBE33:
 120              	.LBB34:
 121              	.LBB31:
 122              		.loc 1 88 0
 123 006a C4F20203 		movt	r3, 16386
 124 006e C16B     		ldr	r1, [r0, #60]
 125 0070 5960     		str	r1, [r3, #4]
 126              		.loc 1 89 0
 127 0072 016C     		ldr	r1, [r0, #64]
 128 0074 9960     		str	r1, [r3, #8]
 129              		.loc 1 90 0
 130 0076 416C     		ldr	r1, [r0, #68]
 131 0078 D960     		str	r1, [r3, #12]
 132              		.loc 1 91 0
 133 007a 816C     		ldr	r1, [r0, #72]
 134 007c 5961     		str	r1, [r3, #20]
 135              		.loc 1 92 0
 136 007e C16C     		ldr	r1, [r0, #76]
 137 0080 1962     		str	r1, [r3, #32]
 138              		.loc 1 93 0
 139 0082 016D     		ldr	r1, [r0, #80]
 140 0084 5962     		str	r1, [r3, #36]
 141              		.loc 1 94 0
 142 0086 816B     		ldr	r1, [r0, #56]
 143              	.LBE31:
 144              	.LBE34:
 145              	.LBB35:
 146              	.LBB36:
 147              		.loc 1 88 0
 148 0088 4FF44062 		mov	r2, #3072
 149              	.LBE36:
 150              	.LBE35:
 151              	.LBB39:
 152              	.LBB32:
 153              		.loc 1 94 0
 154 008c 1960     		str	r1, [r3]
 155              	.LVL4:
 156              	.LBE32:
 157              	.LBE39:
 158              	.LBB40:
 159              	.LBB37:
 160              		.loc 1 88 0
 161 008e 816D     		ldr	r1, [r0, #88]
 162 0090 C4F20202 		movt	r2, 16386
 163              	.LBE37:
 164              	.LBE40:
 165              	.LBB41:
 166              	.LBB42:
 167 0094 4FF48053 		mov	r3, #4096
 168              	.LBE42:
 169              	.LBE41:
 170              	.LBB45:
 171              	.LBB38:
ARM GAS  /tmp/cc2mjD3c.s 			page 4


 172 0098 5160     		str	r1, [r2, #4]
 173              		.loc 1 89 0
 174 009a C16D     		ldr	r1, [r0, #92]
 175 009c 9160     		str	r1, [r2, #8]
 176              		.loc 1 90 0
 177 009e 016E     		ldr	r1, [r0, #96]
 178 00a0 D160     		str	r1, [r2, #12]
 179              		.loc 1 91 0
 180 00a2 416E     		ldr	r1, [r0, #100]
 181 00a4 5161     		str	r1, [r2, #20]
 182              		.loc 1 92 0
 183 00a6 816E     		ldr	r1, [r0, #104]
 184 00a8 1162     		str	r1, [r2, #32]
 185              		.loc 1 93 0
 186 00aa C16E     		ldr	r1, [r0, #108]
 187 00ac 5162     		str	r1, [r2, #36]
 188              		.loc 1 94 0
 189 00ae 416D     		ldr	r1, [r0, #84]
 190 00b0 1160     		str	r1, [r2]
 191              	.LVL5:
 192              	.LBE38:
 193              	.LBE45:
 194              	.LBB46:
 195              	.LBB43:
 196              		.loc 1 88 0
 197 00b2 C4F20203 		movt	r3, 16386
 198 00b6 416F     		ldr	r1, [r0, #116]
 199 00b8 5960     		str	r1, [r3, #4]
 200              		.loc 1 89 0
 201 00ba 816F     		ldr	r1, [r0, #120]
 202 00bc 9960     		str	r1, [r3, #8]
 203              		.loc 1 90 0
 204 00be C16F     		ldr	r1, [r0, #124]
 205 00c0 D960     		str	r1, [r3, #12]
 206              		.loc 1 91 0
 207 00c2 D0F88010 		ldr	r1, [r0, #128]
 208 00c6 5961     		str	r1, [r3, #20]
 209              		.loc 1 92 0
 210 00c8 D0F88410 		ldr	r1, [r0, #132]
 211 00cc 1962     		str	r1, [r3, #32]
 212              		.loc 1 93 0
 213 00ce D0F88810 		ldr	r1, [r0, #136]
 214 00d2 5962     		str	r1, [r3, #36]
 215              		.loc 1 94 0
 216 00d4 016F     		ldr	r1, [r0, #112]
 217              	.LBE43:
 218              	.LBE46:
 219              	.LBB47:
 220              	.LBB48:
 221              		.loc 1 88 0
 222 00d6 4FF4A052 		mov	r2, #5120
 223              	.LBE48:
 224              	.LBE47:
 225              	.LBB51:
 226              	.LBB44:
 227              		.loc 1 94 0
 228 00da 1960     		str	r1, [r3]
ARM GAS  /tmp/cc2mjD3c.s 			page 5


 229              	.LVL6:
 230              	.LBE44:
 231              	.LBE51:
 232              	.LBB52:
 233              	.LBB49:
 234              		.loc 1 88 0
 235 00dc D0F89010 		ldr	r1, [r0, #144]
 236 00e0 C4F20202 		movt	r2, 16386
 237              	.LBE49:
 238              	.LBE52:
 239              	.LBB53:
 240              	.LBB54:
 241 00e4 4FF4C053 		mov	r3, #6144
 242              	.LBE54:
 243              	.LBE53:
 244              	.LBB58:
 245              	.LBB50:
 246 00e8 5160     		str	r1, [r2, #4]
 247              		.loc 1 89 0
 248 00ea D0F89410 		ldr	r1, [r0, #148]
 249 00ee 9160     		str	r1, [r2, #8]
 250              		.loc 1 90 0
 251 00f0 D0F89810 		ldr	r1, [r0, #152]
 252 00f4 D160     		str	r1, [r2, #12]
 253              		.loc 1 91 0
 254 00f6 D0F89C10 		ldr	r1, [r0, #156]
 255 00fa 5161     		str	r1, [r2, #20]
 256              		.loc 1 92 0
 257 00fc D0F8A010 		ldr	r1, [r0, #160]
 258 0100 1162     		str	r1, [r2, #32]
 259              		.loc 1 93 0
 260 0102 D0F8A410 		ldr	r1, [r0, #164]
 261 0106 5162     		str	r1, [r2, #36]
 262              		.loc 1 94 0
 263 0108 D0F88C10 		ldr	r1, [r0, #140]
 264 010c 1160     		str	r1, [r2]
 265              	.LVL7:
 266              	.LBE50:
 267              	.LBE58:
 268              	.LBB59:
 269              	.LBB55:
 270              		.loc 1 88 0
 271 010e D0F8AC10 		ldr	r1, [r0, #172]
 272 0112 C4F20203 		movt	r3, 16386
 273              	.LBE55:
 274              	.LBE59:
 275              	.LBB60:
 276              	.LBB61:
 277 0116 4FF4E052 		mov	r2, #7168
 278              	.LBE61:
 279              	.LBE60:
 280              	.LBB65:
 281              	.LBB56:
 282 011a 5960     		str	r1, [r3, #4]
 283              		.loc 1 89 0
 284 011c D0F8B010 		ldr	r1, [r0, #176]
 285 0120 9960     		str	r1, [r3, #8]
ARM GAS  /tmp/cc2mjD3c.s 			page 6


 286              		.loc 1 90 0
 287 0122 D0F8B410 		ldr	r1, [r0, #180]
 288 0126 D960     		str	r1, [r3, #12]
 289              		.loc 1 91 0
 290 0128 D0F8B810 		ldr	r1, [r0, #184]
 291 012c 5961     		str	r1, [r3, #20]
 292              		.loc 1 92 0
 293 012e D0F8BC10 		ldr	r1, [r0, #188]
 294 0132 1962     		str	r1, [r3, #32]
 295              		.loc 1 93 0
 296 0134 D0F8C010 		ldr	r1, [r0, #192]
 297 0138 5962     		str	r1, [r3, #36]
 298              		.loc 1 94 0
 299 013a D0F8A810 		ldr	r1, [r0, #168]
 300              	.LBE56:
 301              	.LBE65:
 302              	.LBB66:
 303              	.LBB62:
 304              		.loc 1 88 0
 305 013e C4F20202 		movt	r2, 16386
 306              	.LBE62:
 307              	.LBE66:
 308              	.LBB67:
 309              	.LBB57:
 310              		.loc 1 94 0
 311 0142 1960     		str	r1, [r3]
 312              	.LVL8:
 313              	.LBE57:
 314              	.LBE67:
 315              	.LBB68:
 316              	.LBB63:
 317              		.loc 1 88 0
 318 0144 D0F8C830 		ldr	r3, [r0, #200]
 319 0148 5360     		str	r3, [r2, #4]
 320              		.loc 1 89 0
 321 014a D0F8CC30 		ldr	r3, [r0, #204]
 322 014e 9360     		str	r3, [r2, #8]
 323              		.loc 1 90 0
 324 0150 D0F8D030 		ldr	r3, [r0, #208]
 325 0154 D360     		str	r3, [r2, #12]
 326              		.loc 1 91 0
 327 0156 D0F8D430 		ldr	r3, [r0, #212]
 328 015a 5361     		str	r3, [r2, #20]
 329              		.loc 1 92 0
 330 015c D0F8D830 		ldr	r3, [r0, #216]
 331 0160 1362     		str	r3, [r2, #32]
 332              		.loc 1 93 0
 333 0162 D0F8DC30 		ldr	r3, [r0, #220]
 334 0166 5362     		str	r3, [r2, #36]
 335              		.loc 1 94 0
 336 0168 D0F8C410 		ldr	r1, [r0, #196]
 337              	.LBE63:
 338              	.LBE68:
 339              	.LBB69:
 340              	.LBB70:
 341              		.loc 1 88 0
 342 016c 4FF40053 		mov	r3, #8192
ARM GAS  /tmp/cc2mjD3c.s 			page 7


 343              	.LBE70:
 344              	.LBE69:
 345              	.LBB72:
 346              	.LBB64:
 347              		.loc 1 94 0
 348 0170 1160     		str	r1, [r2]
 349              	.LVL9:
 350              	.LBE64:
 351              	.LBE72:
 352              	.LBB73:
 353              	.LBB71:
 354              		.loc 1 88 0
 355 0172 D0F8E420 		ldr	r2, [r0, #228]
 356 0176 C4F20203 		movt	r3, 16386
 357 017a 5A60     		str	r2, [r3, #4]
 358              		.loc 1 89 0
 359 017c D0F8E820 		ldr	r2, [r0, #232]
 360 0180 9A60     		str	r2, [r3, #8]
 361              		.loc 1 90 0
 362 0182 D0F8EC20 		ldr	r2, [r0, #236]
 363 0186 DA60     		str	r2, [r3, #12]
 364              		.loc 1 91 0
 365 0188 D0F8F020 		ldr	r2, [r0, #240]
 366 018c 5A61     		str	r2, [r3, #20]
 367              		.loc 1 92 0
 368 018e D0F8F420 		ldr	r2, [r0, #244]
 369 0192 1A62     		str	r2, [r3, #32]
 370              		.loc 1 93 0
 371 0194 D0F8F820 		ldr	r2, [r0, #248]
 372 0198 5A62     		str	r2, [r3, #36]
 373              		.loc 1 94 0
 374 019a D0F8E020 		ldr	r2, [r0, #224]
 375 019e 1A60     		str	r2, [r3]
 376 01a0 7047     		bx	lr
 377              	.LBE71:
 378              	.LBE73:
 379              		.cfi_endproc
 380              	.LFE119:
 381              		.size	_pal_lld_init, .-_pal_lld_init
 382 01a2 00BFAFF3 		.section	.text._pal_lld_setgroupmode,"ax",%progbits
 382      0080AFF3 
 382      0080AFF3 
 382      0080
 383              		.align	2
 384              		.p2align 4,,15
 385              		.global	_pal_lld_setgroupmode
 386              		.thumb
 387              		.thumb_func
 388              		.type	_pal_lld_setgroupmode, %function
 389              	_pal_lld_setgroupmode:
 390              	.LFB120:
 391              		.loc 1 178 0
 392              		.cfi_startproc
 393              		@ args = 0, pretend = 0, frame = 0
 394              		@ frame_needed = 0, uses_anonymous_args = 0
 395              		@ link register save eliminated.
 396              	.LVL10:
ARM GAS  /tmp/cc2mjD3c.s 			page 8


 397 0000 2DE9F00F 		push	{r4, r5, r6, r7, r8, r9, r10, fp}
 398              		.cfi_def_cfa_offset 32
 399              		.cfi_offset 4, -32
 400              		.cfi_offset 5, -28
 401              		.cfi_offset 6, -24
 402              		.cfi_offset 7, -20
 403              		.cfi_offset 8, -16
 404              		.cfi_offset 9, -12
 405              		.cfi_offset 10, -8
 406              		.cfi_offset 11, -4
 407              		.loc 1 185 0
 408 0004 0023     		movs	r3, #0
 409              		.loc 1 180 0
 410 0006 02F00307 		and	r7, r2, #3
 411              	.LVL11:
 412              		.loc 1 181 0
 413 000a C2F38006 		ubfx	r6, r2, #2, #1
 414              	.LVL12:
 415              		.loc 1 182 0
 416 000e C2F3C105 		ubfx	r5, r2, #3, #2
 417              	.LVL13:
 418              		.loc 1 183 0
 419 0012 C2F34114 		ubfx	r4, r2, #5, #2
 420              	.LVL14:
 421              	.LBB74:
 422              		.loc 1 191 0
 423 0016 4FF00F09 		mov	r9, #15
 424              	.LBE74:
 425              		.loc 1 184 0
 426 001a C2F3C312 		ubfx	r2, r2, #7, #4
 427              	.LVL15:
 428              	.LBB75:
 429              		.loc 1 196 0
 430 001e 4FF0010A 		mov	r10, #1
 431 0022 04E0     		b	.L7
 432              	.LVL16:
 433              	.L12:
 434              	.LBE75:
 435              		.loc 1 206 0
 436 0024 7600     		lsls	r6, r6, #1
 437              	.LVL17:
 438              		.loc 1 207 0
 439 0026 AD00     		lsls	r5, r5, #2
 440              	.LVL18:
 441              		.loc 1 208 0
 442 0028 A400     		lsls	r4, r4, #2
 443              	.LVL19:
 444              		.loc 1 209 0
 445 002a BF00     		lsls	r7, r7, #2
 446              	.LVL20:
 447              		.loc 1 210 0
 448 002c 0133     		adds	r3, r3, #1
 449              	.LVL21:
 450              	.L7:
 451              	.LBB76:
 452              		.loc 1 190 0
 453 002e 03F0070C 		and	ip, r3, #7
ARM GAS  /tmp/cc2mjD3c.s 			page 9


 454 0032 4FEA8C0C 		lsl	ip, ip, #2
 455              	.LBE76:
 456              		.loc 1 187 0
 457 0036 11F0010F 		tst	r1, #1
 458              	.LBB77:
 459              		.loc 1 190 0
 460 003a 02FA0CF8 		lsl	r8, r2, ip
 461              	.LVL22:
 462              		.loc 1 191 0
 463 003e 09FA0CFC 		lsl	ip, r9, ip
 464              	.LVL23:
 465              	.LBE77:
 466              		.loc 1 187 0
 467 0042 3CD0     		beq	.L3
 468              	.LVL24:
 469              	.LBB78:
 470              		.loc 1 192 0
 471 0044 072B     		cmp	r3, #7
 472              		.loc 1 193 0
 473 0046 95BF     		itete	ls
 474 0048 D0F820B0 		ldrls	fp, [r0, #32]
 475              		.loc 1 195 0
 476 004c D0F824B0 		ldrhi	fp, [r0, #36]
 477              		.loc 1 193 0
 478 0050 2BEA0C0C 		bicls	ip, fp, ip
 479              	.LVL25:
 480              		.loc 1 195 0
 481 0054 2BEA0C0C 		bichi	ip, fp, ip
 482              		.loc 1 193 0
 483 0058 95BF     		itete	ls
 484 005a 4CEA0808 		orrls	r8, ip, r8
 485              	.LVL26:
 486              		.loc 1 195 0
 487 005e 4CEA0808 		orrhi	r8, ip, r8
 488              		.loc 1 193 0
 489 0062 C0F82080 		strls	r8, [r0, #32]
 490              		.loc 1 195 0
 491 0066 C0F82480 		strhi	r8, [r0, #36]
 492              		.loc 1 197 0
 493 006a D0F804C0 		ldr	ip, [r0, #4]
 494              		.loc 1 196 0
 495 006e 0AFA03F8 		lsl	r8, r10, r3
 496              		.loc 1 197 0
 497 0072 2CEA080C 		bic	ip, ip, r8
 498 0076 4CEA060C 		orr	ip, ip, r6
 499 007a C0F804C0 		str	ip, [r0, #4]
 500              	.LVL27:
 501              		.loc 1 198 0
 502 007e 4FF0030B 		mov	fp, #3
 503 0082 4FEA430C 		lsl	ip, r3, #1
 504              		.loc 1 199 0
 505 0086 D0F80880 		ldr	r8, [r0, #8]
 506              		.loc 1 198 0
 507 008a 0BFA0CFC 		lsl	ip, fp, ip
 508              	.LVL28:
 509              		.loc 1 199 0
 510 008e 6FEA0C0C 		mvn	ip, ip
ARM GAS  /tmp/cc2mjD3c.s 			page 10


 511              	.LVL29:
 512 0092 0CEA0808 		and	r8, ip, r8
 513 0096 48EA0508 		orr	r8, r8, r5
 514 009a C0F80880 		str	r8, [r0, #8]
 515              		.loc 1 200 0
 516 009e D0F80C80 		ldr	r8, [r0, #12]
 517 00a2 0CEA0808 		and	r8, ip, r8
 518 00a6 48EA0408 		orr	r8, r8, r4
 519 00aa C0F80C80 		str	r8, [r0, #12]
 520              		.loc 1 201 0
 521 00ae D0F80080 		ldr	r8, [r0]
 522 00b2 0CEA080C 		and	ip, ip, r8
 523              	.LVL30:
 524 00b6 4CEA070C 		orr	ip, ip, r7
 525 00ba C0F800C0 		str	ip, [r0]
 526              	.LVL31:
 527              	.L3:
 528              	.LBE78:
 529              		.loc 1 204 0
 530 00be 4908     		lsrs	r1, r1, #1
 531              	.LVL32:
 532 00c0 B0D1     		bne	.L12
 533              		.loc 1 212 0
 534 00c2 BDE8F00F 		pop	{r4, r5, r6, r7, r8, r9, r10, fp}
 535              	.LVL33:
 536 00c6 7047     		bx	lr
 537              		.cfi_endproc
 538              	.LFE120:
 539              		.size	_pal_lld_setgroupmode, .-_pal_lld_setgroupmode
 540 00c8 AFF30080 		.text
 540      AFF30080 
 541              	.Letext0:
 542              		.file 2 "/usr/include/newlib/machine/_default_types.h"
 543              		.file 3 "/usr/include/newlib/stdint.h"
 544              		.file 4 "../include/ChibiOS_2.6.5/os/hal/platforms/STM32F4xx/stm32f4xx.h"
 545              		.file 5 "../include/ChibiOS_2.6.5/os/hal/platforms/STM32/GPIOv2/pal_lld.h"
 546              		.file 6 "../include/ChibiOS_2.6.5/os/ports/common/ARMCMx/CMSIS/include/core_cm4.h"