ARM GAS  /tmp/ccEAGhtS.s 			page 1


   1              		.syntax unified
   2              		.cpu cortex-m4
   3              		.fpu softvfp
   4              		.eabi_attribute 20, 1
   5              		.eabi_attribute 21, 1
   6              		.eabi_attribute 23, 3
   7              		.eabi_attribute 24, 1
   8              		.eabi_attribute 25, 1
   9              		.eabi_attribute 26, 1
  10              		.eabi_attribute 30, 2
  11              		.eabi_attribute 34, 1
  12              		.eabi_attribute 18, 4
  13              		.thumb
  14              		.file	"pwm.c"
  15              		.text
  16              	.Ltext0:
  17              		.cfi_sections	.debug_frame
  18              		.section	.text.pwmInit,"ax",%progbits
  19              		.align	2
  20              		.p2align 4,,15
  21              		.global	pwmInit
  22              		.thumb
  23              		.thumb_func
  24              		.type	pwmInit, %function
  25              	pwmInit:
  26              	.LFB118:
  27              		.file 1 "../include/ChibiOS_2.6.5/os/hal/src/pwm.c"
  28              		.loc 1 68 0
  29              		.cfi_startproc
  30              		@ args = 0, pretend = 0, frame = 0
  31              		@ frame_needed = 0, uses_anonymous_args = 0
  32              		@ link register save eliminated.
  33              		.loc 1 70 0
  34 0000 FFF7FEBF 		b	pwm_lld_init
  35              	.LVL0:
  36              		.cfi_endproc
  37              	.LFE118:
  38              		.size	pwmInit, .-pwmInit
  39 0004 AFF30080 		.section	.text.pwmObjectInit,"ax",%progbits
  39      AFF30080 
  39      AFF30080 
  40              		.align	2
  41              		.p2align 4,,15
  42              		.global	pwmObjectInit
  43              		.thumb
  44              		.thumb_func
  45              		.type	pwmObjectInit, %function
  46              	pwmObjectInit:
  47              	.LFB119:
  48              		.loc 1 80 0
  49              		.cfi_startproc
  50              		@ args = 0, pretend = 0, frame = 0
  51              		@ frame_needed = 0, uses_anonymous_args = 0
  52              		@ link register save eliminated.
  53              	.LVL1:
  54              		.loc 1 82 0
  55 0000 0122     		movs	r2, #1
ARM GAS  /tmp/ccEAGhtS.s 			page 2


  56              		.loc 1 83 0
  57 0002 0023     		movs	r3, #0
  58              		.loc 1 82 0
  59 0004 0270     		strb	r2, [r0]
  60              		.loc 1 83 0
  61 0006 4360     		str	r3, [r0, #4]
  62 0008 7047     		bx	lr
  63              		.cfi_endproc
  64              	.LFE119:
  65              		.size	pwmObjectInit, .-pwmObjectInit
  66 000a 00BFAFF3 		.section	.text.pwmStart,"ax",%progbits
  66      0080
  67              		.align	2
  68              		.p2align 4,,15
  69              		.global	pwmStart
  70              		.thumb
  71              		.thumb_func
  72              		.type	pwmStart, %function
  73              	pwmStart:
  74              	.LFB120:
  75              		.loc 1 99 0
  76              		.cfi_startproc
  77              		@ args = 0, pretend = 0, frame = 0
  78              		@ frame_needed = 0, uses_anonymous_args = 0
  79              	.LVL2:
  80 0000 10B5     		push	{r4, lr}
  81              		.cfi_def_cfa_offset 8
  82              		.cfi_offset 4, -8
  83              		.cfi_offset 14, -4
  84              	.LBB2:
  85              		.loc 1 103 0
  86 0002 2023     		movs	r3, #32
  87              	.LBE2:
  88              		.loc 1 99 0
  89 0004 0446     		mov	r4, r0
  90              	.LBB3:
  91              		.loc 1 103 0
  92              	@ 103 "../include/ChibiOS_2.6.5/os/hal/src/pwm.c" 1
  93 0006 83F31188 		msr     BASEPRI, r3
  94              	@ 0 "" 2
  95              		.thumb
  96              	.LBE3:
  97              		.loc 1 107 0
  98 000a 8B88     		ldrh	r3, [r1, #4]
  99              		.loc 1 106 0
 100 000c 4160     		str	r1, [r0, #4]
 101              		.loc 1 107 0
 102 000e 0381     		strh	r3, [r0, #8]	@ movhi
 103              		.loc 1 108 0
 104 0010 FFF7FEFF 		bl	pwm_lld_start
 105              	.LVL3:
 106              		.loc 1 109 0
 107 0014 0223     		movs	r3, #2
 108 0016 2370     		strb	r3, [r4]
 109              	.LBB4:
 110              		.loc 1 110 0
 111 0018 0023     		movs	r3, #0
ARM GAS  /tmp/ccEAGhtS.s 			page 3


 112              	@ 110 "../include/ChibiOS_2.6.5/os/hal/src/pwm.c" 1
 113 001a 83F31188 		msr     BASEPRI, r3
 114              	@ 0 "" 2
 115              		.thumb
 116 001e 10BD     		pop	{r4, pc}
 117              	.LBE4:
 118              		.cfi_endproc
 119              	.LFE120:
 120              		.size	pwmStart, .-pwmStart
 121              		.section	.text.pwmStop,"ax",%progbits
 122              		.align	2
 123              		.p2align 4,,15
 124              		.global	pwmStop
 125              		.thumb
 126              		.thumb_func
 127              		.type	pwmStop, %function
 128              	pwmStop:
 129              	.LFB121:
 130              		.loc 1 120 0
 131              		.cfi_startproc
 132              		@ args = 0, pretend = 0, frame = 0
 133              		@ frame_needed = 0, uses_anonymous_args = 0
 134              	.LVL4:
 135 0000 10B5     		push	{r4, lr}
 136              		.cfi_def_cfa_offset 8
 137              		.cfi_offset 4, -8
 138              		.cfi_offset 14, -4
 139              	.LBB5:
 140              		.loc 1 124 0
 141 0002 2023     		movs	r3, #32
 142              	.LBE5:
 143              		.loc 1 120 0
 144 0004 0446     		mov	r4, r0
 145              	.LBB6:
 146              		.loc 1 124 0
 147              	@ 124 "../include/ChibiOS_2.6.5/os/hal/src/pwm.c" 1
 148 0006 83F31188 		msr     BASEPRI, r3
 149              	@ 0 "" 2
 150              		.thumb
 151              	.LBE6:
 152              		.loc 1 127 0
 153 000a FFF7FEFF 		bl	pwm_lld_stop
 154              	.LVL5:
 155              		.loc 1 128 0
 156 000e 0123     		movs	r3, #1
 157 0010 2370     		strb	r3, [r4]
 158              	.LBB7:
 159              		.loc 1 129 0
 160 0012 0023     		movs	r3, #0
 161              	@ 129 "../include/ChibiOS_2.6.5/os/hal/src/pwm.c" 1
 162 0014 83F31188 		msr     BASEPRI, r3
 163              	@ 0 "" 2
 164              		.thumb
 165 0018 10BD     		pop	{r4, pc}
 166              	.LBE7:
 167              		.cfi_endproc
 168              	.LFE121:
ARM GAS  /tmp/ccEAGhtS.s 			page 4


 169              		.size	pwmStop, .-pwmStop
 170 001a 00BFAFF3 		.section	.text.pwmChangePeriod,"ax",%progbits
 170      0080
 171              		.align	2
 172              		.p2align 4,,15
 173              		.global	pwmChangePeriod
 174              		.thumb
 175              		.thumb_func
 176              		.type	pwmChangePeriod, %function
 177              	pwmChangePeriod:
 178              	.LFB122:
 179              		.loc 1 147 0
 180              		.cfi_startproc
 181              		@ args = 0, pretend = 0, frame = 0
 182              		@ frame_needed = 0, uses_anonymous_args = 0
 183              		@ link register save eliminated.
 184              	.LVL6:
 185              	.LBB8:
 186              		.loc 1 151 0
 187 0000 2023     		movs	r3, #32
 188              	@ 151 "../include/ChibiOS_2.6.5/os/hal/src/pwm.c" 1
 189 0002 83F31188 		msr     BASEPRI, r3
 190              	@ 0 "" 2
 191              		.thumb
 192              	.LBE8:
 193              		.loc 1 154 0
 194 0006 0369     		ldr	r3, [r0, #16]
 195 0008 0181     		strh	r1, [r0, #8]	@ movhi
 196 000a 4A1E     		subs	r2, r1, #1
 197 000c 92B2     		uxth	r2, r2
 198 000e DA62     		str	r2, [r3, #44]
 199              	.LBB9:
 200              		.loc 1 155 0
 201 0010 0023     		movs	r3, #0
 202              	@ 155 "../include/ChibiOS_2.6.5/os/hal/src/pwm.c" 1
 203 0012 83F31188 		msr     BASEPRI, r3
 204              	@ 0 "" 2
 205              		.thumb
 206 0016 7047     		bx	lr
 207              	.LBE9:
 208              		.cfi_endproc
 209              	.LFE122:
 210              		.size	pwmChangePeriod, .-pwmChangePeriod
 211 0018 AFF30080 		.section	.text.pwmEnableChannel,"ax",%progbits
 211      AFF30080 
 212              		.align	2
 213              		.p2align 4,,15
 214              		.global	pwmEnableChannel
 215              		.thumb
 216              		.thumb_func
 217              		.type	pwmEnableChannel, %function
 218              	pwmEnableChannel:
 219              	.LFB123:
 220              		.loc 1 174 0
 221              		.cfi_startproc
 222              		@ args = 0, pretend = 0, frame = 0
 223              		@ frame_needed = 0, uses_anonymous_args = 0
ARM GAS  /tmp/ccEAGhtS.s 			page 5


 224              	.LVL7:
 225 0000 08B5     		push	{r3, lr}
 226              		.cfi_def_cfa_offset 8
 227              		.cfi_offset 3, -8
 228              		.cfi_offset 14, -4
 229              	.LBB10:
 230              		.loc 1 179 0
 231 0002 2023     		movs	r3, #32
 232              	@ 179 "../include/ChibiOS_2.6.5/os/hal/src/pwm.c" 1
 233 0004 83F31188 		msr     BASEPRI, r3
 234              	@ 0 "" 2
 235              		.thumb
 236              	.LBE10:
 237              		.loc 1 182 0
 238 0008 FFF7FEFF 		bl	pwm_lld_enable_channel
 239              	.LVL8:
 240              	.LBB11:
 241              		.loc 1 183 0
 242 000c 0023     		movs	r3, #0
 243              	@ 183 "../include/ChibiOS_2.6.5/os/hal/src/pwm.c" 1
 244 000e 83F31188 		msr     BASEPRI, r3
 245              	@ 0 "" 2
 246              		.thumb
 247 0012 08BD     		pop	{r3, pc}
 248              	.LBE11:
 249              		.cfi_endproc
 250              	.LFE123:
 251              		.size	pwmEnableChannel, .-pwmEnableChannel
 252 0014 AFF30080 		.section	.text.pwmDisableChannel,"ax",%progbits
 252      AFF30080 
 252      AFF30080 
 253              		.align	2
 254              		.p2align 4,,15
 255              		.global	pwmDisableChannel
 256              		.thumb
 257              		.thumb_func
 258              		.type	pwmDisableChannel, %function
 259              	pwmDisableChannel:
 260              	.LFB124:
 261              		.loc 1 200 0
 262              		.cfi_startproc
 263              		@ args = 0, pretend = 0, frame = 0
 264              		@ frame_needed = 0, uses_anonymous_args = 0
 265              	.LVL9:
 266 0000 08B5     		push	{r3, lr}
 267              		.cfi_def_cfa_offset 8
 268              		.cfi_offset 3, -8
 269              		.cfi_offset 14, -4
 270              	.LBB12:
 271              		.loc 1 205 0
 272 0002 2023     		movs	r3, #32
 273              	@ 205 "../include/ChibiOS_2.6.5/os/hal/src/pwm.c" 1
 274 0004 83F31188 		msr     BASEPRI, r3
 275              	@ 0 "" 2
 276              		.thumb
 277              	.LBE12:
 278              		.loc 1 208 0
ARM GAS  /tmp/ccEAGhtS.s 			page 6


 279 0008 FFF7FEFF 		bl	pwm_lld_disable_channel
 280              	.LVL10:
 281              	.LBB13:
 282              		.loc 1 209 0
 283 000c 0023     		movs	r3, #0
 284              	@ 209 "../include/ChibiOS_2.6.5/os/hal/src/pwm.c" 1
 285 000e 83F31188 		msr     BASEPRI, r3
 286              	@ 0 "" 2
 287              		.thumb
 288 0012 08BD     		pop	{r3, pc}
 289              	.LBE13:
 290              		.cfi_endproc
 291              	.LFE124:
 292              		.size	pwmDisableChannel, .-pwmDisableChannel
 293 0014 AFF30080 		.text
 293      AFF30080 
 293      AFF30080 
 294              	.Letext0:
 295              		.file 2 "/usr/include/newlib/machine/_default_types.h"
 296              		.file 3 "/usr/include/newlib/stdint.h"
 297              		.file 4 "../include/ChibiOS_2.6.5/os/hal/include/pwm.h"
 298              		.file 5 "../include/ChibiOS_2.6.5/os/hal/platforms/STM32/TIMv1/pwm_lld.h"
 299              		.file 6 "../include/ChibiOS_2.6.5/os/hal/platforms/STM32/TIMv1/stm32_tim.h"
 300              		.file 7 "../include/ChibiOS_2.6.5/os/ports/common/ARMCMx/CMSIS/include/core_cm4.h"