ARM GAS  /tmp/ccgZGutz.s 			page 1


   1              		.syntax unified
   2              		.cpu cortex-m4
   3              		.fpu softvfp
   4              		.eabi_attribute 20, 1
   5              		.eabi_attribute 21, 1
   6              		.eabi_attribute 23, 3
   7              		.eabi_attribute 24, 1
   8              		.eabi_attribute 25, 1
   9              		.eabi_attribute 26, 1
  10              		.eabi_attribute 30, 2
  11              		.eabi_attribute 34, 1
  12              		.eabi_attribute 18, 4
  13              		.thumb
  14              		.file	"spi_lld.c"
  15              		.text
  16              	.Ltext0:
  17              		.cfi_sections	.debug_frame
  18              		.section	.text.spi_lld_serve_tx_interrupt,"ax",%progbits
  19              		.align	2
  20              		.p2align 4,,15
  21              		.thumb
  22              		.thumb_func
  23              		.type	spi_lld_serve_tx_interrupt, %function
  24              	spi_lld_serve_tx_interrupt:
  25              	.LFB119:
  26              		.file 1 "../include/ChibiOS_2.6.5/os/hal/platforms/STM32/SPIv1/spi_lld.c"
  27              		.loc 1 159 0
  28              		.cfi_startproc
  29              		@ args = 0, pretend = 0, frame = 0
  30              		@ frame_needed = 0, uses_anonymous_args = 0
  31              		@ link register save eliminated.
  32              	.LVL0:
  33              		.loc 1 164 0
  34 0000 11F00C0F 		tst	r1, #12
  35 0004 00D1     		bne	.L4
  36 0006 7047     		bx	lr
  37              	.L4:
  38              		.loc 1 165 0
  39 0008 FFF7FEBF 		b	port_halt
  40              	.LVL1:
  41              		.cfi_endproc
  42              	.LFE119:
  43              		.size	spi_lld_serve_tx_interrupt, .-spi_lld_serve_tx_interrupt
  44 000c AFF30080 		.section	.text.spi_lld_serve_rx_interrupt,"ax",%progbits
  45              		.align	2
  46              		.p2align 4,,15
  47              		.thumb
  48              		.thumb_func
  49              		.type	spi_lld_serve_rx_interrupt, %function
  50              	spi_lld_serve_rx_interrupt:
  51              	.LFB118:
  52              		.loc 1 133 0
  53              		.cfi_startproc
  54              		@ args = 0, pretend = 0, frame = 0
  55              		@ frame_needed = 0, uses_anonymous_args = 0
  56              	.LVL2:
  57              		.loc 1 137 0
ARM GAS  /tmp/ccgZGutz.s 			page 2


  58 0000 11F00C0F 		tst	r1, #12
  59              		.loc 1 133 0
  60 0004 38B5     		push	{r3, r4, r5, lr}
  61              		.cfi_def_cfa_offset 16
  62              		.cfi_offset 3, -16
  63              		.cfi_offset 4, -12
  64              		.cfi_offset 5, -8
  65              		.cfi_offset 14, -4
  66              		.loc 1 133 0
  67 0006 0446     		mov	r4, r0
  68              		.loc 1 137 0
  69 0008 37D1     		bne	.L20
  70              	.LVL3:
  71              	.L6:
  72              		.loc 1 145 0
  73 000a 606A     		ldr	r0, [r4, #36]
  74 000c 0268     		ldr	r2, [r0]
  75 000e 1368     		ldr	r3, [r2]
  76 0010 23F01F03 		bic	r3, r3, #31
  77 0014 1360     		str	r3, [r2]
  78              	.L8:
  79              		.loc 1 145 0 is_stmt 0 discriminator 1
  80 0016 1368     		ldr	r3, [r2]
  81 0018 D907     		lsls	r1, r3, #31
  82 001a FCD4     		bmi	.L8
  83              		.loc 1 145 0 discriminator 2
  84 001c 057A     		ldrb	r5, [r0, #8]	@ zero_extendqisi2
  85              		.loc 1 146 0 is_stmt 1 discriminator 2
  86 001e 216A     		ldr	r1, [r4, #32]
  87              		.loc 1 145 0 discriminator 2
  88 0020 4368     		ldr	r3, [r0, #4]
  89              		.loc 1 146 0 discriminator 2
  90 0022 0A68     		ldr	r2, [r1]
  91              		.loc 1 145 0 discriminator 2
  92 0024 3D20     		movs	r0, #61
  93 0026 A840     		lsls	r0, r0, r5
  94 0028 1860     		str	r0, [r3]
  95              		.loc 1 146 0 discriminator 2
  96 002a 1368     		ldr	r3, [r2]
  97 002c 23F01F03 		bic	r3, r3, #31
  98 0030 1360     		str	r3, [r2]
  99              	.L10:
 100              		.loc 1 146 0 is_stmt 0 discriminator 1
 101 0032 1368     		ldr	r3, [r2]
 102 0034 DB07     		lsls	r3, r3, #31
 103 0036 FCD4     		bmi	.L10
 104              		.loc 1 150 0 is_stmt 1 discriminator 2
 105 0038 6368     		ldr	r3, [r4, #4]
 106              		.loc 1 146 0 discriminator 2
 107 003a 087A     		ldrb	r0, [r1, #8]	@ zero_extendqisi2
 108 003c 4A68     		ldr	r2, [r1, #4]
 109              		.loc 1 150 0 discriminator 2
 110 003e 1B68     		ldr	r3, [r3]
 111              		.loc 1 146 0 discriminator 2
 112 0040 3D21     		movs	r1, #61
 113 0042 8140     		lsls	r1, r1, r0
 114 0044 1160     		str	r1, [r2]
ARM GAS  /tmp/ccgZGutz.s 			page 3


 115              		.loc 1 150 0 discriminator 2
 116 0046 ABB1     		cbz	r3, .L11
 117              		.loc 1 150 0 is_stmt 0 discriminator 1
 118 0048 0422     		movs	r2, #4
 119 004a 2270     		strb	r2, [r4]
 120 004c 2046     		mov	r0, r4
 121 004e 9847     		blx	r3
 122              	.LVL4:
 123 0050 2378     		ldrb	r3, [r4]	@ zero_extendqisi2
 124 0052 042B     		cmp	r3, #4
 125 0054 0ED0     		beq	.L11
 126              	.L12:
 127              	.LBB2:
 128 0056 2023     		movs	r3, #32
 129              	@ 150 "../include/ChibiOS_2.6.5/os/hal/platforms/STM32/SPIv1/spi_lld.c" 1
 130 0058 83F31188 		msr     BASEPRI, r3
 131              	@ 0 "" 2
 132              		.thumb
 133              	.LBE2:
 134 005c A368     		ldr	r3, [r4, #8]
 135 005e 2BB1     		cbz	r3, .L13
 136              	.LVL5:
 137              	.LBB3:
 138 0060 0022     		movs	r2, #0
 139 0062 A260     		str	r2, [r4, #8]
 140 0064 1846     		mov	r0, r3
 141 0066 5A62     		str	r2, [r3, #36]
 142 0068 FFF7FEFF 		bl	chSchReadyI
 143              	.LVL6:
 144              	.L13:
 145              	.LBE3:
 146              	.LBB4:
 147              		.loc 1 150 0 discriminator 2
 148 006c 0023     		movs	r3, #0
 149              	@ 150 "../include/ChibiOS_2.6.5/os/hal/platforms/STM32/SPIv1/spi_lld.c" 1
 150 006e 83F31188 		msr     BASEPRI, r3
 151              	@ 0 "" 2
 152              		.thumb
 153 0072 38BD     		pop	{r3, r4, r5, pc}
 154              	.LVL7:
 155              	.L11:
 156              	.LBE4:
 157 0074 0223     		movs	r3, #2
 158 0076 2370     		strb	r3, [r4]
 159 0078 EDE7     		b	.L12
 160              	.LVL8:
 161              	.L20:
 162              		.loc 1 138 0 is_stmt 1
 163 007a FFF7FEFF 		bl	port_halt
 164              	.LVL9:
 165 007e C4E7     		b	.L6
 166              		.cfi_endproc
 167              	.LFE118:
 168              		.size	spi_lld_serve_rx_interrupt, .-spi_lld_serve_rx_interrupt
 169              		.section	.text.spi_lld_init,"ax",%progbits
 170              		.align	2
 171              		.p2align 4,,15
ARM GAS  /tmp/ccgZGutz.s 			page 4


 172              		.global	spi_lld_init
 173              		.thumb
 174              		.thumb_func
 175              		.type	spi_lld_init, %function
 176              	spi_lld_init:
 177              	.LFB120:
 178              		.loc 1 186 0
 179              		.cfi_startproc
 180              		@ args = 0, pretend = 0, frame = 0
 181              		@ frame_needed = 0, uses_anonymous_args = 0
 182 0000 F8B5     		push	{r3, r4, r5, r6, r7, lr}
 183              		.cfi_def_cfa_offset 24
 184              		.cfi_offset 3, -24
 185              		.cfi_offset 4, -20
 186              		.cfi_offset 5, -16
 187              		.cfi_offset 6, -12
 188              		.cfi_offset 7, -8
 189              		.cfi_offset 14, -4
 190              		.loc 1 188 0
 191 0002 40F20003 		movw	r3, #:lower16:.LANCHOR0
 192              		.loc 1 191 0
 193 0006 40F20005 		movw	r5, #:lower16:.LANCHOR1
 194 000a C0F20005 		movt	r5, #:upper16:.LANCHOR1
 195              		.loc 1 188 0
 196 000e C0F20003 		movt	r3, #:upper16:.LANCHOR0
 197              		.loc 1 193 0
 198 0012 194E     		ldr	r6, .L22
 199              		.loc 1 188 0
 200 0014 4FF6FF72 		movw	r2, #65535
 201              		.loc 1 191 0
 202 0018 2846     		mov	r0, r5
 203              		.loc 1 209 0
 204 001a 40F20004 		movw	r4, #:lower16:.LANCHOR2
 205 001e C0F20004 		movt	r4, #:upper16:.LANCHOR2
 206              		.loc 1 188 0
 207 0022 1A80     		strh	r2, [r3]	@ movhi
 208              		.loc 1 191 0
 209 0024 FFF7FEFF 		bl	spiObjectInit
 210              	.LVL10:
 211              		.loc 1 192 0
 212 0028 4FF44051 		mov	r1, #12288
 213              		.loc 1 195 0
 214 002c 1622     		movs	r2, #22
 215              		.loc 1 201 0
 216 002e 4623     		movs	r3, #70
 217              		.loc 1 192 0
 218 0030 C4F20101 		movt	r1, 16385
 219              		.loc 1 195 0
 220 0034 C0F20162 		movt	r2, 1537
 221              		.loc 1 201 0
 222 0038 C0F20163 		movt	r3, 1537
 223              		.loc 1 194 0
 224 003c 06F12407 		add	r7, r6, #36
 225              		.loc 1 209 0
 226 0040 2046     		mov	r0, r4
 227              		.loc 1 192 0
 228 0042 E961     		str	r1, [r5, #28]
ARM GAS  /tmp/ccgZGutz.s 			page 5


 229              		.loc 1 193 0
 230 0044 2E62     		str	r6, [r5, #32]
 231              		.loc 1 195 0
 232 0046 AA62     		str	r2, [r5, #40]
 233              		.loc 1 201 0
 234 0048 EB62     		str	r3, [r5, #44]
 235              		.loc 1 194 0
 236 004a 6F62     		str	r7, [r5, #36]
 237              		.loc 1 209 0
 238 004c FFF7FEFF 		bl	spiObjectInit
 239              	.LVL11:
 240              		.loc 1 210 0
 241 0050 4FF46051 		mov	r1, #14336
 242              		.loc 1 213 0
 243 0054 1622     		movs	r2, #22
 244              		.loc 1 219 0
 245 0056 4623     		movs	r3, #70
 246              		.loc 1 211 0
 247 0058 A6F13C00 		sub	r0, r6, #60
 248              		.loc 1 210 0
 249 005c C4F20001 		movt	r1, 16384
 250              		.loc 1 212 0
 251 0060 303E     		subs	r6, r6, #48
 252              		.loc 1 213 0
 253 0062 C0F20102 		movt	r2, 1
 254              		.loc 1 219 0
 255 0066 C0F20103 		movt	r3, 1
 256              		.loc 1 210 0
 257 006a E161     		str	r1, [r4, #28]
 258              		.loc 1 211 0
 259 006c 2062     		str	r0, [r4, #32]
 260              		.loc 1 212 0
 261 006e 6662     		str	r6, [r4, #36]
 262              		.loc 1 213 0
 263 0070 A262     		str	r2, [r4, #40]
 264              		.loc 1 219 0
 265 0072 E362     		str	r3, [r4, #44]
 266 0074 F8BD     		pop	{r3, r4, r5, r6, r7, pc}
 267              	.L23:
 268 0076 00BF     		.align	2
 269              	.L22:
 270 0078 60000000 		.word	_stm32_dma_streams+96
 271              		.cfi_endproc
 272              	.LFE120:
 273              		.size	spi_lld_init, .-spi_lld_init
 274 007c AFF30080 		.section	.text.spi_lld_start,"ax",%progbits
 275              		.align	2
 276              		.p2align 4,,15
 277              		.global	spi_lld_start
 278              		.thumb
 279              		.thumb_func
 280              		.type	spi_lld_start, %function
 281              	spi_lld_start:
 282              	.LFB121:
 283              		.loc 1 306 0
 284              		.cfi_startproc
 285              		@ args = 0, pretend = 0, frame = 0
ARM GAS  /tmp/ccgZGutz.s 			page 6


 286              		@ frame_needed = 0, uses_anonymous_args = 0
 287              	.LVL12:
 288              		.loc 1 309 0
 289 0000 0378     		ldrb	r3, [r0]	@ zero_extendqisi2
 290 0002 012B     		cmp	r3, #1
 291              		.loc 1 306 0
 292 0004 10B5     		push	{r4, lr}
 293              		.cfi_def_cfa_offset 8
 294              		.cfi_offset 4, -8
 295              		.cfi_offset 14, -4
 296              		.loc 1 306 0
 297 0006 0446     		mov	r4, r0
 298              		.loc 1 309 0
 299 0008 1ED0     		beq	.L31
 300 000a C369     		ldr	r3, [r0, #28]
 301              	.LVL13:
 302              	.L25:
 303              		.loc 1 413 0
 304 000c 6268     		ldr	r2, [r4, #4]
 305              		.loc 1 416 0
 306 000e A06A     		ldr	r0, [r4, #40]
 307              		.loc 1 413 0
 308 0010 5289     		ldrh	r2, [r2, #10]
 309              		.loc 1 418 0
 310 0012 E16A     		ldr	r1, [r4, #44]
 311              		.loc 1 416 0
 312 0014 20F4F040 		bic	r0, r0, #30720
 313              		.loc 1 418 0
 314 0018 21F4F041 		bic	r1, r1, #30720
 315              		.loc 1 413 0
 316 001c 12F4006F 		tst	r2, #2048
 317              		.loc 1 423 0
 318 0020 1CBF     		itt	ne
 319 0022 40F42050 		orrne	r0, r0, #10240
 320              		.loc 1 425 0
 321 0026 41F42051 		orrne	r1, r1, #10240
 322              		.loc 1 422 0
 323 002a A062     		str	r0, [r4, #40]
 324              		.loc 1 424 0
 325 002c E162     		str	r1, [r4, #44]
 326              		.loc 1 429 0
 327 002e 42F44172 		orr	r2, r2, #772
 328              		.loc 1 428 0
 329 0032 0020     		movs	r0, #0
 330              		.loc 1 431 0
 331 0034 0721     		movs	r1, #7
 332              		.loc 1 428 0
 333 0036 1880     		strh	r0, [r3]	@ movhi
 334              		.loc 1 429 0
 335 0038 1A80     		strh	r2, [r3]	@ movhi
 336              		.loc 1 431 0
 337 003a 9980     		strh	r1, [r3, #4]	@ movhi
 338              		.loc 1 432 0
 339 003c 1A88     		ldrh	r2, [r3]
 340 003e 92B2     		uxth	r2, r2
 341 0040 42F04002 		orr	r2, r2, #64
 342 0044 1A80     		strh	r2, [r3]	@ movhi
ARM GAS  /tmp/ccgZGutz.s 			page 7


 343 0046 10BD     		pop	{r4, pc}
 344              	.LVL14:
 345              	.L31:
 346              		.loc 1 311 0
 347 0048 40F20003 		movw	r3, #:lower16:.LANCHOR1
 348 004c C0F20003 		movt	r3, #:upper16:.LANCHOR1
 349 0050 9842     		cmp	r0, r3
 350 0052 0FD0     		beq	.L33
 351              		.loc 1 327 0
 352 0054 40F20003 		movw	r3, #:lower16:.LANCHOR2
 353 0058 C0F20003 		movt	r3, #:upper16:.LANCHOR2
 354 005c 9842     		cmp	r0, r3
 355 005e 24D0     		beq	.L34
 356              	.LVL15:
 357              	.L27:
 358              		.loc 1 408 0
 359 0060 216A     		ldr	r1, [r4, #32]
 360              		.loc 1 409 0
 361 0062 626A     		ldr	r2, [r4, #36]
 362              		.loc 1 408 0
 363 0064 E369     		ldr	r3, [r4, #28]
 364 0066 0868     		ldr	r0, [r1]
 365              		.loc 1 409 0
 366 0068 1168     		ldr	r1, [r2]
 367              		.loc 1 408 0
 368 006a 03F10C02 		add	r2, r3, #12
 369 006e 8260     		str	r2, [r0, #8]
 370              		.loc 1 409 0
 371 0070 8A60     		str	r2, [r1, #8]
 372 0072 CBE7     		b	.L25
 373              	.LVL16:
 374              	.L33:
 375              	.LBB5:
 376              		.loc 1 313 0
 377 0074 40F20002 		movw	r2, #:lower16:spi_lld_serve_rx_interrupt
 378 0078 C0F20002 		movt	r2, #:upper16:spi_lld_serve_rx_interrupt
 379 007c 0A21     		movs	r1, #10
 380 007e 2346     		mov	r3, r4
 381 0080 006A     		ldr	r0, [r0, #32]
 382              	.LVL17:
 383 0082 FFF7FEFF 		bl	dmaStreamAllocate
 384              	.LVL18:
 385              		.loc 1 318 0
 386 0086 40F20002 		movw	r2, #:lower16:spi_lld_serve_tx_interrupt
 387 008a C0F20002 		movt	r2, #:upper16:spi_lld_serve_tx_interrupt
 388 008e 2346     		mov	r3, r4
 389 0090 606A     		ldr	r0, [r4, #36]
 390 0092 0A21     		movs	r1, #10
 391 0094 FFF7FEFF 		bl	dmaStreamAllocate
 392              	.LVL19:
 393              		.loc 1 323 0
 394 0098 4FF46053 		mov	r3, #14336
 395 009c C4F20203 		movt	r3, 16386
 396 00a0 5A6C     		ldr	r2, [r3, #68]
 397 00a2 42F48052 		orr	r2, r2, #4096
 398 00a6 5A64     		str	r2, [r3, #68]
 399 00a8 DAE7     		b	.L27
ARM GAS  /tmp/ccgZGutz.s 			page 8


 400              	.LVL20:
 401              	.L34:
 402              	.LBE5:
 403              	.LBB6:
 404              		.loc 1 329 0
 405 00aa 40F20002 		movw	r2, #:lower16:spi_lld_serve_rx_interrupt
 406 00ae C0F20002 		movt	r2, #:upper16:spi_lld_serve_rx_interrupt
 407 00b2 0A21     		movs	r1, #10
 408 00b4 2346     		mov	r3, r4
 409 00b6 006A     		ldr	r0, [r0, #32]
 410              	.LVL21:
 411 00b8 FFF7FEFF 		bl	dmaStreamAllocate
 412              	.LVL22:
 413              		.loc 1 334 0
 414 00bc 40F20002 		movw	r2, #:lower16:spi_lld_serve_tx_interrupt
 415 00c0 C0F20002 		movt	r2, #:upper16:spi_lld_serve_tx_interrupt
 416 00c4 2346     		mov	r3, r4
 417 00c6 606A     		ldr	r0, [r4, #36]
 418 00c8 0A21     		movs	r1, #10
 419 00ca FFF7FEFF 		bl	dmaStreamAllocate
 420              	.LVL23:
 421              		.loc 1 339 0
 422 00ce 4FF46053 		mov	r3, #14336
 423 00d2 C4F20203 		movt	r3, 16386
 424 00d6 1A6C     		ldr	r2, [r3, #64]
 425 00d8 42F48042 		orr	r2, r2, #16384
 426 00dc 1A64     		str	r2, [r3, #64]
 427 00de BFE7     		b	.L27
 428              	.LBE6:
 429              		.cfi_endproc
 430              	.LFE121:
 431              		.size	spi_lld_start, .-spi_lld_start
 432              		.section	.text.spi_lld_stop,"ax",%progbits
 433              		.align	2
 434              		.p2align 4,,15
 435              		.global	spi_lld_stop
 436              		.thumb
 437              		.thumb_func
 438              		.type	spi_lld_stop, %function
 439              	spi_lld_stop:
 440              	.LFB122:
 441              		.loc 1 442 0
 442              		.cfi_startproc
 443              		@ args = 0, pretend = 0, frame = 0
 444              		@ frame_needed = 0, uses_anonymous_args = 0
 445              	.LVL24:
 446              		.loc 1 445 0
 447 0000 0378     		ldrb	r3, [r0]	@ zero_extendqisi2
 448 0002 022B     		cmp	r3, #2
 449              		.loc 1 442 0
 450 0004 10B5     		push	{r4, lr}
 451              		.cfi_def_cfa_offset 8
 452              		.cfi_offset 4, -8
 453              		.cfi_offset 14, -4
 454              		.loc 1 442 0
 455 0006 0446     		mov	r4, r0
 456              		.loc 1 445 0
ARM GAS  /tmp/ccgZGutz.s 			page 9


 457 0008 00D0     		beq	.L40
 458 000a 10BD     		pop	{r4, pc}
 459              	.L40:
 460              		.loc 1 448 0
 461 000c C369     		ldr	r3, [r0, #28]
 462              		.loc 1 450 0
 463 000e 006A     		ldr	r0, [r0, #32]
 464              	.LVL25:
 465              		.loc 1 448 0
 466 0010 0022     		movs	r2, #0
 467 0012 1A80     		strh	r2, [r3]	@ movhi
 468              		.loc 1 449 0
 469 0014 9A80     		strh	r2, [r3, #4]	@ movhi
 470              		.loc 1 450 0
 471 0016 FFF7FEFF 		bl	dmaStreamRelease
 472              	.LVL26:
 473              		.loc 1 451 0
 474 001a 606A     		ldr	r0, [r4, #36]
 475 001c FFF7FEFF 		bl	dmaStreamRelease
 476              	.LVL27:
 477              		.loc 1 454 0
 478 0020 40F20003 		movw	r3, #:lower16:.LANCHOR1
 479 0024 C0F20003 		movt	r3, #:upper16:.LANCHOR1
 480 0028 9C42     		cmp	r4, r3
 481 002a 0FD0     		beq	.L41
 482              		.loc 1 458 0
 483 002c 40F20003 		movw	r3, #:lower16:.LANCHOR2
 484 0030 C0F20003 		movt	r3, #:upper16:.LANCHOR2
 485 0034 9C42     		cmp	r4, r3
 486              		.loc 1 459 0
 487 0036 01BF     		itttt	eq
 488 0038 4FF46053 		moveq	r3, #14336
 489 003c C4F20203 		movteq	r3, 16386
 490 0040 1A6C     		ldreq	r2, [r3, #64]
 491 0042 22F48042 		biceq	r2, r2, #16384
 492 0046 08BF     		it	eq
 493 0048 1A64     		streq	r2, [r3, #64]
 494 004a 10BD     		pop	{r4, pc}
 495              	.LVL28:
 496              	.L41:
 497              		.loc 1 455 0
 498 004c 4FF46053 		mov	r3, #14336
 499 0050 C4F20203 		movt	r3, 16386
 500 0054 5A6C     		ldr	r2, [r3, #68]
 501 0056 22F48052 		bic	r2, r2, #4096
 502 005a 5A64     		str	r2, [r3, #68]
 503 005c 10BD     		pop	{r4, pc}
 504              		.cfi_endproc
 505              	.LFE122:
 506              		.size	spi_lld_stop, .-spi_lld_stop
 507 005e 00BF     		.section	.text.spi_lld_select,"ax",%progbits
 508              		.align	2
 509              		.p2align 4,,15
 510              		.global	spi_lld_select
 511              		.thumb
 512              		.thumb_func
 513              		.type	spi_lld_select, %function
ARM GAS  /tmp/ccgZGutz.s 			page 10


 514              	spi_lld_select:
 515              	.LFB123:
 516              		.loc 1 487 0
 517              		.cfi_startproc
 518              		@ args = 0, pretend = 0, frame = 0
 519              		@ frame_needed = 0, uses_anonymous_args = 0
 520              		@ link register save eliminated.
 521              	.LVL29:
 522              		.loc 1 489 0
 523 0000 4368     		ldr	r3, [r0, #4]
 524 0002 1A89     		ldrh	r2, [r3, #8]
 525 0004 5B68     		ldr	r3, [r3, #4]
 526 0006 0121     		movs	r1, #1
 527 0008 01FA02F2 		lsl	r2, r1, r2
 528 000c 92B2     		uxth	r2, r2
 529 000e 5A83     		strh	r2, [r3, #26]	@ movhi
 530 0010 7047     		bx	lr
 531              		.cfi_endproc
 532              	.LFE123:
 533              		.size	spi_lld_select, .-spi_lld_select
 534 0012 00BFAFF3 		.section	.text.spi_lld_unselect,"ax",%progbits
 534      0080AFF3 
 534      0080AFF3 
 534      0080
 535              		.align	2
 536              		.p2align 4,,15
 537              		.global	spi_lld_unselect
 538              		.thumb
 539              		.thumb_func
 540              		.type	spi_lld_unselect, %function
 541              	spi_lld_unselect:
 542              	.LFB124:
 543              		.loc 1 500 0
 544              		.cfi_startproc
 545              		@ args = 0, pretend = 0, frame = 0
 546              		@ frame_needed = 0, uses_anonymous_args = 0
 547              		@ link register save eliminated.
 548              	.LVL30:
 549              		.loc 1 502 0
 550 0000 4368     		ldr	r3, [r0, #4]
 551 0002 1A89     		ldrh	r2, [r3, #8]
 552 0004 5B68     		ldr	r3, [r3, #4]
 553 0006 0121     		movs	r1, #1
 554 0008 01FA02F2 		lsl	r2, r1, r2
 555 000c 92B2     		uxth	r2, r2
 556 000e 1A83     		strh	r2, [r3, #24]	@ movhi
 557 0010 7047     		bx	lr
 558              		.cfi_endproc
 559              	.LFE124:
 560              		.size	spi_lld_unselect, .-spi_lld_unselect
 561 0012 00BFAFF3 		.section	.text.spi_lld_ignore,"ax",%progbits
 561      0080AFF3 
 561      0080AFF3 
 561      0080
 562              		.align	2
 563              		.p2align 4,,15
 564              		.global	spi_lld_ignore
ARM GAS  /tmp/ccgZGutz.s 			page 11


 565              		.thumb
 566              		.thumb_func
 567              		.type	spi_lld_ignore, %function
 568              	spi_lld_ignore:
 569              	.LFB125:
 570              		.loc 1 516 0
 571              		.cfi_startproc
 572              		@ args = 0, pretend = 0, frame = 0
 573              		@ frame_needed = 0, uses_anonymous_args = 0
 574              		@ link register save eliminated.
 575              	.LVL31:
 576              		.loc 1 518 0
 577 0000 026A     		ldr	r2, [r0, #32]
 578              		.loc 1 522 0
 579 0002 436A     		ldr	r3, [r0, #36]
 580              		.loc 1 518 0
 581 0004 1268     		ldr	r2, [r2]
 582              		.loc 1 522 0
 583 0006 1B68     		ldr	r3, [r3]
 584              		.loc 1 516 0
 585 0008 70B4     		push	{r4, r5, r6}
 586              		.cfi_def_cfa_offset 12
 587              		.cfi_offset 4, -12
 588              		.cfi_offset 5, -8
 589              		.cfi_offset 6, -4
 590              		.loc 1 520 0
 591 000a 866A     		ldr	r6, [r0, #40]
 592              		.loc 1 524 0
 593 000c C56A     		ldr	r5, [r0, #44]
 594              		.loc 1 518 0
 595 000e 40F20004 		movw	r4, #:lower16:.LANCHOR3
 596              		.loc 1 522 0
 597 0012 40F20000 		movw	r0, #:lower16:.LANCHOR0
 598              	.LVL32:
 599              		.loc 1 518 0
 600 0016 C0F20004 		movt	r4, #:upper16:.LANCHOR3
 601              		.loc 1 522 0
 602 001a C0F20000 		movt	r0, #:upper16:.LANCHOR0
 603              		.loc 1 518 0
 604 001e D460     		str	r4, [r2, #12]
 605              		.loc 1 519 0
 606 0020 5160     		str	r1, [r2, #4]
 607              		.loc 1 520 0
 608 0022 1660     		str	r6, [r2]
 609              		.loc 1 522 0
 610 0024 D860     		str	r0, [r3, #12]
 611              		.loc 1 523 0
 612 0026 5960     		str	r1, [r3, #4]
 613              		.loc 1 524 0
 614 0028 1D60     		str	r5, [r3]
 615              		.loc 1 526 0
 616 002a 1168     		ldr	r1, [r2]
 617              	.LVL33:
 618 002c 41F00101 		orr	r1, r1, #1
 619 0030 1160     		str	r1, [r2]
 620              		.loc 1 527 0
 621 0032 1A68     		ldr	r2, [r3]
ARM GAS  /tmp/ccgZGutz.s 			page 12


 622 0034 42F00102 		orr	r2, r2, #1
 623 0038 1A60     		str	r2, [r3]
 624              		.loc 1 528 0
 625 003a 70BC     		pop	{r4, r5, r6}
 626 003c 7047     		bx	lr
 627              		.cfi_endproc
 628              	.LFE125:
 629              		.size	spi_lld_ignore, .-spi_lld_ignore
 630 003e 00BF     		.section	.text.spi_lld_exchange,"ax",%progbits
 631              		.align	2
 632              		.p2align 4,,15
 633              		.global	spi_lld_exchange
 634              		.thumb
 635              		.thumb_func
 636              		.type	spi_lld_exchange, %function
 637              	spi_lld_exchange:
 638              	.LFB126:
 639              		.loc 1 546 0
 640              		.cfi_startproc
 641              		@ args = 0, pretend = 0, frame = 0
 642              		@ frame_needed = 0, uses_anonymous_args = 0
 643              		@ link register save eliminated.
 644              	.LVL34:
 645 0000 F0B4     		push	{r4, r5, r6, r7}
 646              		.cfi_def_cfa_offset 16
 647              		.cfi_offset 4, -16
 648              		.cfi_offset 5, -12
 649              		.cfi_offset 6, -8
 650              		.cfi_offset 7, -4
 651              		.loc 1 548 0
 652 0002 046A     		ldr	r4, [r0, #32]
 653              		.loc 1 552 0
 654 0004 476A     		ldr	r7, [r0, #36]
 655              		.loc 1 550 0
 656 0006 866A     		ldr	r6, [r0, #40]
 657              		.loc 1 554 0
 658 0008 C56A     		ldr	r5, [r0, #44]
 659              		.loc 1 548 0
 660 000a 2468     		ldr	r4, [r4]
 661              		.loc 1 552 0
 662 000c 3868     		ldr	r0, [r7]
 663              	.LVL35:
 664              		.loc 1 548 0
 665 000e E360     		str	r3, [r4, #12]
 666              		.loc 1 550 0
 667 0010 46F48066 		orr	r6, r6, #1024
 668              		.loc 1 554 0
 669 0014 45F48065 		orr	r5, r5, #1024
 670              		.loc 1 549 0
 671 0018 6160     		str	r1, [r4, #4]
 672              		.loc 1 550 0
 673 001a 2660     		str	r6, [r4]
 674              		.loc 1 552 0
 675 001c C260     		str	r2, [r0, #12]
 676              		.loc 1 553 0
 677 001e 4160     		str	r1, [r0, #4]
 678              		.loc 1 554 0
ARM GAS  /tmp/ccgZGutz.s 			page 13


 679 0020 0560     		str	r5, [r0]
 680              		.loc 1 556 0
 681 0022 2368     		ldr	r3, [r4]
 682              	.LVL36:
 683 0024 43F00103 		orr	r3, r3, #1
 684 0028 2360     		str	r3, [r4]
 685              		.loc 1 557 0
 686 002a 0368     		ldr	r3, [r0]
 687 002c 43F00103 		orr	r3, r3, #1
 688 0030 0360     		str	r3, [r0]
 689              		.loc 1 558 0
 690 0032 F0BC     		pop	{r4, r5, r6, r7}
 691 0034 7047     		bx	lr
 692              		.cfi_endproc
 693              	.LFE126:
 694              		.size	spi_lld_exchange, .-spi_lld_exchange
 695              		.section	.text.spi_lld_send,"ax",%progbits
 696              		.align	2
 697              		.p2align 4,,15
 698              		.global	spi_lld_send
 699              		.thumb
 700              		.thumb_func
 701              		.type	spi_lld_send, %function
 702              	spi_lld_send:
 703              	.LFB127:
 704              		.loc 1 573 0
 705              		.cfi_startproc
 706              		@ args = 0, pretend = 0, frame = 0
 707              		@ frame_needed = 0, uses_anonymous_args = 0
 708              		@ link register save eliminated.
 709              	.LVL37:
 710 0000 F0B4     		push	{r4, r5, r6, r7}
 711              		.cfi_def_cfa_offset 16
 712              		.cfi_offset 4, -16
 713              		.cfi_offset 5, -12
 714              		.cfi_offset 6, -8
 715              		.cfi_offset 7, -4
 716              		.loc 1 575 0
 717 0002 036A     		ldr	r3, [r0, #32]
 718              		.loc 1 579 0
 719 0004 476A     		ldr	r7, [r0, #36]
 720              		.loc 1 581 0
 721 0006 C66A     		ldr	r6, [r0, #44]
 722              		.loc 1 575 0
 723 0008 1C68     		ldr	r4, [r3]
 724              		.loc 1 577 0
 725 000a 806A     		ldr	r0, [r0, #40]
 726              	.LVL38:
 727              		.loc 1 579 0
 728 000c 3B68     		ldr	r3, [r7]
 729              		.loc 1 575 0
 730 000e 40F20005 		movw	r5, #:lower16:.LANCHOR3
 731 0012 C0F20005 		movt	r5, #:upper16:.LANCHOR3
 732              		.loc 1 581 0
 733 0016 46F48066 		orr	r6, r6, #1024
 734              		.loc 1 575 0
 735 001a E560     		str	r5, [r4, #12]
ARM GAS  /tmp/ccgZGutz.s 			page 14


 736              		.loc 1 576 0
 737 001c 6160     		str	r1, [r4, #4]
 738              		.loc 1 577 0
 739 001e 2060     		str	r0, [r4]
 740              		.loc 1 579 0
 741 0020 DA60     		str	r2, [r3, #12]
 742              		.loc 1 580 0
 743 0022 5960     		str	r1, [r3, #4]
 744              		.loc 1 581 0
 745 0024 1E60     		str	r6, [r3]
 746              		.loc 1 583 0
 747 0026 2268     		ldr	r2, [r4]
 748              	.LVL39:
 749 0028 42F00102 		orr	r2, r2, #1
 750 002c 2260     		str	r2, [r4]
 751              		.loc 1 584 0
 752 002e 1A68     		ldr	r2, [r3]
 753 0030 42F00102 		orr	r2, r2, #1
 754 0034 1A60     		str	r2, [r3]
 755              		.loc 1 585 0
 756 0036 F0BC     		pop	{r4, r5, r6, r7}
 757 0038 7047     		bx	lr
 758              		.cfi_endproc
 759              	.LFE127:
 760              		.size	spi_lld_send, .-spi_lld_send
 761 003a 00BFAFF3 		.section	.text.spi_lld_receive,"ax",%progbits
 761      0080
 762              		.align	2
 763              		.p2align 4,,15
 764              		.global	spi_lld_receive
 765              		.thumb
 766              		.thumb_func
 767              		.type	spi_lld_receive, %function
 768              	spi_lld_receive:
 769              	.LFB128:
 770              		.loc 1 600 0
 771              		.cfi_startproc
 772              		@ args = 0, pretend = 0, frame = 0
 773              		@ frame_needed = 0, uses_anonymous_args = 0
 774              		@ link register save eliminated.
 775              	.LVL40:
 776 0000 70B4     		push	{r4, r5, r6}
 777              		.cfi_def_cfa_offset 12
 778              		.cfi_offset 4, -12
 779              		.cfi_offset 5, -8
 780              		.cfi_offset 6, -4
 781              		.loc 1 606 0
 782 0002 436A     		ldr	r3, [r0, #36]
 783              		.loc 1 602 0
 784 0004 046A     		ldr	r4, [r0, #32]
 785              		.loc 1 604 0
 786 0006 866A     		ldr	r6, [r0, #40]
 787              		.loc 1 602 0
 788 0008 2468     		ldr	r4, [r4]
 789              		.loc 1 606 0
 790 000a 1B68     		ldr	r3, [r3]
 791              		.loc 1 608 0
ARM GAS  /tmp/ccgZGutz.s 			page 15


 792 000c C06A     		ldr	r0, [r0, #44]
 793              	.LVL41:
 794              		.loc 1 602 0
 795 000e E260     		str	r2, [r4, #12]
 796              		.loc 1 606 0
 797 0010 40F20005 		movw	r5, #:lower16:.LANCHOR0
 798              		.loc 1 604 0
 799 0014 46F48066 		orr	r6, r6, #1024
 800              		.loc 1 606 0
 801 0018 C0F20005 		movt	r5, #:upper16:.LANCHOR0
 802              		.loc 1 603 0
 803 001c 6160     		str	r1, [r4, #4]
 804              		.loc 1 604 0
 805 001e 2660     		str	r6, [r4]
 806              		.loc 1 606 0
 807 0020 DD60     		str	r5, [r3, #12]
 808              		.loc 1 607 0
 809 0022 5960     		str	r1, [r3, #4]
 810              		.loc 1 608 0
 811 0024 1860     		str	r0, [r3]
 812              		.loc 1 610 0
 813 0026 2268     		ldr	r2, [r4]
 814              	.LVL42:
 815 0028 42F00102 		orr	r2, r2, #1
 816 002c 2260     		str	r2, [r4]
 817              		.loc 1 611 0
 818 002e 1A68     		ldr	r2, [r3]
 819 0030 42F00102 		orr	r2, r2, #1
 820 0034 1A60     		str	r2, [r3]
 821              		.loc 1 612 0
 822 0036 70BC     		pop	{r4, r5, r6}
 823 0038 7047     		bx	lr
 824              		.cfi_endproc
 825              	.LFE128:
 826              		.size	spi_lld_receive, .-spi_lld_receive
 827 003a 00BFAFF3 		.section	.text.spi_lld_polled_exchange,"ax",%progbits
 827      0080
 828              		.align	2
 829              		.p2align 4,,15
 830              		.global	spi_lld_polled_exchange
 831              		.thumb
 832              		.thumb_func
 833              		.type	spi_lld_polled_exchange, %function
 834              	spi_lld_polled_exchange:
 835              	.LFB129:
 836              		.loc 1 626 0
 837              		.cfi_startproc
 838              		@ args = 0, pretend = 0, frame = 0
 839              		@ frame_needed = 0, uses_anonymous_args = 0
 840              		@ link register save eliminated.
 841              	.LVL43:
 842              		.loc 1 628 0
 843 0000 C269     		ldr	r2, [r0, #28]
 844 0002 9181     		strh	r1, [r2, #12]	@ movhi
 845              	.L50:
 846              		.loc 1 629 0 discriminator 1
 847 0004 1389     		ldrh	r3, [r2, #8]
ARM GAS  /tmp/ccgZGutz.s 			page 16


 848 0006 DB07     		lsls	r3, r3, #31
 849 0008 FCD5     		bpl	.L50
 850              		.loc 1 631 0
 851 000a 9089     		ldrh	r0, [r2, #12]
 852              	.LVL44:
 853              		.loc 1 632 0
 854 000c 80B2     		uxth	r0, r0
 855 000e 7047     		bx	lr
 856              		.cfi_endproc
 857              	.LFE129:
 858              		.size	spi_lld_polled_exchange, .-spi_lld_polled_exchange
 859              		.global	SPID2
 860              		.global	SPID1
 861              		.section	.bss.dummytx,"aw",%nobits
 862              		.align	1
 863              		.set	.LANCHOR0,. + 0
 864              		.type	dummytx, %object
 865              		.size	dummytx, 2
 866              	dummytx:
 867 0000 0000     		.space	2
 868              		.section	.bss.SPID1,"aw",%nobits
 869              		.align	2
 870              		.set	.LANCHOR1,. + 0
 871              		.type	SPID1, %object
 872              		.size	SPID1, 48
 873              	SPID1:
 874 0000 00000000 		.space	48
 874      00000000 
 874      00000000 
 874      00000000 
 874      00000000 
 875              		.section	.bss.SPID2,"aw",%nobits
 876              		.align	2
 877              		.set	.LANCHOR2,. + 0
 878              		.type	SPID2, %object
 879              		.size	SPID2, 48
 880              	SPID2:
 881 0000 00000000 		.space	48
 881      00000000 
 881      00000000 
 881      00000000 
 881      00000000 
 882              		.section	.bss.dummyrx,"aw",%nobits
 883              		.align	1
 884              		.set	.LANCHOR3,. + 0
 885              		.type	dummyrx, %object
 886              		.size	dummyrx, 2
 887              	dummyrx:
 888 0000 0000     		.space	2
 889              		.text
 890              	.Letext0:
 891              		.file 2 "/usr/lib/gcc/arm-none-eabi/4.8.2/include/stddef.h"
 892              		.file 3 "/usr/include/newlib/machine/_default_types.h"
 893              		.file 4 "/usr/include/newlib/stdint.h"
 894              		.file 5 "../include/ChibiOS_2.6.5/os/ports/GCC/ARMCMx/chtypes.h"
 895              		.file 6 "../include/ChibiOS_2.6.5/os/kernel/include/chlists.h"
 896              		.file 7 "../include/ChibiOS_2.6.5/os/kernel/include/chthreads.h"
ARM GAS  /tmp/ccgZGutz.s 			page 17


 897              		.file 8 "../include/ChibiOS_2.6.5/os/ports/GCC/ARMCMx/chcore_v7m.h"
 898              		.file 9 "../include/ChibiOS_2.6.5/os/kernel/include/chmtx.h"
 899              		.file 10 "../include/ChibiOS_2.6.5/os/hal/platforms/STM32F4xx/stm32f4xx.h"
 900              		.file 11 "../include/ChibiOS_2.6.5/os/hal/platforms/STM32F4xx/stm32_dma.h"
 901              		.file 12 "../include/ChibiOS_2.6.5/os/hal/platforms/STM32/GPIOv2/pal_lld.h"
 902              		.file 13 "../include/ChibiOS_2.6.5/os/hal/include/spi.h"
 903              		.file 14 "../include/ChibiOS_2.6.5/os/hal/platforms/STM32/SPIv1/spi_lld.h"
 904              		.file 15 "../include/ChibiOS_2.6.5/os/ports/common/ARMCMx/CMSIS/include/core_cm4.h"
 905              		.file 16 "../include/ChibiOS_2.6.5/os/kernel/include/chschd.h"