ARM GAS  /tmp/ccWjNRKE.s 			page 1


   1              		.syntax unified
   2              		.cpu cortex-m4
   3              		.fpu softvfp
   4              		.eabi_attribute 20, 1
   5              		.eabi_attribute 21, 1
   6              		.eabi_attribute 23, 3
   7              		.eabi_attribute 24, 1
   8              		.eabi_attribute 25, 1
   9              		.eabi_attribute 26, 1
  10              		.eabi_attribute 30, 2
  11              		.eabi_attribute 34, 1
  12              		.eabi_attribute 18, 4
  13              		.thumb
  14              		.file	"testmbox.c"
  15              		.text
  16              	.Ltext0:
  17              		.cfi_sections	.debug_frame
  18              		.section	.text.mbox1_execute,"ax",%progbits
  19              		.align	2
  20              		.p2align 4,,15
  21              		.thumb
  22              		.thumb_func
  23              		.type	mbox1_execute, %function
  24              	mbox1_execute:
  25              	.LFB8:
  26              		.file 1 "../include/ChibiOS_2.6.5/test/testmbox.c"
  27              		.loc 1 76 0
  28              		.cfi_startproc
  29              		@ args = 0, pretend = 0, frame = 8
  30              		@ frame_needed = 0, uses_anonymous_args = 0
  31 0000 70B5     		push	{r4, r5, r6, lr}
  32              		.cfi_def_cfa_offset 16
  33              		.cfi_offset 4, -16
  34              		.cfi_offset 5, -12
  35              		.cfi_offset 6, -8
  36              		.cfi_offset 14, -4
  37              		.loc 1 83 0
  38 0002 40F20005 		movw	r5, #:lower16:.LANCHOR0
  39 0006 C0F20005 		movt	r5, #:upper16:.LANCHOR0
  40              		.loc 1 76 0
  41 000a 82B0     		sub	sp, sp, #8
  42              		.cfi_def_cfa_offset 24
  43              		.loc 1 83 0
  44 000c 696A     		ldr	r1, [r5, #36]
  45 000e B1F1050E 		subs	lr, r1, #5
  46 0012 DEF10001 		rsbs	r1, lr, #0
  47 0016 51EB0E01 		adcs	r1, r1, lr
  48 001a 0120     		movs	r0, #1
  49 001c FFF7FEFF 		bl	_test_assert
  50              	.LVL0:
  51 0020 28BB     		cbnz	r0, .L1
  52 0022 4224     		movs	r4, #66
  53              	.L4:
  54              	.LVL1:
  55              		.loc 1 89 0
  56 0024 40F20000 		movw	r0, #:lower16:.LANCHOR0
  57 0028 2146     		mov	r1, r4
ARM GAS  /tmp/ccWjNRKE.s 			page 2


  58 002a C0F20000 		movt	r0, #:upper16:.LANCHOR0
  59 002e 4FF0FF32 		mov	r2, #-1
  60 0032 FFF7FEFF 		bl	chMBPost
  61              	.LVL2:
  62              		.loc 1 90 0
  63 0036 D0F10101 		rsbs	r1, r0, #1
  64 003a 38BF     		it	cc
  65 003c 0021     		movcc	r1, #0
  66 003e 0220     		movs	r0, #2
  67              	.LVL3:
  68 0040 0134     		adds	r4, r4, #1
  69              	.LVL4:
  70 0042 FFF7FEFF 		bl	_test_assert
  71              	.LVL5:
  72 0046 90B9     		cbnz	r0, .L1
  73              		.loc 1 88 0
  74 0048 462C     		cmp	r4, #70
  75 004a EBD1     		bne	.L4
  76              		.loc 1 92 0
  77 004c 40F20000 		movw	r0, #:lower16:.LANCHOR0
  78 0050 4121     		movs	r1, #65
  79 0052 C0F20000 		movt	r0, #:upper16:.LANCHOR0
  80 0056 4FF0FF32 		mov	r2, #-1
  81 005a FFF7FEFF 		bl	chMBPostAhead
  82              	.LVL6:
  83              		.loc 1 93 0
  84 005e D0F10101 		rsbs	r1, r0, #1
  85 0062 38BF     		it	cc
  86 0064 0021     		movcc	r1, #0
  87 0066 0320     		movs	r0, #3
  88              	.LVL7:
  89 0068 FFF7FEFF 		bl	_test_assert
  90              	.LVL8:
  91 006c 08B1     		cbz	r0, .L30
  92              	.L1:
  93              		.loc 1 220 0
  94 006e 02B0     		add	sp, sp, #8
  95              		@ sp needed
  96 0070 70BD     		pop	{r4, r5, r6, pc}
  97              	.L30:
  98              		.loc 1 98 0
  99 0072 40F20000 		movw	r0, #:lower16:.LANCHOR0
 100 0076 5821     		movs	r1, #88
 101 0078 C0F20000 		movt	r0, #:upper16:.LANCHOR0
 102 007c 0122     		movs	r2, #1
 103 007e FFF7FEFF 		bl	chMBPost
 104              	.LVL9:
 105              		.loc 1 99 0
 106 0082 B0F1FF36 		subs	r6, r0, #-1
 107 0086 7142     		rsbs	r1, r6, #0
 108 0088 7141     		adcs	r1, r1, r6
 109 008a 0420     		movs	r0, #4
 110              	.LVL10:
 111 008c FFF7FEFF 		bl	_test_assert
 112              	.LVL11:
 113 0090 0028     		cmp	r0, #0
 114 0092 ECD1     		bne	.L1
ARM GAS  /tmp/ccWjNRKE.s 			page 3


 115              	.LBB2:
 116              		.loc 1 100 0
 117 0094 2023     		movs	r3, #32
 118              	@ 100 "../include/ChibiOS_2.6.5/test/testmbox.c" 1
 119 0096 83F31188 		msr     BASEPRI, r3
 120              	@ 0 "" 2
 121              		.thumb
 122              	.LBE2:
 123              		.loc 1 101 0
 124 009a 40F20000 		movw	r0, #:lower16:.LANCHOR0
 125 009e 5821     		movs	r1, #88
 126 00a0 C0F20000 		movt	r0, #:upper16:.LANCHOR0
 127 00a4 FFF7FEFF 		bl	chMBPostI
 128              	.LVL12:
 129              	.LBB3:
 130              		.loc 1 102 0
 131 00a8 0023     		movs	r3, #0
 132              	.LBE3:
 133              		.loc 1 101 0
 134 00aa 0146     		mov	r1, r0
 135              	.LVL13:
 136              	.LBB4:
 137              		.loc 1 102 0
 138              	@ 102 "../include/ChibiOS_2.6.5/test/testmbox.c" 1
 139 00ac 83F31188 		msr     BASEPRI, r3
 140              	@ 0 "" 2
 141              		.thumb
 142              	.LBE4:
 143              		.loc 1 103 0
 144 00b0 B1F1FF34 		subs	r4, r1, #-1
 145 00b4 6142     		rsbs	r1, r4, #0
 146 00b6 6141     		adcs	r1, r1, r4
 147 00b8 0520     		movs	r0, #5
 148              	.LVL14:
 149 00ba FFF7FEFF 		bl	_test_assert
 150              	.LVL15:
 151 00be 0028     		cmp	r0, #0
 152 00c0 D5D1     		bne	.L1
 153              		.loc 1 104 0
 154 00c2 40F20000 		movw	r0, #:lower16:.LANCHOR0
 155 00c6 5821     		movs	r1, #88
 156 00c8 0122     		movs	r2, #1
 157 00ca C0F20000 		movt	r0, #:upper16:.LANCHOR0
 158 00ce FFF7FEFF 		bl	chMBPostAhead
 159              	.LVL16:
 160              		.loc 1 105 0
 161 00d2 B0F1FF32 		subs	r2, r0, #-1
 162 00d6 5142     		rsbs	r1, r2, #0
 163 00d8 5141     		adcs	r1, r1, r2
 164 00da 0620     		movs	r0, #6
 165              	.LVL17:
 166 00dc FFF7FEFF 		bl	_test_assert
 167              	.LVL18:
 168 00e0 0028     		cmp	r0, #0
 169 00e2 C4D1     		bne	.L1
 170              	.LBB5:
 171              		.loc 1 106 0
ARM GAS  /tmp/ccWjNRKE.s 			page 4


 172 00e4 2023     		movs	r3, #32
 173              	@ 106 "../include/ChibiOS_2.6.5/test/testmbox.c" 1
 174 00e6 83F31188 		msr     BASEPRI, r3
 175              	@ 0 "" 2
 176              		.thumb
 177              	.LBE5:
 178              		.loc 1 107 0
 179 00ea 40F20000 		movw	r0, #:lower16:.LANCHOR0
 180 00ee 5821     		movs	r1, #88
 181 00f0 C0F20000 		movt	r0, #:upper16:.LANCHOR0
 182 00f4 FFF7FEFF 		bl	chMBPostAheadI
 183              	.LVL19:
 184              	.LBB6:
 185              		.loc 1 108 0
 186 00f8 0023     		movs	r3, #0
 187              	.LBE6:
 188              		.loc 1 107 0
 189 00fa 0146     		mov	r1, r0
 190              	.LVL20:
 191              	.LBB7:
 192              		.loc 1 108 0
 193              	@ 108 "../include/ChibiOS_2.6.5/test/testmbox.c" 1
 194 00fc 83F31188 		msr     BASEPRI, r3
 195              	@ 0 "" 2
 196              		.thumb
 197              	.LBE7:
 198              		.loc 1 109 0
 199 0100 B1F1FF33 		subs	r3, r1, #-1
 200 0104 5942     		rsbs	r1, r3, #0
 201 0106 5941     		adcs	r1, r1, r3
 202 0108 0720     		movs	r0, #7
 203              	.LVL21:
 204 010a FFF7FEFF 		bl	_test_assert
 205              	.LVL22:
 206 010e 0028     		cmp	r0, #0
 207 0110 ADD1     		bne	.L1
 208              	.LBB8:
 209              		.loc 1 114 0
 210 0112 2023     		movs	r3, #32
 211              	@ 114 "../include/ChibiOS_2.6.5/test/testmbox.c" 1
 212 0114 83F31188 		msr     BASEPRI, r3
 213              	@ 0 "" 2
 214              		.thumb
 215              	.LBE8:
 216 0118 696A     		ldr	r1, [r5, #36]
 217 011a D1F10101 		rsbs	r1, r1, #1
 218 011e 4FF00800 		mov	r0, #8
 219 0122 38BF     		it	cc
 220 0124 0021     		movcc	r1, #0
 221 0126 FFF7FEFF 		bl	_test_assert
 222              	.LVL23:
 223 012a 0346     		mov	r3, r0
 224 012c 18B1     		cbz	r0, .L5
 225              	.L28:
 226              	.LBB9:
 227              		.loc 1 219 0 discriminator 2
 228 012e 0023     		movs	r3, #0
ARM GAS  /tmp/ccWjNRKE.s 			page 5


 229              	.L25:
 230              	.LBE9:
 231              	.LBB10:
 232              	@ 219 "../include/ChibiOS_2.6.5/test/testmbox.c" 1
 233 0130 83F31188 		msr     BASEPRI, r3
 234              	@ 0 "" 2
 235              		.thumb
 236              	.LBE10:
 237 0134 9BE7     		b	.L1
 238              	.L5:
 239              	.LBB11:
 240              		.loc 1 114 0 discriminator 2
 241              	@ 114 "../include/ChibiOS_2.6.5/test/testmbox.c" 1
 242 0136 83F31188 		msr     BASEPRI, r3
 243              	@ 0 "" 2
 244              		.thumb
 245              	.LBE11:
 246              	.LBB12:
 247              		.loc 1 115 0 discriminator 2
 248 013a 2023     		movs	r3, #32
 249              	@ 115 "../include/ChibiOS_2.6.5/test/testmbox.c" 1
 250 013c 83F31188 		msr     BASEPRI, r3
 251              	@ 0 "" 2
 252              		.thumb
 253              	.LBE12:
 254 0140 A969     		ldr	r1, [r5, #24]
 255 0142 B1F1050C 		subs	ip, r1, #5
 256 0146 DCF10001 		rsbs	r1, ip, #0
 257 014a 4FF00900 		mov	r0, #9
 258 014e 51EB0C01 		adcs	r1, r1, ip
 259 0152 FFF7FEFF 		bl	_test_assert
 260              	.LVL24:
 261 0156 0346     		mov	r3, r0
 262 0158 0028     		cmp	r0, #0
 263 015a E8D1     		bne	.L28
 264              	.LBB13:
 265              	@ 115 "../include/ChibiOS_2.6.5/test/testmbox.c" 1
 266 015c 83F31188 		msr     BASEPRI, r3
 267              	@ 0 "" 2
 268              		.thumb
 269              	.LBE13:
 270              	.LBB14:
 271              		.loc 1 116 0 discriminator 2
 272 0160 2023     		movs	r3, #32
 273              	@ 116 "../include/ChibiOS_2.6.5/test/testmbox.c" 1
 274 0162 83F31188 		msr     BASEPRI, r3
 275              	@ 0 "" 2
 276              		.thumb
 277              	.LBE14:
 278 0166 E968     		ldr	r1, [r5, #12]
 279 0168 AB68     		ldr	r3, [r5, #8]
 280 016a B1EB030E 		subs	lr, r1, r3
 281 016e DEF10001 		rsbs	r1, lr, #0
 282 0172 4FF00A00 		mov	r0, #10
 283 0176 51EB0E01 		adcs	r1, r1, lr
 284 017a FFF7FEFF 		bl	_test_assert
 285              	.LVL25:
ARM GAS  /tmp/ccWjNRKE.s 			page 6


 286              	.LBB15:
 287 017e 0023     		movs	r3, #0
 288              	.LBE15:
 289 0180 0028     		cmp	r0, #0
 290 0182 D5D1     		bne	.L25
 291              	.LBB16:
 292              	@ 116 "../include/ChibiOS_2.6.5/test/testmbox.c" 1
 293 0184 83F31188 		msr     BASEPRI, r3
 294              	@ 0 "" 2
 295              	.LVL26:
 296              		.thumb
 297 0188 0526     		movs	r6, #5
 298 018a 05E0     		b	.L10
 299              	.LVL27:
 300              	.L32:
 301              	.LBE16:
 302              		.loc 1 124 0
 303 018c 9DF80400 		ldrb	r0, [sp, #4]	@ zero_extendqisi2
 304 0190 FFF7FEFF 		bl	test_emit_token
 305              	.LVL28:
 306              		.loc 1 121 0
 307 0194 013E     		subs	r6, r6, #1
 308              	.LVL29:
 309 0196 13D0     		beq	.L31
 310              	.LVL30:
 311              	.L10:
 312              		.loc 1 122 0
 313 0198 40F20004 		movw	r4, #:lower16:.LANCHOR0
 314 019c C0F20004 		movt	r4, #:upper16:.LANCHOR0
 315 01a0 01A9     		add	r1, sp, #4
 316 01a2 2046     		mov	r0, r4
 317 01a4 4FF0FF32 		mov	r2, #-1
 318 01a8 FFF7FEFF 		bl	chMBFetch
 319              	.LVL31:
 320              		.loc 1 123 0
 321 01ac D0F10101 		rsbs	r1, r0, #1
 322 01b0 38BF     		it	cc
 323 01b2 0021     		movcc	r1, #0
 324 01b4 0B20     		movs	r0, #11
 325              	.LVL32:
 326 01b6 FFF7FEFF 		bl	_test_assert
 327              	.LVL33:
 328 01ba 0028     		cmp	r0, #0
 329 01bc E6D0     		beq	.L32
 330 01be 56E7     		b	.L1
 331              	.L31:
 332              		.loc 1 126 0
 333 01c0 40F20001 		movw	r1, #:lower16:.LC0
 334 01c4 C0F20001 		movt	r1, #:upper16:.LC0
 335 01c8 0C20     		movs	r0, #12
 336 01ca FFF7FEFF 		bl	_test_assert_sequence
 337              	.LVL34:
 338 01ce 0028     		cmp	r0, #0
 339 01d0 7FF44DAF 		bne	.L1
 340              		.loc 1 131 0
 341 01d4 4721     		movs	r1, #71
 342 01d6 2046     		mov	r0, r4
ARM GAS  /tmp/ccWjNRKE.s 			page 7


 343 01d8 4FF0FF32 		mov	r2, #-1
 344 01dc FFF7FEFF 		bl	chMBPost
 345              	.LVL35:
 346              		.loc 1 132 0
 347 01e0 D0F10101 		rsbs	r1, r0, #1
 348 01e4 38BF     		it	cc
 349 01e6 0021     		movcc	r1, #0
 350 01e8 0D20     		movs	r0, #13
 351              	.LVL36:
 352 01ea FFF7FEFF 		bl	_test_assert
 353              	.LVL37:
 354 01ee 0028     		cmp	r0, #0
 355 01f0 7FF43DAF 		bne	.L1
 356              		.loc 1 133 0
 357 01f4 01A9     		add	r1, sp, #4
 358 01f6 2046     		mov	r0, r4
 359 01f8 4FF0FF32 		mov	r2, #-1
 360 01fc FFF7FEFF 		bl	chMBFetch
 361              	.LVL38:
 362              		.loc 1 134 0
 363 0200 D0F10101 		rsbs	r1, r0, #1
 364 0204 38BF     		it	cc
 365 0206 0021     		movcc	r1, #0
 366 0208 0E20     		movs	r0, #14
 367              	.LVL39:
 368 020a FFF7FEFF 		bl	_test_assert
 369              	.LVL40:
 370 020e 0028     		cmp	r0, #0
 371 0210 7FF42DAF 		bne	.L1
 372              		.loc 1 135 0
 373 0214 2168     		ldr	r1, [r4]
 374 0216 A368     		ldr	r3, [r4, #8]
 375 0218 CE1A     		subs	r6, r1, r3
 376              	.LVL41:
 377 021a 7142     		rsbs	r1, r6, #0
 378 021c 7141     		adcs	r1, r1, r6
 379 021e 0F20     		movs	r0, #15
 380 0220 FFF7FEFF 		bl	_test_assert
 381              	.LVL42:
 382 0224 0028     		cmp	r0, #0
 383 0226 7FF422AF 		bne	.L1
 384              		.loc 1 136 0
 385 022a 2168     		ldr	r1, [r4]
 386 022c E368     		ldr	r3, [r4, #12]
 387 022e CA1A     		subs	r2, r1, r3
 388 0230 5142     		rsbs	r1, r2, #0
 389 0232 5141     		adcs	r1, r1, r2
 390 0234 1020     		movs	r0, #16
 391 0236 FFF7FEFF 		bl	_test_assert
 392              	.LVL43:
 393 023a 0028     		cmp	r0, #0
 394 023c 7FF417AF 		bne	.L1
 395              		.loc 1 141 0
 396 0240 01A9     		add	r1, sp, #4
 397 0242 2046     		mov	r0, r4
 398 0244 0122     		movs	r2, #1
 399 0246 FFF7FEFF 		bl	chMBFetch
ARM GAS  /tmp/ccWjNRKE.s 			page 8


 400              	.LVL44:
 401              		.loc 1 142 0
 402 024a B0F1FF33 		subs	r3, r0, #-1
 403 024e 5942     		rsbs	r1, r3, #0
 404 0250 5941     		adcs	r1, r1, r3
 405 0252 1120     		movs	r0, #17
 406              	.LVL45:
 407 0254 FFF7FEFF 		bl	_test_assert
 408              	.LVL46:
 409 0258 0028     		cmp	r0, #0
 410 025a 7FF408AF 		bne	.L1
 411              	.LBB17:
 412              		.loc 1 143 0
 413 025e 2023     		movs	r3, #32
 414              	@ 143 "../include/ChibiOS_2.6.5/test/testmbox.c" 1
 415 0260 83F31188 		msr     BASEPRI, r3
 416              	@ 0 "" 2
 417              		.thumb
 418              	.LBE17:
 419              		.loc 1 144 0
 420 0264 40F20000 		movw	r0, #:lower16:.LANCHOR0
 421 0268 01A9     		add	r1, sp, #4
 422 026a C0F20000 		movt	r0, #:upper16:.LANCHOR0
 423 026e FFF7FEFF 		bl	chMBFetchI
 424              	.LVL47:
 425              	.LBB18:
 426              		.loc 1 145 0
 427 0272 0023     		movs	r3, #0
 428              	.LBE18:
 429              		.loc 1 144 0
 430 0274 0146     		mov	r1, r0
 431              	.LVL48:
 432              	.LBB19:
 433              		.loc 1 145 0
 434              	@ 145 "../include/ChibiOS_2.6.5/test/testmbox.c" 1
 435 0276 83F31188 		msr     BASEPRI, r3
 436              	@ 0 "" 2
 437              		.thumb
 438              	.LBE19:
 439              		.loc 1 146 0
 440 027a B1F1FF3C 		subs	ip, r1, #-1
 441 027e DCF10001 		rsbs	r1, ip, #0
 442 0282 51EB0C01 		adcs	r1, r1, ip
 443 0286 1220     		movs	r0, #18
 444              	.LVL49:
 445 0288 FFF7FEFF 		bl	_test_assert
 446              	.LVL50:
 447 028c 0028     		cmp	r0, #0
 448 028e 7FF4EEAE 		bne	.L1
 449              	.LBB20:
 450              		.loc 1 151 0
 451 0292 2023     		movs	r3, #32
 452              	@ 151 "../include/ChibiOS_2.6.5/test/testmbox.c" 1
 453 0294 83F31188 		msr     BASEPRI, r3
 454              	@ 0 "" 2
 455              		.thumb
 456              	.LBE20:
ARM GAS  /tmp/ccWjNRKE.s 			page 9


 457 0298 696A     		ldr	r1, [r5, #36]
 458 029a B1F1050E 		subs	lr, r1, #5
 459 029e DEF10001 		rsbs	r1, lr, #0
 460 02a2 4FF01300 		mov	r0, #19
 461 02a6 51EB0E01 		adcs	r1, r1, lr
 462 02aa FFF7FEFF 		bl	_test_assert
 463              	.LVL51:
 464              	.LBB21:
 465 02ae 0023     		movs	r3, #0
 466              	.LBE21:
 467 02b0 0028     		cmp	r0, #0
 468 02b2 7FF43DAF 		bne	.L25
 469              	.LBB22:
 470              		.loc 1 151 0 is_stmt 0 discriminator 2
 471              	@ 151 "../include/ChibiOS_2.6.5/test/testmbox.c" 1
 472 02b6 83F31188 		msr     BASEPRI, r3
 473              	@ 0 "" 2
 474              		.thumb
 475              	.LBE22:
 476              	.LBB23:
 477              		.loc 1 152 0 is_stmt 1 discriminator 2
 478 02ba 2023     		movs	r3, #32
 479              	@ 152 "../include/ChibiOS_2.6.5/test/testmbox.c" 1
 480 02bc 83F31188 		msr     BASEPRI, r3
 481              	@ 0 "" 2
 482              		.thumb
 483              	.LBE23:
 484 02c0 A969     		ldr	r1, [r5, #24]
 485 02c2 D1F10101 		rsbs	r1, r1, #1
 486 02c6 4FF01400 		mov	r0, #20
 487 02ca 38BF     		it	cc
 488 02cc 0021     		movcc	r1, #0
 489 02ce FFF7FEFF 		bl	_test_assert
 490              	.LVL52:
 491 02d2 0346     		mov	r3, r0
 492 02d4 0028     		cmp	r0, #0
 493 02d6 7FF42AAF 		bne	.L28
 494              	.LBB24:
 495              	@ 152 "../include/ChibiOS_2.6.5/test/testmbox.c" 1
 496 02da 83F31188 		msr     BASEPRI, r3
 497              	@ 0 "" 2
 498              		.thumb
 499              	.LBE24:
 500              	.LBB25:
 501              		.loc 1 153 0 discriminator 2
 502 02de 2023     		movs	r3, #32
 503              	@ 153 "../include/ChibiOS_2.6.5/test/testmbox.c" 1
 504 02e0 83F31188 		msr     BASEPRI, r3
 505              	@ 0 "" 2
 506              		.thumb
 507              	.LBE25:
 508 02e4 E968     		ldr	r1, [r5, #12]
 509 02e6 AB68     		ldr	r3, [r5, #8]
 510 02e8 CE1A     		subs	r6, r1, r3
 511 02ea 7142     		rsbs	r1, r6, #0
 512 02ec 4FF01500 		mov	r0, #21
 513 02f0 7141     		adcs	r1, r1, r6
ARM GAS  /tmp/ccWjNRKE.s 			page 10


 514 02f2 FFF7FEFF 		bl	_test_assert
 515              	.LVL53:
 516 02f6 0346     		mov	r3, r0
 517 02f8 0028     		cmp	r0, #0
 518 02fa 7FF418AF 		bne	.L28
 519              	.LBB26:
 520              	@ 153 "../include/ChibiOS_2.6.5/test/testmbox.c" 1
 521 02fe 83F31188 		msr     BASEPRI, r3
 522              	@ 0 "" 2
 523              		.thumb
 524              	.LBE26:
 525              	.LBB27:
 526              		.loc 1 158 0 discriminator 2
 527 0302 2023     		movs	r3, #32
 528              	@ 158 "../include/ChibiOS_2.6.5/test/testmbox.c" 1
 529 0304 83F31188 		msr     BASEPRI, r3
 530              	@ 0 "" 2
 531              		.thumb
 532              	.LBE27:
 533              		.loc 1 159 0 discriminator 2
 534 0308 40F20000 		movw	r0, #:lower16:.LANCHOR0
 535 030c 4121     		movs	r1, #65
 536 030e C0F20000 		movt	r0, #:upper16:.LANCHOR0
 537 0312 FFF7FEFF 		bl	chMBPostI
 538              	.LVL54:
 539              		.loc 1 160 0 discriminator 2
 540 0316 D0F10101 		rsbs	r1, r0, #1
 541 031a 38BF     		it	cc
 542 031c 0021     		movcc	r1, #0
 543 031e 1620     		movs	r0, #22
 544              	.LVL55:
 545 0320 FFF7FEFF 		bl	_test_assert
 546              	.LVL56:
 547 0324 0028     		cmp	r0, #0
 548 0326 7FF4A2AE 		bne	.L1
 549              		.loc 1 161 0
 550 032a 40F20000 		movw	r0, #:lower16:.LANCHOR0
 551 032e 4221     		movs	r1, #66
 552 0330 C0F20000 		movt	r0, #:upper16:.LANCHOR0
 553 0334 FFF7FEFF 		bl	chMBPostI
 554              	.LVL57:
 555              		.loc 1 162 0
 556 0338 D0F10101 		rsbs	r1, r0, #1
 557 033c 38BF     		it	cc
 558 033e 0021     		movcc	r1, #0
 559 0340 1720     		movs	r0, #23
 560              	.LVL58:
 561 0342 FFF7FEFF 		bl	_test_assert
 562              	.LVL59:
 563 0346 0028     		cmp	r0, #0
 564 0348 7FF491AE 		bne	.L1
 565              		.loc 1 163 0
 566 034c 40F20000 		movw	r0, #:lower16:.LANCHOR0
 567 0350 4321     		movs	r1, #67
 568 0352 C0F20000 		movt	r0, #:upper16:.LANCHOR0
 569 0356 FFF7FEFF 		bl	chMBPostI
 570              	.LVL60:
ARM GAS  /tmp/ccWjNRKE.s 			page 11


 571              		.loc 1 164 0
 572 035a D0F10101 		rsbs	r1, r0, #1
 573 035e 38BF     		it	cc
 574 0360 0021     		movcc	r1, #0
 575 0362 1820     		movs	r0, #24
 576              	.LVL61:
 577 0364 FFF7FEFF 		bl	_test_assert
 578              	.LVL62:
 579 0368 0028     		cmp	r0, #0
 580 036a 7FF480AE 		bne	.L1
 581              		.loc 1 165 0
 582 036e 40F20000 		movw	r0, #:lower16:.LANCHOR0
 583 0372 4421     		movs	r1, #68
 584 0374 C0F20000 		movt	r0, #:upper16:.LANCHOR0
 585 0378 FFF7FEFF 		bl	chMBPostI
 586              	.LVL63:
 587              		.loc 1 166 0
 588 037c D0F10101 		rsbs	r1, r0, #1
 589 0380 38BF     		it	cc
 590 0382 0021     		movcc	r1, #0
 591 0384 1920     		movs	r0, #25
 592              	.LVL64:
 593 0386 FFF7FEFF 		bl	_test_assert
 594              	.LVL65:
 595 038a 0446     		mov	r4, r0
 596 038c 0028     		cmp	r0, #0
 597 038e 7FF46EAE 		bne	.L1
 598              		.loc 1 167 0
 599 0392 40F20000 		movw	r0, #:lower16:.LANCHOR0
 600 0396 4521     		movs	r1, #69
 601 0398 C0F20000 		movt	r0, #:upper16:.LANCHOR0
 602 039c FFF7FEFF 		bl	chMBPostI
 603              	.LVL66:
 604              	.LBB28:
 605              		.loc 1 168 0
 606 03a0 2346     		mov	r3, r4
 607              	.LBE28:
 608              		.loc 1 167 0
 609 03a2 0146     		mov	r1, r0
 610              	.LVL67:
 611              	.LBB29:
 612              		.loc 1 168 0
 613              	@ 168 "../include/ChibiOS_2.6.5/test/testmbox.c" 1
 614 03a4 83F31188 		msr     BASEPRI, r3
 615              	@ 0 "" 2
 616              		.thumb
 617              	.LBE29:
 618              		.loc 1 169 0
 619 03a8 D1F10101 		rsbs	r1, r1, #1
 620 03ac 38BF     		it	cc
 621 03ae 0021     		movcc	r1, #0
 622 03b0 1A20     		movs	r0, #26
 623              	.LVL68:
 624 03b2 FFF7FEFF 		bl	_test_assert
 625              	.LVL69:
 626 03b6 0028     		cmp	r0, #0
 627 03b8 7FF459AE 		bne	.L1
ARM GAS  /tmp/ccWjNRKE.s 			page 12


 628              		.loc 1 170 0
 629 03bc E968     		ldr	r1, [r5, #12]
 630 03be AB68     		ldr	r3, [r5, #8]
 631 03c0 CC1A     		subs	r4, r1, r3
 632 03c2 6142     		rsbs	r1, r4, #0
 633 03c4 6141     		adcs	r1, r1, r4
 634 03c6 1B20     		movs	r0, #27
 635 03c8 FFF7FEFF 		bl	_test_assert
 636              	.LVL70:
 637 03cc 0028     		cmp	r0, #0
 638 03ce 7FF44EAE 		bne	.L1
 639 03d2 0524     		movs	r4, #5
 640              	.L15:
 641              	.LVL71:
 642              	.LBB30:
 643              		.loc 1 172 0
 644 03d4 2023     		movs	r3, #32
 645              	@ 172 "../include/ChibiOS_2.6.5/test/testmbox.c" 1
 646 03d6 83F31188 		msr     BASEPRI, r3
 647              	@ 0 "" 2
 648              		.thumb
 649              	.LBE30:
 650              		.loc 1 173 0
 651 03da 40F20000 		movw	r0, #:lower16:.LANCHOR0
 652 03de 01A9     		add	r1, sp, #4
 653 03e0 C0F20000 		movt	r0, #:upper16:.LANCHOR0
 654 03e4 FFF7FEFF 		bl	chMBFetchI
 655              	.LVL72:
 656              	.LBB31:
 657              		.loc 1 174 0
 658 03e8 0023     		movs	r3, #0
 659              	.LBE31:
 660              		.loc 1 173 0
 661 03ea 0146     		mov	r1, r0
 662              	.LVL73:
 663              	.LBB32:
 664              		.loc 1 174 0
 665              	@ 174 "../include/ChibiOS_2.6.5/test/testmbox.c" 1
 666 03ec 83F31188 		msr     BASEPRI, r3
 667              	@ 0 "" 2
 668              		.thumb
 669              	.LBE32:
 670              		.loc 1 175 0
 671 03f0 D1F10101 		rsbs	r1, r1, #1
 672 03f4 38BF     		it	cc
 673 03f6 0021     		movcc	r1, #0
 674 03f8 1C20     		movs	r0, #28
 675              	.LVL74:
 676 03fa FFF7FEFF 		bl	_test_assert
 677              	.LVL75:
 678 03fe 0028     		cmp	r0, #0
 679 0400 7FF435AE 		bne	.L1
 680              		.loc 1 176 0
 681 0404 9DF80400 		ldrb	r0, [sp, #4]	@ zero_extendqisi2
 682 0408 FFF7FEFF 		bl	test_emit_token
 683              	.LVL76:
 684              		.loc 1 171 0
ARM GAS  /tmp/ccWjNRKE.s 			page 13


 685 040c 013C     		subs	r4, r4, #1
 686              	.LVL77:
 687 040e E1D1     		bne	.L15
 688              		.loc 1 178 0
 689 0410 40F20001 		movw	r1, #:lower16:.LC0
 690 0414 C0F20001 		movt	r1, #:upper16:.LC0
 691 0418 1D20     		movs	r0, #29
 692 041a FFF7FEFF 		bl	_test_assert_sequence
 693              	.LVL78:
 694 041e 0028     		cmp	r0, #0
 695 0420 7FF425AE 		bne	.L1
 696              	.LBB33:
 697              		.loc 1 179 0
 698 0424 2023     		movs	r3, #32
 699              	@ 179 "../include/ChibiOS_2.6.5/test/testmbox.c" 1
 700 0426 83F31188 		msr     BASEPRI, r3
 701              	@ 0 "" 2
 702              		.thumb
 703              	.LBE33:
 704 042a 696A     		ldr	r1, [r5, #36]
 705 042c 4A1F     		subs	r2, r1, #5
 706 042e 5142     		rsbs	r1, r2, #0
 707 0430 4FF01E00 		mov	r0, #30
 708 0434 5141     		adcs	r1, r1, r2
 709 0436 FFF7FEFF 		bl	_test_assert
 710              	.LVL79:
 711 043a 0346     		mov	r3, r0
 712 043c 0028     		cmp	r0, #0
 713 043e 7FF476AE 		bne	.L28
 714              	.LBB34:
 715              		.loc 1 179 0 is_stmt 0 discriminator 2
 716              	@ 179 "../include/ChibiOS_2.6.5/test/testmbox.c" 1
 717 0442 83F31188 		msr     BASEPRI, r3
 718              	@ 0 "" 2
 719              		.thumb
 720              	.LBE34:
 721              	.LBB35:
 722              		.loc 1 180 0 is_stmt 1 discriminator 2
 723 0446 2023     		movs	r3, #32
 724              	@ 180 "../include/ChibiOS_2.6.5/test/testmbox.c" 1
 725 0448 83F31188 		msr     BASEPRI, r3
 726              	@ 0 "" 2
 727              		.thumb
 728              	.LBE35:
 729 044c A969     		ldr	r1, [r5, #24]
 730 044e D1F10101 		rsbs	r1, r1, #1
 731 0452 4FF01F00 		mov	r0, #31
 732 0456 38BF     		it	cc
 733 0458 0021     		movcc	r1, #0
 734 045a FFF7FEFF 		bl	_test_assert
 735              	.LVL80:
 736 045e 0346     		mov	r3, r0
 737 0460 0028     		cmp	r0, #0
 738 0462 7FF464AE 		bne	.L28
 739              	.LBB36:
 740              	@ 180 "../include/ChibiOS_2.6.5/test/testmbox.c" 1
 741 0466 83F31188 		msr     BASEPRI, r3
ARM GAS  /tmp/ccWjNRKE.s 			page 14


 742              	@ 0 "" 2
 743              		.thumb
 744              	.LBE36:
 745              		.loc 1 181 0 discriminator 2
 746 046a E968     		ldr	r1, [r5, #12]
 747 046c AB68     		ldr	r3, [r5, #8]
 748 046e CB1A     		subs	r3, r1, r3
 749 0470 5942     		rsbs	r1, r3, #0
 750 0472 5941     		adcs	r1, r1, r3
 751 0474 2020     		movs	r0, #32
 752 0476 FFF7FEFF 		bl	_test_assert
 753              	.LVL81:
 754 047a 0028     		cmp	r0, #0
 755 047c 7FF4F7AD 		bne	.L1
 756              	.LBB37:
 757              		.loc 1 183 0
 758 0480 2023     		movs	r3, #32
 759              	@ 183 "../include/ChibiOS_2.6.5/test/testmbox.c" 1
 760 0482 83F31188 		msr     BASEPRI, r3
 761              	@ 0 "" 2
 762              		.thumb
 763              	.LBE37:
 764              		.loc 1 184 0
 765 0486 40F20000 		movw	r0, #:lower16:.LANCHOR0
 766 048a 4521     		movs	r1, #69
 767 048c C0F20000 		movt	r0, #:upper16:.LANCHOR0
 768 0490 FFF7FEFF 		bl	chMBPostAheadI
 769              	.LVL82:
 770              		.loc 1 185 0
 771 0494 D0F10101 		rsbs	r1, r0, #1
 772 0498 38BF     		it	cc
 773 049a 0021     		movcc	r1, #0
 774 049c 2120     		movs	r0, #33
 775              	.LVL83:
 776 049e FFF7FEFF 		bl	_test_assert
 777              	.LVL84:
 778 04a2 0028     		cmp	r0, #0
 779 04a4 7FF4E3AD 		bne	.L1
 780              		.loc 1 186 0
 781 04a8 40F20000 		movw	r0, #:lower16:.LANCHOR0
 782 04ac 4421     		movs	r1, #68
 783 04ae C0F20000 		movt	r0, #:upper16:.LANCHOR0
 784 04b2 FFF7FEFF 		bl	chMBPostAheadI
 785              	.LVL85:
 786              		.loc 1 187 0
 787 04b6 D0F10101 		rsbs	r1, r0, #1
 788 04ba 38BF     		it	cc
 789 04bc 0021     		movcc	r1, #0
 790 04be 2220     		movs	r0, #34
 791              	.LVL86:
 792 04c0 FFF7FEFF 		bl	_test_assert
 793              	.LVL87:
 794 04c4 0028     		cmp	r0, #0
 795 04c6 7FF4D2AD 		bne	.L1
 796              		.loc 1 188 0
 797 04ca 40F20000 		movw	r0, #:lower16:.LANCHOR0
 798 04ce 4321     		movs	r1, #67
ARM GAS  /tmp/ccWjNRKE.s 			page 15


 799 04d0 C0F20000 		movt	r0, #:upper16:.LANCHOR0
 800 04d4 FFF7FEFF 		bl	chMBPostAheadI
 801              	.LVL88:
 802              		.loc 1 189 0
 803 04d8 D0F10101 		rsbs	r1, r0, #1
 804 04dc 38BF     		it	cc
 805 04de 0021     		movcc	r1, #0
 806 04e0 2320     		movs	r0, #35
 807              	.LVL89:
 808 04e2 FFF7FEFF 		bl	_test_assert
 809              	.LVL90:
 810 04e6 0028     		cmp	r0, #0
 811 04e8 7FF4C1AD 		bne	.L1
 812              		.loc 1 190 0
 813 04ec 40F20000 		movw	r0, #:lower16:.LANCHOR0
 814 04f0 4221     		movs	r1, #66
 815 04f2 C0F20000 		movt	r0, #:upper16:.LANCHOR0
 816 04f6 FFF7FEFF 		bl	chMBPostAheadI
 817              	.LVL91:
 818              		.loc 1 191 0
 819 04fa D0F10101 		rsbs	r1, r0, #1
 820 04fe 38BF     		it	cc
 821 0500 0021     		movcc	r1, #0
 822 0502 2420     		movs	r0, #36
 823              	.LVL92:
 824 0504 FFF7FEFF 		bl	_test_assert
 825              	.LVL93:
 826 0508 0028     		cmp	r0, #0
 827 050a 7FF4B0AD 		bne	.L1
 828              		.loc 1 192 0
 829 050e 40F20000 		movw	r0, #:lower16:.LANCHOR0
 830 0512 4121     		movs	r1, #65
 831 0514 C0F20000 		movt	r0, #:upper16:.LANCHOR0
 832 0518 FFF7FEFF 		bl	chMBPostAheadI
 833              	.LVL94:
 834              	.LBB38:
 835              		.loc 1 193 0
 836 051c 0023     		movs	r3, #0
 837              	.LBE38:
 838              		.loc 1 192 0
 839 051e 0146     		mov	r1, r0
 840              	.LVL95:
 841              	.LBB39:
 842              		.loc 1 193 0
 843              	@ 193 "../include/ChibiOS_2.6.5/test/testmbox.c" 1
 844 0520 83F31188 		msr     BASEPRI, r3
 845              	@ 0 "" 2
 846              		.thumb
 847              	.LBE39:
 848              		.loc 1 194 0
 849 0524 D1F10101 		rsbs	r1, r1, #1
 850 0528 38BF     		it	cc
 851 052a 0021     		movcc	r1, #0
 852 052c 2520     		movs	r0, #37
 853              	.LVL96:
 854 052e FFF7FEFF 		bl	_test_assert
 855              	.LVL97:
ARM GAS  /tmp/ccWjNRKE.s 			page 16


 856 0532 0028     		cmp	r0, #0
 857 0534 7FF49BAD 		bne	.L1
 858              		.loc 1 195 0
 859 0538 E968     		ldr	r1, [r5, #12]
 860 053a AB68     		ldr	r3, [r5, #8]
 861 053c B1EB030C 		subs	ip, r1, r3
 862 0540 DCF10001 		rsbs	r1, ip, #0
 863 0544 51EB0C01 		adcs	r1, r1, ip
 864 0548 2620     		movs	r0, #38
 865 054a FFF7FEFF 		bl	_test_assert
 866              	.LVL98:
 867 054e 0028     		cmp	r0, #0
 868 0550 7FF48DAD 		bne	.L1
 869 0554 0524     		movs	r4, #5
 870              	.LVL99:
 871              	.L19:
 872              	.LBB40:
 873              		.loc 1 197 0
 874 0556 2023     		movs	r3, #32
 875              	@ 197 "../include/ChibiOS_2.6.5/test/testmbox.c" 1
 876 0558 83F31188 		msr     BASEPRI, r3
 877              	@ 0 "" 2
 878              		.thumb
 879              	.LBE40:
 880              		.loc 1 198 0
 881 055c 40F20000 		movw	r0, #:lower16:.LANCHOR0
 882 0560 01A9     		add	r1, sp, #4
 883 0562 C0F20000 		movt	r0, #:upper16:.LANCHOR0
 884 0566 FFF7FEFF 		bl	chMBFetchI
 885              	.LVL100:
 886              	.LBB41:
 887              		.loc 1 199 0
 888 056a 0023     		movs	r3, #0
 889              	.LBE41:
 890              		.loc 1 198 0
 891 056c 0146     		mov	r1, r0
 892              	.LVL101:
 893              	.LBB42:
 894              		.loc 1 199 0
 895              	@ 199 "../include/ChibiOS_2.6.5/test/testmbox.c" 1
 896 056e 83F31188 		msr     BASEPRI, r3
 897              	@ 0 "" 2
 898              		.thumb
 899              	.LBE42:
 900              		.loc 1 200 0
 901 0572 D1F10101 		rsbs	r1, r1, #1
 902 0576 38BF     		it	cc
 903 0578 0021     		movcc	r1, #0
 904 057a 2720     		movs	r0, #39
 905              	.LVL102:
 906 057c FFF7FEFF 		bl	_test_assert
 907              	.LVL103:
 908 0580 0028     		cmp	r0, #0
 909 0582 7FF474AD 		bne	.L1
 910              		.loc 1 201 0
 911 0586 9DF80400 		ldrb	r0, [sp, #4]	@ zero_extendqisi2
 912 058a FFF7FEFF 		bl	test_emit_token
ARM GAS  /tmp/ccWjNRKE.s 			page 17


 913              	.LVL104:
 914              		.loc 1 196 0
 915 058e 013C     		subs	r4, r4, #1
 916              	.LVL105:
 917 0590 E1D1     		bne	.L19
 918              		.loc 1 203 0
 919 0592 40F20001 		movw	r1, #:lower16:.LC0
 920 0596 C0F20001 		movt	r1, #:upper16:.LC0
 921 059a 2820     		movs	r0, #40
 922 059c FFF7FEFF 		bl	_test_assert_sequence
 923              	.LVL106:
 924 05a0 0028     		cmp	r0, #0
 925 05a2 7FF464AD 		bne	.L1
 926              	.LBB43:
 927              		.loc 1 204 0
 928 05a6 2023     		movs	r3, #32
 929              	@ 204 "../include/ChibiOS_2.6.5/test/testmbox.c" 1
 930 05a8 83F31188 		msr     BASEPRI, r3
 931              	@ 0 "" 2
 932              		.thumb
 933              	.LBE43:
 934 05ac 696A     		ldr	r1, [r5, #36]
 935 05ae B1F1050E 		subs	lr, r1, #5
 936 05b2 DEF10001 		rsbs	r1, lr, #0
 937 05b6 4FF02900 		mov	r0, #41
 938 05ba 51EB0E01 		adcs	r1, r1, lr
 939 05be FFF7FEFF 		bl	_test_assert
 940              	.LVL107:
 941 05c2 0346     		mov	r3, r0
 942 05c4 0028     		cmp	r0, #0
 943 05c6 7FF4B2AD 		bne	.L28
 944              	.LBB44:
 945              		.loc 1 204 0 is_stmt 0 discriminator 2
 946              	@ 204 "../include/ChibiOS_2.6.5/test/testmbox.c" 1
 947 05ca 83F31188 		msr     BASEPRI, r3
 948              	@ 0 "" 2
 949              		.thumb
 950              	.LBE44:
 951              	.LBB45:
 952              		.loc 1 205 0 is_stmt 1 discriminator 2
 953 05ce 2023     		movs	r3, #32
 954              	@ 205 "../include/ChibiOS_2.6.5/test/testmbox.c" 1
 955 05d0 83F31188 		msr     BASEPRI, r3
 956              	@ 0 "" 2
 957              		.thumb
 958              	.LBE45:
 959 05d4 A969     		ldr	r1, [r5, #24]
 960 05d6 D1F10101 		rsbs	r1, r1, #1
 961 05da 4FF02A00 		mov	r0, #42
 962 05de 38BF     		it	cc
 963 05e0 0021     		movcc	r1, #0
 964 05e2 FFF7FEFF 		bl	_test_assert
 965              	.LVL108:
 966 05e6 0346     		mov	r3, r0
 967 05e8 0028     		cmp	r0, #0
 968 05ea 7FF4A0AD 		bne	.L28
 969              	.LBB46:
ARM GAS  /tmp/ccWjNRKE.s 			page 18


 970              	@ 205 "../include/ChibiOS_2.6.5/test/testmbox.c" 1
 971 05ee 83F31188 		msr     BASEPRI, r3
 972              	@ 0 "" 2
 973              		.thumb
 974              	.LBE46:
 975              		.loc 1 206 0 discriminator 2
 976 05f2 E968     		ldr	r1, [r5, #12]
 977 05f4 AB68     		ldr	r3, [r5, #8]
 978 05f6 CE1A     		subs	r6, r1, r3
 979 05f8 7142     		rsbs	r1, r6, #0
 980 05fa 7141     		adcs	r1, r1, r6
 981 05fc 2B20     		movs	r0, #43
 982 05fe FFF7FEFF 		bl	_test_assert
 983              	.LVL109:
 984 0602 0028     		cmp	r0, #0
 985 0604 7FF433AD 		bne	.L1
 986              		.loc 1 211 0
 987 0608 40F20000 		movw	r0, #:lower16:.LANCHOR0
 988 060c C0F20000 		movt	r0, #:upper16:.LANCHOR0
 989 0610 FFF7FEFF 		bl	chMBReset
 990              	.LVL110:
 991              	.LBB47:
 992              		.loc 1 216 0
 993 0614 2023     		movs	r3, #32
 994              	@ 216 "../include/ChibiOS_2.6.5/test/testmbox.c" 1
 995 0616 83F31188 		msr     BASEPRI, r3
 996              	@ 0 "" 2
 997              		.thumb
 998              	.LBE47:
 999 061a 696A     		ldr	r1, [r5, #36]
 1000 061c 4C1F     		subs	r4, r1, #5
 1001              	.LVL111:
 1002 061e 6142     		rsbs	r1, r4, #0
 1003 0620 4FF02C00 		mov	r0, #44
 1004 0624 6141     		adcs	r1, r1, r4
 1005 0626 FFF7FEFF 		bl	_test_assert
 1006              	.LVL112:
 1007 062a 0346     		mov	r3, r0
 1008 062c 0028     		cmp	r0, #0
 1009 062e 7FF47EAD 		bne	.L28
 1010              	.LBB48:
 1011              		.loc 1 216 0 is_stmt 0 discriminator 2
 1012              	@ 216 "../include/ChibiOS_2.6.5/test/testmbox.c" 1
 1013 0632 83F31188 		msr     BASEPRI, r3
 1014              	@ 0 "" 2
 1015              		.thumb
 1016              	.LBE48:
 1017              	.LBB49:
 1018              		.loc 1 217 0 is_stmt 1 discriminator 2
 1019 0636 2023     		movs	r3, #32
 1020              	@ 217 "../include/ChibiOS_2.6.5/test/testmbox.c" 1
 1021 0638 83F31188 		msr     BASEPRI, r3
 1022              	@ 0 "" 2
 1023              		.thumb
 1024              	.LBE49:
 1025 063c A969     		ldr	r1, [r5, #24]
 1026 063e D1F10101 		rsbs	r1, r1, #1
ARM GAS  /tmp/ccWjNRKE.s 			page 19


 1027 0642 4FF02D00 		mov	r0, #45
 1028 0646 38BF     		it	cc
 1029 0648 0021     		movcc	r1, #0
 1030 064a FFF7FEFF 		bl	_test_assert
 1031              	.LVL113:
 1032 064e 0346     		mov	r3, r0
 1033 0650 0028     		cmp	r0, #0
 1034 0652 7FF46CAD 		bne	.L28
 1035              	.LBB50:
 1036              	@ 217 "../include/ChibiOS_2.6.5/test/testmbox.c" 1
 1037 0656 83F31188 		msr     BASEPRI, r3
 1038              	@ 0 "" 2
 1039              		.thumb
 1040              	.LBE50:
 1041              	.LBB51:
 1042              		.loc 1 218 0 discriminator 2
 1043 065a 2023     		movs	r3, #32
 1044              	@ 218 "../include/ChibiOS_2.6.5/test/testmbox.c" 1
 1045 065c 83F31188 		msr     BASEPRI, r3
 1046              	@ 0 "" 2
 1047              		.thumb
 1048              	.LBE51:
 1049 0660 2968     		ldr	r1, [r5]
 1050 0662 AB68     		ldr	r3, [r5, #8]
 1051 0664 CA1A     		subs	r2, r1, r3
 1052 0666 5142     		rsbs	r1, r2, #0
 1053 0668 4FF02E00 		mov	r0, #46
 1054 066c 5141     		adcs	r1, r1, r2
 1055 066e FFF7FEFF 		bl	_test_assert
 1056              	.LVL114:
 1057 0672 0346     		mov	r3, r0
 1058 0674 0028     		cmp	r0, #0
 1059 0676 7FF45AAD 		bne	.L28
 1060              	.LBB52:
 1061              	@ 218 "../include/ChibiOS_2.6.5/test/testmbox.c" 1
 1062 067a 83F31188 		msr     BASEPRI, r3
 1063              	@ 0 "" 2
 1064              		.thumb
 1065              	.LBE52:
 1066              	.LBB53:
 1067              		.loc 1 219 0 discriminator 2
 1068 067e 2023     		movs	r3, #32
 1069              	@ 219 "../include/ChibiOS_2.6.5/test/testmbox.c" 1
 1070 0680 83F31188 		msr     BASEPRI, r3
 1071              	@ 0 "" 2
 1072              		.thumb
 1073              	.LBE53:
 1074 0684 2968     		ldr	r1, [r5]
 1075 0686 EB68     		ldr	r3, [r5, #12]
 1076 0688 CB1A     		subs	r3, r1, r3
 1077 068a 5942     		rsbs	r1, r3, #0
 1078 068c 5941     		adcs	r1, r1, r3
 1079 068e 2F20     		movs	r0, #47
 1080 0690 FFF7FEFF 		bl	_test_assert
 1081              	.LVL115:
 1082 0694 4BE5     		b	.L28
 1083              		.cfi_endproc
ARM GAS  /tmp/ccWjNRKE.s 			page 20


 1084              	.LFE8:
 1085              		.size	mbox1_execute, .-mbox1_execute
 1086 0696 00BFAFF3 		.section	.text.mbox1_setup,"ax",%progbits
 1086      0080AFF3 
 1086      0080
 1087              		.align	2
 1088              		.p2align 4,,15
 1089              		.thumb
 1090              		.thumb_func
 1091              		.type	mbox1_setup, %function
 1092              	mbox1_setup:
 1093              	.LFB7:
 1094              		.loc 1 71 0
 1095              		.cfi_startproc
 1096              		@ args = 0, pretend = 0, frame = 0
 1097              		@ frame_needed = 0, uses_anonymous_args = 0
 1098              		@ link register save eliminated.
 1099              		.loc 1 73 0
 1100 0000 40F20000 		movw	r0, #:lower16:.LANCHOR0
 1101 0004 40F20001 		movw	r1, #:lower16:test
 1102 0008 C0F20000 		movt	r0, #:upper16:.LANCHOR0
 1103 000c C0F20001 		movt	r1, #:upper16:test
 1104 0010 0522     		movs	r2, #5
 1105 0012 FFF7FEBF 		b	chMBInit
 1106              	.LVL116:
 1107              		.cfi_endproc
 1108              	.LFE7:
 1109              		.size	mbox1_setup, .-mbox1_setup
 1110              		.global	patternmbox
 1111              		.global	testmbox1
 1112              		.section	.data.mb1,"aw",%progbits
 1113              		.align	2
 1114              		.set	.LANCHOR0,. + 0
 1115              		.type	mb1, %object
 1116              		.size	mb1, 40
 1117              	mb1:
 1118 0000 00000000 		.word	test
 1119 0004 14000000 		.word	test+20
 1120 0008 00000000 		.word	test
 1121 000c 00000000 		.word	test
 1122 0010 10000000 		.word	mb1+16
 1123 0014 10000000 		.word	mb1+16
 1124 0018 00000000 		.word	0
 1125 001c 1C000000 		.word	mb1+28
 1126 0020 1C000000 		.word	mb1+28
 1127 0024 05000000 		.word	5
 1128              		.section	.rodata.patternmbox,"a",%progbits
 1129              		.align	2
 1130              		.type	patternmbox, %object
 1131              		.size	patternmbox, 8
 1132              	patternmbox:
 1133 0000 00000000 		.word	testmbox1
 1134 0004 00000000 		.word	0
 1135              		.section	.rodata.str1.4,"aMS",%progbits,1
 1136              		.align	2
 1137              	.LC0:
 1138 0000 41424344 		.ascii	"ABCDE\000"
ARM GAS  /tmp/ccWjNRKE.s 			page 21


 1138      4500
 1139 0006 0000     		.space	2
 1140              	.LC1:
 1141 0008 4D61696C 		.ascii	"Mailboxes, queuing and timeouts\000"
 1141      626F7865 
 1141      732C2071 
 1141      75657569 
 1141      6E672061 
 1142              		.section	.rodata.testmbox1,"a",%progbits
 1143              		.align	2
 1144              		.type	testmbox1, %object
 1145              		.size	testmbox1, 16
 1146              	testmbox1:
 1147 0000 08000000 		.word	.LC1
 1148 0004 00000000 		.word	mbox1_setup
 1149 0008 00000000 		.word	0
 1150 000c 00000000 		.word	mbox1_execute
 1151              		.text
 1152              	.Letext0:
 1153              		.file 2 "/usr/include/newlib/machine/_default_types.h"
 1154              		.file 3 "/usr/include/newlib/stdint.h"
 1155              		.file 4 "../include/ChibiOS_2.6.5/os/ports/GCC/ARMCMx/chtypes.h"
 1156              		.file 5 "../include/ChibiOS_2.6.5/os/kernel/include/chlists.h"
 1157              		.file 6 "../include/ChibiOS_2.6.5/os/kernel/include/chthreads.h"
 1158              		.file 7 "../include/ChibiOS_2.6.5/os/ports/GCC/ARMCMx/chcore_v7m.h"
 1159              		.file 8 "../include/ChibiOS_2.6.5/os/kernel/include/chsem.h"
 1160              		.file 9 "../include/ChibiOS_2.6.5/os/kernel/include/chmtx.h"
 1161              		.file 10 "../include/ChibiOS_2.6.5/os/kernel/include/chmboxes.h"
 1162              		.file 11 "../include/ChibiOS_2.6.5/test/test.h"