ARM GAS  /tmp/cc0vqKIm.s 			page 1


   1              		.syntax unified
   2              		.cpu cortex-m4
   3              		.fpu softvfp
   4              		.eabi_attribute 20, 1
   5              		.eabi_attribute 21, 1
   6              		.eabi_attribute 23, 3
   7              		.eabi_attribute 24, 1
   8              		.eabi_attribute 25, 1
   9              		.eabi_attribute 26, 1
  10              		.eabi_attribute 30, 2
  11              		.eabi_attribute 34, 1
  12              		.eabi_attribute 18, 4
  13              		.thumb
  14              		.file	"usb_lld.c"
  15              		.text
  16              	.Ltext0:
  17              		.cfi_sections	.debug_frame
  18              		.section	.text.otg_epout_handler,"ax",%progbits
  19              		.align	2
  20              		.p2align 4,,15
  21              		.thumb
  22              		.thumb_func
  23              		.type	otg_epout_handler, %function
  24              	otg_epout_handler:
  25              	.LFB134:
  26              		.file 1 "../include/ChibiOS_2.6.5/os/hal/platforms/STM32/OTGv1/usb_lld.c"
  27              		.loc 1 598 0
  28              		.cfi_startproc
  29              		@ args = 0, pretend = 0, frame = 0
  30              		@ frame_needed = 0, uses_anonymous_args = 0
  31              	.LVL0:
  32 0000 F8B5     		push	{r3, r4, r5, r6, r7, lr}
  33              		.cfi_def_cfa_offset 24
  34              		.cfi_offset 3, -24
  35              		.cfi_offset 4, -20
  36              		.cfi_offset 5, -16
  37              		.cfi_offset 6, -12
  38              		.cfi_offset 7, -8
  39              		.cfi_offset 14, -4
  40              		.loc 1 599 0
  41 0002 056D     		ldr	r5, [r0, #80]
  42              	.LVL1:
  43              		.loc 1 600 0
  44 0004 05EB4113 		add	r3, r5, r1, lsl #5
  45              		.loc 1 598 0
  46 0008 0646     		mov	r6, r0
  47              		.loc 1 600 0
  48 000a D3F8084B 		ldr	r4, [r3, #2824]
  49              	.LVL2:
  50              		.loc 1 605 0
  51 000e 2207     		lsls	r2, r4, #28
  52              		.loc 1 598 0
  53 0010 0F46     		mov	r7, r1
  54              		.loc 1 603 0
  55 0012 C3F8084B 		str	r4, [r3, #2824]
  56              		.loc 1 605 0
  57 0016 03D5     		bpl	.L2
ARM GAS  /tmp/cc0vqKIm.s 			page 2


  58              		.loc 1 605 0 is_stmt 0 discriminator 1
  59 0018 D5F81438 		ldr	r3, [r5, #2068]
  60 001c 1B07     		lsls	r3, r3, #28
  61 001e 14D4     		bmi	.L17
  62              	.LVL3:
  63              	.L2:
  64              		.loc 1 611 0 is_stmt 1
  65 0020 E207     		lsls	r2, r4, #31
  66 0022 03D5     		bpl	.L1
  67              		.loc 1 611 0 is_stmt 0 discriminator 1
  68 0024 D5F81438 		ldr	r3, [r5, #2068]
  69 0028 DB07     		lsls	r3, r3, #31
  70 002a 00D4     		bmi	.L18
  71              	.L1:
  72 002c F8BD     		pop	{r3, r4, r5, r6, r7, pc}
  73              	.LVL4:
  74              	.L18:
  75              		.loc 1 613 0 is_stmt 1
  76 002e 06EB8703 		add	r3, r6, r7, lsl #2
  77 0032 7189     		ldrh	r1, [r6, #10]
  78 0034 DB68     		ldr	r3, [r3, #12]
  79 0036 0122     		movs	r2, #1
  80 0038 BA40     		lsls	r2, r2, r7
  81 003a 21EA0202 		bic	r2, r1, r2
  82 003e 7281     		strh	r2, [r6, #10]	@ movhi
  83 0040 DB68     		ldr	r3, [r3, #12]
  84 0042 3046     		mov	r0, r6
  85 0044 3946     		mov	r1, r7
  86 0046 9847     		blx	r3
  87              	.LVL5:
  88 0048 F8BD     		pop	{r3, r4, r5, r6, r7, pc}
  89              	.LVL6:
  90              	.L17:
  91              		.loc 1 608 0
  92 004a 00EB8103 		add	r3, r0, r1, lsl #2
  93 004e DB68     		ldr	r3, [r3, #12]
  94 0050 5B68     		ldr	r3, [r3, #4]
  95 0052 9847     		blx	r3
  96              	.LVL7:
  97 0054 E4E7     		b	.L2
  98              		.cfi_endproc
  99              	.LFE134:
 100              		.size	otg_epout_handler, .-otg_epout_handler
 101 0056 00BFAFF3 		.section	.text.usb_lld_pump,"ax",%progbits
 101      0080AFF3 
 101      0080
 102              		.align	2
 103              		.p2align 4,,15
 104              		.thumb
 105              		.thumb_func
 106              		.type	usb_lld_pump, %function
 107              	usb_lld_pump:
 108              	.LFB136:
 109              		.loc 1 697 0
 110              		.cfi_startproc
 111              		@ args = 0, pretend = 0, frame = 16
 112              		@ frame_needed = 0, uses_anonymous_args = 0
ARM GAS  /tmp/cc0vqKIm.s 			page 3


 113              	.LVL8:
 114 0000 2DE9F04F 		push	{r4, r5, r6, r7, r8, r9, r10, fp, lr}
 115              		.cfi_def_cfa_offset 36
 116              		.cfi_offset 4, -36
 117              		.cfi_offset 5, -32
 118              		.cfi_offset 6, -28
 119              		.cfi_offset 7, -24
 120              		.cfi_offset 8, -20
 121              		.cfi_offset 9, -16
 122              		.cfi_offset 10, -12
 123              		.cfi_offset 11, -8
 124              		.cfi_offset 14, -4
 125              		.loc 1 701 0
 126 0004 40F20001 		movw	r1, #:lower16:rlist
 127 0008 C0F20001 		movt	r1, #:upper16:rlist
 128              		.loc 1 697 0
 129 000c 85B0     		sub	sp, sp, #20
 130              		.cfi_def_cfa_offset 56
 131              		.loc 1 701 0
 132 000e 8A69     		ldr	r2, [r1, #24]
 133 0010 0291     		str	r1, [sp, #8]
 134              	.LVL9:
 135 0012 40F20003 		movw	r3, #:lower16:.LC0
 136 0016 C0F20003 		movt	r3, #:upper16:.LC0
 137              		.loc 1 699 0
 138 001a 016D     		ldr	r1, [r0, #80]
 139              	.LVL10:
 140              		.loc 1 701 0
 141 001c 9361     		str	r3, [r2, #24]
 142              	.LBB108:
 143              		.loc 1 702 0
 144 001e 2023     		movs	r3, #32
 145              	@ 702 "../include/ChibiOS_2.6.5/os/hal/platforms/STM32/OTGv1/usb_lld.c" 1
 146 0020 83F31188 		msr     BASEPRI, r3
 147              	@ 0 "" 2
 148              		.thumb
 149              	.LBE108:
 150              	.LBB109:
 151              		.loc 1 724 0
 152 0024 8046     		mov	r8, r0
 153 0026 8946     		mov	r9, r1
 154              	.LVL11:
 155              	.L82:
 156              		.loc 1 708 0
 157 0028 98F80030 		ldrb	r3, [r8]	@ zero_extendqisi2
 158 002c 012B     		cmp	r3, #1
 159 002e 06D0     		beq	.L20
 160              		.loc 1 708 0 is_stmt 0 discriminator 1
 161 0030 D8F85C30 		ldr	r3, [r8, #92]
 162 0034 83B9     		cbnz	r3, .L21
 163              		.loc 1 709 0 is_stmt 1
 164 0036 D9F81430 		ldr	r3, [r9, #20]
 165 003a D806     		lsls	r0, r3, #27
 166 003c 0CD4     		bmi	.L21
 167              	.L20:
 168              		.loc 1 711 0
 169 003e 0299     		ldr	r1, [sp, #8]
ARM GAS  /tmp/cc0vqKIm.s 			page 4


 170              		.loc 1 710 0
 171 0040 D9F81820 		ldr	r2, [r9, #24]
 172              		.loc 1 711 0
 173 0044 8B69     		ldr	r3, [r1, #24]
 174              		.loc 1 710 0
 175 0046 42F01002 		orr	r2, r2, #16
 176 004a C9F81820 		str	r2, [r9, #24]
 177              		.loc 1 712 0
 178 004e 0220     		movs	r0, #2
 179              		.loc 1 711 0
 180 0050 C8F86430 		str	r3, [r8, #100]
 181              		.loc 1 712 0
 182 0054 FFF7FEFF 		bl	chSchGoSleepS
 183              	.LVL12:
 184              	.L21:
 185              	.LBB110:
 186              		.loc 1 714 0
 187 0058 0023     		movs	r3, #0
 188              	@ 714 "../include/ChibiOS_2.6.5/os/hal/platforms/STM32/OTGv1/usb_lld.c" 1
 189 005a 83F31188 		msr     BASEPRI, r3
 190              	@ 0 "" 2
 191              	.LVL13:
 192              		.thumb
 193              	.LBE110:
 194              		.loc 1 717 0
 195 005e 4FF0000A 		mov	r10, #0
 196              	.LVL14:
 197              	.L26:
 198              		.loc 1 720 0 discriminator 1
 199 0062 D9F81430 		ldr	r3, [r9, #20]
 200 0066 D906     		lsls	r1, r3, #27
 201 0068 23D5     		bpl	.L137
 202              	.L50:
 203              	.LVL15:
 204              	.LBB111:
 205              	.LBB112:
 206              		.loc 1 454 0
 207 006a D8F85070 		ldr	r7, [r8, #80]
 208 006e 3D6A     		ldr	r5, [r7, #32]
 209              	.LVL16:
 210              		.loc 1 455 0
 211 0070 05F4F013 		and	r3, r5, #1966080
 212 0074 B3F5802F 		cmp	r3, #262144
 213 0078 32D0     		beq	.L24
 214 007a B3F5402F 		cmp	r3, #786432
 215 007e F0D1     		bne	.L26
 216              	.LVL17:
 217              		.loc 1 460 0
 218 0080 05F00F02 		and	r2, r5, #15
 219              	.LVL18:
 220              		.loc 1 461 0
 221 0084 08EB8202 		add	r2, r8, r2, lsl #2
 222              	.LVL19:
 223              		.loc 1 459 0
 224 0088 C5F30A13 		ubfx	r3, r5, #4, #11
 225              		.loc 1 461 0
 226 008c D268     		ldr	r2, [r2, #12]
ARM GAS  /tmp/cc0vqKIm.s 			page 5


 227              	.LBB113:
 228              	.LBB114:
 229              		.loc 1 372 0
 230 008e 0333     		adds	r3, r3, #3
 231              		.loc 1 374 0
 232 0090 9B08     		lsrs	r3, r3, #2
 233              	.LBE114:
 234              	.LBE113:
 235              		.loc 1 461 0
 236 0092 106A     		ldr	r0, [r2, #32]
 237              	.LVL20:
 238              	.LBB117:
 239              	.LBB116:
 240              		.loc 1 374 0
 241 0094 E5D0     		beq	.L26
 242 0096 07F58057 		add	r7, r7, #4096
 243              	.LVL21:
 244              		.loc 1 373 0
 245 009a 0222     		movs	r2, #2
 246              	.LVL22:
 247              	.L31:
 248              	.LBB115:
 249              		.loc 1 375 0
 250 009c 3968     		ldr	r1, [r7]
 251              	.LVL23:
 252              		.loc 1 376 0
 253 009e 12B1     		cbz	r2, .L29
 254              		.loc 1 379 0
 255 00a0 40F8041B 		str	r1, [r0], #4
 256              	.LVL24:
 257              		.loc 1 381 0
 258 00a4 013A     		subs	r2, r2, #1
 259              	.LVL25:
 260              	.L29:
 261              	.LBE115:
 262              		.loc 1 374 0
 263 00a6 013B     		subs	r3, r3, #1
 264              	.LVL26:
 265 00a8 F8D1     		bne	.L31
 266              	.LBE116:
 267              	.LBE117:
 268              	.LBE112:
 269              	.LBE111:
 270              		.loc 1 720 0
 271 00aa D9F81430 		ldr	r3, [r9, #20]
 272              	.LVL27:
 273 00ae D906     		lsls	r1, r3, #27
 274              	.LVL28:
 275 00b0 DBD4     		bmi	.L50
 276              	.LVL29:
 277              	.L137:
 278              		.loc 1 725 0
 279 00b2 D8F85C30 		ldr	r3, [r8, #92]
 280              		.loc 1 724 0
 281 00b6 0121     		movs	r1, #1
 282 00b8 01FA0AF1 		lsl	r1, r1, r10
 283              		.loc 1 725 0
ARM GAS  /tmp/cc0vqKIm.s 			page 6


 284 00bc 1942     		tst	r1, r3
 285              		.loc 1 724 0
 286 00be 0191     		str	r1, [sp, #4]
 287              	.LVL30:
 288 00c0 08BF     		it	eq
 289 00c2 0AF1010B 		addeq	fp, r10, #1
 290              		.loc 1 725 0
 291 00c6 40F08180 		bne	.L138
 292              	.LVL31:
 293              	.L51:
 294              		.loc 1 717 0
 295 00ca D8F85430 		ldr	r3, [r8, #84]
 296 00ce 9B68     		ldr	r3, [r3, #8]
 297 00d0 5FFA8BFA 		uxtb	r10, fp
 298              	.LVL32:
 299 00d4 9A45     		cmp	r10, r3
 300 00d6 C4D9     		bls	.L26
 301              	.LBB132:
 302              		.loc 1 749 0
 303 00d8 2023     		movs	r3, #32
 304              	@ 749 "../include/ChibiOS_2.6.5/os/hal/platforms/STM32/OTGv1/usb_lld.c" 1
 305 00da 83F31188 		msr     BASEPRI, r3
 306              	@ 0 "" 2
 307              		.thumb
 308              	.LBE132:
 309              	.LBE109:
 310              		.loc 1 750 0
 311 00de A3E7     		b	.L82
 312              	.LVL33:
 313              	.L24:
 314              	.LBB168:
 315              	.LBB133:
 316              	.LBB131:
 317              		.loc 1 466 0
 318 00e0 05F00F06 		and	r6, r5, #15
 319 00e4 08EB860B 		add	fp, r8, r6, lsl #2
 320              		.loc 1 465 0
 321 00e8 C5F30A15 		ubfx	r5, r5, #4, #11
 322              	.LVL34:
 323              		.loc 1 467 0
 324 00ec DBF80C30 		ldr	r3, [fp, #12]
 325 00f0 9869     		ldr	r0, [r3, #24]
 326 00f2 0378     		ldrb	r3, [r0]	@ zero_extendqisi2
 327 00f4 E3B9     		cbnz	r3, .L139
 328              		.loc 1 474 0
 329 00f6 021D     		adds	r2, r0, #4
 330 00f8 1CCA     		ldmia	r2, {r2, r3, r4}
 331              	.LVL35:
 332 00fa 0332     		adds	r2, r2, #3
 333              	.LVL36:
 334              	.LBB118:
 335              	.LBB119:
 336              		.loc 1 373 0
 337 00fc D21A     		subs	r2, r2, r3
 338              		.loc 1 372 0
 339 00fe EB1C     		adds	r3, r5, #3
 340              	.LVL37:
ARM GAS  /tmp/cc0vqKIm.s 			page 7


 341              		.loc 1 374 0
 342 0100 9B08     		lsrs	r3, r3, #2
 343              		.loc 1 373 0
 344 0102 4FEA9202 		lsr	r2, r2, #2
 345              	.LVL38:
 346 0106 1CBF     		itt	ne
 347 0108 07F58057 		addne	r7, r7, #4096
 348              	.LVL39:
 349              		.loc 1 374 0
 350 010c A646     		movne	lr, r4
 351 010e 06D0     		beq	.L48
 352              	.LVL40:
 353              	.L49:
 354              	.LBB120:
 355              		.loc 1 375 0
 356 0110 3968     		ldr	r1, [r7]
 357              	.LVL41:
 358              		.loc 1 376 0
 359 0112 12B1     		cbz	r2, .L47
 360              		.loc 1 379 0
 361 0114 4EF8041B 		str	r1, [lr], #4
 362              	.LVL42:
 363              		.loc 1 381 0
 364 0118 013A     		subs	r2, r2, #1
 365              	.LVL43:
 366              	.L47:
 367              	.LBE120:
 368              		.loc 1 374 0
 369 011a 013B     		subs	r3, r3, #1
 370              	.LVL44:
 371 011c F8D1     		bne	.L49
 372              	.LVL45:
 373              	.L48:
 374              	.LBE119:
 375              	.LBE118:
 376              		.loc 1 479 0
 377 011e 2C44     		add	r4, r4, r5
 378 0120 C460     		str	r4, [r0, #12]
 379              	.LVL46:
 380              	.L44:
 381              		.loc 1 481 0
 382 0122 DBF80C30 		ldr	r3, [fp, #12]
 383 0126 9B69     		ldr	r3, [r3, #24]
 384 0128 9A68     		ldr	r2, [r3, #8]
 385 012a 2A44     		add	r2, r2, r5
 386 012c 9A60     		str	r2, [r3, #8]
 387 012e 98E7     		b	.L26
 388              	.L139:
 389              		.loc 1 469 0
 390 0130 C468     		ldr	r4, [r0, #12]
 391              	.LVL47:
 392 0132 07F58057 		add	r7, r7, #4096
 393              	.LVL48:
 394              	.LBB121:
 395              	.LBB122:
 396              		.loc 1 402 0
 397 0136 2846     		mov	r0, r5
ARM GAS  /tmp/cc0vqKIm.s 			page 8


 398 0138 AE46     		mov	lr, r5
 399 013a 002D     		cmp	r5, #0
 400 013c 2BD0     		beq	.L39
 401              	.LVL49:
 402              	.L43:
 403              	.LBB123:
 404              		.loc 1 406 0
 405 013e 0328     		cmp	r0, #3
 406 0140 07D9     		bls	.L36
 407              	.LVL50:
 408              	.L140:
 409              	.LBB124:
 410              		.loc 1 412 0
 411 0142 6369     		ldr	r3, [r4, #20]
 412 0144 2269     		ldr	r2, [r4, #16]
 413 0146 9342     		cmp	r3, r2
 414 0148 3ED3     		bcc	.L37
 415              		.loc 1 413 0
 416 014a E368     		ldr	r3, [r4, #12]
 417              	.LBE124:
 418              		.loc 1 406 0
 419 014c 0328     		cmp	r0, #3
 420              	.LBB125:
 421              		.loc 1 413 0
 422 014e 6361     		str	r3, [r4, #20]
 423              	.LVL51:
 424              	.LBE125:
 425              		.loc 1 406 0
 426 0150 F7D8     		bhi	.L140
 427              	.LVL52:
 428              	.L36:
 429              		.loc 1 424 0
 430 0152 3E68     		ldr	r6, [r7]
 431              	.LVL53:
 432              		.loc 1 426 0
 433 0154 F0B1     		cbz	r0, .L132
 434 0156 6369     		ldr	r3, [r4, #20]
 435              	.L83:
 436              		.loc 1 425 0
 437 0158 0022     		movs	r2, #0
 438 015a 00E0     		b	.L42
 439              	.LVL54:
 440              	.L141:
 441 015c 6369     		ldr	r3, [r4, #20]
 442              	.LVL55:
 443              	.L42:
 444 015e D100     		lsls	r1, r2, #3
 445              		.loc 1 427 0
 446 0160 26FA01F1 		lsr	r1, r6, r1
 447 0164 5D1C     		adds	r5, r3, #1
 448 0166 6561     		str	r5, [r4, #20]
 449 0168 1970     		strb	r1, [r3]
 450              		.loc 1 428 0
 451 016a 6369     		ldr	r3, [r4, #20]
 452 016c 2169     		ldr	r1, [r4, #16]
 453 016e 8B42     		cmp	r3, r1
 454              		.loc 1 429 0
ARM GAS  /tmp/cc0vqKIm.s 			page 9


 455 0170 24BF     		itt	cs
 456 0172 E368     		ldrcs	r3, [r4, #12]
 457 0174 6361     		strcs	r3, [r4, #20]
 458              		.loc 1 426 0
 459 0176 0138     		subs	r0, r0, #1
 460              	.LVL56:
 461              		.loc 1 431 0
 462 0178 02F10102 		add	r2, r2, #1
 463              	.LVL57:
 464              		.loc 1 426 0
 465 017c 0CBF     		ite	eq
 466 017e 0023     		moveq	r3, #0
 467 0180 0123     		movne	r3, #1
 468 0182 032A     		cmp	r2, #3
 469 0184 8CBF     		ite	hi
 470 0186 0023     		movhi	r3, #0
 471 0188 03F00103 		andls	r3, r3, #1
 472 018c 002B     		cmp	r3, #0
 473 018e E5D1     		bne	.L141
 474              	.LVL58:
 475              	.LBE123:
 476              		.loc 1 402 0
 477 0190 0028     		cmp	r0, #0
 478 0192 D4D1     		bne	.L43
 479              	.LVL59:
 480              	.L132:
 481 0194 7546     		mov	r5, lr
 482              	.LVL60:
 483              	.L39:
 484              	.LBB126:
 485              		.loc 1 436 0
 486 0196 2023     		movs	r3, #32
 487              	@ 436 "../include/ChibiOS_2.6.5/os/hal/platforms/STM32/OTGv1/usb_lld.c" 1
 488 0198 83F31188 		msr     BASEPRI, r3
 489              	@ 0 "" 2
 490              		.thumb
 491              	.LBE126:
 492              		.loc 1 437 0
 493 019c A368     		ldr	r3, [r4, #8]
 494              		.loc 1 438 0
 495 019e 2068     		ldr	r0, [r4]
 496              	.LVL61:
 497              		.loc 1 437 0
 498 01a0 2B44     		add	r3, r3, r5
 499              		.loc 1 438 0
 500 01a2 A042     		cmp	r0, r4
 501              		.loc 1 437 0
 502 01a4 A360     		str	r3, [r4, #8]
 503              		.loc 1 438 0
 504 01a6 09D0     		beq	.L35
 505              	.L45:
 506              	.LVL62:
 507              	.LBB127:
 508              	.LBB128:
 509              		.file 2 "../include/ChibiOS_2.6.5/os/kernel/include/chinline.h"
 510              		.loc 2 62 0
 511 01a8 0368     		ldr	r3, [r0]
ARM GAS  /tmp/cc0vqKIm.s 			page 10


 512 01aa 2360     		str	r3, [r4]
 513 01ac 5C60     		str	r4, [r3, #4]
 514              	.LBE128:
 515              	.LBE127:
 516              		.loc 1 439 0
 517 01ae FFF7FEFF 		bl	chSchReadyI
 518              	.LVL63:
 519 01b2 0022     		movs	r2, #0
 520 01b4 4262     		str	r2, [r0, #36]
 521              		.loc 1 438 0
 522 01b6 2068     		ldr	r0, [r4]
 523 01b8 A042     		cmp	r0, r4
 524 01ba F5D1     		bne	.L45
 525              	.LVL64:
 526              	.L35:
 527              		.loc 1 440 0
 528 01bc FFF7FEFF 		bl	chSchRescheduleS
 529              	.LVL65:
 530              	.LBB129:
 531              		.loc 1 441 0
 532 01c0 0023     		movs	r3, #0
 533              	@ 441 "../include/ChibiOS_2.6.5/os/hal/platforms/STM32/OTGv1/usb_lld.c" 1
 534 01c2 83F31188 		msr     BASEPRI, r3
 535              	@ 0 "" 2
 536              		.thumb
 537 01c6 ACE7     		b	.L44
 538              	.LVL66:
 539              	.L37:
 540              	.LBE129:
 541              	.LBB130:
 542              		.loc 1 424 0
 543 01c8 3E68     		ldr	r6, [r7]
 544              	.LVL67:
 545 01ca C5E7     		b	.L83
 546              	.LVL68:
 547              	.L138:
 548              	.LBE130:
 549              	.LBE122:
 550              	.LBE121:
 551              	.LBE131:
 552              	.LBE133:
 553              	.LBB134:
 554              	.LBB135:
 555              		.loc 1 728 0
 556 01cc 2023     		movs	r3, #32
 557              	@ 728 "../include/ChibiOS_2.6.5/os/hal/platforms/STM32/OTGv1/usb_lld.c" 1
 558 01ce 83F31188 		msr     BASEPRI, r3
 559              	@ 0 "" 2
 560              		.thumb
 561              	.LBE135:
 562              		.loc 1 737 0
 563 01d2 D8F85C30 		ldr	r3, [r8, #92]
 564              		.loc 1 736 0
 565 01d6 D9F80810 		ldr	r1, [r9, #8]
 566              	.LVL69:
 567              		.loc 1 737 0
 568 01da 0198     		ldr	r0, [sp, #4]
ARM GAS  /tmp/cc0vqKIm.s 			page 11


 569              		.loc 1 736 0
 570 01dc 21F00101 		bic	r1, r1, #1
 571              		.loc 1 737 0
 572 01e0 23EA0002 		bic	r2, r3, r0
 573              		.loc 1 736 0
 574 01e4 C9F80810 		str	r1, [r9, #8]
 575              	.LBB136:
 576              		.loc 1 738 0
 577 01e8 0023     		movs	r3, #0
 578              	.LBE136:
 579              		.loc 1 737 0
 580 01ea C8F85C20 		str	r2, [r8, #92]
 581              	.LBB137:
 582              		.loc 1 738 0
 583              	@ 738 "../include/ChibiOS_2.6.5/os/hal/platforms/STM32/OTGv1/usb_lld.c" 1
 584 01ee 83F31188 		msr     BASEPRI, r3
 585              	@ 0 "" 2
 586              	.LVL70:
 587              		.thumb
 588 01f2 08EB8A01 		add	r1, r8, r10, lsl #2
 589 01f6 0091     		str	r1, [sp]
 590              	.LBE137:
 591              	.LBB138:
 592              	.LBB139:
 593              		.loc 1 505 0
 594 01f8 C968     		ldr	r1, [r1, #12]
 595 01fa 4869     		ldr	r0, [r1, #20]
 596 01fc 8368     		ldr	r3, [r0, #8]
 597 01fe 4268     		ldr	r2, [r0, #4]
 598 0200 9A42     		cmp	r2, r3
 599 0202 40F2CC80 		bls	.L142
 600              		.loc 1 515 0
 601 0206 D8F85040 		ldr	r4, [r8, #80]
 602              		.loc 1 510 0
 603 020a 098A     		ldrh	r1, [r1, #16]
 604              		.loc 1 515 0
 605 020c 4FEA4A17 		lsl	r7, r10, #5
 606 0210 E519     		adds	r5, r4, r7
 607              		.loc 1 509 0
 608 0212 D21A     		subs	r2, r2, r3
 609              	.LVL71:
 610              		.loc 1 515 0
 611 0214 D5F81839 		ldr	r3, [r5, #2328]
 612 0218 8A42     		cmp	r2, r1
 613 021a 34BF     		ite	cc
 614 021c 1546     		movcc	r5, r2
 615 021e 0D46     		movcs	r5, r1
 616              	.LVL72:
 617 0220 9BB2     		uxth	r3, r3
 618 0222 B5EB830F 		cmp	r5, r3, lsl #2
 619 0226 0AF1010B 		add	fp, r10, #1
 620              		.loc 1 530 0
 621 022a 9EBF     		ittt	ls
 622 022c 4FEA0B32 		lslls	r2, fp, #12
 623 0230 CDF80C90 		strls	r9, [sp, #12]
 624 0234 9146     		movls	r9, r2
 625              		.loc 1 515 0
ARM GAS  /tmp/cc0vqKIm.s 			page 12


 626 0236 2DD8     		bhi	.L54
 627              	.LVL73:
 628              	.L55:
 629              		.loc 1 522 0
 630 0238 0378     		ldrb	r3, [r0]	@ zero_extendqisi2
 631 023a 002B     		cmp	r3, #0
 632 023c 3FD1     		bne	.L143
 633              	.LBB140:
 634              	.LBB141:
 635              		.loc 1 271 0
 636 023e EB1C     		adds	r3, r5, #3
 637              	.LBE141:
 638              	.LBE140:
 639              		.loc 1 530 0
 640 0240 D0F80CE0 		ldr	lr, [r0, #12]
 641              	.LBB148:
 642              	.LBB146:
 643              	.LBB142:
 644              	.LBB143:
 645              		.loc 1 248 0
 646 0244 9B08     		lsrs	r3, r3, #2
 647              	.LBE143:
 648              	.LBE142:
 649              	.LBE146:
 650              	.LBE148:
 651              		.loc 1 530 0
 652 0246 4C44     		add	r4, r4, r9
 653              	.LVL74:
 654              	.LBB149:
 655              	.LBB147:
 656              	.LBB145:
 657              	.LBB144:
 658              		.loc 1 248 0
 659 0248 18BF     		it	ne
 660 024a 7246     		movne	r2, lr
 661 024c 04D0     		beq	.L75
 662              	.LVL75:
 663              	.L76:
 664              		.loc 1 251 0
 665 024e 52F8041B 		ldr	r1, [r2], #4
 666              	.LVL76:
 667              		.loc 1 248 0
 668 0252 013B     		subs	r3, r3, #1
 669              	.LVL77:
 670              		.loc 1 251 0
 671 0254 2160     		str	r1, [r4]
 672              	.LVL78:
 673              		.loc 1 248 0
 674 0256 FAD1     		bne	.L76
 675              	.LVL79:
 676              	.L75:
 677              	.LBE144:
 678              	.LBE145:
 679              	.LBE147:
 680              	.LBE149:
 681              		.loc 1 533 0
 682 0258 0EEB0503 		add	r3, lr, r5
ARM GAS  /tmp/cc0vqKIm.s 			page 13


 683 025c C360     		str	r3, [r0, #12]
 684              	.LVL80:
 685              	.L72:
 686              		.loc 1 535 0
 687 025e 009A     		ldr	r2, [sp]
 688 0260 D168     		ldr	r1, [r2, #12]
 689 0262 4869     		ldr	r0, [r1, #20]
 690 0264 8368     		ldr	r3, [r0, #8]
 691              		.loc 1 505 0
 692 0266 4268     		ldr	r2, [r0, #4]
 693              		.loc 1 535 0
 694 0268 2B44     		add	r3, r3, r5
 695              		.loc 1 505 0
 696 026a 9A42     		cmp	r2, r3
 697              		.loc 1 535 0
 698 026c 8360     		str	r3, [r0, #8]
 699              		.loc 1 505 0
 700 026e 40F29280 		bls	.L144
 701              		.loc 1 515 0
 702 0272 D8F85040 		ldr	r4, [r8, #80]
 703              		.loc 1 510 0
 704 0276 098A     		ldrh	r1, [r1, #16]
 705              		.loc 1 515 0
 706 0278 E519     		adds	r5, r4, r7
 707              	.LVL81:
 708              		.loc 1 509 0
 709 027a D21A     		subs	r2, r2, r3
 710              	.LVL82:
 711              		.loc 1 515 0
 712 027c D5F81839 		ldr	r3, [r5, #2328]
 713 0280 8A42     		cmp	r2, r1
 714 0282 34BF     		ite	cc
 715 0284 1546     		movcc	r5, r2
 716 0286 0D46     		movcs	r5, r1
 717              	.LVL83:
 718 0288 9BB2     		uxth	r3, r3
 719 028a B5EB830F 		cmp	r5, r3, lsl #2
 720 028e D3D9     		bls	.L55
 721 0290 DDF80C90 		ldr	r9, [sp, #12]
 722              	.L54:
 723              		.loc 1 516 0
 724 0294 0022     		movs	r2, #0
 725              	.LVL84:
 726              	.L53:
 727              	.LBE139:
 728              	.LBE138:
 729              	.LBB165:
 730              		.loc 1 742 0
 731 0296 2023     		movs	r3, #32
 732              	@ 742 "../include/ChibiOS_2.6.5/os/hal/platforms/STM32/OTGv1/usb_lld.c" 1
 733 0298 83F31188 		msr     BASEPRI, r3
 734              	@ 0 "" 2
 735              		.thumb
 736              	.LBE165:
 737              		.loc 1 743 0
 738 029c D9F80830 		ldr	r3, [r9, #8]
 739 02a0 43F00103 		orr	r3, r3, #1
ARM GAS  /tmp/cc0vqKIm.s 			page 14


 740 02a4 C9F80830 		str	r3, [r9, #8]
 741              		.loc 1 744 0
 742 02a8 2AB9     		cbnz	r2, .L79
 743              		.loc 1 745 0
 744 02aa D9F83438 		ldr	r3, [r9, #2100]
 745 02ae 0199     		ldr	r1, [sp, #4]
 746 02b0 0B43     		orrs	r3, r3, r1
 747 02b2 C9F83438 		str	r3, [r9, #2100]
 748              	.L79:
 749              	.LBB166:
 750              		.loc 1 746 0
 751 02b6 0023     		movs	r3, #0
 752              	@ 746 "../include/ChibiOS_2.6.5/os/hal/platforms/STM32/OTGv1/usb_lld.c" 1
 753 02b8 83F31188 		msr     BASEPRI, r3
 754              	@ 0 "" 2
 755              		.thumb
 756 02bc 05E7     		b	.L51
 757              	.LVL85:
 758              	.L143:
 759              	.LBE166:
 760              	.LBB167:
 761              	.LBB164:
 762              		.loc 1 524 0
 763 02be 04EB090A 		add	r10, r4, r9
 764              	.LBB150:
 765              	.LBB151:
 766              		.loc 1 289 0
 767 02c2 2A46     		mov	r2, r5
 768              	.LBE151:
 769              	.LBE150:
 770              		.loc 1 524 0
 771 02c4 C468     		ldr	r4, [r0, #12]
 772              	.LVL86:
 773              	.LBB163:
 774              	.LBB162:
 775              		.loc 1 289 0
 776 02c6 AE46     		mov	lr, r5
 777 02c8 15B3     		cbz	r5, .L66
 778              	.LVL87:
 779              	.L71:
 780              	.LBB152:
 781              		.loc 1 293 0
 782 02ca 9608     		lsrs	r6, r2, #2
 783              	.LVL88:
 784 02cc 39D0     		beq	.L60
 785              	.LBB153:
 786              		.loc 1 295 0
 787 02ce 2569     		ldr	r5, [r4, #16]
 788 02d0 A169     		ldr	r1, [r4, #24]
 789              	.LVL89:
 790 02d2 681A     		subs	r0, r5, r1
 791 02d4 C31C     		adds	r3, r0, #3
 792 02d6 30EA2000 		bics	r0, r0, r0, asr #32
 793 02da 28BF     		it	cs
 794 02dc 1846     		movcs	r0, r3
 795 02de 8310     		asrs	r3, r0, #2
 796              		.loc 1 297 0
ARM GAS  /tmp/cc0vqKIm.s 			page 15


 797 02e0 9E42     		cmp	r6, r3
 798 02e2 38BF     		it	cc
 799 02e4 3346     		movcc	r3, r6
 800              	.LVL90:
 801 02e6 4FEA830C 		lsl	ip, r3, #2
 802 02ea CCEB0202 		rsb	r2, ip, r2
 803              	.LVL91:
 804              	.LBB154:
 805              	.LBB155:
 806              		.loc 1 248 0
 807 02ee 3BB1     		cbz	r3, .L61
 808 02f0 0846     		mov	r0, r1
 809              	.LVL92:
 810              	.L63:
 811              		.loc 1 251 0
 812 02f2 50F8046B 		ldr	r6, [r0], #4
 813              	.LVL93:
 814              		.loc 1 248 0
 815 02f6 013B     		subs	r3, r3, #1
 816              	.LVL94:
 817              		.loc 1 251 0
 818 02f8 CAF80060 		str	r6, [r10]
 819              	.LVL95:
 820              		.loc 1 248 0
 821 02fc F9D1     		bne	.L63
 822 02fe 6144     		add	r1, r1, ip
 823              	.LVL96:
 824              	.L61:
 825              	.LBE155:
 826              	.LBE154:
 827              		.loc 1 299 0
 828 0300 A942     		cmp	r1, r5
 829              		.loc 1 298 0
 830 0302 A161     		str	r1, [r4, #24]
 831              	.LVL97:
 832              		.loc 1 299 0
 833 0304 44D3     		bcc	.L64
 834              		.loc 1 300 0
 835 0306 E368     		ldr	r3, [r4, #12]
 836 0308 A361     		str	r3, [r4, #24]
 837              	.LBE153:
 838              	.LBE152:
 839              		.loc 1 289 0
 840 030a 002A     		cmp	r2, #0
 841 030c DDD1     		bne	.L71
 842              	.L135:
 843 030e 7546     		mov	r5, lr
 844              	.LVL98:
 845              	.L66:
 846              	.LBB156:
 847              		.loc 1 324 0
 848 0310 2023     		movs	r3, #32
 849              	@ 324 "../include/ChibiOS_2.6.5/os/hal/platforms/STM32/OTGv1/usb_lld.c" 1
 850 0312 83F31188 		msr     BASEPRI, r3
 851              	@ 0 "" 2
 852              		.thumb
 853              	.LBE156:
ARM GAS  /tmp/cc0vqKIm.s 			page 16


 854              		.loc 1 325 0
 855 0316 A368     		ldr	r3, [r4, #8]
 856              		.loc 1 326 0
 857 0318 2068     		ldr	r0, [r4]
 858              		.loc 1 325 0
 859 031a 2B44     		add	r3, r3, r5
 860              		.loc 1 326 0
 861 031c A042     		cmp	r0, r4
 862              		.loc 1 325 0
 863 031e A360     		str	r3, [r4, #8]
 864              		.loc 1 326 0
 865 0320 09D0     		beq	.L59
 866              	.LVL99:
 867              	.L73:
 868              	.LBB157:
 869              	.LBB158:
 870              		.loc 2 62 0
 871 0322 0368     		ldr	r3, [r0]
 872 0324 2360     		str	r3, [r4]
 873 0326 5C60     		str	r4, [r3, #4]
 874              	.LBE158:
 875              	.LBE157:
 876              		.loc 1 327 0
 877 0328 FFF7FEFF 		bl	chSchReadyI
 878              	.LVL100:
 879 032c 0022     		movs	r2, #0
 880 032e 4262     		str	r2, [r0, #36]
 881              		.loc 1 326 0
 882 0330 2068     		ldr	r0, [r4]
 883 0332 A042     		cmp	r0, r4
 884 0334 F5D1     		bne	.L73
 885              	.LVL101:
 886              	.L59:
 887              		.loc 1 328 0
 888 0336 FFF7FEFF 		bl	chSchRescheduleS
 889              	.LVL102:
 890              	.LBB159:
 891              		.loc 1 329 0
 892 033a 0023     		movs	r3, #0
 893              	@ 329 "../include/ChibiOS_2.6.5/os/hal/platforms/STM32/OTGv1/usb_lld.c" 1
 894 033c 83F31188 		msr     BASEPRI, r3
 895              	@ 0 "" 2
 896              		.thumb
 897 0340 8DE7     		b	.L72
 898              	.LVL103:
 899              	.L60:
 900              	.LBE159:
 901              	.LBB160:
 902              		.loc 1 313 0
 903 0342 1646     		mov	r6, r2
 904              	.LVL104:
 905 0344 FAB1     		cbz	r2, .L68
 906 0346 2569     		ldr	r5, [r4, #16]
 907 0348 A169     		ldr	r1, [r4, #24]
 908              	.LVL105:
 909              	.L69:
 910              		.loc 1 307 0
ARM GAS  /tmp/cc0vqKIm.s 			page 17


 911 034a 0026     		movs	r6, #0
 912 034c 3346     		mov	r3, r6
 913 034e 00E0     		b	.L67
 914              	.LVL106:
 915              	.L145:
 916 0350 A169     		ldr	r1, [r4, #24]
 917              	.LVL107:
 918              	.L67:
 919              		.loc 1 314 0
 920 0352 481C     		adds	r0, r1, #1
 921 0354 A061     		str	r0, [r4, #24]
 922 0356 91F800C0 		ldrb	ip, [r1]	@ zero_extendqisi2
 923 035a D900     		lsls	r1, r3, #3
 924 035c 0CFA01F1 		lsl	r1, ip, r1
 925              		.loc 1 315 0
 926 0360 A842     		cmp	r0, r5
 927              		.loc 1 314 0
 928 0362 46EA0106 		orr	r6, r6, r1
 929              	.LVL108:
 930              		.loc 1 316 0
 931 0366 24BF     		itt	cs
 932 0368 E168     		ldrcs	r1, [r4, #12]
 933 036a A161     		strcs	r1, [r4, #24]
 934              		.loc 1 313 0
 935 036c 013A     		subs	r2, r2, #1
 936              	.LVL109:
 937              		.loc 1 318 0
 938 036e 03F10103 		add	r3, r3, #1
 939              	.LVL110:
 940              		.loc 1 313 0
 941 0372 0CBF     		ite	eq
 942 0374 0021     		moveq	r1, #0
 943 0376 0121     		movne	r1, #1
 944 0378 032B     		cmp	r3, #3
 945 037a 8CBF     		ite	hi
 946 037c 0021     		movhi	r1, #0
 947 037e 01F00101 		andls	r1, r1, #1
 948 0382 0029     		cmp	r1, #0
 949 0384 E4D1     		bne	.L145
 950              	.LVL111:
 951              	.L68:
 952              		.loc 1 320 0
 953 0386 CAF80060 		str	r6, [r10]
 954              	.LVL112:
 955              	.LBE160:
 956              		.loc 1 289 0
 957 038a 002A     		cmp	r2, #0
 958 038c 9DD1     		bne	.L71
 959 038e BEE7     		b	.L135
 960              	.L64:
 961              	.LBB161:
 962              		.loc 1 307 0
 963 0390 002A     		cmp	r2, #0
 964 0392 DAD1     		bne	.L69
 965 0394 BBE7     		b	.L135
 966              	.LVL113:
 967              	.L144:
ARM GAS  /tmp/cc0vqKIm.s 			page 18


 968 0396 DDF80C90 		ldr	r9, [sp, #12]
 969              	.LVL114:
 970              	.L77:
 971              	.LBE161:
 972              	.LBE162:
 973              	.LBE163:
 974              		.loc 1 506 0
 975 039a 0122     		movs	r2, #1
 976 039c 7BE7     		b	.L53
 977              	.LVL115:
 978              	.L142:
 979 039e 0AF1010B 		add	fp, r10, #1
 980 03a2 FAE7     		b	.L77
 981              	.LBE164:
 982              	.LBE167:
 983              	.LBE134:
 984              	.LBE168:
 985              		.cfi_endproc
 986              	.LFE136:
 987              		.size	usb_lld_pump, .-usb_lld_pump
 988 03a4 AFF30080 		.section	.text.otg_disable_ep.isra.0,"ax",%progbits
 988      AFF30080 
 988      AFF30080 
 989              		.align	2
 990              		.p2align 4,,15
 991              		.thumb
 992              		.thumb_func
 993              		.type	otg_disable_ep.isra.0, %function
 994              	otg_disable_ep.isra.0:
 995              	.LFB156:
 996              		.loc 1 147 0
 997              		.cfi_startproc
 998              		@ args = 0, pretend = 0, frame = 0
 999              		@ frame_needed = 0, uses_anonymous_args = 0
 1000              		@ link register save eliminated.
 1001              	.LVL116:
 1002 0000 D1F808C0 		ldr	ip, [r1, #8]
 1003              		.loc 1 151 0
 1004 0004 0021     		movs	r1, #0
 1005              	.LVL117:
 1006              		.loc 1 147 0
 1007 0006 2DE9F001 		push	{r4, r5, r6, r7, r8}
 1008              		.cfi_def_cfa_offset 20
 1009              		.cfi_offset 4, -20
 1010              		.cfi_offset 5, -16
 1011              		.cfi_offset 6, -12
 1012              		.cfi_offset 7, -8
 1013              		.cfi_offset 8, -4
 1014              		.loc 1 162 0
 1015 000a 0D46     		mov	r5, r1
 1016              		.loc 1 156 0
 1017 000c 4FF08048 		mov	r8, #1073741824
 1018              		.loc 1 164 0
 1019 0010 4FF0FF37 		mov	r7, #-1
 1020 0014 13E0     		b	.L154
 1021              	.LVL118:
 1022              	.L148:
ARM GAS  /tmp/cc0vqKIm.s 			page 19


 1023              		.loc 1 163 0
 1024 0016 0319     		adds	r3, r0, r4
 1025 0018 C3F81059 		str	r5, [r3, #2320]
 1026              		.loc 1 164 0
 1027 001c C3F80879 		str	r7, [r3, #2312]
 1028              		.loc 1 170 0
 1029 0020 D2F8006B 		ldr	r6, [r2, #2816]
 1030 0024 002E     		cmp	r6, #0
 1031              		.loc 1 177 0
 1032 0026 A8BF     		it	ge
 1033 0028 C2F8005B 		strge	r5, [r2, #2816]
 1034              		.loc 1 170 0
 1035 002c 18DB     		blt	.L155
 1036              	.L151:
 1037              		.loc 1 178 0
 1038 002e 0444     		add	r4, r4, r0
 1039              		.loc 1 151 0
 1040 0030 0131     		adds	r1, r1, #1
 1041              	.LVL119:
 1042 0032 6145     		cmp	r1, ip
 1043              		.loc 1 178 0
 1044 0034 C4F8105B 		str	r5, [r4, #2832]
 1045              		.loc 1 179 0
 1046 0038 C4F8087B 		str	r7, [r4, #2824]
 1047              		.loc 1 151 0
 1048 003c 18D8     		bhi	.L156
 1049              	.LVL120:
 1050              	.L154:
 1051 003e 4C01     		lsls	r4, r1, #5
 1052 0040 0219     		adds	r2, r0, r4
 1053              		.loc 1 155 0
 1054 0042 D2F80039 		ldr	r3, [r2, #2304]
 1055 0046 002B     		cmp	r3, #0
 1056              		.loc 1 162 0
 1057 0048 A8BF     		it	ge
 1058 004a C2F80059 		strge	r5, [r2, #2304]
 1059              		.loc 1 155 0
 1060 004e E2DA     		bge	.L148
 1061              		.loc 1 156 0
 1062 0050 C2F80089 		str	r8, [r2, #2304]
 1063              		.loc 1 158 0
 1064 0054 1646     		mov	r6, r2
 1065              	.L149:
 1066 0056 D6F80839 		ldr	r3, [r6, #2312]
 1067 005a 9B07     		lsls	r3, r3, #30
 1068 005c FBD5     		bpl	.L149
 1069 005e DAE7     		b	.L148
 1070              	.L155:
 1071              		.loc 1 171 0
 1072 0060 C2F8008B 		str	r8, [r2, #2816]
 1073              		.loc 1 173 0
 1074 0064 1A46     		mov	r2, r3
 1075              	.L152:
 1076 0066 D2F8083B 		ldr	r3, [r2, #2824]
 1077 006a DE06     		lsls	r6, r3, #27
 1078 006c FBD5     		bpl	.L152
 1079 006e DEE7     		b	.L151
ARM GAS  /tmp/cc0vqKIm.s 			page 20


 1080              	.L156:
 1081              		.loc 1 181 0
 1082 0070 4FF00113 		mov	r3, #65537
 1083 0074 C0F81C38 		str	r3, [r0, #2076]
 1084              		.loc 1 182 0
 1085 0078 BDE8F001 		pop	{r4, r5, r6, r7, r8}
 1086 007c 7047     		bx	lr
 1087              		.cfi_endproc
 1088              	.LFE156:
 1089              		.size	otg_disable_ep.isra.0, .-otg_disable_ep.isra.0
 1090 007e 00BF     		.section	.text.usb_lld_init,"ax",%progbits
 1091              		.align	2
 1092              		.p2align 4,,15
 1093              		.global	usb_lld_init
 1094              		.thumb
 1095              		.thumb_func
 1096              		.type	usb_lld_init, %function
 1097              	usb_lld_init:
 1098              	.LFB138:
 1099              		.loc 1 802 0
 1100              		.cfi_startproc
 1101              		@ args = 0, pretend = 0, frame = 0
 1102              		@ frame_needed = 0, uses_anonymous_args = 0
 1103 0000 10B5     		push	{r4, lr}
 1104              		.cfi_def_cfa_offset 8
 1105              		.cfi_offset 4, -8
 1106              		.cfi_offset 14, -4
 1107              		.loc 1 806 0
 1108 0002 40F20004 		movw	r4, #:lower16:.LANCHOR0
 1109 0006 C0F20004 		movt	r4, #:upper16:.LANCHOR0
 1110 000a 2046     		mov	r0, r4
 1111 000c FFF7FEFF 		bl	usbObjectInit
 1112              	.LVL121:
 1113              		.loc 1 810 0
 1114 0010 40F20003 		movw	r3, #:lower16:.LANCHOR1
 1115              		.loc 1 807 0
 1116 0014 0022     		movs	r2, #0
 1117              		.loc 1 809 0
 1118 0016 4FF0A041 		mov	r1, #1342177280
 1119              		.loc 1 810 0
 1120 001a C0F20003 		movt	r3, #:upper16:.LANCHOR1
 1121              		.loc 1 809 0
 1122 001e 2165     		str	r1, [r4, #80]
 1123              		.loc 1 810 0
 1124 0020 6365     		str	r3, [r4, #84]
 1125              		.loc 1 807 0
 1126 0022 2266     		str	r2, [r4, #96]
 1127              		.loc 1 808 0
 1128 0024 6266     		str	r2, [r4, #100]
 1129 0026 10BD     		pop	{r4, pc}
 1130              		.cfi_endproc
 1131              	.LFE138:
 1132              		.size	usb_lld_init, .-usb_lld_init
 1133 0028 AFF30080 		.section	.text.usb_lld_start,"ax",%progbits
 1133      AFF30080 
 1134              		.align	2
 1135              		.p2align 4,,15
ARM GAS  /tmp/cc0vqKIm.s 			page 21


 1136              		.global	usb_lld_start
 1137              		.thumb
 1138              		.thumb_func
 1139              		.type	usb_lld_start, %function
 1140              	usb_lld_start:
 1141              	.LFB139:
 1142              		.loc 1 860 0
 1143              		.cfi_startproc
 1144              		@ args = 0, pretend = 0, frame = 0
 1145              		@ frame_needed = 0, uses_anonymous_args = 0
 1146              	.LVL122:
 1147 0000 70B5     		push	{r4, r5, r6, lr}
 1148              		.cfi_def_cfa_offset 16
 1149              		.cfi_offset 4, -16
 1150              		.cfi_offset 5, -12
 1151              		.cfi_offset 6, -8
 1152              		.cfi_offset 14, -4
 1153              		.loc 1 863 0
 1154 0002 0378     		ldrb	r3, [r0]	@ zero_extendqisi2
 1155              		.loc 1 861 0
 1156 0004 066D     		ldr	r6, [r0, #80]
 1157              	.LVL123:
 1158              		.loc 1 863 0
 1159 0006 012B     		cmp	r3, #1
 1160              		.loc 1 860 0
 1161 0008 82B0     		sub	sp, sp, #8
 1162              		.cfi_def_cfa_offset 24
 1163              		.loc 1 860 0
 1164 000a 0546     		mov	r5, r0
 1165              		.loc 1 863 0
 1166 000c 01D0     		beq	.L168
 1167              		.loc 1 946 0
 1168 000e 02B0     		add	sp, sp, #8
 1169              		@ sp needed
 1170 0010 70BD     		pop	{r4, r5, r6, pc}
 1171              	.LVL124:
 1172              	.L168:
 1173              		.loc 1 866 0
 1174 0012 40F20003 		movw	r3, #:lower16:.LANCHOR0
 1175 0016 C0F20003 		movt	r3, #:upper16:.LANCHOR0
 1176 001a 9842     		cmp	r0, r3
 1177 001c 51D0     		beq	.L169
 1178              	.LVL125:
 1179              	.L160:
 1180              		.loc 1 895 0
 1181 001e 2B6E     		ldr	r3, [r5, #96]
 1182              		.loc 1 894 0
 1183 0020 0022     		movs	r2, #0
 1184 0022 EA65     		str	r2, [r5, #92]
 1185              		.loc 1 895 0
 1186 0024 002B     		cmp	r3, #0
 1187 0026 3DD0     		beq	.L170
 1188              	.L161:
 1189              		.loc 1 905 0
 1190 0028 4FF4A252 		mov	r2, #5184
 1191              		.loc 1 908 0
 1192 002c 0323     		movs	r3, #3
ARM GAS  /tmp/cc0vqKIm.s 			page 22


 1193 002e C0F22023 		movt	r3, 544
 1194              		.loc 1 905 0
 1195 0032 C4F20002 		movt	r2, 16384
 1196              		.loc 1 911 0
 1197 0036 0020     		movs	r0, #0
 1198              		.loc 1 918 0
 1199 0038 4FF45021 		mov	r1, #851968
 1200              		.loc 1 905 0
 1201 003c F260     		str	r2, [r6, #12]
 1202              		.loc 1 908 0
 1203 003e C6F80038 		str	r3, [r6, #2048]
 1204              		.loc 1 911 0
 1205 0042 C6F8000E 		str	r0, [r6, #3584]
 1206              		.loc 1 918 0
 1207 0046 B163     		str	r1, [r6, #56]
 1208              		.loc 1 860 0
 1209 0048 2C6D     		ldr	r4, [r5, #80]
 1210              	.LVL126:
 1211              	.LBB171:
 1212              	.LBB172:
 1213              		.loc 1 133 0
 1214 004a 2020     		movs	r0, #32
 1215 004c FFF7FEFF 		bl	halPolledDelay
 1216              	.LVL127:
 1217              		.loc 1 136 0
 1218 0050 0123     		movs	r3, #1
 1219 0052 2361     		str	r3, [r4, #16]
 1220              	.L163:
 1221              		.loc 1 137 0
 1222 0054 2369     		ldr	r3, [r4, #16]
 1223 0056 DA07     		lsls	r2, r3, #31
 1224 0058 FCD4     		bmi	.L163
 1225              		.loc 1 140 0
 1226 005a 0C20     		movs	r0, #12
 1227 005c FFF7FEFF 		bl	halPolledDelay
 1228              	.LVL128:
 1229              	.L165:
 1230              		.loc 1 143 0
 1231 0060 2369     		ldr	r3, [r4, #16]
 1232 0062 002B     		cmp	r3, #0
 1233 0064 FCDA     		bge	.L165
 1234              	.LBE172:
 1235              	.LBE171:
 1236              		.loc 1 925 0
 1237 0066 0024     		movs	r4, #0
 1238              	.LVL129:
 1239 0068 B460     		str	r4, [r6, #8]
 1240              		.loc 1 928 0
 1241 006a 286D     		ldr	r0, [r5, #80]
 1242 006c 696D     		ldr	r1, [r5, #84]
 1243 006e FFF7FEFF 		bl	otg_disable_ep.isra.0
 1244              	.LVL130:
 1245              		.loc 1 935 0
 1246 0072 6B68     		ldr	r3, [r5, #4]
 1247              		.loc 1 932 0
 1248 0074 C6F81048 		str	r4, [r6, #2064]
 1249              		.loc 1 935 0
ARM GAS  /tmp/cc0vqKIm.s 			page 23


 1250 0078 DB68     		ldr	r3, [r3, #12]
 1251              		.loc 1 933 0
 1252 007a C6F81448 		str	r4, [r6, #2068]
 1253              		.loc 1 934 0
 1254 007e C6F81C48 		str	r4, [r6, #2076]
 1255              		.loc 1 935 0
 1256 0082 5BB1     		cbz	r3, .L171
 1257              		.loc 1 939 0
 1258 0084 43F20803 		movw	r3, #12296
 1259 0088 B361     		str	r3, [r6, #24]
 1260              	.L167:
 1261              		.loc 1 941 0
 1262 008a 4FF0FF33 		mov	r3, #-1
 1263 008e 7361     		str	r3, [r6, #20]
 1264              		.loc 1 944 0
 1265 0090 B368     		ldr	r3, [r6, #8]
 1266 0092 43F00103 		orr	r3, r3, #1
 1267 0096 B360     		str	r3, [r6, #8]
 1268              		.loc 1 946 0
 1269 0098 02B0     		add	sp, sp, #8
 1270              		@ sp needed
 1271 009a 70BD     		pop	{r4, r5, r6, pc}
 1272              	.LVL131:
 1273              	.L171:
 1274              		.loc 1 936 0
 1275 009c 4FF44053 		mov	r3, #12288
 1276 00a0 B361     		str	r3, [r6, #24]
 1277 00a2 F2E7     		b	.L167
 1278              	.LVL132:
 1279              	.L170:
 1280              		.loc 1 896 0
 1281 00a4 40F20003 		movw	r3, #:lower16:usb_lld_pump
 1282 00a8 0095     		str	r5, [sp]
 1283 00aa C0F20003 		movt	r3, #:upper16:usb_lld_pump
 1284 00ae 05F16800 		add	r0, r5, #104
 1285 00b2 4FF4A871 		mov	r1, #336
 1286 00b6 0222     		movs	r2, #2
 1287 00b8 FFF7FEFF 		bl	chThdCreateI
 1288              	.LVL133:
 1289 00bc 6866     		str	r0, [r5, #100]
 1290 00be 2866     		str	r0, [r5, #96]
 1291 00c0 B2E7     		b	.L161
 1292              	.LVL134:
 1293              	.L169:
 1294              		.loc 1 868 0
 1295 00c2 4FF46053 		mov	r3, #14336
 1296 00c6 C4F20203 		movt	r3, 16386
 1297              		.loc 1 869 0
 1298 00ca 0022     		movs	r2, #0
 1299              		.loc 1 868 0
 1300 00cc 596B     		ldr	r1, [r3, #52]
 1301 00ce 41F08001 		orr	r1, r1, #128
 1302 00d2 5963     		str	r1, [r3, #52]
 1303              		.loc 1 869 0
 1304 00d4 5969     		ldr	r1, [r3, #20]
 1305 00d6 41F08001 		orr	r1, r1, #128
 1306 00da 5961     		str	r1, [r3, #20]
ARM GAS  /tmp/cc0vqKIm.s 			page 24


 1307              		.loc 1 872 0
 1308 00dc 4320     		movs	r0, #67
 1309              	.LVL135:
 1310              		.loc 1 869 0
 1311 00de 5A61     		str	r2, [r3, #20]
 1312              		.loc 1 872 0
 1313 00e0 E021     		movs	r1, #224
 1314 00e2 FFF7FEFF 		bl	nvicEnableVector
 1315              	.LVL136:
 1316 00e6 9AE7     		b	.L160
 1317              		.cfi_endproc
 1318              	.LFE139:
 1319              		.size	usb_lld_start, .-usb_lld_start
 1320 00e8 AFF30080 		.section	.text.usb_lld_stop,"ax",%progbits
 1320      AFF30080 
 1321              		.align	2
 1322              		.p2align 4,,15
 1323              		.global	usb_lld_stop
 1324              		.thumb
 1325              		.thumb_func
 1326              		.type	usb_lld_stop, %function
 1327              	usb_lld_stop:
 1328              	.LFB140:
 1329              		.loc 1 955 0
 1330              		.cfi_startproc
 1331              		@ args = 0, pretend = 0, frame = 0
 1332              		@ frame_needed = 0, uses_anonymous_args = 0
 1333              	.LVL137:
 1334 0000 38B5     		push	{r3, r4, r5, lr}
 1335              		.cfi_def_cfa_offset 16
 1336              		.cfi_offset 3, -16
 1337              		.cfi_offset 4, -12
 1338              		.cfi_offset 5, -8
 1339              		.cfi_offset 14, -4
 1340              		.loc 1 959 0
 1341 0002 0378     		ldrb	r3, [r0]	@ zero_extendqisi2
 1342              		.loc 1 956 0
 1343 0004 056D     		ldr	r5, [r0, #80]
 1344              	.LVL138:
 1345              		.loc 1 959 0
 1346 0006 012B     		cmp	r3, #1
 1347              		.loc 1 955 0
 1348 0008 0446     		mov	r4, r0
 1349              		.loc 1 959 0
 1350 000a 09D0     		beq	.L172
 1351              		.loc 1 963 0
 1352 000c 2846     		mov	r0, r5
 1353              	.LVL139:
 1354 000e 616D     		ldr	r1, [r4, #84]
 1355 0010 FFF7FEFF 		bl	otg_disable_ep.isra.0
 1356              	.LVL140:
 1357              		.loc 1 965 0
 1358 0014 0023     		movs	r3, #0
 1359 0016 E365     		str	r3, [r4, #92]
 1360              		.loc 1 967 0
 1361 0018 C5F81C38 		str	r3, [r5, #2076]
 1362              		.loc 1 968 0
ARM GAS  /tmp/cc0vqKIm.s 			page 25


 1363 001c AB60     		str	r3, [r5, #8]
 1364              		.loc 1 969 0
 1365 001e AB63     		str	r3, [r5, #56]
 1366              	.L172:
 1367 0020 38BD     		pop	{r3, r4, r5, pc}
 1368              		.cfi_endproc
 1369              	.LFE140:
 1370              		.size	usb_lld_stop, .-usb_lld_stop
 1371 0022 00BFAFF3 		.section	.text.usb_lld_reset,"ax",%progbits
 1371      0080AFF3 
 1371      0080AFF3 
 1371      0080
 1372              		.align	2
 1373              		.p2align 4,,15
 1374              		.global	usb_lld_reset
 1375              		.thumb
 1376              		.thumb_func
 1377              		.type	usb_lld_reset, %function
 1378              	usb_lld_reset:
 1379              	.LFB141:
 1380              		.loc 1 994 0
 1381              		.cfi_startproc
 1382              		@ args = 0, pretend = 0, frame = 0
 1383              		@ frame_needed = 0, uses_anonymous_args = 0
 1384              	.LVL141:
 1385 0000 F8B5     		push	{r3, r4, r5, r6, r7, lr}
 1386              		.cfi_def_cfa_offset 24
 1387              		.cfi_offset 3, -24
 1388              		.cfi_offset 4, -20
 1389              		.cfi_offset 5, -16
 1390              		.cfi_offset 6, -12
 1391              		.cfi_offset 7, -8
 1392              		.cfi_offset 14, -4
 1393              		.loc 1 996 0
 1394 0002 046D     		ldr	r4, [r0, #80]
 1395              	.LVL142:
 1396              	.LBB173:
 1397              	.LBB174:
 1398              		.loc 1 197 0
 1399 0004 2023     		movs	r3, #32
 1400              	.LBE174:
 1401              	.LBE173:
 1402              		.loc 1 994 0
 1403 0006 0746     		mov	r7, r0
 1404              	.LBB176:
 1405              	.LBB175:
 1406              		.loc 1 197 0
 1407 0008 2361     		str	r3, [r4, #16]
 1408              	.L179:
 1409              		.loc 1 198 0
 1410 000a 2269     		ldr	r2, [r4, #16]
 1411 000c 12F02005 		ands	r5, r2, #32
 1412 0010 FBD1     		bne	.L179
 1413              		.loc 1 201 0
 1414 0012 0C20     		movs	r0, #12
 1415              	.LVL143:
 1416 0014 FFF7FEFF 		bl	halPolledDelay
ARM GAS  /tmp/cc0vqKIm.s 			page 26


 1417              	.LVL144:
 1418 0018 7B6D     		ldr	r3, [r7, #84]
 1419 001a 9E68     		ldr	r6, [r3, #8]
 1420              	.LBE175:
 1421              	.LBE176:
 1422              		.loc 1 1002 0
 1423 001c 2A46     		mov	r2, r5
 1424              		.loc 1 1005 0
 1425 001e FF21     		movs	r1, #255
 1426              		.loc 1 1003 0
 1427 0020 4FF00065 		mov	r5, #134217728
 1428              	.LVL145:
 1429              	.L181:
 1430 0024 04EB4213 		add	r3, r4, r2, lsl #5
 1431              		.loc 1 1002 0 discriminator 2
 1432 0028 0132     		adds	r2, r2, #1
 1433              	.LVL146:
 1434 002a B242     		cmp	r2, r6
 1435              		.loc 1 1003 0 discriminator 2
 1436 002c C3F80059 		str	r5, [r3, #2304]
 1437              		.loc 1 1004 0 discriminator 2
 1438 0030 C3F8005B 		str	r5, [r3, #2816]
 1439              		.loc 1 1005 0 discriminator 2
 1440 0034 C3F80819 		str	r1, [r3, #2312]
 1441              		.loc 1 1006 0 discriminator 2
 1442 0038 C3F8081B 		str	r1, [r3, #2824]
 1443              		.loc 1 1002 0 discriminator 2
 1444 003c F2D9     		bls	.L181
 1445              		.loc 1 1010 0
 1446 003e 4FF0FF32 		mov	r2, #-1
 1447              	.LVL147:
 1448              		.loc 1 1011 0
 1449 0042 4FF00113 		mov	r3, #65537
 1450              		.loc 1 1010 0
 1451 0046 C4F81828 		str	r2, [r4, #2072]
 1452              		.loc 1 1011 0
 1453 004a C4F81C38 		str	r3, [r4, #2076]
 1454              		.loc 1 994 0
 1455 004e 7B6D     		ldr	r3, [r7, #84]
 1456              	.LVL148:
 1457              	.LBB177:
 1458              	.LBB178:
 1459              		.loc 1 213 0
 1460 0050 1A68     		ldr	r2, [r3]
 1461 0052 BA65     		str	r2, [r7, #88]
 1462              	.LBE178:
 1463              	.LBE177:
 1464              		.loc 1 1017 0
 1465 0054 1B68     		ldr	r3, [r3]
 1466 0056 6362     		str	r3, [r4, #36]
 1467              		.loc 1 994 0
 1468 0058 3A6D     		ldr	r2, [r7, #80]
 1469              	.LVL149:
 1470              	.LBB179:
 1471              	.LBB180:
 1472              		.loc 1 187 0
 1473 005a 1023     		movs	r3, #16
ARM GAS  /tmp/cc0vqKIm.s 			page 27


 1474 005c 1361     		str	r3, [r2, #16]
 1475              	.L183:
 1476              		.loc 1 188 0
 1477 005e 1369     		ldr	r3, [r2, #16]
 1478 0060 13F01005 		ands	r5, r3, #16
 1479 0064 FBD1     		bne	.L183
 1480              		.loc 1 191 0
 1481 0066 0C20     		movs	r0, #12
 1482 0068 FFF7FEFF 		bl	halPolledDelay
 1483              	.LVL150:
 1484              	.LBE180:
 1485              	.LBE179:
 1486              		.loc 1 1021 0
 1487 006c D4F80038 		ldr	r3, [r4, #2048]
 1488 0070 23F4FE63 		bic	r3, r3, #2032
 1489 0074 C4F80038 		str	r3, [r4, #2048]
 1490              		.loc 1 1024 0
 1491 0078 A069     		ldr	r0, [r4, #24]
 1492              		.loc 1 1029 0
 1493 007a 40F20002 		movw	r2, #:lower16:.LANCHOR2
 1494              		.loc 1 1024 0
 1495 007e 40F44020 		orr	r0, r0, #786432
 1496              		.loc 1 1031 0
 1497 0082 48F24003 		movw	r3, #32832
 1498 0086 C1F20003 		movt	r3, 4096
 1499              		.loc 1 1025 0
 1500 008a 0921     		movs	r1, #9
 1501              		.loc 1 1029 0
 1502 008c C0F20002 		movt	r2, #:upper16:.LANCHOR2
 1503              		.loc 1 1024 0
 1504 0090 40F01000 		orr	r0, r0, #16
 1505 0094 A061     		str	r0, [r4, #24]
 1506              		.loc 1 1025 0
 1507 0096 C4F81018 		str	r1, [r4, #2064]
 1508              		.loc 1 1026 0
 1509 009a C4F81418 		str	r1, [r4, #2068]
 1510              		.loc 1 1029 0
 1511 009e FA60     		str	r2, [r7, #12]
 1512              		.loc 1 1030 0
 1513 00a0 C4F8105B 		str	r5, [r4, #2832]
 1514              		.loc 1 1031 0
 1515 00a4 C4F8003B 		str	r3, [r4, #2816]
 1516              		.loc 1 1033 0
 1517 00a8 C4F81059 		str	r5, [r4, #2320]
 1518              		.loc 1 1034 0
 1519 00ac C4F80039 		str	r3, [r4, #2304]
 1520              	.LVL151:
 1521              	.LBB181:
 1522              	.LBB182:
 1523              		.loc 1 227 0
 1524 00b0 BB6D     		ldr	r3, [r7, #88]
 1525              	.LVL152:
 1526              		.loc 1 228 0
 1527 00b2 03F11002 		add	r2, r3, #16
 1528              	.LBE182:
 1529              	.LBE181:
 1530              		.loc 1 1036 0
ARM GAS  /tmp/cc0vqKIm.s 			page 28


 1531 00b6 43F48013 		orr	r3, r3, #1048576
 1532              	.LVL153:
 1533              	.LBB184:
 1534              	.LBB183:
 1535              		.loc 1 228 0
 1536 00ba BA65     		str	r2, [r7, #88]
 1537              	.LVL154:
 1538              	.LBE183:
 1539              	.LBE184:
 1540              		.loc 1 1036 0
 1541 00bc A362     		str	r3, [r4, #40]
 1542 00be F8BD     		pop	{r3, r4, r5, r6, r7, pc}
 1543              		.cfi_endproc
 1544              	.LFE141:
 1545              		.size	usb_lld_reset, .-usb_lld_reset
 1546              		.section	.text.usb_lld_set_address,"ax",%progbits
 1547              		.align	2
 1548              		.p2align 4,,15
 1549              		.global	usb_lld_set_address
 1550              		.thumb
 1551              		.thumb_func
 1552              		.type	usb_lld_set_address, %function
 1553              	usb_lld_set_address:
 1554              	.LFB142:
 1555              		.loc 1 1048 0
 1556              		.cfi_startproc
 1557              		@ args = 0, pretend = 0, frame = 0
 1558              		@ frame_needed = 0, uses_anonymous_args = 0
 1559              		@ link register save eliminated.
 1560              	.LVL155:
 1561              		.loc 1 1049 0
 1562 0000 036D     		ldr	r3, [r0, #80]
 1563              	.LVL156:
 1564              		.loc 1 1051 0
 1565 0002 90F84E10 		ldrb	r1, [r0, #78]	@ zero_extendqisi2
 1566 0006 D3F80028 		ldr	r2, [r3, #2048]
 1567 000a 22F4FE62 		bic	r2, r2, #2032
 1568 000e 42EA0112 		orr	r2, r2, r1, lsl #4
 1569 0012 C3F80028 		str	r2, [r3, #2048]
 1570 0016 7047     		bx	lr
 1571              		.cfi_endproc
 1572              	.LFE142:
 1573              		.size	usb_lld_set_address, .-usb_lld_set_address
 1574 0018 AFF30080 		.section	.text.usb_lld_init_endpoint,"ax",%progbits
 1574      AFF30080 
 1575              		.align	2
 1576              		.p2align 4,,15
 1577              		.global	usb_lld_init_endpoint
 1578              		.thumb
 1579              		.thumb_func
 1580              		.type	usb_lld_init_endpoint, %function
 1581              	usb_lld_init_endpoint:
 1582              	.LFB143:
 1583              		.loc 1 1062 0
 1584              		.cfi_startproc
 1585              		@ args = 0, pretend = 0, frame = 0
 1586              		@ frame_needed = 0, uses_anonymous_args = 0
ARM GAS  /tmp/cc0vqKIm.s 			page 29


 1587              	.LVL157:
 1588 0000 2DE9F041 		push	{r4, r5, r6, r7, r8, lr}
 1589              		.cfi_def_cfa_offset 24
 1590              		.cfi_offset 4, -24
 1591              		.cfi_offset 5, -20
 1592              		.cfi_offset 6, -16
 1593              		.cfi_offset 7, -12
 1594              		.cfi_offset 8, -8
 1595              		.cfi_offset 14, -4
 1596 0004 0FFA81F8 		sxth	r8, r1
 1597 0008 00EB8806 		add	r6, r0, r8, lsl #2
 1598              		.loc 1 1075 0
 1599 000c 4FF40047 		mov	r7, #32768
 1600              		.loc 1 1067 0
 1601 0010 F368     		ldr	r3, [r6, #12]
 1602              		.loc 1 1064 0
 1603 0012 046D     		ldr	r4, [r0, #80]
 1604              	.LVL158:
 1605              		.loc 1 1067 0
 1606 0014 1A68     		ldr	r2, [r3]
 1607 0016 02F00302 		and	r2, r2, #3
 1608 001a 022A     		cmp	r2, #2
 1609              		.loc 1 1062 0
 1610 001c 0D46     		mov	r5, r1
 1611              		.loc 1 1075 0
 1612 001e 08BF     		it	eq
 1613 0020 C1F20807 		movteq	r7, 4104
 1614              		.loc 1 1067 0
 1615 0024 0CD0     		beq	.L189
 1616 0026 032A     		cmp	r2, #3
 1617              		.loc 1 1078 0
 1618 0028 08BF     		it	eq
 1619 002a C1F20C07 		movteq	r7, 4108
 1620              		.loc 1 1067 0
 1621 002e 07D0     		beq	.L189
 1622              		.loc 1 1069 0
 1623 0030 3946     		mov	r1, r7
 1624              	.LVL159:
 1625 0032 C1F20001 		movt	r1, 4096
 1626 0036 C1F20407 		movt	r7, 4100
 1627 003a 012A     		cmp	r2, #1
 1628 003c 18BF     		it	ne
 1629 003e 0F46     		movne	r7, r1
 1630              	.L189:
 1631              	.LVL160:
 1632              		.loc 1 1085 0
 1633 0040 6A01     		lsls	r2, r5, #5
 1634 0042 04EB020E 		add	lr, r4, r2
 1635              		.loc 1 1086 0
 1636 0046 D968     		ldr	r1, [r3, #12]
 1637              		.loc 1 1085 0
 1638 0048 4FF0000C 		mov	ip, #0
 1639 004c CEF810CB 		str	ip, [lr, #2832]
 1640              		.loc 1 1086 0
 1641 0050 0029     		cmp	r1, #0
 1642 0052 4DD0     		beq	.L190
 1643              		.loc 1 1087 0
ARM GAS  /tmp/cc0vqKIm.s 			page 30


 1644 0054 B3F812E0 		ldrh	lr, [r3, #18]
 1645 0058 05F15801 		add	r1, r5, #88
 1646 005c 4901     		lsls	r1, r1, #5
 1647 005e 47EA0E0E 		orr	lr, r7, lr
 1648 0062 44F801E0 		str	lr, [r4, r1]
 1649              		.loc 1 1088 0
 1650 0066 4FF0010C 		mov	ip, #1
 1651 006a D4F81C18 		ldr	r1, [r4, #2076]
 1652 006e 05F1100E 		add	lr, r5, #16
 1653 0072 0CFA0EFE 		lsl	lr, ip, lr
 1654 0076 4EEA0101 		orr	r1, lr, r1
 1655 007a C4F81C18 		str	r1, [r4, #2076]
 1656              		.loc 1 1096 0
 1657 007e 2244     		add	r2, r2, r4
 1658              		.loc 1 1097 0
 1659 0080 9968     		ldr	r1, [r3, #8]
 1660              		.loc 1 1096 0
 1661 0082 4FF0000E 		mov	lr, #0
 1662 0086 C2F810E9 		str	lr, [r2, #2320]
 1663              		.loc 1 1097 0
 1664 008a 0029     		cmp	r1, #0
 1665 008c 4CD0     		beq	.L192
 1666              	.L200:
 1667              		.loc 1 1100 0
 1668 008e 9A8B     		ldrh	r2, [r3, #28]
 1669              		.loc 1 1099 0
 1670 0090 198A     		ldrh	r1, [r3, #16]
 1671              		.loc 1 1100 0
 1672 0092 012A     		cmp	r2, #1
 1673              		.loc 1 1099 0
 1674 0094 4FEA9103 		lsr	r3, r1, #2
 1675              	.LVL161:
 1676              		.loc 1 1101 0
 1677 0098 88BF     		it	hi
 1678 009a 5343     		mulhi	r3, r2, r3
 1679              	.LVL162:
 1680              		.loc 1 1102 0
 1681 009c 05F13F01 		add	r1, r5, #63
 1682              	.LBB185:
 1683              	.LBB186:
 1684              		.loc 1 227 0
 1685 00a0 826D     		ldr	r2, [r0, #88]
 1686              	.LVL163:
 1687              	.LBE186:
 1688              	.LBE185:
 1689              		.loc 1 1102 0
 1690 00a2 04EB8101 		add	r1, r4, r1, lsl #2
 1691              	.LBB189:
 1692              	.LBB187:
 1693              		.loc 1 228 0
 1694 00a6 03EB020E 		add	lr, r3, r2
 1695              	.LBE187:
 1696              	.LBE189:
 1697              		.loc 1 1102 0
 1698 00aa 42EA0343 		orr	r3, r2, r3, lsl #16
 1699              	.LVL164:
 1700              	.LBB190:
ARM GAS  /tmp/cc0vqKIm.s 			page 31


 1701              	.LBB188:
 1702              		.loc 1 228 0
 1703 00ae C0F858E0 		str	lr, [r0, #88]
 1704              	.LBE188:
 1705              	.LBE190:
 1706              		.loc 1 1102 0
 1707 00b2 4B60     		str	r3, [r1, #4]
 1708              		.loc 1 1062 0
 1709 00b4 026D     		ldr	r2, [r0, #80]
 1710              	.LVL165:
 1711              	.LBB191:
 1712              	.LBB192:
 1713              		.loc 1 197 0
 1714 00b6 AB01     		lsls	r3, r5, #6
 1715 00b8 43F02003 		orr	r3, r3, #32
 1716 00bc 1361     		str	r3, [r2, #16]
 1717              	.LVL166:
 1718              	.L195:
 1719              		.loc 1 198 0
 1720 00be 1369     		ldr	r3, [r2, #16]
 1721 00c0 9806     		lsls	r0, r3, #26
 1722 00c2 FCD4     		bmi	.L195
 1723              		.loc 1 201 0
 1724 00c4 0C20     		movs	r0, #12
 1725 00c6 FFF7FEFF 		bl	halPolledDelay
 1726              	.LVL167:
 1727              	.LBE192:
 1728              	.LBE191:
 1729              		.loc 1 1108 0
 1730 00ca F368     		ldr	r3, [r6, #12]
 1731              		.loc 1 1107 0
 1732 00cc 1A8A     		ldrh	r2, [r3, #16]
 1733              		.loc 1 1106 0
 1734 00ce 05F14803 		add	r3, r5, #72
 1735 00d2 42EA8552 		orr	r2, r2, r5, lsl #22
 1736 00d6 5B01     		lsls	r3, r3, #5
 1737              		.loc 1 1107 0
 1738 00d8 1743     		orrs	r7, r7, r2
 1739              	.LVL168:
 1740              		.loc 1 1106 0
 1741 00da E750     		str	r7, [r4, r3]
 1742              		.loc 1 1109 0
 1743 00dc 0122     		movs	r2, #1
 1744 00de D4F81C38 		ldr	r3, [r4, #2076]
 1745 00e2 02FA05F5 		lsl	r5, r2, r5
 1746              	.LVL169:
 1747 00e6 1D43     		orrs	r5, r5, r3
 1748 00e8 C4F81C58 		str	r5, [r4, #2076]
 1749 00ec BDE8F081 		pop	{r4, r5, r6, r7, r8, pc}
 1750              	.LVL170:
 1751              	.L190:
 1752 00f0 04EB4811 		add	r1, r4, r8, lsl #5
 1753              		.loc 1 1092 0
 1754 00f4 05F1100E 		add	lr, r5, #16
 1755              		.loc 1 1091 0
 1756 00f8 D1F800CB 		ldr	ip, [r1, #2816]
 1757 00fc 2CF4004C 		bic	ip, ip, #32768
ARM GAS  /tmp/cc0vqKIm.s 			page 32


 1758 0100 C1F800CB 		str	ip, [r1, #2816]
 1759              		.loc 1 1092 0
 1760 0104 D4F81C18 		ldr	r1, [r4, #2076]
 1761 0108 4FF0010C 		mov	ip, #1
 1762 010c 0CFA0EFE 		lsl	lr, ip, lr
 1763 0110 21EA0E01 		bic	r1, r1, lr
 1764 0114 C4F81C18 		str	r1, [r4, #2076]
 1765              		.loc 1 1096 0
 1766 0118 2244     		add	r2, r2, r4
 1767              		.loc 1 1097 0
 1768 011a 9968     		ldr	r1, [r3, #8]
 1769              		.loc 1 1096 0
 1770 011c 4FF0000E 		mov	lr, #0
 1771 0120 C2F810E9 		str	lr, [r2, #2320]
 1772              		.loc 1 1097 0
 1773 0124 0029     		cmp	r1, #0
 1774 0126 B2D1     		bne	.L200
 1775              	.L192:
 1776              		.loc 1 1112 0
 1777 0128 05F13F02 		add	r2, r5, #63
 1778 012c 04EB8202 		add	r2, r4, r2, lsl #2
 1779 0130 4FF48063 		mov	r3, #1024
 1780 0134 C0F20023 		movt	r3, 512
 1781 0138 5360     		str	r3, [r2, #4]
 1782              		.loc 1 1062 0
 1783 013a 026D     		ldr	r2, [r0, #80]
 1784              	.LVL171:
 1785              	.LBB193:
 1786              	.LBB194:
 1787              		.loc 1 197 0
 1788 013c AB01     		lsls	r3, r5, #6
 1789 013e 43F02003 		orr	r3, r3, #32
 1790 0142 1361     		str	r3, [r2, #16]
 1791              	.L198:
 1792              		.loc 1 198 0
 1793 0144 1369     		ldr	r3, [r2, #16]
 1794 0146 9906     		lsls	r1, r3, #26
 1795 0148 FCD4     		bmi	.L198
 1796 014a 04EB4818 		add	r8, r4, r8, lsl #5
 1797              		.loc 1 201 0
 1798 014e 0C20     		movs	r0, #12
 1799              	.LVL172:
 1800 0150 FFF7FEFF 		bl	halPolledDelay
 1801              	.LVL173:
 1802              	.LBE194:
 1803              	.LBE193:
 1804              		.loc 1 1114 0
 1805 0154 D8F80039 		ldr	r3, [r8, #2304]
 1806 0158 23F40043 		bic	r3, r3, #32768
 1807 015c C8F80039 		str	r3, [r8, #2304]
 1808              		.loc 1 1115 0
 1809 0160 D4F81C38 		ldr	r3, [r4, #2076]
 1810 0164 0122     		movs	r2, #1
 1811 0166 02FA05F5 		lsl	r5, r2, r5
 1812              	.LVL174:
 1813 016a 23EA0503 		bic	r3, r3, r5
 1814 016e C4F81C38 		str	r3, [r4, #2076]
ARM GAS  /tmp/cc0vqKIm.s 			page 33


 1815 0172 BDE8F081 		pop	{r4, r5, r6, r7, r8, pc}
 1816              		.cfi_endproc
 1817              	.LFE143:
 1818              		.size	usb_lld_init_endpoint, .-usb_lld_init_endpoint
 1819 0176 00BFAFF3 		.section	.text.usb_lld_disable_endpoints,"ax",%progbits
 1819      0080AFF3 
 1819      0080
 1820              		.align	2
 1821              		.p2align 4,,15
 1822              		.global	usb_lld_disable_endpoints
 1823              		.thumb
 1824              		.thumb_func
 1825              		.type	usb_lld_disable_endpoints, %function
 1826              	usb_lld_disable_endpoints:
 1827              	.LFB144:
 1828              		.loc 1 1126 0
 1829              		.cfi_startproc
 1830              		@ args = 0, pretend = 0, frame = 0
 1831              		@ frame_needed = 0, uses_anonymous_args = 0
 1832              		@ link register save eliminated.
 1833              	.LVL175:
 1834              		.loc 1 1126 0
 1835 0000 416D     		ldr	r1, [r0, #84]
 1836              	.LVL176:
 1837 0002 0346     		mov	r3, r0
 1838              	.LBB195:
 1839              	.LBB196:
 1840              		.loc 1 213 0
 1841 0004 0A68     		ldr	r2, [r1]
 1842              	.LBE196:
 1843              	.LBE195:
 1844              		.loc 1 1132 0
 1845 0006 006D     		ldr	r0, [r0, #80]
 1846              	.LVL177:
 1847              	.LBB198:
 1848              	.LBB197:
 1849              		.loc 1 213 0
 1850 0008 9A65     		str	r2, [r3, #88]
 1851              	.LBE197:
 1852              	.LBE198:
 1853              		.loc 1 1132 0
 1854 000a FFF7FEBF 		b	otg_disable_ep.isra.0
 1855              	.LVL178:
 1856              		.cfi_endproc
 1857              	.LFE144:
 1858              		.size	usb_lld_disable_endpoints, .-usb_lld_disable_endpoints
 1859 000e 00BF     		.section	.text.usb_lld_get_status_out,"ax",%progbits
 1860              		.align	2
 1861              		.p2align 4,,15
 1862              		.global	usb_lld_get_status_out
 1863              		.thumb
 1864              		.thumb_func
 1865              		.type	usb_lld_get_status_out, %function
 1866              	usb_lld_get_status_out:
 1867              	.LFB145:
 1868              		.loc 1 1147 0
 1869              		.cfi_startproc
ARM GAS  /tmp/cc0vqKIm.s 			page 34


 1870              		@ args = 0, pretend = 0, frame = 0
 1871              		@ frame_needed = 0, uses_anonymous_args = 0
 1872              		@ link register save eliminated.
 1873              	.LVL179:
 1874              		.loc 1 1152 0
 1875 0000 5831     		adds	r1, r1, #88
 1876              	.LVL180:
 1877 0002 036D     		ldr	r3, [r0, #80]
 1878 0004 4901     		lsls	r1, r1, #5
 1879 0006 5B58     		ldr	r3, [r3, r1]
 1880              	.LVL181:
 1881              		.loc 1 1153 0
 1882 0008 13F40040 		ands	r0, r3, #32768
 1883              	.LVL182:
 1884 000c 04D0     		beq	.L203
 1885              		.loc 1 1155 0
 1886 000e 13F4001F 		tst	r3, #2097152
 1887              		.loc 1 1156 0
 1888 0012 0CBF     		ite	eq
 1889 0014 0220     		moveq	r0, #2
 1890 0016 0120     		movne	r0, #1
 1891              	.L203:
 1892              		.loc 1 1158 0
 1893 0018 7047     		bx	lr
 1894              		.cfi_endproc
 1895              	.LFE145:
 1896              		.size	usb_lld_get_status_out, .-usb_lld_get_status_out
 1897 001a 00BFAFF3 		.section	.text.usb_lld_get_status_in,"ax",%progbits
 1897      0080
 1898              		.align	2
 1899              		.p2align 4,,15
 1900              		.global	usb_lld_get_status_in
 1901              		.thumb
 1902              		.thumb_func
 1903              		.type	usb_lld_get_status_in, %function
 1904              	usb_lld_get_status_in:
 1905              	.LFB146:
 1906              		.loc 1 1172 0
 1907              		.cfi_startproc
 1908              		@ args = 0, pretend = 0, frame = 0
 1909              		@ frame_needed = 0, uses_anonymous_args = 0
 1910              		@ link register save eliminated.
 1911              	.LVL183:
 1912              		.loc 1 1177 0
 1913 0000 4831     		adds	r1, r1, #72
 1914              	.LVL184:
 1915 0002 036D     		ldr	r3, [r0, #80]
 1916 0004 4901     		lsls	r1, r1, #5
 1917 0006 5B58     		ldr	r3, [r3, r1]
 1918              	.LVL185:
 1919              		.loc 1 1178 0
 1920 0008 13F40040 		ands	r0, r3, #32768
 1921              	.LVL186:
 1922 000c 04D0     		beq	.L207
 1923              		.loc 1 1180 0
 1924 000e 13F4001F 		tst	r3, #2097152
 1925              		.loc 1 1181 0
ARM GAS  /tmp/cc0vqKIm.s 			page 35


 1926 0012 0CBF     		ite	eq
 1927 0014 0220     		moveq	r0, #2
 1928 0016 0120     		movne	r0, #1
 1929              	.L207:
 1930              		.loc 1 1183 0
 1931 0018 7047     		bx	lr
 1932              		.cfi_endproc
 1933              	.LFE146:
 1934              		.size	usb_lld_get_status_in, .-usb_lld_get_status_in
 1935 001a 00BFAFF3 		.section	.text.usb_lld_read_setup,"ax",%progbits
 1935      0080
 1936              		.align	2
 1937              		.p2align 4,,15
 1938              		.global	usb_lld_read_setup
 1939              		.thumb
 1940              		.thumb_func
 1941              		.type	usb_lld_read_setup, %function
 1942              	usb_lld_read_setup:
 1943              	.LFB147:
 1944              		.loc 1 1199 0
 1945              		.cfi_startproc
 1946              		@ args = 0, pretend = 0, frame = 0
 1947              		@ frame_needed = 0, uses_anonymous_args = 0
 1948              		@ link register save eliminated.
 1949              	.LVL187:
 1950              		.loc 1 1201 0
 1951 0000 00EB8101 		add	r1, r0, r1, lsl #2
 1952              	.LVL188:
 1953 0004 CB68     		ldr	r3, [r1, #12]
 1954 0006 1B6A     		ldr	r3, [r3, #32]
 1955 0008 1968     		ldr	r1, [r3]	@ unaligned
 1956 000a 5B68     		ldr	r3, [r3, #4]	@ unaligned
 1957 000c 1160     		str	r1, [r2]	@ unaligned
 1958 000e 5360     		str	r3, [r2, #4]	@ unaligned
 1959 0010 7047     		bx	lr
 1960              		.cfi_endproc
 1961              	.LFE147:
 1962              		.size	usb_lld_read_setup, .-usb_lld_read_setup
 1963 0012 00BFAFF3 		.section	.text.usb_lld_prepare_receive,"ax",%progbits
 1963      0080AFF3 
 1963      0080AFF3 
 1963      0080
 1964              		.align	2
 1965              		.p2align 4,,15
 1966              		.global	usb_lld_prepare_receive
 1967              		.thumb
 1968              		.thumb_func
 1969              		.type	usb_lld_prepare_receive, %function
 1970              	usb_lld_prepare_receive:
 1971              	.LFB148:
 1972              		.loc 1 1212 0
 1973              		.cfi_startproc
 1974              		@ args = 0, pretend = 0, frame = 0
 1975              		@ frame_needed = 0, uses_anonymous_args = 0
 1976              		@ link register save eliminated.
 1977              	.LVL189:
 1978              		.loc 1 1214 0
ARM GAS  /tmp/cc0vqKIm.s 			page 36


 1979 0000 00EB8103 		add	r3, r0, r1, lsl #2
 1980              		.loc 1 1212 0
 1981 0004 10B4     		push	{r4}
 1982              		.cfi_def_cfa_offset 4
 1983              		.cfi_offset 4, -4
 1984              		.loc 1 1214 0
 1985 0006 DB68     		ldr	r3, [r3, #12]
 1986              	.LVL190:
 1987              		.loc 1 1219 0
 1988 0008 046D     		ldr	r4, [r0, #80]
 1989              		.loc 1 1217 0
 1990 000a 9869     		ldr	r0, [r3, #24]
 1991              	.LVL191:
 1992 000c 5A8A     		ldrh	r2, [r3, #18]
 1993 000e 4368     		ldr	r3, [r0, #4]
 1994              	.LVL192:
 1995 0010 581E     		subs	r0, r3, #1
 1996              	.LVL193:
 1997 0012 1044     		add	r0, r0, r2
 1998              		.loc 1 1219 0
 1999 0014 04EB4111 		add	r1, r4, r1, lsl #5
 2000              	.LVL194:
 2001              		.loc 1 1217 0
 2002 0018 B0FBF2F2 		udiv	r2, r0, r2
 2003              	.LVL195:
 2004              		.loc 1 1219 0
 2005 001c 43F0C043 		orr	r3, r3, #1610612736
 2006 0020 43EAC243 		orr	r3, r3, r2, lsl #19
 2007 0024 C1F8103B 		str	r3, [r1, #2832]
 2008              		.loc 1 1222 0
 2009 0028 5DF8044B 		ldr	r4, [sp], #4
 2010 002c 7047     		bx	lr
 2011              		.cfi_endproc
 2012              	.LFE148:
 2013              		.size	usb_lld_prepare_receive, .-usb_lld_prepare_receive
 2014 002e 00BF     		.section	.text.usb_lld_prepare_transmit,"ax",%progbits
 2015              		.align	2
 2016              		.p2align 4,,15
 2017              		.global	usb_lld_prepare_transmit
 2018              		.thumb
 2019              		.thumb_func
 2020              		.type	usb_lld_prepare_transmit, %function
 2021              	usb_lld_prepare_transmit:
 2022              	.LFB149:
 2023              		.loc 1 1232 0
 2024              		.cfi_startproc
 2025              		@ args = 0, pretend = 0, frame = 0
 2026              		@ frame_needed = 0, uses_anonymous_args = 0
 2027              		@ link register save eliminated.
 2028              	.LVL196:
 2029              		.loc 1 1233 0
 2030 0000 00EB8103 		add	r3, r0, r1, lsl #2
 2031              		.loc 1 1232 0
 2032 0004 30B4     		push	{r4, r5}
 2033              		.cfi_def_cfa_offset 8
 2034              		.cfi_offset 4, -8
 2035              		.cfi_offset 5, -4
ARM GAS  /tmp/cc0vqKIm.s 			page 37


 2036              		.loc 1 1233 0
 2037 0006 DC68     		ldr	r4, [r3, #12]
 2038 0008 6269     		ldr	r2, [r4, #20]
 2039              	.LVL197:
 2040              		.loc 1 1236 0
 2041 000a 5368     		ldr	r3, [r2, #4]
 2042 000c 1361     		str	r3, [r2, #16]
 2043              		.loc 1 1237 0
 2044 000e A3B1     		cbz	r3, .L219
 2045              	.LBB199:
 2046              		.loc 1 1242 0
 2047 0010 69B1     		cbz	r1, .L215
 2048              	.L218:
 2049 0012 5D1E     		subs	r5, r3, #1
 2050              	.L216:
 2051              		.loc 1 1246 0
 2052 0014 228A     		ldrh	r2, [r4, #16]
 2053              	.LVL198:
 2054              		.loc 1 1248 0
 2055 0016 006D     		ldr	r0, [r0, #80]
 2056              	.LVL199:
 2057              		.loc 1 1246 0
 2058 0018 AC18     		adds	r4, r5, r2
 2059              	.LVL200:
 2060 001a B4FBF2F2 		udiv	r2, r4, r2
 2061              	.LVL201:
 2062              		.loc 1 1248 0
 2063 001e 00EB4111 		add	r1, r0, r1, lsl #5
 2064              	.LVL202:
 2065 0022 43EAC243 		orr	r3, r3, r2, lsl #19
 2066 0026 C1F81039 		str	r3, [r1, #2320]
 2067              	.LBE199:
 2068              		.loc 1 1251 0
 2069 002a 30BC     		pop	{r4, r5}
 2070 002c 7047     		bx	lr
 2071              	.LVL203:
 2072              	.L215:
 2073              	.LBB200:
 2074              		.loc 1 1242 0 discriminator 1
 2075 002e 402B     		cmp	r3, #64
 2076 0030 EFD9     		bls	.L218
 2077              		.loc 1 1243 0
 2078 0032 4023     		movs	r3, #64
 2079 0034 5360     		str	r3, [r2, #4]
 2080 0036 3F25     		movs	r5, #63
 2081 0038 ECE7     		b	.L216
 2082              	.L219:
 2083              	.LBE200:
 2084              		.loc 1 1239 0
 2085 003a 036D     		ldr	r3, [r0, #80]
 2086 003c 03EB4111 		add	r1, r3, r1, lsl #5
 2087              	.LVL204:
 2088 0040 4FF40023 		mov	r3, #524288
 2089 0044 C1F81039 		str	r3, [r1, #2320]
 2090              		.loc 1 1251 0
 2091 0048 30BC     		pop	{r4, r5}
 2092 004a 7047     		bx	lr
ARM GAS  /tmp/cc0vqKIm.s 			page 38


 2093              		.cfi_endproc
 2094              	.LFE149:
 2095              		.size	usb_lld_prepare_transmit, .-usb_lld_prepare_transmit
 2096 004c AFF30080 		.section	.text.otg_epin_handler,"ax",%progbits
 2097              		.align	2
 2098              		.p2align 4,,15
 2099              		.thumb
 2100              		.thumb_func
 2101              		.type	otg_epin_handler, %function
 2102              	otg_epin_handler:
 2103              	.LFB133:
 2104              		.loc 1 550 0
 2105              		.cfi_startproc
 2106              		@ args = 0, pretend = 0, frame = 0
 2107              		@ frame_needed = 0, uses_anonymous_args = 0
 2108              	.LVL205:
 2109 0000 F8B5     		push	{r3, r4, r5, r6, r7, lr}
 2110              		.cfi_def_cfa_offset 24
 2111              		.cfi_offset 3, -24
 2112              		.cfi_offset 4, -20
 2113              		.cfi_offset 5, -16
 2114              		.cfi_offset 6, -12
 2115              		.cfi_offset 7, -8
 2116              		.cfi_offset 14, -4
 2117              		.loc 1 551 0
 2118 0002 066D     		ldr	r6, [r0, #80]
 2119              	.LVL206:
 2120              		.loc 1 552 0
 2121 0004 06EB4113 		add	r3, r6, r1, lsl #5
 2122              		.loc 1 550 0
 2123 0008 0446     		mov	r4, r0
 2124              		.loc 1 552 0
 2125 000a D3F80859 		ldr	r5, [r3, #2312]
 2126              	.LVL207:
 2127              		.loc 1 559 0
 2128 000e EA07     		lsls	r2, r5, #31
 2129              		.loc 1 550 0
 2130 0010 0F46     		mov	r7, r1
 2131              		.loc 1 554 0
 2132 0012 C3F80859 		str	r5, [r3, #2312]
 2133              		.loc 1 559 0
 2134 0016 03D5     		bpl	.L221
 2135              		.loc 1 559 0 is_stmt 0 discriminator 1
 2136 0018 D6F81038 		ldr	r3, [r6, #2064]
 2137 001c DB07     		lsls	r3, r3, #31
 2138 001e 20D4     		bmi	.L240
 2139              	.LVL208:
 2140              	.L221:
 2141              		.loc 1 579 0 is_stmt 1
 2142 0020 2D06     		lsls	r5, r5, #24
 2143              	.LVL209:
 2144 0022 1DD5     		bpl	.L220
 2145              		.loc 1 580 0 discriminator 1
 2146 0024 0122     		movs	r2, #1
 2147 0026 D6F83438 		ldr	r3, [r6, #2100]
 2148 002a BA40     		lsls	r2, r2, r7
 2149              		.loc 1 579 0 discriminator 1
ARM GAS  /tmp/cc0vqKIm.s 			page 39


 2150 002c 1A42     		tst	r2, r3
 2151 002e 17D0     		beq	.L220
 2152              	.LBB201:
 2153              		.loc 1 582 0
 2154 0030 2023     		movs	r3, #32
 2155              	@ 582 "../include/ChibiOS_2.6.5/os/hal/platforms/STM32/OTGv1/usb_lld.c" 1
 2156 0032 83F31188 		msr     BASEPRI, r3
 2157              	@ 0 "" 2
 2158              		.thumb
 2159              	.LBE201:
 2160              		.loc 1 583 0
 2161 0036 0121     		movs	r1, #1
 2162 0038 E36D     		ldr	r3, [r4, #92]
 2163              		.loc 1 584 0
 2164 003a D6F83428 		ldr	r2, [r6, #2100]
 2165              	.LBB202:
 2166              	.LBB203:
 2167              		.loc 1 124 0
 2168 003e 606E     		ldr	r0, [r4, #100]
 2169              	.LBE203:
 2170              	.LBE202:
 2171              		.loc 1 583 0
 2172 0040 01FA07F7 		lsl	r7, r1, r7
 2173 0044 3B43     		orrs	r3, r3, r7
 2174              		.loc 1 584 0
 2175 0046 22EA0707 		bic	r7, r2, r7
 2176              		.loc 1 583 0
 2177 004a E365     		str	r3, [r4, #92]
 2178              		.loc 1 584 0
 2179 004c C6F83478 		str	r7, [r6, #2100]
 2180              	.LVL210:
 2181              	.LBB205:
 2182              	.LBB204:
 2183              		.loc 1 124 0
 2184 0050 18B1     		cbz	r0, .L224
 2185              		.loc 1 125 0
 2186 0052 FFF7FEFF 		bl	chSchReadyI
 2187              	.LVL211:
 2188              		.loc 1 126 0
 2189 0056 0023     		movs	r3, #0
 2190 0058 6366     		str	r3, [r4, #100]
 2191              	.L224:
 2192              	.LBE204:
 2193              	.LBE205:
 2194              	.LBB206:
 2195              		.loc 1 586 0
 2196 005a 0023     		movs	r3, #0
 2197              	@ 586 "../include/ChibiOS_2.6.5/os/hal/platforms/STM32/OTGv1/usb_lld.c" 1
 2198 005c 83F31188 		msr     BASEPRI, r3
 2199              	@ 0 "" 2
 2200              	.LVL212:
 2201              		.thumb
 2202              	.L220:
 2203 0060 F8BD     		pop	{r3, r4, r5, r6, r7, pc}
 2204              	.LVL213:
 2205              	.L240:
 2206              	.LBE206:
ARM GAS  /tmp/cc0vqKIm.s 			page 40


 2207              	.LBB207:
 2208              		.loc 1 561 0
 2209 0062 00EB8103 		add	r3, r0, r1, lsl #2
 2210 0066 DA68     		ldr	r2, [r3, #12]
 2211 0068 5369     		ldr	r3, [r2, #20]
 2212              	.LVL214:
 2213              		.loc 1 563 0
 2214 006a D3F804E0 		ldr	lr, [r3, #4]
 2215 006e D3F810C0 		ldr	ip, [r3, #16]
 2216 0072 E645     		cmp	lr, ip
 2217 0074 1FD2     		bcs	.L222
 2218              		.loc 1 567 0
 2219 0076 CEEB0C0E 		rsb	lr, lr, ip
 2220              		.loc 1 568 0
 2221 007a 0022     		movs	r2, #0
 2222              		.loc 1 567 0
 2223 007c C3F804E0 		str	lr, [r3, #4]
 2224              		.loc 1 568 0
 2225 0080 9A60     		str	r2, [r3, #8]
 2226              		.loc 1 569 0
 2227 0082 FFF7FEFF 		bl	usb_lld_prepare_transmit
 2228              	.LVL215:
 2229              	.LBB208:
 2230              		.loc 1 570 0
 2231 0086 2023     		movs	r3, #32
 2232              	@ 570 "../include/ChibiOS_2.6.5/os/hal/platforms/STM32/OTGv1/usb_lld.c" 1
 2233 0088 83F31188 		msr     BASEPRI, r3
 2234              	@ 0 "" 2
 2235              	.LVL216:
 2236              		.thumb
 2237              	.LBE208:
 2238              	.LBB209:
 2239              	.LBB210:
 2240              		.loc 1 1276 0
 2241 008c 236D     		ldr	r3, [r4, #80]
 2242 008e 03EB4712 		add	r2, r3, r7, lsl #5
 2243              		.loc 1 1277 0
 2244 0092 0120     		movs	r0, #1
 2245              		.loc 1 1276 0
 2246 0094 D2F80019 		ldr	r1, [r2, #2304]
 2247 0098 41F00441 		orr	r1, r1, #-2080374784
 2248 009c C2F80019 		str	r1, [r2, #2304]
 2249              		.loc 1 1277 0
 2250 00a0 D3F83418 		ldr	r1, [r3, #2100]
 2251 00a4 00FA07F2 		lsl	r2, r0, r7
 2252 00a8 0A43     		orrs	r2, r2, r1
 2253 00aa C3F83428 		str	r2, [r3, #2100]
 2254              	.LBE210:
 2255              	.LBE209:
 2256              	.LBB211:
 2257              		.loc 1 572 0
 2258 00ae 0023     		movs	r3, #0
 2259              	@ 572 "../include/ChibiOS_2.6.5/os/hal/platforms/STM32/OTGv1/usb_lld.c" 1
 2260 00b0 83F31188 		msr     BASEPRI, r3
 2261              	@ 0 "" 2
 2262              		.thumb
 2263              	.LBE211:
ARM GAS  /tmp/cc0vqKIm.s 			page 41


 2264 00b4 B4E7     		b	.L221
 2265              	.LVL217:
 2266              	.L222:
 2267              		.loc 1 576 0
 2268 00b6 B0F808E0 		ldrh	lr, [r0, #8]
 2269 00ba 9368     		ldr	r3, [r2, #8]
 2270              	.LVL218:
 2271 00bc 4FF0010C 		mov	ip, #1
 2272 00c0 0CFA01F2 		lsl	r2, ip, r1
 2273              	.LVL219:
 2274 00c4 2EEA0202 		bic	r2, lr, r2
 2275 00c8 0281     		strh	r2, [r0, #8]	@ movhi
 2276 00ca 9847     		blx	r3
 2277              	.LVL220:
 2278 00cc A8E7     		b	.L221
 2279              	.LBE207:
 2280              		.cfi_endproc
 2281              	.LFE133:
 2282              		.size	otg_epin_handler, .-otg_epin_handler
 2283 00ce 00BF     		.section	.text.Vector14C,"ax",%progbits
 2284              		.align	2
 2285              		.p2align 4,,15
 2286              		.global	Vector14C
 2287              		.thumb
 2288              		.thumb_func
 2289              		.type	Vector14C, %function
 2290              	Vector14C:
 2291              	.LFB137:
 2292              		.loc 1 764 0
 2293              		.cfi_startproc
 2294              		@ args = 0, pretend = 0, frame = 0
 2295              		@ frame_needed = 0, uses_anonymous_args = 0
 2296              	.LVL221:
 2297 0000 70B5     		push	{r4, r5, r6, lr}
 2298              		.cfi_def_cfa_offset 16
 2299              		.cfi_offset 4, -16
 2300              		.cfi_offset 5, -12
 2301              		.cfi_offset 6, -8
 2302              		.cfi_offset 14, -4
 2303              	.LBB218:
 2304              	.LBB219:
 2305              		.loc 1 625 0
 2306 0002 40F20006 		movw	r6, #:lower16:.LANCHOR0
 2307 0006 C0F20006 		movt	r6, #:upper16:.LANCHOR0
 2308 000a 356D     		ldr	r5, [r6, #80]
 2309              	.LVL222:
 2310              		.loc 1 628 0
 2311 000c 6B69     		ldr	r3, [r5, #20]
 2312 000e AC69     		ldr	r4, [r5, #24]
 2313 0010 1C40     		ands	r4, r4, r3
 2314              	.LVL223:
 2315              		.loc 1 632 0
 2316 0012 E304     		lsls	r3, r4, #19
 2317              		.loc 1 629 0
 2318 0014 6C61     		str	r4, [r5, #20]
 2319              		.loc 1 632 0
 2320 0016 48D4     		bmi	.L303
ARM GAS  /tmp/cc0vqKIm.s 			page 42


 2321              	.L243:
 2322              		.loc 1 638 0
 2323 0018 A004     		lsls	r0, r4, #18
 2324              		.loc 1 639 0
 2325 001a 48BF     		it	mi
 2326 001c D5F80838 		ldrmi	r3, [r5, #2056]
 2327              		.loc 1 643 0
 2328 0020 2107     		lsls	r1, r4, #28
 2329 0022 07D5     		bpl	.L246
 2330              		.loc 1 644 0
 2331 0024 7368     		ldr	r3, [r6, #4]
 2332 0026 DB68     		ldr	r3, [r3, #12]
 2333 0028 23B1     		cbz	r3, .L246
 2334 002a 40F20000 		movw	r0, #:lower16:.LANCHOR0
 2335 002e C0F20000 		movt	r0, #:upper16:.LANCHOR0
 2336 0032 9847     		blx	r3
 2337              	.LVL224:
 2338              	.L246:
 2339              		.loc 1 648 0
 2340 0034 E206     		lsls	r2, r4, #27
 2341 0036 13D5     		bpl	.L247
 2342              	.LBB220:
 2343              		.loc 1 651 0
 2344 0038 2023     		movs	r3, #32
 2345              	@ 651 "../include/ChibiOS_2.6.5/os/hal/platforms/STM32/OTGv1/usb_lld.c" 1
 2346 003a 83F31188 		msr     BASEPRI, r3
 2347              	@ 0 "" 2
 2348              		.thumb
 2349              	.LBE220:
 2350              		.loc 1 652 0
 2351 003e AB69     		ldr	r3, [r5, #24]
 2352              	.LBB221:
 2353              	.LBB222:
 2354              		.loc 1 124 0
 2355 0040 706E     		ldr	r0, [r6, #100]
 2356              	.LBE222:
 2357              	.LBE221:
 2358              		.loc 1 652 0
 2359 0042 23F01003 		bic	r3, r3, #16
 2360              	.LBB225:
 2361              	.LBB223:
 2362              		.loc 1 124 0
 2363 0046 40F20006 		movw	r6, #:lower16:.LANCHOR0
 2364              	.LBE223:
 2365              	.LBE225:
 2366              		.loc 1 652 0
 2367 004a AB61     		str	r3, [r5, #24]
 2368              	.LVL225:
 2369              	.LBB226:
 2370              	.LBB224:
 2371              		.loc 1 124 0
 2372 004c C0F20006 		movt	r6, #:upper16:.LANCHOR0
 2373 0050 18B1     		cbz	r0, .L248
 2374              		.loc 1 125 0
 2375 0052 FFF7FEFF 		bl	chSchReadyI
 2376              	.LVL226:
 2377              		.loc 1 126 0
ARM GAS  /tmp/cc0vqKIm.s 			page 43


 2378 0056 0023     		movs	r3, #0
 2379 0058 7366     		str	r3, [r6, #100]
 2380              	.L248:
 2381              	.LBE224:
 2382              	.LBE226:
 2383              	.LBB227:
 2384              		.loc 1 654 0
 2385 005a 0023     		movs	r3, #0
 2386              	@ 654 "../include/ChibiOS_2.6.5/os/hal/platforms/STM32/OTGv1/usb_lld.c" 1
 2387 005c 83F31188 		msr     BASEPRI, r3
 2388              	@ 0 "" 2
 2389              		.thumb
 2390              	.L247:
 2391              	.LBE227:
 2392              		.loc 1 659 0
 2393 0060 6303     		lsls	r3, r4, #13
 2394              		.loc 1 658 0
 2395 0062 D5F81858 		ldr	r5, [r5, #2072]
 2396              	.LVL227:
 2397              		.loc 1 659 0
 2398 0066 07D5     		bpl	.L250
 2399              		.loc 1 660 0
 2400 0068 EE07     		lsls	r6, r5, #31
 2401 006a 46D4     		bmi	.L304
 2402              		.loc 1 662 0
 2403 006c A807     		lsls	r0, r5, #30
 2404 006e 4DD4     		bmi	.L305
 2405              	.L252:
 2406              		.loc 1 664 0
 2407 0070 6907     		lsls	r1, r5, #29
 2408 0072 54D4     		bmi	.L306
 2409              	.L253:
 2410              		.loc 1 666 0
 2411 0074 2A07     		lsls	r2, r5, #28
 2412 0076 5BD4     		bmi	.L307
 2413              	.L250:
 2414              		.loc 1 675 0
 2415 0078 2303     		lsls	r3, r4, #12
 2416 007a 07D5     		bpl	.L256
 2417              		.loc 1 676 0
 2418 007c EE03     		lsls	r6, r5, #15
 2419 007e 29D4     		bmi	.L308
 2420              		.loc 1 678 0
 2421 0080 AC03     		lsls	r4, r5, #14
 2422              	.LVL228:
 2423 0082 30D4     		bmi	.L309
 2424              	.L258:
 2425              		.loc 1 680 0
 2426 0084 6803     		lsls	r0, r5, #13
 2427 0086 1BD4     		bmi	.L310
 2428              	.L259:
 2429              		.loc 1 682 0
 2430 0088 2903     		lsls	r1, r5, #12
 2431 008a 03D4     		bmi	.L311
 2432              	.L256:
 2433              	.LBE219:
 2434              	.LBE218:
ARM GAS  /tmp/cc0vqKIm.s 			page 44


 2435              		.loc 1 771 0
 2436 008c BDE87040 		pop	{r4, r5, r6, lr}
 2437              	.LVL229:
 2438              		.loc 1 770 0
 2439 0090 FFF7FEBF 		b	_port_irq_epilogue
 2440              	.LVL230:
 2441              	.L311:
 2442              	.LBB230:
 2443              	.LBB228:
 2444              		.loc 1 683 0
 2445 0094 40F20000 		movw	r0, #:lower16:.LANCHOR0
 2446 0098 C0F20000 		movt	r0, #:upper16:.LANCHOR0
 2447 009c 0321     		movs	r1, #3
 2448 009e FFF7FEFF 		bl	otg_epout_handler
 2449              	.LVL231:
 2450              	.LBE228:
 2451              	.LBE230:
 2452              		.loc 1 771 0
 2453 00a2 BDE87040 		pop	{r4, r5, r6, lr}
 2454              	.LVL232:
 2455              		.loc 1 770 0
 2456 00a6 FFF7FEBF 		b	_port_irq_epilogue
 2457              	.LVL233:
 2458              	.L303:
 2459              	.LBB231:
 2460              	.LBB229:
 2461              		.loc 1 633 0
 2462 00aa 3046     		mov	r0, r6
 2463 00ac FFF7FEFF 		bl	_usb_reset
 2464              	.LVL234:
 2465              		.loc 1 634 0
 2466 00b0 7368     		ldr	r3, [r6, #4]
 2467 00b2 1B68     		ldr	r3, [r3]
 2468 00b4 002B     		cmp	r3, #0
 2469 00b6 AFD0     		beq	.L243
 2470 00b8 3046     		mov	r0, r6
 2471 00ba 0021     		movs	r1, #0
 2472 00bc 9847     		blx	r3
 2473              	.LVL235:
 2474 00be ABE7     		b	.L243
 2475              	.LVL236:
 2476              	.L310:
 2477              		.loc 1 681 0
 2478 00c0 40F20000 		movw	r0, #:lower16:.LANCHOR0
 2479 00c4 0221     		movs	r1, #2
 2480 00c6 C0F20000 		movt	r0, #:upper16:.LANCHOR0
 2481 00ca FFF7FEFF 		bl	otg_epout_handler
 2482              	.LVL237:
 2483              		.loc 1 682 0
 2484 00ce 2903     		lsls	r1, r5, #12
 2485 00d0 DCD5     		bpl	.L256
 2486 00d2 DFE7     		b	.L311
 2487              	.LVL238:
 2488              	.L308:
 2489              		.loc 1 677 0
 2490 00d4 40F20000 		movw	r0, #:lower16:.LANCHOR0
 2491 00d8 C0F20000 		movt	r0, #:upper16:.LANCHOR0
ARM GAS  /tmp/cc0vqKIm.s 			page 45


 2492 00dc 0021     		movs	r1, #0
 2493 00de FFF7FEFF 		bl	otg_epout_handler
 2494              	.LVL239:
 2495              		.loc 1 678 0
 2496 00e2 AC03     		lsls	r4, r5, #14
 2497              	.LVL240:
 2498 00e4 CED5     		bpl	.L258
 2499              	.L309:
 2500              		.loc 1 679 0
 2501 00e6 40F20000 		movw	r0, #:lower16:.LANCHOR0
 2502 00ea C0F20000 		movt	r0, #:upper16:.LANCHOR0
 2503 00ee 0121     		movs	r1, #1
 2504 00f0 FFF7FEFF 		bl	otg_epout_handler
 2505              	.LVL241:
 2506              		.loc 1 680 0
 2507 00f4 6803     		lsls	r0, r5, #13
 2508 00f6 C7D5     		bpl	.L259
 2509 00f8 E2E7     		b	.L310
 2510              	.LVL242:
 2511              	.L304:
 2512              		.loc 1 661 0
 2513 00fa 40F20000 		movw	r0, #:lower16:.LANCHOR0
 2514 00fe C0F20000 		movt	r0, #:upper16:.LANCHOR0
 2515 0102 0021     		movs	r1, #0
 2516 0104 FFF7FEFF 		bl	otg_epin_handler
 2517              	.LVL243:
 2518              		.loc 1 662 0
 2519 0108 A807     		lsls	r0, r5, #30
 2520 010a B1D5     		bpl	.L252
 2521              	.L305:
 2522              		.loc 1 663 0
 2523 010c 40F20000 		movw	r0, #:lower16:.LANCHOR0
 2524 0110 0121     		movs	r1, #1
 2525 0112 C0F20000 		movt	r0, #:upper16:.LANCHOR0
 2526 0116 FFF7FEFF 		bl	otg_epin_handler
 2527              	.LVL244:
 2528              		.loc 1 664 0
 2529 011a 6907     		lsls	r1, r5, #29
 2530 011c AAD5     		bpl	.L253
 2531              	.L306:
 2532              		.loc 1 665 0
 2533 011e 40F20000 		movw	r0, #:lower16:.LANCHOR0
 2534 0122 C0F20000 		movt	r0, #:upper16:.LANCHOR0
 2535 0126 0221     		movs	r1, #2
 2536 0128 FFF7FEFF 		bl	otg_epin_handler
 2537              	.LVL245:
 2538              		.loc 1 666 0
 2539 012c 2A07     		lsls	r2, r5, #28
 2540 012e A3D5     		bpl	.L250
 2541              	.L307:
 2542              		.loc 1 667 0
 2543 0130 40F20000 		movw	r0, #:lower16:.LANCHOR0
 2544 0134 C0F20000 		movt	r0, #:upper16:.LANCHOR0
 2545 0138 0321     		movs	r1, #3
 2546 013a FFF7FEFF 		bl	otg_epin_handler
 2547              	.LVL246:
 2548 013e 9BE7     		b	.L250
ARM GAS  /tmp/cc0vqKIm.s 			page 46


 2549              	.LBE229:
 2550              	.LBE231:
 2551              		.cfi_endproc
 2552              	.LFE137:
 2553              		.size	Vector14C, .-Vector14C
 2554              		.section	.text.usb_lld_start_out,"ax",%progbits
 2555              		.align	2
 2556              		.p2align 4,,15
 2557              		.global	usb_lld_start_out
 2558              		.thumb
 2559              		.thumb_func
 2560              		.type	usb_lld_start_out, %function
 2561              	usb_lld_start_out:
 2562              	.LFB150:
 2563              		.loc 1 1261 0
 2564              		.cfi_startproc
 2565              		@ args = 0, pretend = 0, frame = 0
 2566              		@ frame_needed = 0, uses_anonymous_args = 0
 2567              		@ link register save eliminated.
 2568              	.LVL247:
 2569 0000 036D     		ldr	r3, [r0, #80]
 2570 0002 03EB4111 		add	r1, r3, r1, lsl #5
 2571              	.LVL248:
 2572              		.loc 1 1263 0
 2573 0006 D1F8003B 		ldr	r3, [r1, #2816]
 2574 000a 43F08063 		orr	r3, r3, #67108864
 2575 000e C1F8003B 		str	r3, [r1, #2816]
 2576 0012 7047     		bx	lr
 2577              		.cfi_endproc
 2578              	.LFE150:
 2579              		.size	usb_lld_start_out, .-usb_lld_start_out
 2580 0014 AFF30080 		.section	.text.usb_lld_start_in,"ax",%progbits
 2580      AFF30080 
 2580      AFF30080 
 2581              		.align	2
 2582              		.p2align 4,,15
 2583              		.global	usb_lld_start_in
 2584              		.thumb
 2585              		.thumb_func
 2586              		.type	usb_lld_start_in, %function
 2587              	usb_lld_start_in:
 2588              	.LFB151:
 2589              		.loc 1 1274 0
 2590              		.cfi_startproc
 2591              		@ args = 0, pretend = 0, frame = 0
 2592              		@ frame_needed = 0, uses_anonymous_args = 0
 2593              		@ link register save eliminated.
 2594              	.LVL249:
 2595              		.loc 1 1276 0
 2596 0000 036D     		ldr	r3, [r0, #80]
 2597 0002 03EB4112 		add	r2, r3, r1, lsl #5
 2598              		.loc 1 1274 0
 2599 0006 10B4     		push	{r4}
 2600              		.cfi_def_cfa_offset 4
 2601              		.cfi_offset 4, -4
 2602              		.loc 1 1276 0
 2603 0008 D2F80049 		ldr	r4, [r2, #2304]
ARM GAS  /tmp/cc0vqKIm.s 			page 47


 2604 000c 44F00444 		orr	r4, r4, #-2080374784
 2605 0010 C2F80049 		str	r4, [r2, #2304]
 2606              		.loc 1 1277 0
 2607 0014 D3F83428 		ldr	r2, [r3, #2100]
 2608              		.loc 1 1278 0
 2609 0018 5DF8044B 		ldr	r4, [sp], #4
 2610              		.loc 1 1277 0
 2611 001c 0120     		movs	r0, #1
 2612              	.LVL250:
 2613 001e 00FA01F1 		lsl	r1, r0, r1
 2614              	.LVL251:
 2615 0022 1143     		orrs	r1, r1, r2
 2616 0024 C3F83418 		str	r1, [r3, #2100]
 2617              		.loc 1 1278 0
 2618 0028 7047     		bx	lr
 2619              		.cfi_endproc
 2620              	.LFE151:
 2621              		.size	usb_lld_start_in, .-usb_lld_start_in
 2622 002a 00BFAFF3 		.section	.text.usb_lld_stall_out,"ax",%progbits
 2622      0080
 2623              		.align	2
 2624              		.p2align 4,,15
 2625              		.global	usb_lld_stall_out
 2626              		.thumb
 2627              		.thumb_func
 2628              		.type	usb_lld_stall_out, %function
 2629              	usb_lld_stall_out:
 2630              	.LFB152:
 2631              		.loc 1 1288 0
 2632              		.cfi_startproc
 2633              		@ args = 0, pretend = 0, frame = 0
 2634              		@ frame_needed = 0, uses_anonymous_args = 0
 2635              		@ link register save eliminated.
 2636              	.LVL252:
 2637 0000 036D     		ldr	r3, [r0, #80]
 2638 0002 03EB4111 		add	r1, r3, r1, lsl #5
 2639              	.LVL253:
 2640              		.loc 1 1290 0
 2641 0006 D1F8003B 		ldr	r3, [r1, #2816]
 2642 000a 43F40013 		orr	r3, r3, #2097152
 2643 000e C1F8003B 		str	r3, [r1, #2816]
 2644 0012 7047     		bx	lr
 2645              		.cfi_endproc
 2646              	.LFE152:
 2647              		.size	usb_lld_stall_out, .-usb_lld_stall_out
 2648 0014 AFF30080 		.section	.text.usb_lld_stall_in,"ax",%progbits
 2648      AFF30080 
 2648      AFF30080 
 2649              		.align	2
 2650              		.p2align 4,,15
 2651              		.global	usb_lld_stall_in
 2652              		.thumb
 2653              		.thumb_func
 2654              		.type	usb_lld_stall_in, %function
 2655              	usb_lld_stall_in:
 2656              	.LFB153:
 2657              		.loc 1 1301 0
ARM GAS  /tmp/cc0vqKIm.s 			page 48


 2658              		.cfi_startproc
 2659              		@ args = 0, pretend = 0, frame = 0
 2660              		@ frame_needed = 0, uses_anonymous_args = 0
 2661              		@ link register save eliminated.
 2662              	.LVL254:
 2663 0000 036D     		ldr	r3, [r0, #80]
 2664 0002 03EB4111 		add	r1, r3, r1, lsl #5
 2665              	.LVL255:
 2666              		.loc 1 1303 0
 2667 0006 D1F80039 		ldr	r3, [r1, #2304]
 2668 000a 43F40013 		orr	r3, r3, #2097152
 2669 000e C1F80039 		str	r3, [r1, #2304]
 2670 0012 7047     		bx	lr
 2671              		.cfi_endproc
 2672              	.LFE153:
 2673              		.size	usb_lld_stall_in, .-usb_lld_stall_in
 2674 0014 AFF30080 		.section	.text.usb_lld_clear_out,"ax",%progbits
 2674      AFF30080 
 2674      AFF30080 
 2675              		.align	2
 2676              		.p2align 4,,15
 2677              		.global	usb_lld_clear_out
 2678              		.thumb
 2679              		.thumb_func
 2680              		.type	usb_lld_clear_out, %function
 2681              	usb_lld_clear_out:
 2682              	.LFB154:
 2683              		.loc 1 1314 0
 2684              		.cfi_startproc
 2685              		@ args = 0, pretend = 0, frame = 0
 2686              		@ frame_needed = 0, uses_anonymous_args = 0
 2687              		@ link register save eliminated.
 2688              	.LVL256:
 2689 0000 036D     		ldr	r3, [r0, #80]
 2690 0002 03EB4111 		add	r1, r3, r1, lsl #5
 2691              	.LVL257:
 2692              		.loc 1 1316 0
 2693 0006 D1F8003B 		ldr	r3, [r1, #2816]
 2694 000a 23F40013 		bic	r3, r3, #2097152
 2695 000e C1F8003B 		str	r3, [r1, #2816]
 2696 0012 7047     		bx	lr
 2697              		.cfi_endproc
 2698              	.LFE154:
 2699              		.size	usb_lld_clear_out, .-usb_lld_clear_out
 2700 0014 AFF30080 		.section	.text.usb_lld_clear_in,"ax",%progbits
 2700      AFF30080 
 2700      AFF30080 
 2701              		.align	2
 2702              		.p2align 4,,15
 2703              		.global	usb_lld_clear_in
 2704              		.thumb
 2705              		.thumb_func
 2706              		.type	usb_lld_clear_in, %function
 2707              	usb_lld_clear_in:
 2708              	.LFB155:
 2709              		.loc 1 1327 0
 2710              		.cfi_startproc
ARM GAS  /tmp/cc0vqKIm.s 			page 49


 2711              		@ args = 0, pretend = 0, frame = 0
 2712              		@ frame_needed = 0, uses_anonymous_args = 0
 2713              		@ link register save eliminated.
 2714              	.LVL258:
 2715 0000 036D     		ldr	r3, [r0, #80]
 2716 0002 03EB4111 		add	r1, r3, r1, lsl #5
 2717              	.LVL259:
 2718              		.loc 1 1329 0
 2719 0006 D1F80039 		ldr	r3, [r1, #2304]
 2720 000a 23F40013 		bic	r3, r3, #2097152
 2721 000e C1F80039 		str	r3, [r1, #2304]
 2722 0012 7047     		bx	lr
 2723              		.cfi_endproc
 2724              	.LFE155:
 2725              		.size	usb_lld_clear_in, .-usb_lld_clear_in
 2726              		.global	USBD1
 2727 0014 AFF30080 		.section	.rodata.fsparams,"a",%progbits
 2727      AFF30080 
 2727      AFF30080 
 2728              		.align	2
 2729              		.set	.LANCHOR1,. + 0
 2730              		.type	fsparams, %object
 2731              		.size	fsparams, 12
 2732              	fsparams:
 2733 0000 80000000 		.word	128
 2734 0004 40010000 		.word	320
 2735 0008 03000000 		.word	3
 2736              		.section	.bss.USBD1,"aw",%nobits
 2737              		.align	3
 2738              		.set	.LANCHOR0,. + 0
 2739              		.type	USBD1, %object
 2740              		.size	USBD1, 440
 2741              	USBD1:
 2742 0000 00000000 		.space	440
 2742      00000000 
 2742      00000000 
 2742      00000000 
 2742      00000000 
 2743              		.section	.rodata.str1.4,"aMS",%progbits,1
 2744              		.align	2
 2745              	.LC0:
 2746 0000 7573625F 		.ascii	"usb_lld_pump\000"
 2746      6C6C645F 
 2746      70756D70 
 2746      00
 2747 000d 000000   		.section	.rodata.ep0config,"a",%progbits
 2748              		.align	2
 2749              		.set	.LANCHOR2,. + 0
 2750              		.type	ep0config, %object
 2751              		.size	ep0config, 36
 2752              	ep0config:
 2753 0000 00000000 		.word	0
 2754 0004 00000000 		.word	_usb_ep0setup
 2755 0008 00000000 		.word	_usb_ep0in
 2756 000c 00000000 		.word	_usb_ep0out
 2757 0010 4000     		.short	64
 2758 0012 4000     		.short	64
ARM GAS  /tmp/cc0vqKIm.s 			page 50


 2759 0014 00000000 		.word	ep0_state
 2760 0018 00000000 		.word	ep0_state
 2761 001c 0100     		.short	1
 2762 001e 0000     		.space	2
 2763 0020 00000000 		.word	ep0setup_buffer
 2764              		.section	.bss.ep0_state,"aw",%nobits
 2765              		.align	2
 2766              		.type	ep0_state, %object
 2767              		.size	ep0_state, 20
 2768              	ep0_state:
 2769 0000 00000000 		.space	20
 2769      00000000 
 2769      00000000 
 2769      00000000 
 2769      00000000 
 2770              		.section	.bss.ep0setup_buffer,"aw",%nobits
 2771              		.align	2
 2772              		.type	ep0setup_buffer, %object
 2773              		.size	ep0setup_buffer, 8
 2774              	ep0setup_buffer:
 2775 0000 00000000 		.space	8
 2775      00000000 
 2776              		.text
 2777              	.Letext0:
 2778              		.file 3 "/usr/lib/gcc/arm-none-eabi/4.8.2/include/stddef.h"
 2779              		.file 4 "/usr/include/newlib/machine/_default_types.h"
 2780              		.file 5 "/usr/include/newlib/stdint.h"
 2781              		.file 6 "../include/ChibiOS_2.6.5/os/ports/GCC/ARMCMx/chtypes.h"
 2782              		.file 7 "../include/ChibiOS_2.6.5/os/kernel/include/chlists.h"
 2783              		.file 8 "../include/ChibiOS_2.6.5/os/kernel/include/chthreads.h"
 2784              		.file 9 "../include/ChibiOS_2.6.5/os/ports/GCC/ARMCMx/chcore_v7m.h"
 2785              		.file 10 "../include/ChibiOS_2.6.5/os/kernel/include/chschd.h"
 2786              		.file 11 "../include/ChibiOS_2.6.5/os/kernel/include/chmtx.h"
 2787              		.file 12 "../include/ChibiOS_2.6.5/os/kernel/include/chqueues.h"
 2788              		.file 13 "../include/ChibiOS_2.6.5/os/hal/platforms/STM32F4xx/stm32f4xx.h"
 2789              		.file 14 "../include/ChibiOS_2.6.5/os/hal/platforms/STM32F4xx/hal_lld.h"
 2790              		.file 15 "../include/ChibiOS_2.6.5/os/hal/include/usb.h"
 2791              		.file 16 "../include/ChibiOS_2.6.5/os/hal/platforms/STM32/OTGv1/usb_lld.h"
 2792              		.file 17 "../include/ChibiOS_2.6.5/os/hal/platforms/STM32/OTGv1/stm32_otg.h"
 2793              		.file 18 "../include/ChibiOS_2.6.5/os/ports/common/ARMCMx/CMSIS/include/core_cm4.h"
 2794              		.file 19 "../include/ChibiOS_2.6.5/os/hal/include/hal.h"
 2795              		.file 20 "../include/ChibiOS_2.6.5/os/ports/common/ARMCMx/nvic.h"