ARM GAS  /tmp/ccsJdt59.s 			page 1


   1              		.syntax unified
   2              		.cpu cortex-m4
   3              		.fpu softvfp
   4              		.eabi_attribute 20, 1
   5              		.eabi_attribute 21, 1
   6              		.eabi_attribute 23, 3
   7              		.eabi_attribute 24, 1
   8              		.eabi_attribute 25, 1
   9              		.eabi_attribute 26, 1
  10              		.eabi_attribute 30, 2
  11              		.eabi_attribute 34, 1
  12              		.eabi_attribute 18, 4
  13              		.thumb
  14              		.file	"adc_lld.c"
  15              		.text
  16              	.Ltext0:
  17              		.cfi_sections	.debug_frame
  18              		.section	.text.adc_lld_init,"ax",%progbits
  19              		.align	2
  20              		.p2align 4,,15
  21              		.global	adc_lld_init
  22              		.thumb
  23              		.thumb_func
  24              		.type	adc_lld_init, %function
  25              	adc_lld_init:
  26              	.LFB120:
  27              		.file 1 "../../os/hal/platforms/STM32F4xx/adc_lld.c"
  28              		.loc 1 171 0
  29              		.cfi_startproc
  30              		@ args = 0, pretend = 0, frame = 0
  31              		@ frame_needed = 0, uses_anonymous_args = 0
  32 0000 38B5     		push	{r3, r4, r5, lr}
  33              		.cfi_def_cfa_offset 16
  34              		.cfi_offset 3, -16
  35              		.cfi_offset 4, -12
  36              		.cfi_offset 5, -8
  37              		.cfi_offset 14, -4
  38              		.loc 1 175 0
  39 0002 40F20004 		movw	r4, #:lower16:.LANCHOR0
  40 0006 C0F20004 		movt	r4, #:upper16:.LANCHOR0
  41 000a 2046     		mov	r0, r4
  42 000c FFF7FEFF 		bl	adcObjectInit
  43              	.LVL0:
  44              		.loc 1 177 0
  45 0010 084D     		ldr	r5, .L2
  46              		.loc 1 176 0
  47 0012 4FF40052 		mov	r2, #8192
  48              		.loc 1 178 0
  49 0016 42F61643 		movw	r3, #11286
  50 001a C0F20203 		movt	r3, 2
  51              		.loc 1 176 0
  52 001e C4F20102 		movt	r2, 16385
  53 0022 A262     		str	r2, [r4, #40]
  54              		.loc 1 177 0
  55 0024 E562     		str	r5, [r4, #44]
  56              		.loc 1 178 0
  57 0026 2363     		str	r3, [r4, #48]
ARM GAS  /tmp/ccsJdt59.s 			page 2


  58              		.loc 1 214 0
  59 0028 1220     		movs	r0, #18
  60 002a 6021     		movs	r1, #96
  61              		.loc 1 215 0
  62 002c BDE83840 		pop	{r3, r4, r5, lr}
  63              		.loc 1 214 0
  64 0030 FFF7FEBF 		b	nvicEnableVector
  65              	.LVL1:
  66              	.L3:
  67              		.align	2
  68              	.L2:
  69 0034 90000000 		.word	_stm32_dma_streams+144
  70              		.cfi_endproc
  71              	.LFE120:
  72              		.size	adc_lld_init, .-adc_lld_init
  73 0038 AFF30080 		.section	.text.adc_lld_start,"ax",%progbits
  73      AFF30080 
  74              		.align	2
  75              		.p2align 4,,15
  76              		.global	adc_lld_start
  77              		.thumb
  78              		.thumb_func
  79              		.type	adc_lld_start, %function
  80              	adc_lld_start:
  81              	.LFB121:
  82              		.loc 1 224 0
  83              		.cfi_startproc
  84              		@ args = 0, pretend = 0, frame = 0
  85              		@ frame_needed = 0, uses_anonymous_args = 0
  86              	.LVL2:
  87              		.loc 1 227 0
  88 0000 0378     		ldrb	r3, [r0]	@ zero_extendqisi2
  89 0002 012B     		cmp	r3, #1
  90              		.loc 1 224 0
  91 0004 10B5     		push	{r4, lr}
  92              		.cfi_def_cfa_offset 8
  93              		.cfi_offset 4, -8
  94              		.cfi_offset 14, -4
  95              		.loc 1 224 0
  96 0006 0446     		mov	r4, r0
  97              		.loc 1 227 0
  98 0008 00D0     		beq	.L8
  99 000a 10BD     		pop	{r4, pc}
 100              	.L8:
 101              		.loc 1 229 0
 102 000c 40F20003 		movw	r3, #:lower16:.LANCHOR0
 103 0010 C0F20003 		movt	r3, #:upper16:.LANCHOR0
 104 0014 9842     		cmp	r0, r3
 105 0016 10D0     		beq	.L9
 106              	.LVL3:
 107              	.L6:
 108              		.loc 1 269 0
 109 0018 4FF40C52 		mov	r2, #8960
 110 001c C4F20102 		movt	r2, 16385
 111              		.loc 1 274 0
 112 0020 A36A     		ldr	r3, [r4, #40]
 113              		.loc 1 269 0
ARM GAS  /tmp/ccsJdt59.s 			page 3


 114 0022 5468     		ldr	r4, [r2, #4]
 115              	.LVL4:
 116 0024 04F44004 		and	r4, r4, #12582912
 117              		.loc 1 274 0
 118 0028 0021     		movs	r1, #0
 119              		.loc 1 269 0
 120 002a 44F48034 		orr	r4, r4, #65536
 121              		.loc 1 276 0
 122 002e 0120     		movs	r0, #1
 123              		.loc 1 269 0
 124 0030 5460     		str	r4, [r2, #4]
 125              		.loc 1 274 0
 126 0032 5960     		str	r1, [r3, #4]
 127              		.loc 1 275 0
 128 0034 9960     		str	r1, [r3, #8]
 129              		.loc 1 276 0
 130 0036 9860     		str	r0, [r3, #8]
 131 0038 10BD     		pop	{r4, pc}
 132              	.LVL5:
 133              	.L9:
 134              	.LBB2:
 135              		.loc 1 231 0
 136 003a 40F20002 		movw	r2, #:lower16:adc_lld_serve_rx_interrupt
 137 003e C0F20002 		movt	r2, #:upper16:adc_lld_serve_rx_interrupt
 138 0042 0621     		movs	r1, #6
 139 0044 2346     		mov	r3, r4
 140 0046 C06A     		ldr	r0, [r0, #44]
 141              	.LVL6:
 142 0048 FFF7FEFF 		bl	dmaStreamAllocate
 143              	.LVL7:
 144              		.loc 1 236 0
 145 004c E36A     		ldr	r3, [r4, #44]
 146 004e 42F24C02 		movw	r2, #8268
 147 0052 1968     		ldr	r1, [r3]
 148              		.loc 1 237 0
 149 0054 4FF46053 		mov	r3, #14336
 150              		.loc 1 236 0
 151 0058 C4F20102 		movt	r2, 16385
 152              		.loc 1 237 0
 153 005c C4F20203 		movt	r3, 16386
 154              		.loc 1 236 0
 155 0060 8A60     		str	r2, [r1, #8]
 156              		.loc 1 237 0
 157 0062 5A6C     		ldr	r2, [r3, #68]
 158 0064 42F48072 		orr	r2, r2, #256
 159 0068 5A64     		str	r2, [r3, #68]
 160 006a D5E7     		b	.L6
 161              	.LBE2:
 162              		.cfi_endproc
 163              	.LFE121:
 164              		.size	adc_lld_start, .-adc_lld_start
 165 006c AFF30080 		.section	.text.adc_lld_stop,"ax",%progbits
 166              		.align	2
 167              		.p2align 4,,15
 168              		.global	adc_lld_stop
 169              		.thumb
 170              		.thumb_func
ARM GAS  /tmp/ccsJdt59.s 			page 4


 171              		.type	adc_lld_stop, %function
 172              	adc_lld_stop:
 173              	.LFB122:
 174              		.loc 1 287 0
 175              		.cfi_startproc
 176              		@ args = 0, pretend = 0, frame = 0
 177              		@ frame_needed = 0, uses_anonymous_args = 0
 178              	.LVL8:
 179              		.loc 1 290 0
 180 0000 0378     		ldrb	r3, [r0]	@ zero_extendqisi2
 181 0002 022B     		cmp	r3, #2
 182              		.loc 1 287 0
 183 0004 10B5     		push	{r4, lr}
 184              		.cfi_def_cfa_offset 8
 185              		.cfi_offset 4, -8
 186              		.cfi_offset 14, -4
 187              		.loc 1 287 0
 188 0006 0446     		mov	r4, r0
 189              		.loc 1 290 0
 190 0008 00D0     		beq	.L14
 191 000a 10BD     		pop	{r4, pc}
 192              	.L14:
 193              		.loc 1 291 0
 194 000c C06A     		ldr	r0, [r0, #44]
 195              	.LVL9:
 196 000e FFF7FEFF 		bl	dmaStreamRelease
 197              	.LVL10:
 198              		.loc 1 296 0
 199 0012 40F20003 		movw	r3, #:lower16:.LANCHOR0
 200 0016 C0F20003 		movt	r3, #:upper16:.LANCHOR0
 201 001a 9C42     		cmp	r4, r3
 202              		.loc 1 292 0
 203 001c A26A     		ldr	r2, [r4, #40]
 204              		.loc 1 297 0
 205 001e 08BF     		it	eq
 206 0020 4FF46053 		moveq	r3, #14336
 207              		.loc 1 292 0
 208 0024 4FF00001 		mov	r1, #0
 209              		.loc 1 297 0
 210 0028 08BF     		it	eq
 211 002a C4F20203 		movteq	r3, 16386
 212              		.loc 1 292 0
 213 002e 5160     		str	r1, [r2, #4]
 214              		.loc 1 293 0
 215 0030 9160     		str	r1, [r2, #8]
 216              		.loc 1 297 0
 217 0032 02BF     		ittt	eq
 218 0034 5A6C     		ldreq	r2, [r3, #68]
 219 0036 22F48072 		biceq	r2, r2, #256
 220 003a 5A64     		streq	r2, [r3, #68]
 221 003c 10BD     		pop	{r4, pc}
 222              		.cfi_endproc
 223              	.LFE122:
 224              		.size	adc_lld_stop, .-adc_lld_stop
 225 003e 00BF     		.section	.text.adc_lld_start_conversion,"ax",%progbits
 226              		.align	2
 227              		.p2align 4,,15
ARM GAS  /tmp/ccsJdt59.s 			page 5


 228              		.global	adc_lld_start_conversion
 229              		.thumb
 230              		.thumb_func
 231              		.type	adc_lld_start_conversion, %function
 232              	adc_lld_start_conversion:
 233              	.LFB123:
 234              		.loc 1 319 0
 235              		.cfi_startproc
 236              		@ args = 0, pretend = 0, frame = 0
 237              		@ frame_needed = 0, uses_anonymous_args = 0
 238              		@ link register save eliminated.
 239              	.LVL11:
 240              		.loc 1 321 0
 241 0000 0369     		ldr	r3, [r0, #16]
 242              	.LVL12:
 243              		.loc 1 324 0
 244 0002 026B     		ldr	r2, [r0, #48]
 245              	.LVL13:
 246              		.loc 1 325 0
 247 0004 1978     		ldrb	r1, [r3]	@ zero_extendqisi2
 248              		.loc 1 319 0
 249 0006 2DE9F003 		push	{r4, r5, r6, r7, r8, r9}
 250              		.cfi_def_cfa_offset 24
 251              		.cfi_offset 4, -24
 252              		.cfi_offset 5, -20
 253              		.cfi_offset 6, -16
 254              		.cfi_offset 7, -12
 255              		.cfi_offset 8, -8
 256              		.cfi_offset 9, -4
 257              		.loc 1 327 0
 258 000a C568     		ldr	r5, [r0, #12]
 259              		.loc 1 325 0
 260 000c 29B1     		cbz	r1, .L17
 261              	.LVL14:
 262              		.loc 1 327 0
 263 000e 012D     		cmp	r5, #1
 264              		.loc 1 326 0
 265 0010 94BF     		ite	ls
 266 0012 42F48072 		orrls	r2, r2, #256
 267              	.LVL15:
 268              		.loc 1 330 0
 269 0016 42F48472 		orrhi	r2, r2, #264
 270              	.LVL16:
 271              	.L17:
 272              		.loc 1 333 0
 273 001a C16A     		ldr	r1, [r0, #44]
 274              		.loc 1 334 0
 275 001c 5E88     		ldrh	r6, [r3, #2]
 276              		.loc 1 333 0
 277 001e 8468     		ldr	r4, [r0, #8]
 278 0020 0968     		ldr	r1, [r1]
 279              		.loc 1 349 0
 280 0022 D3F80C80 		ldr	r8, [r3, #12]
 281              		.loc 1 333 0
 282 0026 CC60     		str	r4, [r1, #12]
 283              		.loc 1 334 0
 284 0028 06FB05F4 		mul	r4, r6, r5
ARM GAS  /tmp/ccsJdt59.s 			page 6


 285 002c 4C60     		str	r4, [r1, #4]
 286              		.loc 1 342 0
 287 002e 9F69     		ldr	r7, [r3, #24]
 288              		.loc 1 336 0
 289 0030 0A60     		str	r2, [r1]
 290              		.loc 1 343 0
 291 0032 DE69     		ldr	r6, [r3, #28]
 292              		.loc 1 344 0
 293 0034 1D6A     		ldr	r5, [r3, #32]
 294              		.loc 1 345 0
 295 0036 5C6A     		ldr	r4, [r3, #36]
 296              		.loc 1 341 0
 297 0038 D3F814C0 		ldr	ip, [r3, #20]
 298              		.loc 1 350 0
 299 003c 1B69     		ldr	r3, [r3, #16]
 300              	.LVL17:
 301              		.loc 1 337 0
 302 003e D1F80090 		ldr	r9, [r1]
 303              		.loc 1 340 0
 304 0042 826A     		ldr	r2, [r0, #40]
 305              	.LVL18:
 306              		.loc 1 350 0
 307 0044 13F0804F 		tst	r3, #1073741824
 308              		.loc 1 349 0
 309 0048 48F08060 		orr	r0, r8, #67108864
 310              	.LVL19:
 311              		.loc 1 352 0
 312 004c 43F44073 		orr	r3, r3, #768
 313              		.loc 1 337 0
 314 0050 49F00109 		orr	r9, r9, #1
 315              		.loc 1 340 0
 316 0054 4FF00008 		mov	r8, #0
 317              		.loc 1 349 0
 318 0058 40F48070 		orr	r0, r0, #256
 319              		.loc 1 352 0
 320 005c 14BF     		ite	ne
 321 005e 43F00303 		orrne	r3, r3, #3
 322              		.loc 1 355 0
 323 0062 43F00103 		orreq	r3, r3, #1
 324              		.loc 1 337 0
 325 0066 C1F80090 		str	r9, [r1]
 326              	.LVL20:
 327              		.loc 1 340 0
 328 006a C2F80080 		str	r8, [r2]
 329              		.loc 1 341 0
 330 006e C2F80CC0 		str	ip, [r2, #12]
 331              		.loc 1 342 0
 332 0072 1761     		str	r7, [r2, #16]
 333              		.loc 1 343 0
 334 0074 D662     		str	r6, [r2, #44]
 335              		.loc 1 344 0
 336 0076 1563     		str	r5, [r2, #48]
 337              		.loc 1 345 0
 338 0078 5463     		str	r4, [r2, #52]
 339              		.loc 1 349 0
 340 007a 5060     		str	r0, [r2, #4]
 341              		.loc 1 356 0
ARM GAS  /tmp/ccsJdt59.s 			page 7


 342 007c BDE8F003 		pop	{r4, r5, r6, r7, r8, r9}
 343              		.loc 1 354 0
 344 0080 9360     		str	r3, [r2, #8]
 345              		.loc 1 356 0
 346 0082 7047     		bx	lr
 347              		.cfi_endproc
 348              	.LFE123:
 349              		.size	adc_lld_start_conversion, .-adc_lld_start_conversion
 350 0084 AFF30080 		.section	.text.adc_lld_stop_conversion,"ax",%progbits
 350      AFF30080 
 350      AFF30080 
 351              		.align	2
 352              		.p2align 4,,15
 353              		.global	adc_lld_stop_conversion
 354              		.thumb
 355              		.thumb_func
 356              		.type	adc_lld_stop_conversion, %function
 357              	adc_lld_stop_conversion:
 358              	.LFB124:
 359              		.loc 1 365 0
 360              		.cfi_startproc
 361              		@ args = 0, pretend = 0, frame = 0
 362              		@ frame_needed = 0, uses_anonymous_args = 0
 363              		@ link register save eliminated.
 364              	.LVL21:
 365              		.loc 1 367 0
 366 0000 C16A     		ldr	r1, [r0, #44]
 367 0002 0A68     		ldr	r2, [r1]
 368 0004 1368     		ldr	r3, [r2]
 369 0006 23F01F03 		bic	r3, r3, #31
 370              		.loc 1 365 0
 371 000a 10B4     		push	{r4}
 372              		.cfi_def_cfa_offset 4
 373              		.cfi_offset 4, -4
 374              		.loc 1 367 0
 375 000c 1360     		str	r3, [r2]
 376              	.L23:
 377              		.loc 1 367 0 is_stmt 0 discriminator 1
 378 000e 1368     		ldr	r3, [r2]
 379 0010 13F00103 		ands	r3, r3, #1
 380 0014 FBD1     		bne	.L23
 381              		.loc 1 367 0 discriminator 2
 382 0016 0C7A     		ldrb	r4, [r1, #8]	@ zero_extendqisi2
 383              		.loc 1 368 0 is_stmt 1 discriminator 2
 384 0018 826A     		ldr	r2, [r0, #40]
 385              		.loc 1 367 0 discriminator 2
 386 001a 4868     		ldr	r0, [r1, #4]
 387              	.LVL22:
 388 001c 3D21     		movs	r1, #61
 389 001e 01FA04F4 		lsl	r4, r1, r4
 390              		.loc 1 370 0 discriminator 2
 391 0022 0121     		movs	r1, #1
 392              		.loc 1 367 0 discriminator 2
 393 0024 0460     		str	r4, [r0]
 394              		.loc 1 368 0 discriminator 2
 395 0026 5360     		str	r3, [r2, #4]
 396              		.loc 1 371 0 discriminator 2
ARM GAS  /tmp/ccsJdt59.s 			page 8


 397 0028 5DF8044B 		ldr	r4, [sp], #4
 398              		.loc 1 369 0 discriminator 2
 399 002c 9360     		str	r3, [r2, #8]
 400              		.loc 1 370 0 discriminator 2
 401 002e 9160     		str	r1, [r2, #8]
 402              		.loc 1 371 0 discriminator 2
 403 0030 7047     		bx	lr
 404              		.cfi_endproc
 405              	.LFE124:
 406              		.size	adc_lld_stop_conversion, .-adc_lld_stop_conversion
 407 0032 00BFAFF3 		.section	.text.Vector88,"ax",%progbits
 407      0080AFF3 
 407      0080AFF3 
 407      0080
 408              		.align	2
 409              		.p2align 4,,15
 410              		.global	Vector88
 411              		.thumb
 412              		.thumb_func
 413              		.type	Vector88, %function
 414              	Vector88:
 415              	.LFB119:
 416              		.loc 1 111 0
 417              		.cfi_startproc
 418              		@ args = 0, pretend = 0, frame = 0
 419              		@ frame_needed = 0, uses_anonymous_args = 0
 420              		.loc 1 117 0
 421 0000 4FF40053 		mov	r3, #8192
 422 0004 C4F20103 		movt	r3, 16385
 423              		.loc 1 118 0
 424 0008 0021     		movs	r1, #0
 425              		.loc 1 117 0
 426 000a 1A68     		ldr	r2, [r3]
 427              	.LVL23:
 428              		.loc 1 111 0
 429 000c 10B5     		push	{r4, lr}
 430              		.cfi_def_cfa_offset 8
 431              		.cfi_offset 4, -8
 432              		.cfi_offset 14, -4
 433              		.loc 1 118 0
 434 000e 1960     		str	r1, [r3]
 435              		.loc 1 121 0
 436 0010 9306     		lsls	r3, r2, #26
 437 0012 2ED5     		bpl	.L25
 438              		.loc 1 121 0 is_stmt 0 discriminator 1
 439 0014 40F20004 		movw	r4, #:lower16:.LANCHOR0
 440 0018 C0F20004 		movt	r4, #:upper16:.LANCHOR0
 441 001c E36A     		ldr	r3, [r4, #44]
 442 001e 1B68     		ldr	r3, [r3]
 443 0020 5B68     		ldr	r3, [r3, #4]
 444 0022 33B3     		cbz	r3, .L25
 445              		.loc 1 124 0 is_stmt 1
 446 0024 2369     		ldr	r3, [r4, #16]
 447 0026 23B3     		cbz	r3, .L25
 448              		.loc 1 125 0
 449 0028 2046     		mov	r0, r4
 450 002a FFF7FEFF 		bl	adc_lld_stop_conversion
ARM GAS  /tmp/ccsJdt59.s 			page 9


 451              	.LVL24:
 452 002e 2369     		ldr	r3, [r4, #16]
 453 0030 9B68     		ldr	r3, [r3, #8]
 454 0032 4BB1     		cbz	r3, .L27
 455              		.loc 1 125 0 is_stmt 0 discriminator 1
 456 0034 0522     		movs	r2, #5
 457 0036 2270     		strb	r2, [r4]
 458 0038 2046     		mov	r0, r4
 459 003a 0121     		movs	r1, #1
 460 003c 9847     		blx	r3
 461              	.LVL25:
 462 003e 2378     		ldrb	r3, [r4]	@ zero_extendqisi2
 463 0040 052B     		cmp	r3, #5
 464 0042 04BF     		itt	eq
 465 0044 0223     		moveq	r3, #2
 466 0046 2370     		strbeq	r3, [r4]
 467              	.L27:
 468              		.loc 1 125 0 discriminator 2
 469 0048 0023     		movs	r3, #0
 470 004a 2361     		str	r3, [r4, #16]
 471              	.LBB3:
 472 004c 2023     		movs	r3, #32
 473              	@ 125 "../../os/hal/platforms/STM32F4xx/adc_lld.c" 1
 474 004e 83F31188 		msr     BASEPRI, r3
 475              	@ 0 "" 2
 476              		.thumb
 477              	.LBE3:
 478 0052 40F20003 		movw	r3, #:lower16:.LANCHOR0
 479 0056 C0F20003 		movt	r3, #:upper16:.LANCHOR0
 480 005a 5869     		ldr	r0, [r3, #20]
 481 005c 30B1     		cbz	r0, .L29
 482              	.LVL26:
 483              	.LBB4:
 484              		.loc 1 125 0 discriminator 1
 485 005e 4FF0FF32 		mov	r2, #-1
 486 0062 4262     		str	r2, [r0, #36]
 487 0064 0022     		movs	r2, #0
 488 0066 5A61     		str	r2, [r3, #20]
 489 0068 FFF7FEFF 		bl	chSchReadyI
 490              	.LVL27:
 491              	.L29:
 492              	.LBE4:
 493              	.LBB5:
 494              		.loc 1 125 0 discriminator 2
 495 006c 0023     		movs	r3, #0
 496              	@ 125 "../../os/hal/platforms/STM32F4xx/adc_lld.c" 1
 497 006e 83F31188 		msr     BASEPRI, r3
 498              	@ 0 "" 2
 499              		.thumb
 500              	.L25:
 501              	.LBE5:
 502              		.loc 1 159 0 is_stmt 1
 503 0072 BDE81040 		pop	{r4, lr}
 504              		.loc 1 158 0
 505 0076 FFF7FEBF 		b	_port_irq_epilogue
 506              	.LVL28:
 507              		.cfi_endproc
ARM GAS  /tmp/ccsJdt59.s 			page 10


 508              	.LFE119:
 509              		.size	Vector88, .-Vector88
 510 007a 00BFAFF3 		.section	.text.adc_lld_serve_rx_interrupt,"ax",%progbits
 510      0080
 511              		.align	2
 512              		.p2align 4,,15
 513              		.thumb
 514              		.thumb_func
 515              		.type	adc_lld_serve_rx_interrupt, %function
 516              	adc_lld_serve_rx_interrupt:
 517              	.LFB118:
 518              		.loc 1 76 0
 519              		.cfi_startproc
 520              		@ args = 0, pretend = 0, frame = 0
 521              		@ frame_needed = 0, uses_anonymous_args = 0
 522              	.LVL29:
 523              		.loc 1 79 0
 524 0000 11F00C0F 		tst	r1, #12
 525              		.loc 1 76 0
 526 0004 38B5     		push	{r3, r4, r5, lr}
 527              		.cfi_def_cfa_offset 16
 528              		.cfi_offset 3, -16
 529              		.cfi_offset 4, -12
 530              		.cfi_offset 5, -8
 531              		.cfi_offset 14, -4
 532              		.loc 1 76 0
 533 0006 0446     		mov	r4, r0
 534              		.loc 1 79 0
 535 0008 1ED1     		bne	.L73
 536              		.loc 1 87 0
 537 000a 0369     		ldr	r3, [r0, #16]
 538 000c DBB1     		cbz	r3, .L42
 539              		.loc 1 88 0
 540 000e 8D06     		lsls	r5, r1, #26
 541 0010 11D5     		bpl	.L49
 542              		.loc 1 90 0
 543 0012 1D78     		ldrb	r5, [r3]	@ zero_extendqisi2
 544 0014 002D     		cmp	r5, #0
 545 0016 39D0     		beq	.L50
 546              		.loc 1 90 0 is_stmt 0 discriminator 1
 547 0018 5D68     		ldr	r5, [r3, #4]
 548 001a A5B1     		cbz	r5, .L42
 549 001c C268     		ldr	r2, [r0, #12]
 550 001e 012A     		cmp	r2, #1
 551              	.LBB6:
 552 0020 85BF     		ittet	hi
 553 0022 5988     		ldrhhi	r1, [r3, #2]
 554              	.LVL30:
 555 0024 8368     		ldrhi	r3, [r0, #8]
 556              	.LBE6:
 557 0026 8168     		ldrls	r1, [r0, #8]
 558              	.LBB7:
 559 0028 5208     		lsrhi	r2, r2, #1
 560              	.LVL31:
 561 002a 84BF     		itt	hi
 562 002c 5143     		mulhi	r1, r1, r2
 563 002e 03EB4101 		addhi	r1, r3, r1, lsl #1
ARM GAS  /tmp/ccsJdt59.s 			page 11


 564              	.LBE7:
 565 0032 A847     		blx	r5
 566              	.LVL32:
 567 0034 38BD     		pop	{r3, r4, r5, pc}
 568              	.LVL33:
 569              	.L49:
 570              		.loc 1 92 0 is_stmt 1
 571 0036 CA06     		lsls	r2, r1, #27
 572 0038 05D5     		bpl	.L42
 573              		.loc 1 94 0
 574 003a 5B68     		ldr	r3, [r3, #4]
 575 003c 1BB1     		cbz	r3, .L42
 576              		.loc 1 94 0 is_stmt 0 discriminator 1
 577 003e C268     		ldr	r2, [r0, #12]
 578 0040 8168     		ldr	r1, [r0, #8]
 579              	.LVL34:
 580 0042 5208     		lsrs	r2, r2, #1
 581 0044 9847     		blx	r3
 582              	.LVL35:
 583              	.L42:
 584 0046 38BD     		pop	{r3, r4, r5, pc}
 585              	.LVL36:
 586              	.L73:
 587              		.loc 1 82 0 is_stmt 1
 588 0048 FFF7FEFF 		bl	adc_lld_stop_conversion
 589              	.LVL37:
 590 004c 2369     		ldr	r3, [r4, #16]
 591 004e 9B68     		ldr	r3, [r3, #8]
 592 0050 4BB1     		cbz	r3, .L45
 593              		.loc 1 82 0 is_stmt 0 discriminator 1
 594 0052 0522     		movs	r2, #5
 595 0054 2270     		strb	r2, [r4]
 596 0056 2046     		mov	r0, r4
 597 0058 0021     		movs	r1, #0
 598 005a 9847     		blx	r3
 599              	.LVL38:
 600 005c 2378     		ldrb	r3, [r4]	@ zero_extendqisi2
 601 005e 052B     		cmp	r3, #5
 602 0060 04BF     		itt	eq
 603 0062 0223     		moveq	r3, #2
 604 0064 2370     		strbeq	r3, [r4]
 605              	.L45:
 606              		.loc 1 82 0 discriminator 2
 607 0066 0023     		movs	r3, #0
 608 0068 2361     		str	r3, [r4, #16]
 609              	.LBB8:
 610 006a 2023     		movs	r3, #32
 611              	@ 82 "../../os/hal/platforms/STM32F4xx/adc_lld.c" 1
 612 006c 83F31188 		msr     BASEPRI, r3
 613              	@ 0 "" 2
 614              		.thumb
 615              	.LBE8:
 616 0070 6369     		ldr	r3, [r4, #20]
 617 0072 3BB1     		cbz	r3, .L54
 618              	.LVL39:
 619              	.LBB9:
 620              		.loc 1 82 0 discriminator 1
ARM GAS  /tmp/ccsJdt59.s 			page 12


 621 0074 0021     		movs	r1, #0
 622 0076 4FF0FF32 		mov	r2, #-1
 623 007a 6161     		str	r1, [r4, #20]
 624 007c 1846     		mov	r0, r3
 625 007e 5A62     		str	r2, [r3, #36]
 626 0080 FFF7FEFF 		bl	chSchReadyI
 627              	.LVL40:
 628              	.L54:
 629              	.LBE9:
 630              	.LBB10:
 631              		.loc 1 90 0 is_stmt 1 discriminator 2
 632 0084 0023     		movs	r3, #0
 633              	@ 90 "../../os/hal/platforms/STM32F4xx/adc_lld.c" 1
 634 0086 83F31188 		msr     BASEPRI, r3
 635              	@ 0 "" 2
 636              		.thumb
 637 008a 38BD     		pop	{r3, r4, r5, pc}
 638              	.LVL41:
 639              	.L50:
 640              	.LBE10:
 641 008c FFF7FEFF 		bl	adc_lld_stop_conversion
 642              	.LVL42:
 643 0090 2369     		ldr	r3, [r4, #16]
 644 0092 5B68     		ldr	r3, [r3, #4]
 645 0094 C3B1     		cbz	r3, .L52
 646              		.loc 1 90 0 is_stmt 0 discriminator 1
 647 0096 0422     		movs	r2, #4
 648 0098 2270     		strb	r2, [r4]
 649 009a 2046     		mov	r0, r4
 650 009c A168     		ldr	r1, [r4, #8]
 651 009e E268     		ldr	r2, [r4, #12]
 652 00a0 9847     		blx	r3
 653              	.LVL43:
 654 00a2 2378     		ldrb	r3, [r4]	@ zero_extendqisi2
 655 00a4 042B     		cmp	r3, #4
 656 00a6 02BF     		ittt	eq
 657 00a8 0223     		moveq	r3, #2
 658 00aa 2561     		streq	r5, [r4, #16]
 659 00ac 2370     		strbeq	r3, [r4]
 660              	.L53:
 661              	.LBB11:
 662 00ae 2023     		movs	r3, #32
 663              	@ 90 "../../os/hal/platforms/STM32F4xx/adc_lld.c" 1
 664 00b0 83F31188 		msr     BASEPRI, r3
 665              	@ 0 "" 2
 666              		.thumb
 667              	.LBE11:
 668 00b4 6369     		ldr	r3, [r4, #20]
 669 00b6 002B     		cmp	r3, #0
 670 00b8 E4D0     		beq	.L54
 671              	.LVL44:
 672              	.LBB12:
 673 00ba 0022     		movs	r2, #0
 674 00bc 6261     		str	r2, [r4, #20]
 675 00be 1846     		mov	r0, r3
 676 00c0 5A62     		str	r2, [r3, #36]
 677 00c2 FFF7FEFF 		bl	chSchReadyI
ARM GAS  /tmp/ccsJdt59.s 			page 13


 678              	.LVL45:
 679 00c6 DDE7     		b	.L54
 680              	.L52:
 681              	.LBE12:
 682              		.loc 1 90 0 discriminator 2
 683 00c8 0222     		movs	r2, #2
 684 00ca 2361     		str	r3, [r4, #16]
 685 00cc 2270     		strb	r2, [r4]
 686 00ce EEE7     		b	.L53
 687              		.cfi_endproc
 688              	.LFE118:
 689              		.size	adc_lld_serve_rx_interrupt, .-adc_lld_serve_rx_interrupt
 690              		.section	.text.adcSTM32EnableTSVREFE,"ax",%progbits
 691              		.align	2
 692              		.p2align 4,,15
 693              		.global	adcSTM32EnableTSVREFE
 694              		.thumb
 695              		.thumb_func
 696              		.type	adcSTM32EnableTSVREFE, %function
 697              	adcSTM32EnableTSVREFE:
 698              	.LFB125:
 699              		.loc 1 379 0 is_stmt 1
 700              		.cfi_startproc
 701              		@ args = 0, pretend = 0, frame = 0
 702              		@ frame_needed = 0, uses_anonymous_args = 0
 703              		@ link register save eliminated.
 704              		.loc 1 381 0
 705 0000 4FF40C53 		mov	r3, #8960
 706 0004 C4F20103 		movt	r3, 16385
 707 0008 5A68     		ldr	r2, [r3, #4]
 708 000a 42F40002 		orr	r2, r2, #8388608
 709 000e 5A60     		str	r2, [r3, #4]
 710 0010 7047     		bx	lr
 711              		.cfi_endproc
 712              	.LFE125:
 713              		.size	adcSTM32EnableTSVREFE, .-adcSTM32EnableTSVREFE
 714 0012 00BFAFF3 		.section	.text.adcSTM32DisableTSVREFE,"ax",%progbits
 714      0080AFF3 
 714      0080AFF3 
 714      0080
 715              		.align	2
 716              		.p2align 4,,15
 717              		.global	adcSTM32DisableTSVREFE
 718              		.thumb
 719              		.thumb_func
 720              		.type	adcSTM32DisableTSVREFE, %function
 721              	adcSTM32DisableTSVREFE:
 722              	.LFB126:
 723              		.loc 1 390 0
 724              		.cfi_startproc
 725              		@ args = 0, pretend = 0, frame = 0
 726              		@ frame_needed = 0, uses_anonymous_args = 0
 727              		@ link register save eliminated.
 728              		.loc 1 392 0
 729 0000 4FF40C53 		mov	r3, #8960
 730 0004 C4F20103 		movt	r3, 16385
 731 0008 5A68     		ldr	r2, [r3, #4]
ARM GAS  /tmp/ccsJdt59.s 			page 14


 732 000a 22F40002 		bic	r2, r2, #8388608
 733 000e 5A60     		str	r2, [r3, #4]
 734 0010 7047     		bx	lr
 735              		.cfi_endproc
 736              	.LFE126:
 737              		.size	adcSTM32DisableTSVREFE, .-adcSTM32DisableTSVREFE
 738 0012 00BFAFF3 		.section	.text.adcSTM32EnableVBATE,"ax",%progbits
 738      0080AFF3 
 738      0080AFF3 
 738      0080
 739              		.align	2
 740              		.p2align 4,,15
 741              		.global	adcSTM32EnableVBATE
 742              		.thumb
 743              		.thumb_func
 744              		.type	adcSTM32EnableVBATE, %function
 745              	adcSTM32EnableVBATE:
 746              	.LFB127:
 747              		.loc 1 401 0
 748              		.cfi_startproc
 749              		@ args = 0, pretend = 0, frame = 0
 750              		@ frame_needed = 0, uses_anonymous_args = 0
 751              		@ link register save eliminated.
 752              		.loc 1 403 0
 753 0000 4FF40C53 		mov	r3, #8960
 754 0004 C4F20103 		movt	r3, 16385
 755 0008 5A68     		ldr	r2, [r3, #4]
 756 000a 42F48002 		orr	r2, r2, #4194304
 757 000e 5A60     		str	r2, [r3, #4]
 758 0010 7047     		bx	lr
 759              		.cfi_endproc
 760              	.LFE127:
 761              		.size	adcSTM32EnableVBATE, .-adcSTM32EnableVBATE
 762 0012 00BFAFF3 		.section	.text.adcSTM32DisableVBATE,"ax",%progbits
 762      0080AFF3 
 762      0080AFF3 
 762      0080
 763              		.align	2
 764              		.p2align 4,,15
 765              		.global	adcSTM32DisableVBATE
 766              		.thumb
 767              		.thumb_func
 768              		.type	adcSTM32DisableVBATE, %function
 769              	adcSTM32DisableVBATE:
 770              	.LFB128:
 771              		.loc 1 412 0
 772              		.cfi_startproc
 773              		@ args = 0, pretend = 0, frame = 0
 774              		@ frame_needed = 0, uses_anonymous_args = 0
 775              		@ link register save eliminated.
 776              		.loc 1 414 0
 777 0000 4FF40C53 		mov	r3, #8960
 778 0004 C4F20103 		movt	r3, 16385
 779 0008 5A68     		ldr	r2, [r3, #4]
 780 000a 22F48002 		bic	r2, r2, #4194304
 781 000e 5A60     		str	r2, [r3, #4]
 782 0010 7047     		bx	lr
ARM GAS  /tmp/ccsJdt59.s 			page 15


 783              		.cfi_endproc
 784              	.LFE128:
 785              		.size	adcSTM32DisableVBATE, .-adcSTM32DisableVBATE
 786              		.global	ADCD1
 787 0012 00BFAFF3 		.section	.bss.ADCD1,"aw",%nobits
 787      0080AFF3 
 787      0080AFF3 
 787      0080
 788              		.align	2
 789              		.set	.LANCHOR0,. + 0
 790              		.type	ADCD1, %object
 791              		.size	ADCD1, 52
 792              	ADCD1:
 793 0000 00000000 		.space	52
 793      00000000 
 793      00000000 
 793      00000000 
 793      00000000 
 794              		.text
 795              	.Letext0:
 796              		.file 2 "/usr/lib/gcc/arm-none-eabi/4.8.2/include/stddef.h"
 797              		.file 3 "/usr/include/newlib/machine/_default_types.h"
 798              		.file 4 "/usr/include/newlib/stdint.h"
 799              		.file 5 "../../os/ports/GCC/ARMCMx/chtypes.h"
 800              		.file 6 "../../os/kernel/include/chlists.h"
 801              		.file 7 "../../os/kernel/include/chthreads.h"
 802              		.file 8 "../../os/ports/GCC/ARMCMx/chcore_v7m.h"
 803              		.file 9 "../../os/kernel/include/chmtx.h"
 804              		.file 10 "../../os/hal/platforms/STM32F4xx/stm32f4xx.h"
 805              		.file 11 "../../os/hal/platforms/STM32F4xx/stm32_dma.h"
 806              		.file 12 "../../os/hal/include/adc.h"
 807              		.file 13 "../../os/hal/platforms/STM32F4xx/adc_lld.h"
 808              		.file 14 "../../os/ports/common/ARMCMx/CMSIS/include/core_cm4.h"
 809              		.file 15 "../../os/ports/common/ARMCMx/nvic.h"
 810              		.file 16 "../../os/kernel/include/chschd.h"