ARM GAS  /tmp/ccN2i5sZ.s 			page 1


   1              		.syntax unified
   2              		.cpu cortex-m4
   3              		.fpu softvfp
   4              		.eabi_attribute 20, 1
   5              		.eabi_attribute 21, 1
   6              		.eabi_attribute 23, 3
   7              		.eabi_attribute 24, 1
   8              		.eabi_attribute 25, 1
   9              		.eabi_attribute 26, 1
  10              		.eabi_attribute 30, 2
  11              		.eabi_attribute 34, 1
  12              		.eabi_attribute 18, 4
  13              		.thumb
  14              		.file	"chmsg.c"
  15              		.text
  16              	.Ltext0:
  17              		.cfi_sections	.debug_frame
  18              		.section	.text.chMsgSend,"ax",%progbits
  19              		.align	2
  20              		.p2align 4,,15
  21              		.global	chMsgSend
  22              		.thumb
  23              		.thumb_func
  24              		.type	chMsgSend, %function
  25              	chMsgSend:
  26              	.LFB7:
  27              		.file 1 "../../os/kernel/src/chmsg.c"
  28              		.loc 1 75 0
  29              		.cfi_startproc
  30              		@ args = 0, pretend = 0, frame = 0
  31              		@ frame_needed = 0, uses_anonymous_args = 0
  32              	.LVL0:
  33 0000 38B5     		push	{r3, r4, r5, lr}
  34              		.cfi_def_cfa_offset 16
  35              		.cfi_offset 3, -16
  36              		.cfi_offset 4, -12
  37              		.cfi_offset 5, -8
  38              		.cfi_offset 14, -4
  39              		.loc 1 76 0
  40 0002 40F20003 		movw	r3, #:lower16:rlist
  41 0006 C0F20003 		movt	r3, #:upper16:rlist
  42 000a 9C69     		ldr	r4, [r3, #24]
  43              	.LVL1:
  44              	.LBB10:
  45              		.loc 1 80 0
  46 000c 2023     		movs	r3, #32
  47              	@ 80 "../../os/kernel/src/chmsg.c" 1
  48 000e 83F31188 		msr     BASEPRI, r3
  49              	@ 0 "" 2
  50              		.thumb
  51              	.LBE10:
  52              		.loc 1 82 0
  53 0012 00F12C02 		add	r2, r0, #44
  54              		.loc 1 84 0
  55 0016 057F     		ldrb	r5, [r0, #28]	@ zero_extendqisi2
  56              		.loc 1 82 0
  57 0018 6262     		str	r2, [r4, #36]
ARM GAS  /tmp/ccN2i5sZ.s 			page 2


  58              	.LVL2:
  59              	.LBB11:
  60              	.LBB12:
  61              		.file 2 "../../os/kernel/include/chinline.h"
  62              		.loc 2 55 0
  63 001a 036B     		ldr	r3, [r0, #48]
  64              	.LBE12:
  65              	.LBE11:
  66              		.loc 1 81 0
  67 001c 6163     		str	r1, [r4, #52]
  68              		.loc 1 84 0
  69 001e 0C2D     		cmp	r5, #12
  70              	.LBB14:
  71              	.LBB13:
  72              		.loc 2 55 0
  73 0020 84E80C00 		stmia	r4, {r2, r3}
  74              		.loc 2 56 0
  75 0024 0463     		str	r4, [r0, #48]
  76 0026 1C60     		str	r4, [r3]
  77              	.LBE13:
  78              	.LBE14:
  79              		.loc 1 84 0
  80 0028 07D0     		beq	.L4
  81              	.LVL3:
  82              	.L2:
  83              		.loc 1 86 0
  84 002a 0A20     		movs	r0, #10
  85 002c FFF7FEFF 		bl	chSchGoSleepS
  86              	.LVL4:
  87              		.loc 1 87 0
  88 0030 606A     		ldr	r0, [r4, #36]
  89              	.LVL5:
  90              	.LBB15:
  91              		.loc 1 88 0
  92 0032 0023     		movs	r3, #0
  93              	@ 88 "../../os/kernel/src/chmsg.c" 1
  94 0034 83F31188 		msr     BASEPRI, r3
  95              	@ 0 "" 2
  96              		.thumb
  97              	.LBE15:
  98              		.loc 1 90 0
  99 0038 38BD     		pop	{r3, r4, r5, pc}
 100              	.LVL6:
 101              	.L4:
 102              		.loc 1 85 0
 103 003a FFF7FEFF 		bl	chSchReadyI
 104              	.LVL7:
 105 003e F4E7     		b	.L2
 106              		.cfi_endproc
 107              	.LFE7:
 108              		.size	chMsgSend, .-chMsgSend
 109              		.section	.text.chMsgWait,"ax",%progbits
 110              		.align	2
 111              		.p2align 4,,15
 112              		.global	chMsgWait
 113              		.thumb
 114              		.thumb_func
ARM GAS  /tmp/ccN2i5sZ.s 			page 3


 115              		.type	chMsgWait, %function
 116              	chMsgWait:
 117              	.LFB8:
 118              		.loc 1 106 0
 119              		.cfi_startproc
 120              		@ args = 0, pretend = 0, frame = 0
 121              		@ frame_needed = 0, uses_anonymous_args = 0
 122 0000 10B5     		push	{r4, lr}
 123              		.cfi_def_cfa_offset 8
 124              		.cfi_offset 4, -8
 125              		.cfi_offset 14, -4
 126              	.LBB16:
 127              		.loc 1 109 0
 128 0002 2023     		movs	r3, #32
 129              	@ 109 "../../os/kernel/src/chmsg.c" 1
 130 0004 83F31188 		msr     BASEPRI, r3
 131              	@ 0 "" 2
 132              		.thumb
 133              	.LBE16:
 134              		.loc 1 110 0
 135 0008 40F20004 		movw	r4, #:lower16:rlist
 136 000c C0F20004 		movt	r4, #:upper16:rlist
 137 0010 A369     		ldr	r3, [r4, #24]
 138 0012 1A46     		mov	r2, r3
 139 0014 52F82C0F 		ldr	r0, [r2, #44]!
 140 0018 9042     		cmp	r0, r2
 141 001a 08D0     		beq	.L7
 142              	.L6:
 143              	.LVL8:
 144              	.LBB17:
 145              	.LBB18:
 146              		.loc 2 62 0
 147 001c 0168     		ldr	r1, [r0]
 148              	.LBE18:
 149              	.LBE17:
 150              		.loc 1 113 0
 151 001e 0B24     		movs	r4, #11
 152              	.LBB20:
 153              	.LBB19:
 154              		.loc 2 62 0
 155 0020 D962     		str	r1, [r3, #44]
 156 0022 4A60     		str	r2, [r1, #4]
 157              	.LBE19:
 158              	.LBE20:
 159              	.LBB21:
 160              		.loc 1 114 0
 161 0024 0023     		movs	r3, #0
 162              	.LBE21:
 163              		.loc 1 113 0
 164 0026 0477     		strb	r4, [r0, #28]
 165              	.LBB22:
 166              		.loc 1 114 0
 167              	@ 114 "../../os/kernel/src/chmsg.c" 1
 168 0028 83F31188 		msr     BASEPRI, r3
 169              	@ 0 "" 2
 170              		.thumb
 171              	.LBE22:
ARM GAS  /tmp/ccN2i5sZ.s 			page 4


 172              		.loc 1 116 0
 173 002c 10BD     		pop	{r4, pc}
 174              	.LVL9:
 175              	.L7:
 176              		.loc 1 111 0
 177 002e 0C20     		movs	r0, #12
 178 0030 FFF7FEFF 		bl	chSchGoSleepS
 179              	.LVL10:
 180 0034 A369     		ldr	r3, [r4, #24]
 181 0036 D86A     		ldr	r0, [r3, #44]
 182 0038 03F12C02 		add	r2, r3, #44
 183 003c EEE7     		b	.L6
 184              		.cfi_endproc
 185              	.LFE8:
 186              		.size	chMsgWait, .-chMsgWait
 187 003e 00BF     		.section	.text.chMsgRelease,"ax",%progbits
 188              		.align	2
 189              		.p2align 4,,15
 190              		.global	chMsgRelease
 191              		.thumb
 192              		.thumb_func
 193              		.type	chMsgRelease, %function
 194              	chMsgRelease:
 195              	.LFB9:
 196              		.loc 1 128 0
 197              		.cfi_startproc
 198              		@ args = 0, pretend = 0, frame = 0
 199              		@ frame_needed = 0, uses_anonymous_args = 0
 200              	.LVL11:
 201 0000 08B5     		push	{r3, lr}
 202              		.cfi_def_cfa_offset 8
 203              		.cfi_offset 3, -8
 204              		.cfi_offset 14, -4
 205              	.LBB23:
 206              		.loc 1 130 0
 207 0002 2023     		movs	r3, #32
 208              	@ 130 "../../os/kernel/src/chmsg.c" 1
 209 0004 83F31188 		msr     BASEPRI, r3
 210              	@ 0 "" 2
 211              		.thumb
 212              	.LBE23:
 213              		.loc 1 133 0
 214 0008 FFF7FEFF 		bl	chSchWakeupS
 215              	.LVL12:
 216              	.LBB24:
 217              		.loc 1 134 0
 218 000c 0023     		movs	r3, #0
 219              	@ 134 "../../os/kernel/src/chmsg.c" 1
 220 000e 83F31188 		msr     BASEPRI, r3
 221              	@ 0 "" 2
 222              		.thumb
 223 0012 08BD     		pop	{r3, pc}
 224              	.LBE24:
 225              		.cfi_endproc
 226              	.LFE9:
 227              		.size	chMsgRelease, .-chMsgRelease
 228 0014 AFF30080 		.text
ARM GAS  /tmp/ccN2i5sZ.s 			page 5


 228      AFF30080 
 228      AFF30080 
 229              	.Letext0:
 230              		.file 3 "/usr/include/newlib/machine/_default_types.h"
 231              		.file 4 "/usr/include/newlib/stdint.h"
 232              		.file 5 "../../os/ports/GCC/ARMCMx/chtypes.h"
 233              		.file 6 "../../os/kernel/include/chlists.h"
 234              		.file 7 "../../os/kernel/include/chthreads.h"
 235              		.file 8 "../../os/ports/GCC/ARMCMx/chcore_v7m.h"
 236              		.file 9 "../../os/kernel/include/chschd.h"
 237              		.file 10 "../../os/kernel/include/chmtx.h"