ARM GAS  /tmp/ccIdC3WY.s 			page 1


   1              		.syntax unified
   2              		.cpu cortex-m4
   3              		.fpu softvfp
   4              		.eabi_attribute 20, 1
   5              		.eabi_attribute 21, 1
   6              		.eabi_attribute 23, 3
   7              		.eabi_attribute 24, 1
   8              		.eabi_attribute 25, 1
   9              		.eabi_attribute 26, 1
  10              		.eabi_attribute 30, 2
  11              		.eabi_attribute 34, 1
  12              		.eabi_attribute 18, 4
  13              		.thumb
  14              		.file	"adc.c"
  15              		.text
  16              	.Ltext0:
  17              		.cfi_sections	.debug_frame
  18              		.section	.text.adcInit,"ax",%progbits
  19              		.align	2
  20              		.p2align 4,,15
  21              		.global	adcInit
  22              		.thumb
  23              		.thumb_func
  24              		.type	adcInit, %function
  25              	adcInit:
  26              	.LFB118:
  27              		.file 1 "../../../os/hal/src/adc.c"
  28              		.loc 1 68 0
  29              		.cfi_startproc
  30              		@ args = 0, pretend = 0, frame = 0
  31              		@ frame_needed = 0, uses_anonymous_args = 0
  32              		@ link register save eliminated.
  33              		.loc 1 70 0
  34 0000 FFF7FEBF 		b	adc_lld_init
  35              	.LVL0:
  36              		.cfi_endproc
  37              	.LFE118:
  38              		.size	adcInit, .-adcInit
  39 0004 AFF30080 		.section	.text.adcObjectInit,"ax",%progbits
  39      AFF30080 
  39      AFF30080 
  40              		.align	2
  41              		.p2align 4,,15
  42              		.global	adcObjectInit
  43              		.thumb
  44              		.thumb_func
  45              		.type	adcObjectInit, %function
  46              	adcObjectInit:
  47              	.LFB119:
  48              		.loc 1 80 0
  49              		.cfi_startproc
  50              		@ args = 0, pretend = 0, frame = 0
  51              		@ frame_needed = 0, uses_anonymous_args = 0
  52              		@ link register save eliminated.
  53              	.LVL1:
  54              		.loc 1 83 0
  55 0000 0023     		movs	r3, #0
ARM GAS  /tmp/ccIdC3WY.s 			page 2


  56              		.loc 1 82 0
  57 0002 0122     		movs	r2, #1
  58 0004 0270     		strb	r2, [r0]
  59              		.loc 1 83 0
  60 0006 4360     		str	r3, [r0, #4]
  61              		.loc 1 84 0
  62 0008 8360     		str	r3, [r0, #8]
  63              		.loc 1 85 0
  64 000a C360     		str	r3, [r0, #12]
  65              		.loc 1 86 0
  66 000c 0361     		str	r3, [r0, #16]
  67              		.loc 1 88 0
  68 000e 4361     		str	r3, [r0, #20]
  69              		.loc 1 92 0
  70 0010 1830     		adds	r0, r0, #24
  71              	.LVL2:
  72 0012 FFF7FEBF 		b	chMtxInit
  73              	.LVL3:
  74              		.cfi_endproc
  75              	.LFE119:
  76              		.size	adcObjectInit, .-adcObjectInit
  77 0016 00BFAFF3 		.section	.text.adcStart,"ax",%progbits
  77      0080AFF3 
  77      0080
  78              		.align	2
  79              		.p2align 4,,15
  80              		.global	adcStart
  81              		.thumb
  82              		.thumb_func
  83              		.type	adcStart, %function
  84              	adcStart:
  85              	.LFB120:
  86              		.loc 1 111 0
  87              		.cfi_startproc
  88              		@ args = 0, pretend = 0, frame = 0
  89              		@ frame_needed = 0, uses_anonymous_args = 0
  90              	.LVL4:
  91 0000 38B5     		push	{r3, r4, r5, lr}
  92              		.cfi_def_cfa_offset 16
  93              		.cfi_offset 3, -16
  94              		.cfi_offset 4, -12
  95              		.cfi_offset 5, -8
  96              		.cfi_offset 14, -4
  97              		.loc 1 113 0
  98 0002 0446     		mov	r4, r0
  99              		.loc 1 111 0
 100 0004 0D46     		mov	r5, r1
 101              		.loc 1 113 0
 102 0006 D8B1     		cbz	r0, .L7
 103              	.LVL5:
 104              	.L4:
 105              	.LBB2:
 106              		.loc 1 115 0
 107 0008 2023     		movs	r3, #32
 108              	@ 115 "../../../os/hal/src/adc.c" 1
 109 000a 83F31188 		msr     BASEPRI, r3
 110              	@ 0 "" 2
ARM GAS  /tmp/ccIdC3WY.s 			page 3


 111              		.thumb
 112              	.LBE2:
 113 000e FFF7FEFF 		bl	dbg_check_lock
 114              	.LVL6:
 115              		.loc 1 116 0
 116 0012 2378     		ldrb	r3, [r4]	@ zero_extendqisi2
 117 0014 013B     		subs	r3, r3, #1
 118 0016 DBB2     		uxtb	r3, r3
 119 0018 012B     		cmp	r3, #1
 120 001a 05D9     		bls	.L5
 121              		.loc 1 116 0 is_stmt 0 discriminator 1
 122 001c 40F20000 		movw	r0, #:lower16:.LC1
 123 0020 C0F20000 		movt	r0, #:upper16:.LC1
 124 0024 FFF7FEFF 		bl	chDbgPanic
 125              	.LVL7:
 126              	.L5:
 127              		.loc 1 119 0 is_stmt 1
 128 0028 2046     		mov	r0, r4
 129              		.loc 1 118 0
 130 002a 6560     		str	r5, [r4, #4]
 131              		.loc 1 119 0
 132 002c FFF7FEFF 		bl	adc_lld_start
 133              	.LVL8:
 134              		.loc 1 120 0
 135 0030 0223     		movs	r3, #2
 136 0032 2370     		strb	r3, [r4]
 137              		.loc 1 121 0
 138 0034 FFF7FEFF 		bl	dbg_check_unlock
 139              	.LVL9:
 140              	.LBB3:
 141 0038 0023     		movs	r3, #0
 142              	@ 121 "../../../os/hal/src/adc.c" 1
 143 003a 83F31188 		msr     BASEPRI, r3
 144              	@ 0 "" 2
 145              		.thumb
 146 003e 38BD     		pop	{r3, r4, r5, pc}
 147              	.LVL10:
 148              	.L7:
 149              	.LBE3:
 150              		.loc 1 113 0 discriminator 1
 151 0040 40F20000 		movw	r0, #:lower16:.LC0
 152              	.LVL11:
 153 0044 C0F20000 		movt	r0, #:upper16:.LC0
 154 0048 FFF7FEFF 		bl	chDbgPanic
 155              	.LVL12:
 156 004c DCE7     		b	.L4
 157              		.cfi_endproc
 158              	.LFE120:
 159              		.size	adcStart, .-adcStart
 160 004e 00BF     		.section	.text.adcStop,"ax",%progbits
 161              		.align	2
 162              		.p2align 4,,15
 163              		.global	adcStop
 164              		.thumb
 165              		.thumb_func
 166              		.type	adcStop, %function
 167              	adcStop:
ARM GAS  /tmp/ccIdC3WY.s 			page 4


 168              	.LFB121:
 169              		.loc 1 131 0
 170              		.cfi_startproc
 171              		@ args = 0, pretend = 0, frame = 0
 172              		@ frame_needed = 0, uses_anonymous_args = 0
 173              	.LVL13:
 174 0000 10B5     		push	{r4, lr}
 175              		.cfi_def_cfa_offset 8
 176              		.cfi_offset 4, -8
 177              		.cfi_offset 14, -4
 178              		.loc 1 133 0
 179 0002 0446     		mov	r4, r0
 180 0004 D0B1     		cbz	r0, .L11
 181              	.LVL14:
 182              	.L9:
 183              	.LBB4:
 184              		.loc 1 135 0
 185 0006 2023     		movs	r3, #32
 186              	@ 135 "../../../os/hal/src/adc.c" 1
 187 0008 83F31188 		msr     BASEPRI, r3
 188              	@ 0 "" 2
 189              		.thumb
 190              	.LBE4:
 191 000c FFF7FEFF 		bl	dbg_check_lock
 192              	.LVL15:
 193              		.loc 1 136 0
 194 0010 2378     		ldrb	r3, [r4]	@ zero_extendqisi2
 195 0012 013B     		subs	r3, r3, #1
 196 0014 DBB2     		uxtb	r3, r3
 197 0016 012B     		cmp	r3, #1
 198 0018 05D9     		bls	.L10
 199              		.loc 1 136 0 is_stmt 0 discriminator 1
 200 001a 40F20000 		movw	r0, #:lower16:.LC3
 201 001e C0F20000 		movt	r0, #:upper16:.LC3
 202 0022 FFF7FEFF 		bl	chDbgPanic
 203              	.LVL16:
 204              	.L10:
 205              		.loc 1 138 0 is_stmt 1
 206 0026 2046     		mov	r0, r4
 207 0028 FFF7FEFF 		bl	adc_lld_stop
 208              	.LVL17:
 209              		.loc 1 139 0
 210 002c 0123     		movs	r3, #1
 211 002e 2370     		strb	r3, [r4]
 212              		.loc 1 140 0
 213 0030 FFF7FEFF 		bl	dbg_check_unlock
 214              	.LVL18:
 215              	.LBB5:
 216 0034 0023     		movs	r3, #0
 217              	@ 140 "../../../os/hal/src/adc.c" 1
 218 0036 83F31188 		msr     BASEPRI, r3
 219              	@ 0 "" 2
 220              		.thumb
 221 003a 10BD     		pop	{r4, pc}
 222              	.LVL19:
 223              	.L11:
 224              	.LBE5:
ARM GAS  /tmp/ccIdC3WY.s 			page 5


 225              		.loc 1 133 0 discriminator 1
 226 003c 40F20000 		movw	r0, #:lower16:.LC2
 227              	.LVL20:
 228 0040 C0F20000 		movt	r0, #:upper16:.LC2
 229 0044 FFF7FEFF 		bl	chDbgPanic
 230              	.LVL21:
 231 0048 DDE7     		b	.L9
 232              		.cfi_endproc
 233              	.LFE121:
 234              		.size	adcStop, .-adcStop
 235 004a 00BFAFF3 		.section	.text.adcStartConversionI,"ax",%progbits
 235      0080
 236              		.align	2
 237              		.p2align 4,,15
 238              		.global	adcStartConversionI
 239              		.thumb
 240              		.thumb_func
 241              		.type	adcStartConversionI, %function
 242              	adcStartConversionI:
 243              	.LFB123:
 244              		.loc 1 190 0
 245              		.cfi_startproc
 246              		@ args = 0, pretend = 0, frame = 0
 247              		@ frame_needed = 0, uses_anonymous_args = 0
 248              	.LVL22:
 249 0000 F8B5     		push	{r3, r4, r5, r6, r7, lr}
 250              		.cfi_def_cfa_offset 24
 251              		.cfi_offset 3, -24
 252              		.cfi_offset 4, -20
 253              		.cfi_offset 5, -16
 254              		.cfi_offset 6, -12
 255              		.cfi_offset 7, -8
 256              		.cfi_offset 14, -4
 257              		.loc 1 190 0
 258 0002 0446     		mov	r4, r0
 259 0004 0E46     		mov	r6, r1
 260 0006 1746     		mov	r7, r2
 261 0008 1D46     		mov	r5, r3
 262              		.loc 1 192 0
 263 000a FFF7FEFF 		bl	chDbgCheckClassI
 264              	.LVL23:
 265              		.loc 1 193 0
 266 000e 002E     		cmp	r6, #0
 267 0010 18BF     		it	ne
 268 0012 002C     		cmpne	r4, #0
 269 0014 1BD0     		beq	.L13
 270              		.loc 1 193 0 is_stmt 0 discriminator 2
 271 0016 D7B1     		cbz	r7, .L13
 272              		.loc 1 193 0 discriminator 1
 273 0018 012D     		cmp	r5, #1
 274 001a 01D0     		beq	.L14
 275 001c EB07     		lsls	r3, r5, #31
 276 001e 16D4     		bmi	.L13
 277              	.L14:
 278              		.loc 1 196 0 is_stmt 1
 279 0020 2378     		ldrb	r3, [r4]	@ zero_extendqisi2
 280 0022 1A1F     		subs	r2, r3, #4
ARM GAS  /tmp/ccIdC3WY.s 			page 6


 281 0024 D2B2     		uxtb	r2, r2
 282 0026 022B     		cmp	r3, #2
 283 0028 18BF     		it	ne
 284 002a 012A     		cmpne	r2, #1
 285 002c 05D9     		bls	.L15
 286              		.loc 1 196 0 is_stmt 0 discriminator 1
 287 002e 40F20000 		movw	r0, #:lower16:.LC5
 288 0032 C0F20000 		movt	r0, #:upper16:.LC5
 289 0036 FFF7FEFF 		bl	chDbgPanic
 290              	.LVL24:
 291              	.L15:
 292              		.loc 1 204 0 is_stmt 1
 293 003a 0323     		movs	r3, #3
 294              		.loc 1 201 0
 295 003c A760     		str	r7, [r4, #8]
 296              		.loc 1 202 0
 297 003e E560     		str	r5, [r4, #12]
 298              		.loc 1 203 0
 299 0040 2661     		str	r6, [r4, #16]
 300              		.loc 1 204 0
 301 0042 2370     		strb	r3, [r4]
 302              		.loc 1 205 0
 303 0044 2046     		mov	r0, r4
 304              		.loc 1 206 0
 305 0046 BDE8F840 		pop	{r3, r4, r5, r6, r7, lr}
 306              	.LVL25:
 307              		.loc 1 205 0
 308 004a FFF7FEBF 		b	adc_lld_start_conversion
 309              	.LVL26:
 310              	.L13:
 311              		.loc 1 193 0 discriminator 1
 312 004e 40F20000 		movw	r0, #:lower16:.LC4
 313 0052 C0F20000 		movt	r0, #:upper16:.LC4
 314 0056 FFF7FEFF 		bl	chDbgPanic
 315              	.LVL27:
 316 005a E1E7     		b	.L14
 317              		.cfi_endproc
 318              	.LFE123:
 319              		.size	adcStartConversionI, .-adcStartConversionI
 320 005c AFF30080 		.section	.text.adcStartConversion,"ax",%progbits
 321              		.align	2
 322              		.p2align 4,,15
 323              		.global	adcStartConversion
 324              		.thumb
 325              		.thumb_func
 326              		.type	adcStartConversion, %function
 327              	adcStartConversion:
 328              	.LFB122:
 329              		.loc 1 162 0
 330              		.cfi_startproc
 331              		@ args = 0, pretend = 0, frame = 0
 332              		@ frame_needed = 0, uses_anonymous_args = 0
 333              	.LVL28:
 334 0000 F8B5     		push	{r3, r4, r5, r6, r7, lr}
 335              		.cfi_def_cfa_offset 24
 336              		.cfi_offset 3, -24
 337              		.cfi_offset 4, -20
ARM GAS  /tmp/ccIdC3WY.s 			page 7


 338              		.cfi_offset 5, -16
 339              		.cfi_offset 6, -12
 340              		.cfi_offset 7, -8
 341              		.cfi_offset 14, -4
 342              		.loc 1 162 0
 343 0002 1C46     		mov	r4, r3
 344 0004 0746     		mov	r7, r0
 345 0006 0E46     		mov	r6, r1
 346 0008 1546     		mov	r5, r2
 347              	.LBB6:
 348              		.loc 1 164 0
 349 000a 2023     		movs	r3, #32
 350              	.LVL29:
 351              	@ 164 "../../../os/hal/src/adc.c" 1
 352 000c 83F31188 		msr     BASEPRI, r3
 353              	@ 0 "" 2
 354              		.thumb
 355              	.LBE6:
 356 0010 FFF7FEFF 		bl	dbg_check_lock
 357              	.LVL30:
 358              		.loc 1 165 0
 359 0014 2346     		mov	r3, r4
 360 0016 3846     		mov	r0, r7
 361 0018 3146     		mov	r1, r6
 362 001a 2A46     		mov	r2, r5
 363 001c FFF7FEFF 		bl	adcStartConversionI
 364              	.LVL31:
 365              		.loc 1 166 0
 366 0020 FFF7FEFF 		bl	dbg_check_unlock
 367              	.LVL32:
 368              	.LBB7:
 369 0024 0023     		movs	r3, #0
 370              	@ 166 "../../../os/hal/src/adc.c" 1
 371 0026 83F31188 		msr     BASEPRI, r3
 372              	@ 0 "" 2
 373              		.thumb
 374 002a F8BD     		pop	{r3, r4, r5, r6, r7, pc}
 375              	.LBE7:
 376              		.cfi_endproc
 377              	.LFE122:
 378              		.size	adcStartConversion, .-adcStartConversion
 379 002c AFF30080 		.section	.text.adcStopConversion,"ax",%progbits
 380              		.align	2
 381              		.p2align 4,,15
 382              		.global	adcStopConversion
 383              		.thumb
 384              		.thumb_func
 385              		.type	adcStopConversion, %function
 386              	adcStopConversion:
 387              	.LFB124:
 388              		.loc 1 218 0
 389              		.cfi_startproc
 390              		@ args = 0, pretend = 0, frame = 0
 391              		@ frame_needed = 0, uses_anonymous_args = 0
 392              	.LVL33:
 393 0000 10B5     		push	{r4, lr}
 394              		.cfi_def_cfa_offset 8
ARM GAS  /tmp/ccIdC3WY.s 			page 8


 395              		.cfi_offset 4, -8
 396              		.cfi_offset 14, -4
 397              		.loc 1 220 0
 398 0002 0446     		mov	r4, r0
 399 0004 30B3     		cbz	r0, .L39
 400              	.LVL34:
 401              	.L30:
 402              	.LBB8:
 403              		.loc 1 222 0
 404 0006 2023     		movs	r3, #32
 405              	@ 222 "../../../os/hal/src/adc.c" 1
 406 0008 83F31188 		msr     BASEPRI, r3
 407              	@ 0 "" 2
 408              		.thumb
 409              	.LBE8:
 410 000c FFF7FEFF 		bl	dbg_check_lock
 411              	.LVL35:
 412              		.loc 1 223 0
 413 0010 2378     		ldrb	r3, [r4]	@ zero_extendqisi2
 414 0012 9A1E     		subs	r2, r3, #2
 415 0014 D2B2     		uxtb	r2, r2
 416 0016 012A     		cmp	r2, #1
 417 0018 06D9     		bls	.L31
 418              		.loc 1 223 0 is_stmt 0 discriminator 1
 419 001a 40F20000 		movw	r0, #:lower16:.LC7
 420 001e C0F20000 		movt	r0, #:upper16:.LC7
 421 0022 FFF7FEFF 		bl	chDbgPanic
 422              	.LVL36:
 423 0026 2378     		ldrb	r3, [r4]	@ zero_extendqisi2
 424              	.L31:
 425              		.loc 1 226 0 is_stmt 1
 426 0028 022B     		cmp	r3, #2
 427 002a 0DD0     		beq	.L33
 428              		.loc 1 227 0
 429 002c 2046     		mov	r0, r4
 430 002e FFF7FEFF 		bl	adc_lld_stop_conversion
 431              	.LVL37:
 432              		.loc 1 230 0
 433 0032 6069     		ldr	r0, [r4, #20]
 434              		.loc 1 228 0
 435 0034 0023     		movs	r3, #0
 436              		.loc 1 229 0
 437 0036 0222     		movs	r2, #2
 438              		.loc 1 228 0
 439 0038 2361     		str	r3, [r4, #16]
 440              		.loc 1 229 0
 441 003a 2270     		strb	r2, [r4]
 442              		.loc 1 230 0
 443 003c 20B1     		cbz	r0, .L33
 444              	.LVL38:
 445              	.LBB9:
 446              		.loc 1 230 0 is_stmt 0 discriminator 1
 447 003e 6361     		str	r3, [r4, #20]
 448 0040 6FF00101 		mvn	r1, #1
 449 0044 FFF7FEFF 		bl	chSchWakeupS
 450              	.LVL39:
 451              	.L33:
ARM GAS  /tmp/ccIdC3WY.s 			page 9


 452              	.LBE9:
 453              		.loc 1 232 0 is_stmt 1
 454 0048 FFF7FEFF 		bl	dbg_check_unlock
 455              	.LVL40:
 456              	.LBB10:
 457 004c 0023     		movs	r3, #0
 458              	@ 232 "../../../os/hal/src/adc.c" 1
 459 004e 83F31188 		msr     BASEPRI, r3
 460              	@ 0 "" 2
 461              		.thumb
 462 0052 10BD     		pop	{r4, pc}
 463              	.LVL41:
 464              	.L39:
 465              	.LBE10:
 466              		.loc 1 220 0 discriminator 1
 467 0054 40F20000 		movw	r0, #:lower16:.LC6
 468              	.LVL42:
 469 0058 C0F20000 		movt	r0, #:upper16:.LC6
 470 005c FFF7FEFF 		bl	chDbgPanic
 471              	.LVL43:
 472 0060 D1E7     		b	.L30
 473              		.cfi_endproc
 474              	.LFE124:
 475              		.size	adcStopConversion, .-adcStopConversion
 476 0062 00BFAFF3 		.section	.text.adcStopConversionI,"ax",%progbits
 476      0080AFF3 
 476      0080AFF3 
 476      0080
 477              		.align	2
 478              		.p2align 4,,15
 479              		.global	adcStopConversionI
 480              		.thumb
 481              		.thumb_func
 482              		.type	adcStopConversionI, %function
 483              	adcStopConversionI:
 484              	.LFB125:
 485              		.loc 1 245 0
 486              		.cfi_startproc
 487              		@ args = 0, pretend = 0, frame = 0
 488              		@ frame_needed = 0, uses_anonymous_args = 0
 489              	.LVL44:
 490 0000 10B5     		push	{r4, lr}
 491              		.cfi_def_cfa_offset 8
 492              		.cfi_offset 4, -8
 493              		.cfi_offset 14, -4
 494              		.loc 1 245 0
 495 0002 0446     		mov	r4, r0
 496              		.loc 1 247 0
 497 0004 FFF7FEFF 		bl	chDbgCheckClassI
 498              	.LVL45:
 499              		.loc 1 248 0
 500 0008 0CB3     		cbz	r4, .L50
 501              	.L41:
 502              		.loc 1 249 0
 503 000a 2378     		ldrb	r3, [r4]	@ zero_extendqisi2
 504 000c 9A1E     		subs	r2, r3, #2
 505 000e D2B2     		uxtb	r2, r2
ARM GAS  /tmp/ccIdC3WY.s 			page 10


 506 0010 022A     		cmp	r2, #2
 507 0012 14D8     		bhi	.L51
 508              	.L42:
 509              		.loc 1 254 0
 510 0014 022B     		cmp	r3, #2
 511 0016 11D0     		beq	.L40
 512              		.loc 1 255 0
 513 0018 2046     		mov	r0, r4
 514 001a FFF7FEFF 		bl	adc_lld_stop_conversion
 515              	.LVL46:
 516              		.loc 1 258 0
 517 001e 6369     		ldr	r3, [r4, #20]
 518              		.loc 1 256 0
 519 0020 0022     		movs	r2, #0
 520              		.loc 1 257 0
 521 0022 0221     		movs	r1, #2
 522              		.loc 1 256 0
 523 0024 2261     		str	r2, [r4, #16]
 524              		.loc 1 257 0
 525 0026 2170     		strb	r1, [r4]
 526              		.loc 1 258 0
 527 0028 43B1     		cbz	r3, .L40
 528              	.LVL47:
 529              	.LBB11:
 530              		.loc 1 258 0 is_stmt 0 discriminator 1
 531 002a 6FF00101 		mvn	r1, #1
 532 002e 6261     		str	r2, [r4, #20]
 533 0030 9962     		str	r1, [r3, #40]
 534 0032 1846     		mov	r0, r3
 535              	.LBE11:
 536              		.loc 1 260 0 is_stmt 1 discriminator 1
 537 0034 BDE81040 		pop	{r4, lr}
 538              	.LVL48:
 539              	.LBB12:
 540              		.loc 1 258 0 discriminator 1
 541 0038 FFF7FEBF 		b	chSchReadyI
 542              	.LVL49:
 543              	.L40:
 544 003c 10BD     		pop	{r4, pc}
 545              	.LVL50:
 546              	.L51:
 547              	.LBE12:
 548              		.loc 1 249 0 discriminator 1
 549 003e 40F20000 		movw	r0, #:lower16:.LC9
 550 0042 C0F20000 		movt	r0, #:upper16:.LC9
 551 0046 FFF7FEFF 		bl	chDbgPanic
 552              	.LVL51:
 553 004a 2378     		ldrb	r3, [r4]	@ zero_extendqisi2
 554 004c E2E7     		b	.L42
 555              	.L50:
 556              		.loc 1 248 0 discriminator 1
 557 004e 40F20000 		movw	r0, #:lower16:.LC8
 558 0052 C0F20000 		movt	r0, #:upper16:.LC8
 559 0056 FFF7FEFF 		bl	chDbgPanic
 560              	.LVL52:
 561 005a D6E7     		b	.L41
 562              		.cfi_endproc
ARM GAS  /tmp/ccIdC3WY.s 			page 11


 563              	.LFE125:
 564              		.size	adcStopConversionI, .-adcStopConversionI
 565 005c AFF30080 		.section	.text.adcConvert,"ax",%progbits
 566              		.align	2
 567              		.p2align 4,,15
 568              		.global	adcConvert
 569              		.thumb
 570              		.thumb_func
 571              		.type	adcConvert, %function
 572              	adcConvert:
 573              	.LFB126:
 574              		.loc 1 289 0
 575              		.cfi_startproc
 576              		@ args = 0, pretend = 0, frame = 0
 577              		@ frame_needed = 0, uses_anonymous_args = 0
 578              	.LVL53:
 579 0000 2DE9F041 		push	{r4, r5, r6, r7, r8, lr}
 580              		.cfi_def_cfa_offset 24
 581              		.cfi_offset 4, -24
 582              		.cfi_offset 5, -20
 583              		.cfi_offset 6, -16
 584              		.cfi_offset 7, -12
 585              		.cfi_offset 8, -8
 586              		.cfi_offset 14, -4
 587              		.loc 1 289 0
 588 0004 1E46     		mov	r6, r3
 589 0006 0546     		mov	r5, r0
 590 0008 8846     		mov	r8, r1
 591 000a 1746     		mov	r7, r2
 592              	.LBB13:
 593              		.loc 1 292 0
 594 000c 2023     		movs	r3, #32
 595              	.LVL54:
 596              	@ 292 "../../../os/hal/src/adc.c" 1
 597 000e 83F31188 		msr     BASEPRI, r3
 598              	@ 0 "" 2
 599              		.thumb
 600              	.LBE13:
 601 0012 FFF7FEFF 		bl	dbg_check_lock
 602              	.LVL55:
 603              		.loc 1 293 0
 604 0016 6B69     		ldr	r3, [r5, #20]
 605 0018 2BB1     		cbz	r3, .L53
 606              		.loc 1 293 0 is_stmt 0 discriminator 1
 607 001a 40F20000 		movw	r0, #:lower16:.LC10
 608 001e C0F20000 		movt	r0, #:upper16:.LC10
 609 0022 FFF7FEFF 		bl	chDbgPanic
 610              	.LVL56:
 611              	.L53:
 612              		.loc 1 295 0 is_stmt 1
 613 0026 40F20004 		movw	r4, #:lower16:rlist
 614 002a C0F20004 		movt	r4, #:upper16:rlist
 615              		.loc 1 294 0
 616 002e 4146     		mov	r1, r8
 617 0030 3A46     		mov	r2, r7
 618 0032 3346     		mov	r3, r6
 619 0034 2846     		mov	r0, r5
ARM GAS  /tmp/ccIdC3WY.s 			page 12


 620 0036 FFF7FEFF 		bl	adcStartConversionI
 621              	.LVL57:
 622              		.loc 1 295 0
 623 003a A369     		ldr	r3, [r4, #24]
 624              		.loc 1 296 0
 625 003c 0220     		movs	r0, #2
 626              		.loc 1 295 0
 627 003e 6B61     		str	r3, [r5, #20]
 628              		.loc 1 296 0
 629 0040 FFF7FEFF 		bl	chSchGoSleepS
 630              	.LVL58:
 631              		.loc 1 297 0
 632 0044 A369     		ldr	r3, [r4, #24]
 633 0046 9C6A     		ldr	r4, [r3, #40]
 634              	.LVL59:
 635              		.loc 1 298 0
 636 0048 FFF7FEFF 		bl	dbg_check_unlock
 637              	.LVL60:
 638              	.LBB14:
 639 004c 0023     		movs	r3, #0
 640              	@ 298 "../../../os/hal/src/adc.c" 1
 641 004e 83F31188 		msr     BASEPRI, r3
 642              	@ 0 "" 2
 643              		.thumb
 644              	.LBE14:
 645              		.loc 1 300 0
 646 0052 2046     		mov	r0, r4
 647 0054 BDE8F081 		pop	{r4, r5, r6, r7, r8, pc}
 648              		.cfi_endproc
 649              	.LFE126:
 650              		.size	adcConvert, .-adcConvert
 651 0058 AFF30080 		.section	.text.adcAcquireBus,"ax",%progbits
 651      AFF30080 
 652              		.align	2
 653              		.p2align 4,,15
 654              		.global	adcAcquireBus
 655              		.thumb
 656              		.thumb_func
 657              		.type	adcAcquireBus, %function
 658              	adcAcquireBus:
 659              	.LFB127:
 660              		.loc 1 315 0
 661              		.cfi_startproc
 662              		@ args = 0, pretend = 0, frame = 0
 663              		@ frame_needed = 0, uses_anonymous_args = 0
 664              	.LVL61:
 665 0000 10B5     		push	{r4, lr}
 666              		.cfi_def_cfa_offset 8
 667              		.cfi_offset 4, -8
 668              		.cfi_offset 14, -4
 669              		.loc 1 317 0
 670 0002 0446     		mov	r4, r0
 671 0004 28B1     		cbz	r0, .L59
 672              		.loc 1 320 0
 673 0006 04F11800 		add	r0, r4, #24
 674              	.LVL62:
 675              		.loc 1 324 0
ARM GAS  /tmp/ccIdC3WY.s 			page 13


 676 000a BDE81040 		pop	{r4, lr}
 677              	.LVL63:
 678              		.loc 1 320 0
 679 000e FFF7FEBF 		b	chMtxLock
 680              	.LVL64:
 681              	.L59:
 682              		.loc 1 317 0 discriminator 1
 683 0012 40F20000 		movw	r0, #:lower16:.LC11
 684              	.LVL65:
 685 0016 C0F20000 		movt	r0, #:upper16:.LC11
 686 001a FFF7FEFF 		bl	chDbgPanic
 687              	.LVL66:
 688              		.loc 1 320 0 discriminator 1
 689 001e 04F11800 		add	r0, r4, #24
 690              		.loc 1 324 0 discriminator 1
 691 0022 BDE81040 		pop	{r4, lr}
 692              	.LVL67:
 693              		.loc 1 320 0 discriminator 1
 694 0026 FFF7FEBF 		b	chMtxLock
 695              	.LVL68:
 696              		.cfi_endproc
 697              	.LFE127:
 698              		.size	adcAcquireBus, .-adcAcquireBus
 699 002a 00BFAFF3 		.section	.text.adcReleaseBus,"ax",%progbits
 699      0080
 700              		.align	2
 701              		.p2align 4,,15
 702              		.global	adcReleaseBus
 703              		.thumb
 704              		.thumb_func
 705              		.type	adcReleaseBus, %function
 706              	adcReleaseBus:
 707              	.LFB128:
 708              		.loc 1 335 0
 709              		.cfi_startproc
 710              		@ args = 0, pretend = 0, frame = 0
 711              		@ frame_needed = 0, uses_anonymous_args = 0
 712              	.LVL69:
 713 0000 08B5     		push	{r3, lr}
 714              		.cfi_def_cfa_offset 8
 715              		.cfi_offset 3, -8
 716              		.cfi_offset 14, -4
 717              		.loc 1 337 0
 718 0002 18B1     		cbz	r0, .L62
 719              		.loc 1 345 0
 720 0004 BDE80840 		pop	{r3, lr}
 721              		.loc 1 341 0
 722 0008 FFF7FEBF 		b	chMtxUnlock
 723              	.LVL70:
 724              	.L62:
 725              		.loc 1 337 0 discriminator 1
 726 000c 40F20000 		movw	r0, #:lower16:.LC12
 727              	.LVL71:
 728 0010 C0F20000 		movt	r0, #:upper16:.LC12
 729 0014 FFF7FEFF 		bl	chDbgPanic
 730              	.LVL72:
 731              		.loc 1 345 0 discriminator 1
ARM GAS  /tmp/ccIdC3WY.s 			page 14


 732 0018 BDE80840 		pop	{r3, lr}
 733              		.loc 1 341 0 discriminator 1
 734 001c FFF7FEBF 		b	chMtxUnlock
 735              	.LVL73:
 736              		.cfi_endproc
 737              	.LFE128:
 738              		.size	adcReleaseBus, .-adcReleaseBus
 739              		.section	.rodata.str1.4,"aMS",%progbits,1
 740              		.align	2
 741              	.LC0:
 742 0000 22616463 		.ascii	"\"adcStart\"()\000"
 742      53746172 
 742      74222829 
 742      00
 743 000d 000000   		.space	3
 744              	.LC1:
 745 0010 61646353 		.ascii	"adcStart(), #1\000"
 745      74617274 
 745      28292C20 
 745      233100
 746 001f 00       		.space	1
 747              	.LC2:
 748 0020 22616463 		.ascii	"\"adcStop\"()\000"
 748      53746F70 
 748      22282900 
 749              	.LC3:
 750 002c 61646353 		.ascii	"adcStop(), #1\000"
 750      746F7028 
 750      292C2023 
 750      3100
 751 003a 0000     		.space	2
 752              	.LC4:
 753 003c 22616463 		.ascii	"\"adcStartConversionI\"()\000"
 753      53746172 
 753      74436F6E 
 753      76657273 
 753      696F6E49 
 754              	.LC5:
 755 0054 61646353 		.ascii	"adcStartConversionI(), #1\000"
 755      74617274 
 755      436F6E76 
 755      65727369 
 755      6F6E4928 
 756 006e 0000     		.space	2
 757              	.LC6:
 758 0070 22616463 		.ascii	"\"adcStopConversion\"()\000"
 758      53746F70 
 758      436F6E76 
 758      65727369 
 758      6F6E2228 
 759 0086 0000     		.space	2
 760              	.LC7:
 761 0088 61646353 		.ascii	"adcStopConversion(), #1\000"
 761      746F7043 
 761      6F6E7665 
 761      7273696F 
 761      6E28292C 
ARM GAS  /tmp/ccIdC3WY.s 			page 15


 762              	.LC8:
 763 00a0 22616463 		.ascii	"\"adcStopConversionI\"()\000"
 763      53746F70 
 763      436F6E76 
 763      65727369 
 763      6F6E4922 
 764 00b7 00       		.space	1
 765              	.LC9:
 766 00b8 61646353 		.ascii	"adcStopConversionI(), #1\000"
 766      746F7043 
 766      6F6E7665 
 766      7273696F 
 766      6E492829 
 767 00d1 000000   		.space	3
 768              	.LC10:
 769 00d4 61646343 		.ascii	"adcConvert(), #1\000"
 769      6F6E7665 
 769      72742829 
 769      2C202331 
 769      00
 770 00e5 000000   		.space	3
 771              	.LC11:
 772 00e8 22616463 		.ascii	"\"adcAcquireBus\"()\000"
 772      41637175 
 772      69726542 
 772      75732228 
 772      2900
 773 00fa 0000     		.space	2
 774              	.LC12:
 775 00fc 22616463 		.ascii	"\"adcReleaseBus\"()\000"
 775      52656C65 
 775      61736542 
 775      75732228 
 775      2900
 776 010e 0000     		.text
 777              	.Letext0:
 778              		.file 2 "/usr/lib/gcc/arm-none-eabi/4.8.2/include/stddef.h"
 779              		.file 3 "/usr/include/newlib/machine/_default_types.h"
 780              		.file 4 "/usr/include/newlib/stdint.h"
 781              		.file 5 "../../../os/ports/GCC/ARMCMx/chtypes.h"
 782              		.file 6 "../../../os/kernel/include/chlists.h"
 783              		.file 7 "../../../os/kernel/include/chthreads.h"
 784              		.file 8 "../../../os/ports/GCC/ARMCMx/chcore_v7m.h"
 785              		.file 9 "../../../os/kernel/include/chschd.h"
 786              		.file 10 "../../../os/kernel/include/chmtx.h"
 787              		.file 11 "../../../os/hal/platforms/STM32F4xx/stm32f4xx.h"
 788              		.file 12 "../../../os/hal/platforms/STM32F4xx/stm32_dma.h"
 789              		.file 13 "../../../os/hal/include/adc.h"
 790              		.file 14 "../../../os/hal/platforms/STM32F4xx/adc_lld.h"
 791              		.file 15 "../../../os/ports/common/ARMCMx/CMSIS/include/core_cm4.h"
 792              		.file 16 "../../../os/kernel/include/chdebug.h"
 793              		.section	.debug_info,"",%progbits
 794              	.Ldebug_info0:
 795 0000 C20F0000 		.4byte	0xfc2
 796 0004 0400     		.2byte	0x4
 797 0006 00000000 		.4byte	.Ldebug_abbrev0
 798 000a 04       		.byte	0x4
ARM GAS  /tmp/ccIdC3WY.s 			page 16


 799 000b 01       		.uleb128 0x1
 800 000c 48000000 		.4byte	.LASF161
 801 0010 01       		.byte	0x1
 802 0011 3D010000 		.4byte	.LASF162
 803 0015 87020000 		.4byte	.LASF163
 804 0019 18000000 		.4byte	.Ldebug_ranges0+0x18
 805 001d 00000000 		.4byte	0
 806 0021 00000000 		.4byte	.Ldebug_line0
 807 0025 02       		.uleb128 0x2
 808 0026 04       		.byte	0x4
 809 0027 05       		.byte	0x5
 810 0028 696E7400 		.ascii	"int\000"
 811 002c 03       		.uleb128 0x3
 812 002d 05000000 		.4byte	.LASF2
 813 0031 02       		.byte	0x2
 814 0032 D4       		.byte	0xd4
 815 0033 37000000 		.4byte	0x37
 816 0037 04       		.uleb128 0x4
 817 0038 04       		.byte	0x4
 818 0039 07       		.byte	0x7
 819 003a 01030000 		.4byte	.LASF0
 820 003e 04       		.uleb128 0x4
 821 003f 01       		.byte	0x1
 822 0040 06       		.byte	0x6
 823 0041 63010000 		.4byte	.LASF1
 824 0045 03       		.uleb128 0x3
 825 0046 2F000000 		.4byte	.LASF3
 826 004a 03       		.byte	0x3
 827 004b 1C       		.byte	0x1c
 828 004c 50000000 		.4byte	0x50
 829 0050 04       		.uleb128 0x4
 830 0051 01       		.byte	0x1
 831 0052 08       		.byte	0x8
 832 0053 DB040000 		.4byte	.LASF4
 833 0057 04       		.uleb128 0x4
 834 0058 02       		.byte	0x2
 835 0059 05       		.byte	0x5
 836 005a A4030000 		.4byte	.LASF5
 837 005e 03       		.uleb128 0x3
 838 005f B9050000 		.4byte	.LASF6
 839 0063 03       		.byte	0x3
 840 0064 26       		.byte	0x26
 841 0065 69000000 		.4byte	0x69
 842 0069 04       		.uleb128 0x4
 843 006a 02       		.byte	0x2
 844 006b 07       		.byte	0x7
 845 006c 3D030000 		.4byte	.LASF7
 846 0070 03       		.uleb128 0x3
 847 0071 E8050000 		.4byte	.LASF8
 848 0075 03       		.byte	0x3
 849 0076 37       		.byte	0x37
 850 0077 7B000000 		.4byte	0x7b
 851 007b 04       		.uleb128 0x4
 852 007c 04       		.byte	0x4
 853 007d 05       		.byte	0x5
 854 007e B1010000 		.4byte	.LASF9
 855 0082 03       		.uleb128 0x3
ARM GAS  /tmp/ccIdC3WY.s 			page 17


 856 0083 F2050000 		.4byte	.LASF10
 857 0087 03       		.byte	0x3
 858 0088 38       		.byte	0x38
 859 0089 8D000000 		.4byte	0x8d
 860 008d 04       		.uleb128 0x4
 861 008e 04       		.byte	0x4
 862 008f 07       		.byte	0x7
 863 0090 9B050000 		.4byte	.LASF11
 864 0094 04       		.uleb128 0x4
 865 0095 08       		.byte	0x8
 866 0096 05       		.byte	0x5
 867 0097 09020000 		.4byte	.LASF12
 868 009b 03       		.uleb128 0x3
 869 009c 7E040000 		.4byte	.LASF13
 870 00a0 03       		.byte	0x3
 871 00a1 4E       		.byte	0x4e
 872 00a2 A6000000 		.4byte	0xa6
 873 00a6 04       		.uleb128 0x4
 874 00a7 08       		.byte	0x8
 875 00a8 07       		.byte	0x7
 876 00a9 F2000000 		.4byte	.LASF14
 877 00ad 03       		.uleb128 0x3
 878 00ae 95060000 		.4byte	.LASF15
 879 00b2 04       		.byte	0x4
 880 00b3 2A       		.byte	0x2a
 881 00b4 45000000 		.4byte	0x45
 882 00b8 03       		.uleb128 0x3
 883 00b9 17020000 		.4byte	.LASF16
 884 00bd 04       		.byte	0x4
 885 00be 36       		.byte	0x36
 886 00bf 5E000000 		.4byte	0x5e
 887 00c3 03       		.uleb128 0x3
 888 00c4 D3040000 		.4byte	.LASF17
 889 00c8 04       		.byte	0x4
 890 00c9 41       		.byte	0x41
 891 00ca 70000000 		.4byte	0x70
 892 00ce 03       		.uleb128 0x3
 893 00cf 74050000 		.4byte	.LASF18
 894 00d3 04       		.byte	0x4
 895 00d4 42       		.byte	0x42
 896 00d5 82000000 		.4byte	0x82
 897 00d9 03       		.uleb128 0x3
 898 00da 0C000000 		.4byte	.LASF19
 899 00de 04       		.byte	0x4
 900 00df 4E       		.byte	0x4e
 901 00e0 9B000000 		.4byte	0x9b
 902 00e4 03       		.uleb128 0x3
 903 00e5 77010000 		.4byte	.LASF20
 904 00e9 05       		.byte	0x5
 905 00ea 2B       		.byte	0x2b
 906 00eb EF000000 		.4byte	0xef
 907 00ef 04       		.uleb128 0x4
 908 00f0 01       		.byte	0x1
 909 00f1 02       		.byte	0x2
 910 00f2 CD040000 		.4byte	.LASF21
 911 00f6 03       		.uleb128 0x3
 912 00f7 77030000 		.4byte	.LASF22
ARM GAS  /tmp/ccIdC3WY.s 			page 18


 913 00fb 05       		.byte	0x5
 914 00fc 2C       		.byte	0x2c
 915 00fd AD000000 		.4byte	0xad
 916 0101 03       		.uleb128 0x3
 917 0102 F9010000 		.4byte	.LASF23
 918 0106 05       		.byte	0x5
 919 0107 2D       		.byte	0x2d
 920 0108 AD000000 		.4byte	0xad
 921 010c 03       		.uleb128 0x3
 922 010d 9D040000 		.4byte	.LASF24
 923 0111 05       		.byte	0x5
 924 0112 2E       		.byte	0x2e
 925 0113 AD000000 		.4byte	0xad
 926 0117 03       		.uleb128 0x3
 927 0118 91050000 		.4byte	.LASF25
 928 011c 05       		.byte	0x5
 929 011d 2F       		.byte	0x2f
 930 011e AD000000 		.4byte	0xad
 931 0122 03       		.uleb128 0x3
 932 0123 BF040000 		.4byte	.LASF26
 933 0127 05       		.byte	0x5
 934 0128 30       		.byte	0x30
 935 0129 CE000000 		.4byte	0xce
 936 012d 03       		.uleb128 0x3
 937 012e 60030000 		.4byte	.LASF27
 938 0132 05       		.byte	0x5
 939 0133 31       		.byte	0x31
 940 0134 C3000000 		.4byte	0xc3
 941 0138 03       		.uleb128 0x3
 942 0139 98030000 		.4byte	.LASF28
 943 013d 05       		.byte	0x5
 944 013e 33       		.byte	0x33
 945 013f CE000000 		.4byte	0xce
 946 0143 03       		.uleb128 0x3
 947 0144 D3050000 		.4byte	.LASF29
 948 0148 05       		.byte	0x5
 949 0149 35       		.byte	0x35
 950 014a CE000000 		.4byte	0xce
 951 014e 03       		.uleb128 0x3
 952 014f 4F050000 		.4byte	.LASF30
 953 0153 06       		.byte	0x6
 954 0154 2A       		.byte	0x2a
 955 0155 59010000 		.4byte	0x159
 956 0159 05       		.uleb128 0x5
 957 015a 4F050000 		.4byte	.LASF30
 958 015e 4C       		.byte	0x4c
 959 015f 07       		.byte	0x7
 960 0160 5E       		.byte	0x5e
 961 0161 62020000 		.4byte	0x262
 962 0165 06       		.uleb128 0x6
 963 0166 34050000 		.4byte	.LASF31
 964 016a 07       		.byte	0x7
 965 016b 5F       		.byte	0x5f
 966 016c 83020000 		.4byte	0x283
 967 0170 00       		.byte	0
 968 0171 06       		.uleb128 0x6
 969 0172 A5040000 		.4byte	.LASF32
ARM GAS  /tmp/ccIdC3WY.s 			page 19


 970 0176 07       		.byte	0x7
 971 0177 61       		.byte	0x61
 972 0178 83020000 		.4byte	0x283
 973 017c 04       		.byte	0x4
 974 017d 06       		.uleb128 0x6
 975 017e 31010000 		.4byte	.LASF33
 976 0182 07       		.byte	0x7
 977 0183 63       		.byte	0x63
 978 0184 22010000 		.4byte	0x122
 979 0188 08       		.byte	0x8
 980 0189 06       		.uleb128 0x6
 981 018a 3E070000 		.4byte	.LASF34
 982 018e 07       		.byte	0x7
 983 018f 64       		.byte	0x64
 984 0190 48030000 		.4byte	0x348
 985 0194 0C       		.byte	0xc
 986 0195 06       		.uleb128 0x6
 987 0196 33020000 		.4byte	.LASF35
 988 019a 07       		.byte	0x7
 989 019b 66       		.byte	0x66
 990 019c 83020000 		.4byte	0x283
 991 01a0 10       		.byte	0x10
 992 01a1 06       		.uleb128 0x6
 993 01a2 17040000 		.4byte	.LASF36
 994 01a6 07       		.byte	0x7
 995 01a7 67       		.byte	0x67
 996 01a8 83020000 		.4byte	0x283
 997 01ac 14       		.byte	0x14
 998 01ad 06       		.uleb128 0x6
 999 01ae EB060000 		.4byte	.LASF37
 1000 01b2 07       		.byte	0x7
 1001 01b3 6E       		.byte	0x6e
 1002 01b4 4D040000 		.4byte	0x44d
 1003 01b8 18       		.byte	0x18
 1004 01b9 06       		.uleb128 0x6
 1005 01ba F6020000 		.4byte	.LASF38
 1006 01be 07       		.byte	0x7
 1007 01bf 74       		.byte	0x74
 1008 01c0 5F040000 		.4byte	0x45f
 1009 01c4 1C       		.byte	0x1c
 1010 01c5 06       		.uleb128 0x6
 1011 01c6 0B050000 		.4byte	.LASF39
 1012 01ca 07       		.byte	0x7
 1013 01cb 79       		.byte	0x79
 1014 01cc 01010000 		.4byte	0x101
 1015 01d0 20       		.byte	0x20
 1016 01d1 06       		.uleb128 0x6
 1017 01d2 3B050000 		.4byte	.LASF40
 1018 01d6 07       		.byte	0x7
 1019 01d7 7D       		.byte	0x7d
 1020 01d8 F6000000 		.4byte	0xf6
 1021 01dc 21       		.byte	0x21
 1022 01dd 06       		.uleb128 0x6
 1023 01de 72060000 		.4byte	.LASF41
 1024 01e2 07       		.byte	0x7
 1025 01e3 82       		.byte	0x82
 1026 01e4 0C010000 		.4byte	0x10c
ARM GAS  /tmp/ccIdC3WY.s 			page 20


 1027 01e8 22       		.byte	0x22
 1028 01e9 06       		.uleb128 0x6
 1029 01ea 13050000 		.4byte	.LASF42
 1030 01ee 07       		.byte	0x7
 1031 01ef 88       		.byte	0x88
 1032 01f0 17010000 		.4byte	0x117
 1033 01f4 23       		.byte	0x23
 1034 01f5 06       		.uleb128 0x6
 1035 01f6 20020000 		.4byte	.LASF43
 1036 01fa 07       		.byte	0x7
 1037 01fb 8F       		.byte	0x8f
 1038 01fc 75030000 		.4byte	0x375
 1039 0200 24       		.byte	0x24
 1040 0201 07       		.uleb128 0x7
 1041 0202 705F7500 		.ascii	"p_u\000"
 1042 0206 07       		.byte	0x7
 1043 0207 B4       		.byte	0xb4
 1044 0208 18040000 		.4byte	0x418
 1045 020c 28       		.byte	0x28
 1046 020d 06       		.uleb128 0x6
 1047 020e 44070000 		.4byte	.LASF44
 1048 0212 07       		.byte	0x7
 1049 0213 B9       		.byte	0xb9
 1050 0214 A9020000 		.4byte	0x2a9
 1051 0218 2C       		.byte	0x2c
 1052 0219 06       		.uleb128 0x6
 1053 021a 1C030000 		.4byte	.LASF45
 1054 021e 07       		.byte	0x7
 1055 021f BF       		.byte	0xbf
 1056 0220 89020000 		.4byte	0x289
 1057 0224 30       		.byte	0x30
 1058 0225 06       		.uleb128 0x6
 1059 0226 05070000 		.4byte	.LASF46
 1060 022a 07       		.byte	0x7
 1061 022b C3       		.byte	0xc3
 1062 022c 2D010000 		.4byte	0x12d
 1063 0230 38       		.byte	0x38
 1064 0231 06       		.uleb128 0x6
 1065 0232 64050000 		.4byte	.LASF47
 1066 0236 07       		.byte	0x7
 1067 0237 C9       		.byte	0xc9
 1068 0238 38010000 		.4byte	0x138
 1069 023c 3C       		.byte	0x3c
 1070 023d 06       		.uleb128 0x6
 1071 023e E9040000 		.4byte	.LASF48
 1072 0242 07       		.byte	0x7
 1073 0243 D0       		.byte	0xd0
 1074 0244 65040000 		.4byte	0x465
 1075 0248 40       		.byte	0x40
 1076 0249 06       		.uleb128 0x6
 1077 024a DD050000 		.4byte	.LASF49
 1078 024e 07       		.byte	0x7
 1079 024f D4       		.byte	0xd4
 1080 0250 22010000 		.4byte	0x122
 1081 0254 44       		.byte	0x44
 1082 0255 06       		.uleb128 0x6
 1083 0256 6F010000 		.4byte	.LASF50
ARM GAS  /tmp/ccIdC3WY.s 			page 21


 1084 025a 07       		.byte	0x7
 1085 025b DA       		.byte	0xda
 1086 025c BF020000 		.4byte	0x2bf
 1087 0260 48       		.byte	0x48
 1088 0261 00       		.byte	0
 1089 0262 08       		.uleb128 0x8
 1090 0263 08       		.byte	0x8
 1091 0264 06       		.byte	0x6
 1092 0265 61       		.byte	0x61
 1093 0266 83020000 		.4byte	0x283
 1094 026a 06       		.uleb128 0x6
 1095 026b 34050000 		.4byte	.LASF31
 1096 026f 06       		.byte	0x6
 1097 0270 62       		.byte	0x62
 1098 0271 83020000 		.4byte	0x283
 1099 0275 00       		.byte	0
 1100 0276 06       		.uleb128 0x6
 1101 0277 A5040000 		.4byte	.LASF32
 1102 027b 06       		.byte	0x6
 1103 027c 64       		.byte	0x64
 1104 027d 83020000 		.4byte	0x283
 1105 0281 04       		.byte	0x4
 1106 0282 00       		.byte	0
 1107 0283 09       		.uleb128 0x9
 1108 0284 04       		.byte	0x4
 1109 0285 4E010000 		.4byte	0x14e
 1110 0289 03       		.uleb128 0x3
 1111 028a 25040000 		.4byte	.LASF51
 1112 028e 06       		.byte	0x6
 1113 028f 66       		.byte	0x66
 1114 0290 62020000 		.4byte	0x262
 1115 0294 08       		.uleb128 0x8
 1116 0295 04       		.byte	0x4
 1117 0296 06       		.byte	0x6
 1118 0297 6B       		.byte	0x6b
 1119 0298 A9020000 		.4byte	0x2a9
 1120 029c 06       		.uleb128 0x6
 1121 029d 34050000 		.4byte	.LASF31
 1122 02a1 06       		.byte	0x6
 1123 02a2 6D       		.byte	0x6d
 1124 02a3 83020000 		.4byte	0x283
 1125 02a7 00       		.byte	0
 1126 02a8 00       		.byte	0
 1127 02a9 03       		.uleb128 0x3
 1128 02aa 8C030000 		.4byte	.LASF52
 1129 02ae 06       		.byte	0x6
 1130 02af 70       		.byte	0x70
 1131 02b0 94020000 		.4byte	0x294
 1132 02b4 03       		.uleb128 0x3
 1133 02b5 6E020000 		.4byte	.LASF53
 1134 02b9 08       		.byte	0x8
 1135 02ba E5       		.byte	0xe5
 1136 02bb BF020000 		.4byte	0x2bf
 1137 02bf 0A       		.uleb128 0xa
 1138 02c0 04       		.byte	0x4
 1139 02c1 03       		.uleb128 0x3
 1140 02c2 C4030000 		.4byte	.LASF54
ARM GAS  /tmp/ccIdC3WY.s 			page 22


 1141 02c6 08       		.byte	0x8
 1142 02c7 EB       		.byte	0xeb
 1143 02c8 D9000000 		.4byte	0xd9
 1144 02cc 0B       		.uleb128 0xb
 1145 02cd 38060000 		.4byte	.LASF55
 1146 02d1 24       		.byte	0x24
 1147 02d2 08       		.byte	0x8
 1148 02d3 0C01     		.2byte	0x10c
 1149 02d5 48030000 		.4byte	0x348
 1150 02d9 0C       		.uleb128 0xc
 1151 02da 723400   		.ascii	"r4\000"
 1152 02dd 08       		.byte	0x8
 1153 02de 1F01     		.2byte	0x11f
 1154 02e0 B4020000 		.4byte	0x2b4
 1155 02e4 00       		.byte	0
 1156 02e5 0C       		.uleb128 0xc
 1157 02e6 723500   		.ascii	"r5\000"
 1158 02e9 08       		.byte	0x8
 1159 02ea 2001     		.2byte	0x120
 1160 02ec B4020000 		.4byte	0x2b4
 1161 02f0 04       		.byte	0x4
 1162 02f1 0C       		.uleb128 0xc
 1163 02f2 723600   		.ascii	"r6\000"
 1164 02f5 08       		.byte	0x8
 1165 02f6 2101     		.2byte	0x121
 1166 02f8 B4020000 		.4byte	0x2b4
 1167 02fc 08       		.byte	0x8
 1168 02fd 0C       		.uleb128 0xc
 1169 02fe 723700   		.ascii	"r7\000"
 1170 0301 08       		.byte	0x8
 1171 0302 2201     		.2byte	0x122
 1172 0304 B4020000 		.4byte	0x2b4
 1173 0308 0C       		.byte	0xc
 1174 0309 0C       		.uleb128 0xc
 1175 030a 723800   		.ascii	"r8\000"
 1176 030d 08       		.byte	0x8
 1177 030e 2301     		.2byte	0x123
 1178 0310 B4020000 		.4byte	0x2b4
 1179 0314 10       		.byte	0x10
 1180 0315 0C       		.uleb128 0xc
 1181 0316 723900   		.ascii	"r9\000"
 1182 0319 08       		.byte	0x8
 1183 031a 2401     		.2byte	0x124
 1184 031c B4020000 		.4byte	0x2b4
 1185 0320 14       		.byte	0x14
 1186 0321 0C       		.uleb128 0xc
 1187 0322 72313000 		.ascii	"r10\000"
 1188 0326 08       		.byte	0x8
 1189 0327 2501     		.2byte	0x125
 1190 0329 B4020000 		.4byte	0x2b4
 1191 032d 18       		.byte	0x18
 1192 032e 0C       		.uleb128 0xc
 1193 032f 72313100 		.ascii	"r11\000"
 1194 0333 08       		.byte	0x8
 1195 0334 2601     		.2byte	0x126
 1196 0336 B4020000 		.4byte	0x2b4
 1197 033a 1C       		.byte	0x1c
ARM GAS  /tmp/ccIdC3WY.s 			page 23


 1198 033b 0C       		.uleb128 0xc
 1199 033c 6C7200   		.ascii	"lr\000"
 1200 033f 08       		.byte	0x8
 1201 0340 2701     		.2byte	0x127
 1202 0342 B4020000 		.4byte	0x2b4
 1203 0346 20       		.byte	0x20
 1204 0347 00       		.byte	0
 1205 0348 0B       		.uleb128 0xb
 1206 0349 15060000 		.4byte	.LASF56
 1207 034d 04       		.byte	0x4
 1208 034e 08       		.byte	0x8
 1209 034f 3101     		.2byte	0x131
 1210 0351 63030000 		.4byte	0x363
 1211 0355 0C       		.uleb128 0xc
 1212 0356 72313300 		.ascii	"r13\000"
 1213 035a 08       		.byte	0x8
 1214 035b 3201     		.2byte	0x132
 1215 035d 63030000 		.4byte	0x363
 1216 0361 00       		.byte	0
 1217 0362 00       		.byte	0
 1218 0363 09       		.uleb128 0x9
 1219 0364 04       		.byte	0x4
 1220 0365 CC020000 		.4byte	0x2cc
 1221 0369 0D       		.uleb128 0xd
 1222 036a CE000000 		.4byte	0xce
 1223 036e 04       		.uleb128 0x4
 1224 036f 04       		.byte	0x4
 1225 0370 07       		.byte	0x7
 1226 0371 F5030000 		.4byte	.LASF57
 1227 0375 0D       		.uleb128 0xd
 1228 0376 43010000 		.4byte	0x143
 1229 037a 08       		.uleb128 0x8
 1230 037b 1C       		.byte	0x1c
 1231 037c 09       		.byte	0x9
 1232 037d 5E       		.byte	0x5e
 1233 037e CB030000 		.4byte	0x3cb
 1234 0382 06       		.uleb128 0x6
 1235 0383 7D050000 		.4byte	.LASF58
 1236 0387 09       		.byte	0x9
 1237 0388 5F       		.byte	0x5f
 1238 0389 89020000 		.4byte	0x289
 1239 038d 00       		.byte	0
 1240 038e 06       		.uleb128 0x6
 1241 038f 26050000 		.4byte	.LASF59
 1242 0393 09       		.byte	0x9
 1243 0394 60       		.byte	0x60
 1244 0395 22010000 		.4byte	0x122
 1245 0399 08       		.byte	0x8
 1246 039a 06       		.uleb128 0x6
 1247 039b 1F040000 		.4byte	.LASF60
 1248 039f 09       		.byte	0x9
 1249 03a0 62       		.byte	0x62
 1250 03a1 48030000 		.4byte	0x348
 1251 03a5 0C       		.byte	0xc
 1252 03a6 06       		.uleb128 0x6
 1253 03a7 5C020000 		.4byte	.LASF61
 1254 03ab 09       		.byte	0x9
ARM GAS  /tmp/ccIdC3WY.s 			page 24


 1255 03ac 65       		.byte	0x65
 1256 03ad 83020000 		.4byte	0x283
 1257 03b1 10       		.byte	0x10
 1258 03b2 06       		.uleb128 0x6
 1259 03b3 1D060000 		.4byte	.LASF62
 1260 03b7 09       		.byte	0x9
 1261 03b8 66       		.byte	0x66
 1262 03b9 83020000 		.4byte	0x283
 1263 03bd 14       		.byte	0x14
 1264 03be 06       		.uleb128 0x6
 1265 03bf 45040000 		.4byte	.LASF63
 1266 03c3 09       		.byte	0x9
 1267 03c4 69       		.byte	0x69
 1268 03c5 83020000 		.4byte	0x283
 1269 03c9 18       		.byte	0x18
 1270 03ca 00       		.byte	0
 1271 03cb 03       		.uleb128 0x3
 1272 03cc 79060000 		.4byte	.LASF64
 1273 03d0 09       		.byte	0x9
 1274 03d1 6B       		.byte	0x6b
 1275 03d2 7A030000 		.4byte	0x37a
 1276 03d6 05       		.uleb128 0x5
 1277 03d7 FE030000 		.4byte	.LASF65
 1278 03db 10       		.byte	0x10
 1279 03dc 0A       		.byte	0xa
 1280 03dd 2C       		.byte	0x2c
 1281 03de 07040000 		.4byte	0x407
 1282 03e2 06       		.uleb128 0x6
 1283 03e3 7E010000 		.4byte	.LASF66
 1284 03e7 0A       		.byte	0xa
 1285 03e8 2D       		.byte	0x2d
 1286 03e9 89020000 		.4byte	0x289
 1287 03ed 00       		.byte	0
 1288 03ee 06       		.uleb128 0x6
 1289 03ef 28070000 		.4byte	.LASF67
 1290 03f3 0A       		.byte	0xa
 1291 03f4 2F       		.byte	0x2f
 1292 03f5 83020000 		.4byte	0x283
 1293 03f9 08       		.byte	0x8
 1294 03fa 06       		.uleb128 0x6
 1295 03fb 3E040000 		.4byte	.LASF68
 1296 03ff 0A       		.byte	0xa
 1297 0400 31       		.byte	0x31
 1298 0401 07040000 		.4byte	0x407
 1299 0405 0C       		.byte	0xc
 1300 0406 00       		.byte	0
 1301 0407 09       		.uleb128 0x9
 1302 0408 04       		.byte	0x4
 1303 0409 D6030000 		.4byte	0x3d6
 1304 040d 03       		.uleb128 0x3
 1305 040e FE030000 		.4byte	.LASF65
 1306 0412 0A       		.byte	0xa
 1307 0413 33       		.byte	0x33
 1308 0414 D6030000 		.4byte	0x3d6
 1309 0418 0E       		.uleb128 0xe
 1310 0419 04       		.byte	0x4
 1311 041a 07       		.byte	0x7
ARM GAS  /tmp/ccIdC3WY.s 			page 25


 1312 041b 96       		.byte	0x96
 1313 041c 4D040000 		.4byte	0x44d
 1314 0420 0F       		.uleb128 0xf
 1315 0421 15000000 		.4byte	.LASF69
 1316 0425 07       		.byte	0x7
 1317 0426 9D       		.byte	0x9d
 1318 0427 2D010000 		.4byte	0x12d
 1319 042b 0F       		.uleb128 0xf
 1320 042c 09010000 		.4byte	.LASF70
 1321 0430 07       		.byte	0x7
 1322 0431 A4       		.byte	0xa4
 1323 0432 2D010000 		.4byte	0x12d
 1324 0436 0F       		.uleb128 0xf
 1325 0437 D7060000 		.4byte	.LASF71
 1326 043b 07       		.byte	0x7
 1327 043c AB       		.byte	0xab
 1328 043d BF020000 		.4byte	0x2bf
 1329 0441 0F       		.uleb128 0xf
 1330 0442 2D050000 		.4byte	.LASF72
 1331 0446 07       		.byte	0x7
 1332 0447 B2       		.byte	0xb2
 1333 0448 38010000 		.4byte	0x138
 1334 044c 00       		.byte	0
 1335 044d 09       		.uleb128 0x9
 1336 044e 04       		.byte	0x4
 1337 044f 53040000 		.4byte	0x453
 1338 0453 10       		.uleb128 0x10
 1339 0454 58040000 		.4byte	0x458
 1340 0458 04       		.uleb128 0x4
 1341 0459 01       		.byte	0x1
 1342 045a 08       		.byte	0x8
 1343 045b AD050000 		.4byte	.LASF73
 1344 045f 09       		.uleb128 0x9
 1345 0460 04       		.byte	0x4
 1346 0461 C1020000 		.4byte	0x2c1
 1347 0465 09       		.uleb128 0x9
 1348 0466 04       		.byte	0x4
 1349 0467 0D040000 		.4byte	0x40d
 1350 046b 0D       		.uleb128 0xd
 1351 046c C3000000 		.4byte	0xc3
 1352 0470 11       		.uleb128 0x11
 1353 0471 50       		.byte	0x50
 1354 0472 0B       		.byte	0xb
 1355 0473 0A02     		.2byte	0x20a
 1356 0475 7C050000 		.4byte	0x57c
 1357 0479 0C       		.uleb128 0xc
 1358 047a 535200   		.ascii	"SR\000"
 1359 047d 0B       		.byte	0xb
 1360 047e 0C02     		.2byte	0x20c
 1361 0480 69030000 		.4byte	0x369
 1362 0484 00       		.byte	0
 1363 0485 0C       		.uleb128 0xc
 1364 0486 43523100 		.ascii	"CR1\000"
 1365 048a 0B       		.byte	0xb
 1366 048b 0D02     		.2byte	0x20d
 1367 048d 69030000 		.4byte	0x369
 1368 0491 04       		.byte	0x4
ARM GAS  /tmp/ccIdC3WY.s 			page 26


 1369 0492 0C       		.uleb128 0xc
 1370 0493 43523200 		.ascii	"CR2\000"
 1371 0497 0B       		.byte	0xb
 1372 0498 0E02     		.2byte	0x20e
 1373 049a 69030000 		.4byte	0x369
 1374 049e 08       		.byte	0x8
 1375 049f 12       		.uleb128 0x12
 1376 04a0 32040000 		.4byte	.LASF74
 1377 04a4 0B       		.byte	0xb
 1378 04a5 0F02     		.2byte	0x20f
 1379 04a7 69030000 		.4byte	0x369
 1380 04ab 0C       		.byte	0xc
 1381 04ac 12       		.uleb128 0x12
 1382 04ad 38040000 		.4byte	.LASF75
 1383 04b1 0B       		.byte	0xb
 1384 04b2 1002     		.2byte	0x210
 1385 04b4 69030000 		.4byte	0x369
 1386 04b8 10       		.byte	0x10
 1387 04b9 12       		.uleb128 0x12
 1388 04ba D4030000 		.4byte	.LASF76
 1389 04be 0B       		.byte	0xb
 1390 04bf 1102     		.2byte	0x211
 1391 04c1 69030000 		.4byte	0x369
 1392 04c5 14       		.byte	0x14
 1393 04c6 12       		.uleb128 0x12
 1394 04c7 DA030000 		.4byte	.LASF77
 1395 04cb 0B       		.byte	0xb
 1396 04cc 1202     		.2byte	0x212
 1397 04ce 69030000 		.4byte	0x369
 1398 04d2 18       		.byte	0x18
 1399 04d3 12       		.uleb128 0x12
 1400 04d4 43050000 		.4byte	.LASF78
 1401 04d8 0B       		.byte	0xb
 1402 04d9 1302     		.2byte	0x213
 1403 04db 69030000 		.4byte	0x369
 1404 04df 1C       		.byte	0x1c
 1405 04e0 12       		.uleb128 0x12
 1406 04e1 49050000 		.4byte	.LASF79
 1407 04e5 0B       		.byte	0xb
 1408 04e6 1402     		.2byte	0x214
 1409 04e8 69030000 		.4byte	0x369
 1410 04ec 20       		.byte	0x20
 1411 04ed 0C       		.uleb128 0xc
 1412 04ee 48545200 		.ascii	"HTR\000"
 1413 04f2 0B       		.byte	0xb
 1414 04f3 1502     		.2byte	0x215
 1415 04f5 69030000 		.4byte	0x369
 1416 04f9 24       		.byte	0x24
 1417 04fa 0C       		.uleb128 0xc
 1418 04fb 4C545200 		.ascii	"LTR\000"
 1419 04ff 0B       		.byte	0xb
 1420 0500 1602     		.2byte	0x216
 1421 0502 69030000 		.4byte	0x369
 1422 0506 28       		.byte	0x28
 1423 0507 12       		.uleb128 0x12
 1424 0508 6F040000 		.4byte	.LASF80
 1425 050c 0B       		.byte	0xb
ARM GAS  /tmp/ccIdC3WY.s 			page 27


 1426 050d 1702     		.2byte	0x217
 1427 050f 69030000 		.4byte	0x369
 1428 0513 2C       		.byte	0x2c
 1429 0514 12       		.uleb128 0x12
 1430 0515 74040000 		.4byte	.LASF81
 1431 0519 0B       		.byte	0xb
 1432 051a 1802     		.2byte	0x218
 1433 051c 69030000 		.4byte	0x369
 1434 0520 30       		.byte	0x30
 1435 0521 12       		.uleb128 0x12
 1436 0522 79040000 		.4byte	.LASF82
 1437 0526 0B       		.byte	0xb
 1438 0527 1902     		.2byte	0x219
 1439 0529 69030000 		.4byte	0x369
 1440 052d 34       		.byte	0x34
 1441 052e 12       		.uleb128 0x12
 1442 052f 38010000 		.4byte	.LASF83
 1443 0533 0B       		.byte	0xb
 1444 0534 1A02     		.2byte	0x21a
 1445 0536 69030000 		.4byte	0x369
 1446 053a 38       		.byte	0x38
 1447 053b 12       		.uleb128 0x12
 1448 053c C3060000 		.4byte	.LASF84
 1449 0540 0B       		.byte	0xb
 1450 0541 1B02     		.2byte	0x21b
 1451 0543 69030000 		.4byte	0x369
 1452 0547 3C       		.byte	0x3c
 1453 0548 12       		.uleb128 0x12
 1454 0549 C8060000 		.4byte	.LASF85
 1455 054d 0B       		.byte	0xb
 1456 054e 1C02     		.2byte	0x21c
 1457 0550 69030000 		.4byte	0x369
 1458 0554 40       		.byte	0x40
 1459 0555 12       		.uleb128 0x12
 1460 0556 CD060000 		.4byte	.LASF86
 1461 055a 0B       		.byte	0xb
 1462 055b 1D02     		.2byte	0x21d
 1463 055d 69030000 		.4byte	0x369
 1464 0561 44       		.byte	0x44
 1465 0562 12       		.uleb128 0x12
 1466 0563 D2060000 		.4byte	.LASF87
 1467 0567 0B       		.byte	0xb
 1468 0568 1E02     		.2byte	0x21e
 1469 056a 69030000 		.4byte	0x369
 1470 056e 48       		.byte	0x48
 1471 056f 0C       		.uleb128 0xc
 1472 0570 445200   		.ascii	"DR\000"
 1473 0573 0B       		.byte	0xb
 1474 0574 1F02     		.2byte	0x21f
 1475 0576 69030000 		.4byte	0x369
 1476 057a 4C       		.byte	0x4c
 1477 057b 00       		.byte	0
 1478 057c 13       		.uleb128 0x13
 1479 057d 27020000 		.4byte	.LASF88
 1480 0581 0B       		.byte	0xb
 1481 0582 2002     		.2byte	0x220
 1482 0584 70040000 		.4byte	0x470
ARM GAS  /tmp/ccIdC3WY.s 			page 28


 1483 0588 11       		.uleb128 0x11
 1484 0589 18       		.byte	0x18
 1485 058a 0B       		.byte	0xb
 1486 058b B102     		.2byte	0x2b1
 1487 058d DF050000 		.4byte	0x5df
 1488 0591 0C       		.uleb128 0xc
 1489 0592 435200   		.ascii	"CR\000"
 1490 0595 0B       		.byte	0xb
 1491 0596 B302     		.2byte	0x2b3
 1492 0598 69030000 		.4byte	0x369
 1493 059c 00       		.byte	0
 1494 059d 12       		.uleb128 0x12
 1495 059e FD050000 		.4byte	.LASF89
 1496 05a2 0B       		.byte	0xb
 1497 05a3 B402     		.2byte	0x2b4
 1498 05a5 69030000 		.4byte	0x369
 1499 05a9 04       		.byte	0x4
 1500 05aa 0C       		.uleb128 0xc
 1501 05ab 50415200 		.ascii	"PAR\000"
 1502 05af 0B       		.byte	0xb
 1503 05b0 B502     		.2byte	0x2b5
 1504 05b2 69030000 		.4byte	0x369
 1505 05b6 08       		.byte	0x8
 1506 05b7 12       		.uleb128 0x12
 1507 05b8 00000000 		.4byte	.LASF90
 1508 05bc 0B       		.byte	0xb
 1509 05bd B602     		.2byte	0x2b6
 1510 05bf 69030000 		.4byte	0x369
 1511 05c3 0C       		.byte	0xc
 1512 05c4 12       		.uleb128 0x12
 1513 05c5 3F060000 		.4byte	.LASF91
 1514 05c9 0B       		.byte	0xb
 1515 05ca B702     		.2byte	0x2b7
 1516 05cc 69030000 		.4byte	0x369
 1517 05d0 10       		.byte	0x10
 1518 05d1 0C       		.uleb128 0xc
 1519 05d2 46435200 		.ascii	"FCR\000"
 1520 05d6 0B       		.byte	0xb
 1521 05d7 B802     		.2byte	0x2b8
 1522 05d9 69030000 		.4byte	0x369
 1523 05dd 14       		.byte	0x14
 1524 05de 00       		.byte	0
 1525 05df 13       		.uleb128 0x13
 1526 05e0 02060000 		.4byte	.LASF92
 1527 05e4 0B       		.byte	0xb
 1528 05e5 B902     		.2byte	0x2b9
 1529 05e7 88050000 		.4byte	0x588
 1530 05eb 08       		.uleb128 0x8
 1531 05ec 0C       		.byte	0xc
 1532 05ed 0C       		.byte	0xc
 1533 05ee DA       		.byte	0xda
 1534 05ef 30060000 		.4byte	0x630
 1535 05f3 06       		.uleb128 0x6
 1536 05f4 41000000 		.4byte	.LASF93
 1537 05f8 0C       		.byte	0xc
 1538 05f9 DB       		.byte	0xdb
 1539 05fa 30060000 		.4byte	0x630
ARM GAS  /tmp/ccIdC3WY.s 			page 29


 1540 05fe 00       		.byte	0
 1541 05ff 06       		.uleb128 0x6
 1542 0600 6F050000 		.4byte	.LASF94
 1543 0604 0C       		.byte	0xc
 1544 0605 DC       		.byte	0xdc
 1545 0606 36060000 		.4byte	0x636
 1546 060a 04       		.byte	0x4
 1547 060b 06       		.uleb128 0x6
 1548 060c 36030000 		.4byte	.LASF95
 1549 0610 0C       		.byte	0xc
 1550 0611 DD       		.byte	0xdd
 1551 0612 AD000000 		.4byte	0xad
 1552 0616 08       		.byte	0x8
 1553 0617 06       		.uleb128 0x6
 1554 0618 77020000 		.4byte	.LASF96
 1555 061c 0C       		.byte	0xc
 1556 061d DF       		.byte	0xdf
 1557 061e AD000000 		.4byte	0xad
 1558 0622 09       		.byte	0x9
 1559 0623 06       		.uleb128 0x6
 1560 0624 12010000 		.4byte	.LASF97
 1561 0628 0C       		.byte	0xc
 1562 0629 E0       		.byte	0xe0
 1563 062a AD000000 		.4byte	0xad
 1564 062e 0A       		.byte	0xa
 1565 062f 00       		.byte	0
 1566 0630 09       		.uleb128 0x9
 1567 0631 04       		.byte	0x4
 1568 0632 DF050000 		.4byte	0x5df
 1569 0636 09       		.uleb128 0x9
 1570 0637 04       		.byte	0x4
 1571 0638 69030000 		.4byte	0x369
 1572 063c 03       		.uleb128 0x3
 1573 063d AC040000 		.4byte	.LASF98
 1574 0641 0C       		.byte	0xc
 1575 0642 E1       		.byte	0xe1
 1576 0643 EB050000 		.4byte	0x5eb
 1577 0647 14       		.uleb128 0x14
 1578 0648 01       		.byte	0x1
 1579 0649 0D       		.byte	0xd
 1580 064a 55       		.byte	0x55
 1581 064b 74060000 		.4byte	0x674
 1582 064f 15       		.uleb128 0x15
 1583 0650 CF020000 		.4byte	.LASF99
 1584 0654 00       		.sleb128 0
 1585 0655 15       		.uleb128 0x15
 1586 0656 04040000 		.4byte	.LASF100
 1587 065a 01       		.sleb128 1
 1588 065b 15       		.uleb128 0x15
 1589 065c 50030000 		.4byte	.LASF101
 1590 0660 02       		.sleb128 2
 1591 0661 15       		.uleb128 0x15
 1592 0662 EB020000 		.4byte	.LASF102
 1593 0666 03       		.sleb128 3
 1594 0667 15       		.uleb128 0x15
 1595 0668 DE060000 		.4byte	.LASF103
 1596 066c 04       		.sleb128 4
ARM GAS  /tmp/ccIdC3WY.s 			page 30


 1597 066d 15       		.uleb128 0x15
 1598 066e 98010000 		.4byte	.LASF104
 1599 0672 05       		.sleb128 5
 1600 0673 00       		.byte	0
 1601 0674 03       		.uleb128 0x3
 1602 0675 24000000 		.4byte	.LASF105
 1603 0679 0D       		.byte	0xd
 1604 067a 5C       		.byte	0x5c
 1605 067b 47060000 		.4byte	0x647
 1606 067f 13       		.uleb128 0x13
 1607 0680 50020000 		.4byte	.LASF106
 1608 0684 0E       		.byte	0xe
 1609 0685 2701     		.2byte	0x127
 1610 0687 B8000000 		.4byte	0xb8
 1611 068b 13       		.uleb128 0x13
 1612 068c F2060000 		.4byte	.LASF107
 1613 0690 0E       		.byte	0xe
 1614 0691 2C01     		.2byte	0x12c
 1615 0693 B8000000 		.4byte	0xb8
 1616 0697 16       		.uleb128 0x16
 1617 0698 01       		.byte	0x1
 1618 0699 0E       		.byte	0xe
 1619 069a 3301     		.2byte	0x133
 1620 069c AD060000 		.4byte	0x6ad
 1621 06a0 15       		.uleb128 0x15
 1622 06a1 BA010000 		.4byte	.LASF108
 1623 06a5 00       		.sleb128 0
 1624 06a6 15       		.uleb128 0x15
 1625 06a7 DA020000 		.4byte	.LASF109
 1626 06ab 01       		.sleb128 1
 1627 06ac 00       		.byte	0
 1628 06ad 13       		.uleb128 0x13
 1629 06ae 86010000 		.4byte	.LASF110
 1630 06b2 0E       		.byte	0xe
 1631 06b3 3601     		.2byte	0x136
 1632 06b5 97060000 		.4byte	0x697
 1633 06b9 13       		.uleb128 0x13
 1634 06ba 27030000 		.4byte	.LASF111
 1635 06be 0E       		.byte	0xe
 1636 06bf 3B01     		.2byte	0x13b
 1637 06c1 C5060000 		.4byte	0x6c5
 1638 06c5 0B       		.uleb128 0xb
 1639 06c6 27030000 		.4byte	.LASF111
 1640 06ca 34       		.byte	0x34
 1641 06cb 0E       		.byte	0xe
 1642 06cc 9F01     		.2byte	0x19f
 1643 06ce 55070000 		.4byte	0x755
 1644 06d2 12       		.uleb128 0x12
 1645 06d3 A2010000 		.4byte	.LASF112
 1646 06d7 0E       		.byte	0xe
 1647 06d8 A301     		.2byte	0x1a3
 1648 06da 74060000 		.4byte	0x674
 1649 06de 00       		.byte	0
 1650 06df 12       		.uleb128 0x12
 1651 06e0 B2050000 		.4byte	.LASF113
 1652 06e4 0E       		.byte	0xe
 1653 06e5 A701     		.2byte	0x1a7
ARM GAS  /tmp/ccIdC3WY.s 			page 31


 1654 06e7 72080000 		.4byte	0x872
 1655 06eb 04       		.byte	0x4
 1656 06ec 12       		.uleb128 0x12
 1657 06ed ED030000 		.4byte	.LASF114
 1658 06f1 0E       		.byte	0xe
 1659 06f2 AB01     		.2byte	0x1ab
 1660 06f4 82070000 		.4byte	0x782
 1661 06f8 08       		.byte	0x8
 1662 06f9 12       		.uleb128 0x12
 1663 06fa 5A030000 		.4byte	.LASF115
 1664 06fe 0E       		.byte	0xe
 1665 06ff AF01     		.2byte	0x1af
 1666 0701 2C000000 		.4byte	0x2c
 1667 0705 0C       		.byte	0xc
 1668 0706 12       		.uleb128 0x12
 1669 0707 CF030000 		.4byte	.LASF116
 1670 070b 0E       		.byte	0xe
 1671 070c B301     		.2byte	0x1b3
 1672 070e 7D080000 		.4byte	0x87d
 1673 0712 10       		.byte	0x10
 1674 0713 12       		.uleb128 0x12
 1675 0714 02020000 		.4byte	.LASF117
 1676 0718 0E       		.byte	0xe
 1677 0719 B801     		.2byte	0x1b8
 1678 071b 83020000 		.4byte	0x283
 1679 071f 14       		.byte	0x14
 1680 0720 12       		.uleb128 0x12
 1681 0721 C7040000 		.4byte	.LASF118
 1682 0725 0E       		.byte	0xe
 1683 0726 BF01     		.2byte	0x1bf
 1684 0728 0D040000 		.4byte	0x40d
 1685 072c 18       		.byte	0x18
 1686 072d 0C       		.uleb128 0xc
 1687 072e 61646300 		.ascii	"adc\000"
 1688 0732 0E       		.byte	0xe
 1689 0733 CB01     		.2byte	0x1cb
 1690 0735 88080000 		.4byte	0x888
 1691 0739 28       		.byte	0x28
 1692 073a 12       		.uleb128 0x12
 1693 073b 91010000 		.4byte	.LASF119
 1694 073f 0E       		.byte	0xe
 1695 0740 CF01     		.2byte	0x1cf
 1696 0742 8E080000 		.4byte	0x88e
 1697 0746 2C       		.byte	0x2c
 1698 0747 12       		.uleb128 0x12
 1699 0748 1C000000 		.4byte	.LASF120
 1700 074c 0E       		.byte	0xe
 1701 074d D301     		.2byte	0x1d3
 1702 074f CE000000 		.4byte	0xce
 1703 0753 30       		.byte	0x30
 1704 0754 00       		.byte	0
 1705 0755 13       		.uleb128 0x13
 1706 0756 42020000 		.4byte	.LASF121
 1707 075a 0E       		.byte	0xe
 1708 075b 4501     		.2byte	0x145
 1709 075d 61070000 		.4byte	0x761
 1710 0761 09       		.uleb128 0x9
ARM GAS  /tmp/ccIdC3WY.s 			page 32


 1711 0762 04       		.byte	0x4
 1712 0763 67070000 		.4byte	0x767
 1713 0767 17       		.uleb128 0x17
 1714 0768 7C070000 		.4byte	0x77c
 1715 076c 18       		.uleb128 0x18
 1716 076d 7C070000 		.4byte	0x77c
 1717 0771 18       		.uleb128 0x18
 1718 0772 82070000 		.4byte	0x782
 1719 0776 18       		.uleb128 0x18
 1720 0777 2C000000 		.4byte	0x2c
 1721 077b 00       		.byte	0
 1722 077c 09       		.uleb128 0x9
 1723 077d 04       		.byte	0x4
 1724 077e B9060000 		.4byte	0x6b9
 1725 0782 09       		.uleb128 0x9
 1726 0783 04       		.byte	0x4
 1727 0784 7F060000 		.4byte	0x67f
 1728 0788 13       		.uleb128 0x13
 1729 0789 E6010000 		.4byte	.LASF122
 1730 078d 0E       		.byte	0xe
 1731 078e 4E01     		.2byte	0x14e
 1732 0790 94070000 		.4byte	0x794
 1733 0794 09       		.uleb128 0x9
 1734 0795 04       		.byte	0x4
 1735 0796 9A070000 		.4byte	0x79a
 1736 079a 17       		.uleb128 0x17
 1737 079b AA070000 		.4byte	0x7aa
 1738 079f 18       		.uleb128 0x18
 1739 07a0 7C070000 		.4byte	0x77c
 1740 07a4 18       		.uleb128 0x18
 1741 07a5 AD060000 		.4byte	0x6ad
 1742 07a9 00       		.byte	0
 1743 07aa 11       		.uleb128 0x11
 1744 07ab 28       		.byte	0x28
 1745 07ac 0E       		.byte	0xe
 1746 07ad 5801     		.2byte	0x158
 1747 07af 43080000 		.4byte	0x843
 1748 07b3 12       		.uleb128 0x12
 1749 07b4 A8010000 		.4byte	.LASF123
 1750 07b8 0E       		.byte	0xe
 1751 07b9 5C01     		.2byte	0x15c
 1752 07bb E4000000 		.4byte	0xe4
 1753 07bf 00       		.byte	0
 1754 07c0 12       		.uleb128 0x12
 1755 07c1 7F030000 		.4byte	.LASF124
 1756 07c5 0E       		.byte	0xe
 1757 07c6 6001     		.2byte	0x160
 1758 07c8 8B060000 		.4byte	0x68b
 1759 07cc 02       		.byte	0x2
 1760 07cd 12       		.uleb128 0x12
 1761 07ce 3B020000 		.4byte	.LASF125
 1762 07d2 0E       		.byte	0xe
 1763 07d3 6401     		.2byte	0x164
 1764 07d5 55070000 		.4byte	0x755
 1765 07d9 04       		.byte	0x4
 1766 07da 12       		.uleb128 0x12
 1767 07db 1D050000 		.4byte	.LASF126
ARM GAS  /tmp/ccIdC3WY.s 			page 33


 1768 07df 0E       		.byte	0xe
 1769 07e0 6801     		.2byte	0x168
 1770 07e2 88070000 		.4byte	0x788
 1771 07e6 08       		.byte	0x8
 1772 07e7 0C       		.uleb128 0xc
 1773 07e8 63723100 		.ascii	"cr1\000"
 1774 07ec 0E       		.byte	0xe
 1775 07ed 6F01     		.2byte	0x16f
 1776 07ef CE000000 		.4byte	0xce
 1777 07f3 0C       		.byte	0xc
 1778 07f4 0C       		.uleb128 0xc
 1779 07f5 63723200 		.ascii	"cr2\000"
 1780 07f9 0E       		.byte	0xe
 1781 07fa 7601     		.2byte	0x176
 1782 07fc CE000000 		.4byte	0xce
 1783 0800 10       		.byte	0x10
 1784 0801 12       		.uleb128 0x12
 1785 0802 83060000 		.4byte	.LASF127
 1786 0806 0E       		.byte	0xe
 1787 0807 7C01     		.2byte	0x17c
 1788 0809 CE000000 		.4byte	0xce
 1789 080d 14       		.byte	0x14
 1790 080e 12       		.uleb128 0x12
 1791 080f 89060000 		.4byte	.LASF128
 1792 0813 0E       		.byte	0xe
 1793 0814 8201     		.2byte	0x182
 1794 0816 CE000000 		.4byte	0xce
 1795 081a 18       		.byte	0x18
 1796 081b 12       		.uleb128 0x12
 1797 081c C4050000 		.4byte	.LASF129
 1798 0820 0E       		.byte	0xe
 1799 0821 8701     		.2byte	0x187
 1800 0823 CE000000 		.4byte	0xce
 1801 0827 1C       		.byte	0x1c
 1802 0828 12       		.uleb128 0x12
 1803 0829 C9050000 		.4byte	.LASF130
 1804 082d 0E       		.byte	0xe
 1805 082e 8C01     		.2byte	0x18c
 1806 0830 CE000000 		.4byte	0xce
 1807 0834 20       		.byte	0x20
 1808 0835 12       		.uleb128 0x12
 1809 0836 CE050000 		.4byte	.LASF131
 1810 083a 0E       		.byte	0xe
 1811 083b 9101     		.2byte	0x191
 1812 083d CE000000 		.4byte	0xce
 1813 0841 24       		.byte	0x24
 1814 0842 00       		.byte	0
 1815 0843 13       		.uleb128 0x13
 1816 0844 B0060000 		.4byte	.LASF132
 1817 0848 0E       		.byte	0xe
 1818 0849 9201     		.2byte	0x192
 1819 084b AA070000 		.4byte	0x7aa
 1820 084f 11       		.uleb128 0x11
 1821 0850 04       		.byte	0x4
 1822 0851 0E       		.byte	0xe
 1823 0852 9801     		.2byte	0x198
 1824 0854 66080000 		.4byte	0x866
ARM GAS  /tmp/ccIdC3WY.s 			page 34


 1825 0858 12       		.uleb128 0x12
 1826 0859 81020000 		.4byte	.LASF133
 1827 085d 0E       		.byte	0xe
 1828 085e 9901     		.2byte	0x199
 1829 0860 CE000000 		.4byte	0xce
 1830 0864 00       		.byte	0
 1831 0865 00       		.byte	0
 1832 0866 13       		.uleb128 0x13
 1833 0867 64020000 		.4byte	.LASF134
 1834 086b 0E       		.byte	0xe
 1835 086c 9A01     		.2byte	0x19a
 1836 086e 4F080000 		.4byte	0x84f
 1837 0872 09       		.uleb128 0x9
 1838 0873 04       		.byte	0x4
 1839 0874 78080000 		.4byte	0x878
 1840 0878 10       		.uleb128 0x10
 1841 0879 66080000 		.4byte	0x866
 1842 087d 09       		.uleb128 0x9
 1843 087e 04       		.byte	0x4
 1844 087f 83080000 		.4byte	0x883
 1845 0883 10       		.uleb128 0x10
 1846 0884 43080000 		.4byte	0x843
 1847 0888 09       		.uleb128 0x9
 1848 0889 04       		.byte	0x4
 1849 088a 7C050000 		.4byte	0x57c
 1850 088e 09       		.uleb128 0x9
 1851 088f 04       		.byte	0x4
 1852 0890 94080000 		.4byte	0x894
 1853 0894 10       		.uleb128 0x10
 1854 0895 3C060000 		.4byte	0x63c
 1855 0899 19       		.uleb128 0x19
 1856 089a AE030000 		.4byte	.LASF135
 1857 089e 01       		.byte	0x1
 1858 089f 44       		.byte	0x44
 1859 08a0 00000000 		.4byte	.LFB118
 1860 08a4 04000000 		.4byte	.LFE118-.LFB118
 1861 08a8 01       		.uleb128 0x1
 1862 08a9 9C       		.byte	0x9c
 1863 08aa B8080000 		.4byte	0x8b8
 1864 08ae 1A       		.uleb128 0x1a
 1865 08af 04000000 		.4byte	.LVL0
 1866 08b3 E60E0000 		.4byte	0xee6
 1867 08b7 00       		.byte	0
 1868 08b8 19       		.uleb128 0x19
 1869 08b9 0E030000 		.4byte	.LASF136
 1870 08bd 01       		.byte	0x1
 1871 08be 50       		.byte	0x50
 1872 08bf 00000000 		.4byte	.LFB119
 1873 08c3 16000000 		.4byte	.LFE119-.LFB119
 1874 08c7 01       		.uleb128 0x1
 1875 08c8 9C       		.byte	0x9c
 1876 08c9 F0080000 		.4byte	0x8f0
 1877 08cd 1B       		.uleb128 0x1b
 1878 08ce 31030000 		.4byte	.LASF138
 1879 08d2 01       		.byte	0x1
 1880 08d3 50       		.byte	0x50
 1881 08d4 7C070000 		.4byte	0x77c
ARM GAS  /tmp/ccIdC3WY.s 			page 35


 1882 08d8 00000000 		.4byte	.LLST0
 1883 08dc 1C       		.uleb128 0x1c
 1884 08dd 16000000 		.4byte	.LVL3
 1885 08e1 EE0E0000 		.4byte	0xeee
 1886 08e5 1D       		.uleb128 0x1d
 1887 08e6 01       		.uleb128 0x1
 1888 08e7 50       		.byte	0x50
 1889 08e8 05       		.uleb128 0x5
 1890 08e9 F3       		.byte	0xf3
 1891 08ea 01       		.uleb128 0x1
 1892 08eb 50       		.byte	0x50
 1893 08ec 23       		.byte	0x23
 1894 08ed 18       		.uleb128 0x18
 1895 08ee 00       		.byte	0
 1896 08ef 00       		.byte	0
 1897 08f0 19       		.uleb128 0x19
 1898 08f1 69060000 		.4byte	.LASF137
 1899 08f5 01       		.byte	0x1
 1900 08f6 6F       		.byte	0x6f
 1901 08f7 00000000 		.4byte	.LFB120
 1902 08fb 4E000000 		.4byte	.LFE120-.LFB120
 1903 08ff 01       		.uleb128 0x1
 1904 0900 9C       		.byte	0x9c
 1905 0901 AA090000 		.4byte	0x9aa
 1906 0905 1B       		.uleb128 0x1b
 1907 0906 31030000 		.4byte	.LASF138
 1908 090a 01       		.byte	0x1
 1909 090b 6F       		.byte	0x6f
 1910 090c 7C070000 		.4byte	0x77c
 1911 0910 2E000000 		.4byte	.LLST1
 1912 0914 1B       		.uleb128 0x1b
 1913 0915 B2050000 		.4byte	.LASF113
 1914 0919 01       		.byte	0x1
 1915 091a 6F       		.byte	0x6f
 1916 091b 72080000 		.4byte	0x872
 1917 091f 62000000 		.4byte	.LLST2
 1918 0923 1E       		.uleb128 0x1e
 1919 0924 08000000 		.4byte	.LBB2
 1920 0928 06000000 		.4byte	.LBE2-.LBB2
 1921 092c 3E090000 		.4byte	0x93e
 1922 0930 1F       		.uleb128 0x1f
 1923 0931 746D7000 		.ascii	"tmp\000"
 1924 0935 01       		.byte	0x1
 1925 0936 73       		.byte	0x73
 1926 0937 CE000000 		.4byte	0xce
 1927 093b 01       		.uleb128 0x1
 1928 093c 53       		.byte	0x53
 1929 093d 00       		.byte	0
 1930 093e 1E       		.uleb128 0x1e
 1931 093f 38000000 		.4byte	.LBB3
 1932 0943 08000000 		.4byte	.LBE3-.LBB3
 1933 0947 59090000 		.4byte	0x959
 1934 094b 1F       		.uleb128 0x1f
 1935 094c 746D7000 		.ascii	"tmp\000"
 1936 0950 01       		.byte	0x1
 1937 0951 79       		.byte	0x79
 1938 0952 CE000000 		.4byte	0xce
ARM GAS  /tmp/ccIdC3WY.s 			page 36


 1939 0956 01       		.uleb128 0x1
 1940 0957 53       		.byte	0x53
 1941 0958 00       		.byte	0
 1942 0959 20       		.uleb128 0x20
 1943 095a 12000000 		.4byte	.LVL6
 1944 095e FF0E0000 		.4byte	0xeff
 1945 0962 21       		.uleb128 0x21
 1946 0963 28000000 		.4byte	.LVL7
 1947 0967 060F0000 		.4byte	0xf06
 1948 096b 79090000 		.4byte	0x979
 1949 096f 1D       		.uleb128 0x1d
 1950 0970 01       		.uleb128 0x1
 1951 0971 50       		.byte	0x50
 1952 0972 05       		.uleb128 0x5
 1953 0973 03       		.byte	0x3
 1954 0974 10000000 		.4byte	.LC1
 1955 0978 00       		.byte	0
 1956 0979 21       		.uleb128 0x21
 1957 097a 30000000 		.4byte	.LVL8
 1958 097e 170F0000 		.4byte	0xf17
 1959 0982 8D090000 		.4byte	0x98d
 1960 0986 1D       		.uleb128 0x1d
 1961 0987 01       		.uleb128 0x1
 1962 0988 50       		.byte	0x50
 1963 0989 02       		.uleb128 0x2
 1964 098a 74       		.byte	0x74
 1965 098b 00       		.sleb128 0
 1966 098c 00       		.byte	0
 1967 098d 20       		.uleb128 0x20
 1968 098e 38000000 		.4byte	.LVL9
 1969 0992 290F0000 		.4byte	0xf29
 1970 0996 22       		.uleb128 0x22
 1971 0997 4C000000 		.4byte	.LVL12
 1972 099b 060F0000 		.4byte	0xf06
 1973 099f 1D       		.uleb128 0x1d
 1974 09a0 01       		.uleb128 0x1
 1975 09a1 50       		.byte	0x50
 1976 09a2 05       		.uleb128 0x5
 1977 09a3 03       		.byte	0x3
 1978 09a4 00000000 		.4byte	.LC0
 1979 09a8 00       		.byte	0
 1980 09a9 00       		.byte	0
 1981 09aa 19       		.uleb128 0x19
 1982 09ab 39000000 		.4byte	.LASF139
 1983 09af 01       		.byte	0x1
 1984 09b0 83       		.byte	0x83
 1985 09b1 00000000 		.4byte	.LFB121
 1986 09b5 4A000000 		.4byte	.LFE121-.LFB121
 1987 09b9 01       		.uleb128 0x1
 1988 09ba 9C       		.byte	0x9c
 1989 09bb 550A0000 		.4byte	0xa55
 1990 09bf 1B       		.uleb128 0x1b
 1991 09c0 31030000 		.4byte	.LASF138
 1992 09c4 01       		.byte	0x1
 1993 09c5 83       		.byte	0x83
 1994 09c6 7C070000 		.4byte	0x77c
 1995 09ca 96000000 		.4byte	.LLST3
ARM GAS  /tmp/ccIdC3WY.s 			page 37


 1996 09ce 1E       		.uleb128 0x1e
 1997 09cf 06000000 		.4byte	.LBB4
 1998 09d3 06000000 		.4byte	.LBE4-.LBB4
 1999 09d7 E9090000 		.4byte	0x9e9
 2000 09db 1F       		.uleb128 0x1f
 2001 09dc 746D7000 		.ascii	"tmp\000"
 2002 09e0 01       		.byte	0x1
 2003 09e1 87       		.byte	0x87
 2004 09e2 CE000000 		.4byte	0xce
 2005 09e6 01       		.uleb128 0x1
 2006 09e7 53       		.byte	0x53
 2007 09e8 00       		.byte	0
 2008 09e9 1E       		.uleb128 0x1e
 2009 09ea 34000000 		.4byte	.LBB5
 2010 09ee 08000000 		.4byte	.LBE5-.LBB5
 2011 09f2 040A0000 		.4byte	0xa04
 2012 09f6 1F       		.uleb128 0x1f
 2013 09f7 746D7000 		.ascii	"tmp\000"
 2014 09fb 01       		.byte	0x1
 2015 09fc 8C       		.byte	0x8c
 2016 09fd CE000000 		.4byte	0xce
 2017 0a01 01       		.uleb128 0x1
 2018 0a02 53       		.byte	0x53
 2019 0a03 00       		.byte	0
 2020 0a04 20       		.uleb128 0x20
 2021 0a05 10000000 		.4byte	.LVL15
 2022 0a09 FF0E0000 		.4byte	0xeff
 2023 0a0d 21       		.uleb128 0x21
 2024 0a0e 26000000 		.4byte	.LVL16
 2025 0a12 060F0000 		.4byte	0xf06
 2026 0a16 240A0000 		.4byte	0xa24
 2027 0a1a 1D       		.uleb128 0x1d
 2028 0a1b 01       		.uleb128 0x1
 2029 0a1c 50       		.byte	0x50
 2030 0a1d 05       		.uleb128 0x5
 2031 0a1e 03       		.byte	0x3
 2032 0a1f 2C000000 		.4byte	.LC3
 2033 0a23 00       		.byte	0
 2034 0a24 21       		.uleb128 0x21
 2035 0a25 2C000000 		.4byte	.LVL17
 2036 0a29 300F0000 		.4byte	0xf30
 2037 0a2d 380A0000 		.4byte	0xa38
 2038 0a31 1D       		.uleb128 0x1d
 2039 0a32 01       		.uleb128 0x1
 2040 0a33 50       		.byte	0x50
 2041 0a34 02       		.uleb128 0x2
 2042 0a35 74       		.byte	0x74
 2043 0a36 00       		.sleb128 0
 2044 0a37 00       		.byte	0
 2045 0a38 20       		.uleb128 0x20
 2046 0a39 34000000 		.4byte	.LVL18
 2047 0a3d 290F0000 		.4byte	0xf29
 2048 0a41 22       		.uleb128 0x22
 2049 0a42 48000000 		.4byte	.LVL21
 2050 0a46 060F0000 		.4byte	0xf06
 2051 0a4a 1D       		.uleb128 0x1d
 2052 0a4b 01       		.uleb128 0x1
ARM GAS  /tmp/ccIdC3WY.s 			page 38


 2053 0a4c 50       		.byte	0x50
 2054 0a4d 05       		.uleb128 0x5
 2055 0a4e 03       		.byte	0x3
 2056 0a4f 20000000 		.4byte	.LC2
 2057 0a53 00       		.byte	0
 2058 0a54 00       		.byte	0
 2059 0a55 19       		.uleb128 0x19
 2060 0a56 89040000 		.4byte	.LASF140
 2061 0a5a 01       		.byte	0x1
 2062 0a5b BB       		.byte	0xbb
 2063 0a5c 00000000 		.4byte	.LFB123
 2064 0a60 5C000000 		.4byte	.LFE123-.LFB123
 2065 0a64 01       		.uleb128 0x1
 2066 0a65 9C       		.byte	0x9c
 2067 0a66 EF0A0000 		.4byte	0xaef
 2068 0a6a 1B       		.uleb128 0x1b
 2069 0a6b 31030000 		.4byte	.LASF138
 2070 0a6f 01       		.byte	0x1
 2071 0a70 BB       		.byte	0xbb
 2072 0a71 7C070000 		.4byte	0x77c
 2073 0a75 CA000000 		.4byte	.LLST4
 2074 0a79 1B       		.uleb128 0x1b
 2075 0a7a CF030000 		.4byte	.LASF116
 2076 0a7e 01       		.byte	0x1
 2077 0a7f BC       		.byte	0xbc
 2078 0a80 7D080000 		.4byte	0x87d
 2079 0a84 0C010000 		.4byte	.LLST5
 2080 0a88 1B       		.uleb128 0x1b
 2081 0a89 ED030000 		.4byte	.LASF114
 2082 0a8d 01       		.byte	0x1
 2083 0a8e BD       		.byte	0xbd
 2084 0a8f 82070000 		.4byte	0x782
 2085 0a93 4F010000 		.4byte	.LLST6
 2086 0a97 1B       		.uleb128 0x1b
 2087 0a98 5A030000 		.4byte	.LASF115
 2088 0a9c 01       		.byte	0x1
 2089 0a9d BE       		.byte	0xbe
 2090 0a9e 2C000000 		.4byte	0x2c
 2091 0aa2 92010000 		.4byte	.LLST7
 2092 0aa6 20       		.uleb128 0x20
 2093 0aa7 0E000000 		.4byte	.LVL23
 2094 0aab 420F0000 		.4byte	0xf42
 2095 0aaf 21       		.uleb128 0x21
 2096 0ab0 3A000000 		.4byte	.LVL24
 2097 0ab4 060F0000 		.4byte	0xf06
 2098 0ab8 C60A0000 		.4byte	0xac6
 2099 0abc 1D       		.uleb128 0x1d
 2100 0abd 01       		.uleb128 0x1
 2101 0abe 50       		.byte	0x50
 2102 0abf 05       		.uleb128 0x5
 2103 0ac0 03       		.byte	0x3
 2104 0ac1 54000000 		.4byte	.LC5
 2105 0ac5 00       		.byte	0
 2106 0ac6 23       		.uleb128 0x23
 2107 0ac7 4E000000 		.4byte	.LVL26
 2108 0acb 490F0000 		.4byte	0xf49
 2109 0acf DB0A0000 		.4byte	0xadb
ARM GAS  /tmp/ccIdC3WY.s 			page 39


 2110 0ad3 1D       		.uleb128 0x1d
 2111 0ad4 01       		.uleb128 0x1
 2112 0ad5 50       		.byte	0x50
 2113 0ad6 03       		.uleb128 0x3
 2114 0ad7 F3       		.byte	0xf3
 2115 0ad8 01       		.uleb128 0x1
 2116 0ad9 50       		.byte	0x50
 2117 0ada 00       		.byte	0
 2118 0adb 22       		.uleb128 0x22
 2119 0adc 5A000000 		.4byte	.LVL27
 2120 0ae0 060F0000 		.4byte	0xf06
 2121 0ae4 1D       		.uleb128 0x1d
 2122 0ae5 01       		.uleb128 0x1
 2123 0ae6 50       		.byte	0x50
 2124 0ae7 05       		.uleb128 0x5
 2125 0ae8 03       		.byte	0x3
 2126 0ae9 3C000000 		.4byte	.LC4
 2127 0aed 00       		.byte	0
 2128 0aee 00       		.byte	0
 2129 0aef 19       		.uleb128 0x19
 2130 0af0 25060000 		.4byte	.LASF141
 2131 0af4 01       		.byte	0x1
 2132 0af5 9F       		.byte	0x9f
 2133 0af6 00000000 		.4byte	.LFB122
 2134 0afa 2C000000 		.4byte	.LFE122-.LFB122
 2135 0afe 01       		.uleb128 0x1
 2136 0aff 9C       		.byte	0x9c
 2137 0b00 AF0B0000 		.4byte	0xbaf
 2138 0b04 1B       		.uleb128 0x1b
 2139 0b05 31030000 		.4byte	.LASF138
 2140 0b09 01       		.byte	0x1
 2141 0b0a 9F       		.byte	0x9f
 2142 0b0b 7C070000 		.4byte	0x77c
 2143 0b0f D5010000 		.4byte	.LLST8
 2144 0b13 1B       		.uleb128 0x1b
 2145 0b14 CF030000 		.4byte	.LASF116
 2146 0b18 01       		.byte	0x1
 2147 0b19 A0       		.byte	0xa0
 2148 0b1a 7D080000 		.4byte	0x87d
 2149 0b1e F3010000 		.4byte	.LLST9
 2150 0b22 1B       		.uleb128 0x1b
 2151 0b23 ED030000 		.4byte	.LASF114
 2152 0b27 01       		.byte	0x1
 2153 0b28 A1       		.byte	0xa1
 2154 0b29 82070000 		.4byte	0x782
 2155 0b2d 11020000 		.4byte	.LLST10
 2156 0b31 1B       		.uleb128 0x1b
 2157 0b32 5A030000 		.4byte	.LASF115
 2158 0b36 01       		.byte	0x1
 2159 0b37 A2       		.byte	0xa2
 2160 0b38 2C000000 		.4byte	0x2c
 2161 0b3c 2F020000 		.4byte	.LLST11
 2162 0b40 1E       		.uleb128 0x1e
 2163 0b41 0A000000 		.4byte	.LBB6
 2164 0b45 06000000 		.4byte	.LBE6-.LBB6
 2165 0b49 5B0B0000 		.4byte	0xb5b
 2166 0b4d 1F       		.uleb128 0x1f
ARM GAS  /tmp/ccIdC3WY.s 			page 40


 2167 0b4e 746D7000 		.ascii	"tmp\000"
 2168 0b52 01       		.byte	0x1
 2169 0b53 A4       		.byte	0xa4
 2170 0b54 CE000000 		.4byte	0xce
 2171 0b58 01       		.uleb128 0x1
 2172 0b59 53       		.byte	0x53
 2173 0b5a 00       		.byte	0
 2174 0b5b 1E       		.uleb128 0x1e
 2175 0b5c 24000000 		.4byte	.LBB7
 2176 0b60 08000000 		.4byte	.LBE7-.LBB7
 2177 0b64 760B0000 		.4byte	0xb76
 2178 0b68 1F       		.uleb128 0x1f
 2179 0b69 746D7000 		.ascii	"tmp\000"
 2180 0b6d 01       		.byte	0x1
 2181 0b6e A6       		.byte	0xa6
 2182 0b6f CE000000 		.4byte	0xce
 2183 0b73 01       		.uleb128 0x1
 2184 0b74 53       		.byte	0x53
 2185 0b75 00       		.byte	0
 2186 0b76 20       		.uleb128 0x20
 2187 0b77 14000000 		.4byte	.LVL30
 2188 0b7b FF0E0000 		.4byte	0xeff
 2189 0b7f 21       		.uleb128 0x21
 2190 0b80 20000000 		.4byte	.LVL31
 2191 0b84 550A0000 		.4byte	0xa55
 2192 0b88 A50B0000 		.4byte	0xba5
 2193 0b8c 1D       		.uleb128 0x1d
 2194 0b8d 01       		.uleb128 0x1
 2195 0b8e 53       		.byte	0x53
 2196 0b8f 02       		.uleb128 0x2
 2197 0b90 74       		.byte	0x74
 2198 0b91 00       		.sleb128 0
 2199 0b92 1D       		.uleb128 0x1d
 2200 0b93 01       		.uleb128 0x1
 2201 0b94 52       		.byte	0x52
 2202 0b95 02       		.uleb128 0x2
 2203 0b96 75       		.byte	0x75
 2204 0b97 00       		.sleb128 0
 2205 0b98 1D       		.uleb128 0x1d
 2206 0b99 01       		.uleb128 0x1
 2207 0b9a 51       		.byte	0x51
 2208 0b9b 02       		.uleb128 0x2
 2209 0b9c 76       		.byte	0x76
 2210 0b9d 00       		.sleb128 0
 2211 0b9e 1D       		.uleb128 0x1d
 2212 0b9f 01       		.uleb128 0x1
 2213 0ba0 50       		.byte	0x50
 2214 0ba1 02       		.uleb128 0x2
 2215 0ba2 77       		.byte	0x77
 2216 0ba3 00       		.sleb128 0
 2217 0ba4 00       		.byte	0
 2218 0ba5 20       		.uleb128 0x20
 2219 0ba6 24000000 		.4byte	.LVL32
 2220 0baa 290F0000 		.4byte	0xf29
 2221 0bae 00       		.byte	0
 2222 0baf 19       		.uleb128 0x19
 2223 0bb0 16070000 		.4byte	.LASF142
ARM GAS  /tmp/ccIdC3WY.s 			page 41


 2224 0bb4 01       		.byte	0x1
 2225 0bb5 DA       		.byte	0xda
 2226 0bb6 00000000 		.4byte	.LFB124
 2227 0bba 62000000 		.4byte	.LFE124-.LFB124
 2228 0bbe 01       		.uleb128 0x1
 2229 0bbf 9C       		.byte	0x9c
 2230 0bc0 860C0000 		.4byte	0xc86
 2231 0bc4 1B       		.uleb128 0x1b
 2232 0bc5 31030000 		.4byte	.LASF138
 2233 0bc9 01       		.byte	0x1
 2234 0bca DA       		.byte	0xda
 2235 0bcb 7C070000 		.4byte	0x77c
 2236 0bcf 4D020000 		.4byte	.LLST12
 2237 0bd3 1E       		.uleb128 0x1e
 2238 0bd4 06000000 		.4byte	.LBB8
 2239 0bd8 06000000 		.4byte	.LBE8-.LBB8
 2240 0bdc EE0B0000 		.4byte	0xbee
 2241 0be0 1F       		.uleb128 0x1f
 2242 0be1 746D7000 		.ascii	"tmp\000"
 2243 0be5 01       		.byte	0x1
 2244 0be6 DE       		.byte	0xde
 2245 0be7 CE000000 		.4byte	0xce
 2246 0beb 01       		.uleb128 0x1
 2247 0bec 53       		.byte	0x53
 2248 0bed 00       		.byte	0
 2249 0bee 1E       		.uleb128 0x1e
 2250 0bef 3E000000 		.4byte	.LBB9
 2251 0bf3 0A000000 		.4byte	.LBE9-.LBB9
 2252 0bf7 1A0C0000 		.4byte	0xc1a
 2253 0bfb 24       		.uleb128 0x24
 2254 0bfc 747000   		.ascii	"tp\000"
 2255 0bff 01       		.byte	0x1
 2256 0c00 E6       		.byte	0xe6
 2257 0c01 83020000 		.4byte	0x283
 2258 0c05 81020000 		.4byte	.LLST13
 2259 0c09 22       		.uleb128 0x22
 2260 0c0a 48000000 		.4byte	.LVL39
 2261 0c0e 5B0F0000 		.4byte	0xf5b
 2262 0c12 1D       		.uleb128 0x1d
 2263 0c13 01       		.uleb128 0x1
 2264 0c14 51       		.byte	0x51
 2265 0c15 02       		.uleb128 0x2
 2266 0c16 09       		.byte	0x9
 2267 0c17 FE       		.byte	0xfe
 2268 0c18 00       		.byte	0
 2269 0c19 00       		.byte	0
 2270 0c1a 1E       		.uleb128 0x1e
 2271 0c1b 4C000000 		.4byte	.LBB10
 2272 0c1f 08000000 		.4byte	.LBE10-.LBB10
 2273 0c23 350C0000 		.4byte	0xc35
 2274 0c27 1F       		.uleb128 0x1f
 2275 0c28 746D7000 		.ascii	"tmp\000"
 2276 0c2c 01       		.byte	0x1
 2277 0c2d E8       		.byte	0xe8
 2278 0c2e CE000000 		.4byte	0xce
 2279 0c32 01       		.uleb128 0x1
 2280 0c33 53       		.byte	0x53
ARM GAS  /tmp/ccIdC3WY.s 			page 42


 2281 0c34 00       		.byte	0
 2282 0c35 20       		.uleb128 0x20
 2283 0c36 10000000 		.4byte	.LVL35
 2284 0c3a FF0E0000 		.4byte	0xeff
 2285 0c3e 21       		.uleb128 0x21
 2286 0c3f 26000000 		.4byte	.LVL36
 2287 0c43 060F0000 		.4byte	0xf06
 2288 0c47 550C0000 		.4byte	0xc55
 2289 0c4b 1D       		.uleb128 0x1d
 2290 0c4c 01       		.uleb128 0x1
 2291 0c4d 50       		.byte	0x50
 2292 0c4e 05       		.uleb128 0x5
 2293 0c4f 03       		.byte	0x3
 2294 0c50 88000000 		.4byte	.LC7
 2295 0c54 00       		.byte	0
 2296 0c55 21       		.uleb128 0x21
 2297 0c56 32000000 		.4byte	.LVL37
 2298 0c5a 710F0000 		.4byte	0xf71
 2299 0c5e 690C0000 		.4byte	0xc69
 2300 0c62 1D       		.uleb128 0x1d
 2301 0c63 01       		.uleb128 0x1
 2302 0c64 50       		.byte	0x50
 2303 0c65 02       		.uleb128 0x2
 2304 0c66 74       		.byte	0x74
 2305 0c67 00       		.sleb128 0
 2306 0c68 00       		.byte	0
 2307 0c69 20       		.uleb128 0x20
 2308 0c6a 4C000000 		.4byte	.LVL40
 2309 0c6e 290F0000 		.4byte	0xf29
 2310 0c72 22       		.uleb128 0x22
 2311 0c73 60000000 		.4byte	.LVL43
 2312 0c77 060F0000 		.4byte	0xf06
 2313 0c7b 1D       		.uleb128 0x1d
 2314 0c7c 01       		.uleb128 0x1
 2315 0c7d 50       		.byte	0x50
 2316 0c7e 05       		.uleb128 0x5
 2317 0c7f 03       		.byte	0x3
 2318 0c80 70000000 		.4byte	.LC6
 2319 0c84 00       		.byte	0
 2320 0c85 00       		.byte	0
 2321 0c86 19       		.uleb128 0x19
 2322 0c87 9D060000 		.4byte	.LASF143
 2323 0c8b 01       		.byte	0x1
 2324 0c8c F5       		.byte	0xf5
 2325 0c8d 00000000 		.4byte	.LFB125
 2326 0c91 5C000000 		.4byte	.LFE125-.LFB125
 2327 0c95 01       		.uleb128 0x1
 2328 0c96 9C       		.byte	0x9c
 2329 0c97 140D0000 		.4byte	0xd14
 2330 0c9b 1B       		.uleb128 0x1b
 2331 0c9c 31030000 		.4byte	.LASF138
 2332 0ca0 01       		.byte	0x1
 2333 0ca1 F5       		.byte	0xf5
 2334 0ca2 7C070000 		.4byte	0x77c
 2335 0ca6 94020000 		.4byte	.LLST14
 2336 0caa 25       		.uleb128 0x25
 2337 0cab 00000000 		.4byte	.Ldebug_ranges0+0
ARM GAS  /tmp/ccIdC3WY.s 			page 43


 2338 0caf CC0C0000 		.4byte	0xccc
 2339 0cb3 26       		.uleb128 0x26
 2340 0cb4 747000   		.ascii	"tp\000"
 2341 0cb7 01       		.byte	0x1
 2342 0cb8 0201     		.2byte	0x102
 2343 0cba 83020000 		.4byte	0x283
 2344 0cbe CB020000 		.4byte	.LLST15
 2345 0cc2 1A       		.uleb128 0x1a
 2346 0cc3 3C000000 		.4byte	.LVL49
 2347 0cc7 830F0000 		.4byte	0xf83
 2348 0ccb 00       		.byte	0
 2349 0ccc 20       		.uleb128 0x20
 2350 0ccd 08000000 		.4byte	.LVL45
 2351 0cd1 420F0000 		.4byte	0xf42
 2352 0cd5 21       		.uleb128 0x21
 2353 0cd6 1E000000 		.4byte	.LVL46
 2354 0cda 710F0000 		.4byte	0xf71
 2355 0cde E90C0000 		.4byte	0xce9
 2356 0ce2 1D       		.uleb128 0x1d
 2357 0ce3 01       		.uleb128 0x1
 2358 0ce4 50       		.byte	0x50
 2359 0ce5 02       		.uleb128 0x2
 2360 0ce6 74       		.byte	0x74
 2361 0ce7 00       		.sleb128 0
 2362 0ce8 00       		.byte	0
 2363 0ce9 21       		.uleb128 0x21
 2364 0cea 4A000000 		.4byte	.LVL51
 2365 0cee 060F0000 		.4byte	0xf06
 2366 0cf2 000D0000 		.4byte	0xd00
 2367 0cf6 1D       		.uleb128 0x1d
 2368 0cf7 01       		.uleb128 0x1
 2369 0cf8 50       		.byte	0x50
 2370 0cf9 05       		.uleb128 0x5
 2371 0cfa 03       		.byte	0x3
 2372 0cfb B8000000 		.4byte	.LC9
 2373 0cff 00       		.byte	0
 2374 0d00 22       		.uleb128 0x22
 2375 0d01 5A000000 		.4byte	.LVL52
 2376 0d05 060F0000 		.4byte	0xf06
 2377 0d09 1D       		.uleb128 0x1d
 2378 0d0a 01       		.uleb128 0x1
 2379 0d0b 50       		.byte	0x50
 2380 0d0c 05       		.uleb128 0x5
 2381 0d0d 03       		.byte	0x3
 2382 0d0e A0000000 		.4byte	.LC8
 2383 0d12 00       		.byte	0
 2384 0d13 00       		.byte	0
 2385 0d14 27       		.uleb128 0x27
 2386 0d15 0B070000 		.4byte	.LASF164
 2387 0d19 01       		.byte	0x1
 2388 0d1a 1E01     		.2byte	0x11e
 2389 0d1c 2D010000 		.4byte	0x12d
 2390 0d20 00000000 		.4byte	.LFB126
 2391 0d24 58000000 		.4byte	.LFE126-.LFB126
 2392 0d28 01       		.uleb128 0x1
 2393 0d29 9C       		.byte	0x9c
 2394 0d2a 170E0000 		.4byte	0xe17
ARM GAS  /tmp/ccIdC3WY.s 			page 44


 2395 0d2e 28       		.uleb128 0x28
 2396 0d2f 31030000 		.4byte	.LASF138
 2397 0d33 01       		.byte	0x1
 2398 0d34 1E01     		.2byte	0x11e
 2399 0d36 7C070000 		.4byte	0x77c
 2400 0d3a DE020000 		.4byte	.LLST16
 2401 0d3e 28       		.uleb128 0x28
 2402 0d3f CF030000 		.4byte	.LASF116
 2403 0d43 01       		.byte	0x1
 2404 0d44 1F01     		.2byte	0x11f
 2405 0d46 7D080000 		.4byte	0x87d
 2406 0d4a FC020000 		.4byte	.LLST17
 2407 0d4e 28       		.uleb128 0x28
 2408 0d4f ED030000 		.4byte	.LASF114
 2409 0d53 01       		.byte	0x1
 2410 0d54 2001     		.2byte	0x120
 2411 0d56 82070000 		.4byte	0x782
 2412 0d5a 1A030000 		.4byte	.LLST18
 2413 0d5e 28       		.uleb128 0x28
 2414 0d5f 5A030000 		.4byte	.LASF115
 2415 0d63 01       		.byte	0x1
 2416 0d64 2101     		.2byte	0x121
 2417 0d66 2C000000 		.4byte	0x2c
 2418 0d6a 38030000 		.4byte	.LLST19
 2419 0d6e 29       		.uleb128 0x29
 2420 0d6f 6D736700 		.ascii	"msg\000"
 2421 0d73 01       		.byte	0x1
 2422 0d74 2201     		.2byte	0x122
 2423 0d76 2D010000 		.4byte	0x12d
 2424 0d7a 01       		.uleb128 0x1
 2425 0d7b 54       		.byte	0x54
 2426 0d7c 1E       		.uleb128 0x1e
 2427 0d7d 0C000000 		.4byte	.LBB13
 2428 0d81 06000000 		.4byte	.LBE13-.LBB13
 2429 0d85 980D0000 		.4byte	0xd98
 2430 0d89 29       		.uleb128 0x29
 2431 0d8a 746D7000 		.ascii	"tmp\000"
 2432 0d8e 01       		.byte	0x1
 2433 0d8f 2401     		.2byte	0x124
 2434 0d91 CE000000 		.4byte	0xce
 2435 0d95 01       		.uleb128 0x1
 2436 0d96 53       		.byte	0x53
 2437 0d97 00       		.byte	0
 2438 0d98 1E       		.uleb128 0x1e
 2439 0d99 4C000000 		.4byte	.LBB14
 2440 0d9d 06000000 		.4byte	.LBE14-.LBB14
 2441 0da1 B40D0000 		.4byte	0xdb4
 2442 0da5 29       		.uleb128 0x29
 2443 0da6 746D7000 		.ascii	"tmp\000"
 2444 0daa 01       		.byte	0x1
 2445 0dab 2A01     		.2byte	0x12a
 2446 0dad CE000000 		.4byte	0xce
 2447 0db1 01       		.uleb128 0x1
 2448 0db2 53       		.byte	0x53
 2449 0db3 00       		.byte	0
 2450 0db4 20       		.uleb128 0x20
 2451 0db5 16000000 		.4byte	.LVL55
ARM GAS  /tmp/ccIdC3WY.s 			page 45


 2452 0db9 FF0E0000 		.4byte	0xeff
 2453 0dbd 21       		.uleb128 0x21
 2454 0dbe 26000000 		.4byte	.LVL56
 2455 0dc2 060F0000 		.4byte	0xf06
 2456 0dc6 D40D0000 		.4byte	0xdd4
 2457 0dca 1D       		.uleb128 0x1d
 2458 0dcb 01       		.uleb128 0x1
 2459 0dcc 50       		.byte	0x50
 2460 0dcd 05       		.uleb128 0x5
 2461 0dce 03       		.byte	0x3
 2462 0dcf D4000000 		.4byte	.LC10
 2463 0dd3 00       		.byte	0
 2464 0dd4 21       		.uleb128 0x21
 2465 0dd5 3A000000 		.4byte	.LVL57
 2466 0dd9 550A0000 		.4byte	0xa55
 2467 0ddd FA0D0000 		.4byte	0xdfa
 2468 0de1 1D       		.uleb128 0x1d
 2469 0de2 01       		.uleb128 0x1
 2470 0de3 53       		.byte	0x53
 2471 0de4 02       		.uleb128 0x2
 2472 0de5 76       		.byte	0x76
 2473 0de6 00       		.sleb128 0
 2474 0de7 1D       		.uleb128 0x1d
 2475 0de8 01       		.uleb128 0x1
 2476 0de9 52       		.byte	0x52
 2477 0dea 02       		.uleb128 0x2
 2478 0deb 77       		.byte	0x77
 2479 0dec 00       		.sleb128 0
 2480 0ded 1D       		.uleb128 0x1d
 2481 0dee 01       		.uleb128 0x1
 2482 0def 51       		.byte	0x51
 2483 0df0 02       		.uleb128 0x2
 2484 0df1 78       		.byte	0x78
 2485 0df2 00       		.sleb128 0
 2486 0df3 1D       		.uleb128 0x1d
 2487 0df4 01       		.uleb128 0x1
 2488 0df5 50       		.byte	0x50
 2489 0df6 02       		.uleb128 0x2
 2490 0df7 75       		.byte	0x75
 2491 0df8 00       		.sleb128 0
 2492 0df9 00       		.byte	0
 2493 0dfa 21       		.uleb128 0x21
 2494 0dfb 44000000 		.4byte	.LVL58
 2495 0dff 980F0000 		.4byte	0xf98
 2496 0e03 0D0E0000 		.4byte	0xe0d
 2497 0e07 1D       		.uleb128 0x1d
 2498 0e08 01       		.uleb128 0x1
 2499 0e09 50       		.byte	0x50
 2500 0e0a 01       		.uleb128 0x1
 2501 0e0b 32       		.byte	0x32
 2502 0e0c 00       		.byte	0
 2503 0e0d 20       		.uleb128 0x20
 2504 0e0e 4C000000 		.4byte	.LVL60
 2505 0e12 290F0000 		.4byte	0xf29
 2506 0e16 00       		.byte	0
 2507 0e17 2A       		.uleb128 0x2a
 2508 0e18 30070000 		.4byte	.LASF144
ARM GAS  /tmp/ccIdC3WY.s 			page 46


 2509 0e1c 01       		.byte	0x1
 2510 0e1d 3B01     		.2byte	0x13b
 2511 0e1f 00000000 		.4byte	.LFB127
 2512 0e23 2A000000 		.4byte	.LFE127-.LFB127
 2513 0e27 01       		.uleb128 0x1
 2514 0e28 9C       		.byte	0x9c
 2515 0e29 7F0E0000 		.4byte	0xe7f
 2516 0e2d 28       		.uleb128 0x28
 2517 0e2e 31030000 		.4byte	.LASF138
 2518 0e32 01       		.byte	0x1
 2519 0e33 3B01     		.2byte	0x13b
 2520 0e35 7C070000 		.4byte	0x77c
 2521 0e39 56030000 		.4byte	.LLST20
 2522 0e3d 23       		.uleb128 0x23
 2523 0e3e 12000000 		.4byte	.LVL64
 2524 0e42 A90F0000 		.4byte	0xfa9
 2525 0e46 540E0000 		.4byte	0xe54
 2526 0e4a 1D       		.uleb128 0x1d
 2527 0e4b 01       		.uleb128 0x1
 2528 0e4c 50       		.byte	0x50
 2529 0e4d 05       		.uleb128 0x5
 2530 0e4e F3       		.byte	0xf3
 2531 0e4f 01       		.uleb128 0x1
 2532 0e50 50       		.byte	0x50
 2533 0e51 23       		.byte	0x23
 2534 0e52 18       		.uleb128 0x18
 2535 0e53 00       		.byte	0
 2536 0e54 21       		.uleb128 0x21
 2537 0e55 1E000000 		.4byte	.LVL66
 2538 0e59 060F0000 		.4byte	0xf06
 2539 0e5d 6B0E0000 		.4byte	0xe6b
 2540 0e61 1D       		.uleb128 0x1d
 2541 0e62 01       		.uleb128 0x1
 2542 0e63 50       		.byte	0x50
 2543 0e64 05       		.uleb128 0x5
 2544 0e65 03       		.byte	0x3
 2545 0e66 E8000000 		.4byte	.LC11
 2546 0e6a 00       		.byte	0
 2547 0e6b 1C       		.uleb128 0x1c
 2548 0e6c 2A000000 		.4byte	.LVL68
 2549 0e70 A90F0000 		.4byte	0xfa9
 2550 0e74 1D       		.uleb128 0x1d
 2551 0e75 01       		.uleb128 0x1
 2552 0e76 50       		.byte	0x50
 2553 0e77 05       		.uleb128 0x5
 2554 0e78 F3       		.byte	0xf3
 2555 0e79 01       		.uleb128 0x1
 2556 0e7a 50       		.byte	0x50
 2557 0e7b 23       		.byte	0x23
 2558 0e7c 18       		.uleb128 0x18
 2559 0e7d 00       		.byte	0
 2560 0e7e 00       		.byte	0
 2561 0e7f 2A       		.uleb128 0x2a
 2562 0e80 B6030000 		.4byte	.LASF145
 2563 0e84 01       		.byte	0x1
 2564 0e85 4F01     		.2byte	0x14f
 2565 0e87 00000000 		.4byte	.LFB128
ARM GAS  /tmp/ccIdC3WY.s 			page 47


 2566 0e8b 20000000 		.4byte	.LFE128-.LFB128
 2567 0e8f 01       		.uleb128 0x1
 2568 0e90 9C       		.byte	0x9c
 2569 0e91 CF0E0000 		.4byte	0xecf
 2570 0e95 28       		.uleb128 0x28
 2571 0e96 31030000 		.4byte	.LASF138
 2572 0e9a 01       		.byte	0x1
 2573 0e9b 4F01     		.2byte	0x14f
 2574 0e9d 7C070000 		.4byte	0x77c
 2575 0ea1 C0030000 		.4byte	.LLST21
 2576 0ea5 1A       		.uleb128 0x1a
 2577 0ea6 0C000000 		.4byte	.LVL70
 2578 0eaa BA0F0000 		.4byte	0xfba
 2579 0eae 21       		.uleb128 0x21
 2580 0eaf 18000000 		.4byte	.LVL72
 2581 0eb3 060F0000 		.4byte	0xf06
 2582 0eb7 C50E0000 		.4byte	0xec5
 2583 0ebb 1D       		.uleb128 0x1d
 2584 0ebc 01       		.uleb128 0x1
 2585 0ebd 50       		.byte	0x50
 2586 0ebe 05       		.uleb128 0x5
 2587 0ebf 03       		.byte	0x3
 2588 0ec0 FC000000 		.4byte	.LC12
 2589 0ec4 00       		.byte	0
 2590 0ec5 1A       		.uleb128 0x1a
 2591 0ec6 20000000 		.4byte	.LVL73
 2592 0eca BA0F0000 		.4byte	0xfba
 2593 0ece 00       		.byte	0
 2594 0ecf 2B       		.uleb128 0x2b
 2595 0ed0 8F060000 		.4byte	.LASF146
 2596 0ed4 09       		.byte	0x9
 2597 0ed5 6F       		.byte	0x6f
 2598 0ed6 CB030000 		.4byte	0x3cb
 2599 0eda 2C       		.uleb128 0x2c
 2600 0edb 24010000 		.4byte	.LASF147
 2601 0edf 0F       		.byte	0xf
 2602 0ee0 9806     		.2byte	0x698
 2603 0ee2 6B040000 		.4byte	0x46b
 2604 0ee6 2D       		.uleb128 0x2d
 2605 0ee7 E0030000 		.4byte	.LASF148
 2606 0eeb 0E       		.byte	0xe
 2607 0eec 2602     		.2byte	0x226
 2608 0eee 2E       		.uleb128 0x2e
 2609 0eef 5F060000 		.4byte	.LASF150
 2610 0ef3 0A       		.byte	0xa
 2611 0ef4 38       		.byte	0x38
 2612 0ef5 FF0E0000 		.4byte	0xeff
 2613 0ef9 18       		.uleb128 0x18
 2614 0efa 65040000 		.4byte	0x465
 2615 0efe 00       		.byte	0
 2616 0eff 2F       		.uleb128 0x2f
 2617 0f00 4F040000 		.4byte	.LASF149
 2618 0f04 10       		.byte	0x10
 2619 0f05 E7       		.byte	0xe7
 2620 0f06 2E       		.uleb128 0x2e
 2621 0f07 19010000 		.4byte	.LASF151
 2622 0f0b 10       		.byte	0x10
ARM GAS  /tmp/ccIdC3WY.s 			page 48


 2623 0f0c F6       		.byte	0xf6
 2624 0f0d 170F0000 		.4byte	0xf17
 2625 0f11 18       		.uleb128 0x18
 2626 0f12 4D040000 		.4byte	0x44d
 2627 0f16 00       		.byte	0
 2628 0f17 30       		.uleb128 0x30
 2629 0f18 44060000 		.4byte	.LASF152
 2630 0f1c 0E       		.byte	0xe
 2631 0f1d 2702     		.2byte	0x227
 2632 0f1f 290F0000 		.4byte	0xf29
 2633 0f23 18       		.uleb128 0x18
 2634 0f24 7C070000 		.4byte	0x77c
 2635 0f28 00       		.byte	0
 2636 0f29 2F       		.uleb128 0x2f
 2637 0f2a 5E040000 		.4byte	.LASF153
 2638 0f2e 10       		.byte	0x10
 2639 0f2f E8       		.byte	0xe8
 2640 0f30 30       		.uleb128 0x30
 2641 0f31 E5000000 		.4byte	.LASF154
 2642 0f35 0E       		.byte	0xe
 2643 0f36 2802     		.2byte	0x228
 2644 0f38 420F0000 		.4byte	0xf42
 2645 0f3c 18       		.uleb128 0x18
 2646 0f3d 7C070000 		.4byte	0x77c
 2647 0f41 00       		.byte	0
 2648 0f42 2F       		.uleb128 0x2f
 2649 0f43 66030000 		.4byte	.LASF155
 2650 0f47 10       		.byte	0x10
 2651 0f48 ED       		.byte	0xed
 2652 0f49 30       		.uleb128 0x30
 2653 0f4a CD010000 		.4byte	.LASF156
 2654 0f4e 0E       		.byte	0xe
 2655 0f4f 2902     		.2byte	0x229
 2656 0f51 5B0F0000 		.4byte	0xf5b
 2657 0f55 18       		.uleb128 0x18
 2658 0f56 7C070000 		.4byte	0x77c
 2659 0f5a 00       		.byte	0
 2660 0f5b 2E       		.uleb128 0x2e
 2661 0f5c 52060000 		.4byte	.LASF157
 2662 0f60 09       		.byte	0x9
 2663 0f61 99       		.byte	0x99
 2664 0f62 710F0000 		.4byte	0xf71
 2665 0f66 18       		.uleb128 0x18
 2666 0f67 83020000 		.4byte	0x283
 2667 0f6b 18       		.uleb128 0x18
 2668 0f6c 2D010000 		.4byte	0x12d
 2669 0f70 00       		.byte	0
 2670 0f71 30       		.uleb128 0x30
 2671 0f72 F3040000 		.4byte	.LASF158
 2672 0f76 0E       		.byte	0xe
 2673 0f77 2A02     		.2byte	0x22a
 2674 0f79 830F0000 		.4byte	0xf83
 2675 0f7d 18       		.uleb128 0x18
 2676 0f7e 7C070000 		.4byte	0x77c
 2677 0f82 00       		.byte	0
 2678 0f83 31       		.uleb128 0x31
 2679 0f84 85050000 		.4byte	.LASF165
ARM GAS  /tmp/ccIdC3WY.s 			page 49


 2680 0f88 09       		.byte	0x9
 2681 0f89 90       		.byte	0x90
 2682 0f8a 83020000 		.4byte	0x283
 2683 0f8e 980F0000 		.4byte	0xf98
 2684 0f92 18       		.uleb128 0x18
 2685 0f93 83020000 		.4byte	0x283
 2686 0f97 00       		.byte	0
 2687 0f98 2E       		.uleb128 0x2e
 2688 0f99 56050000 		.4byte	.LASF159
 2689 0f9d 09       		.byte	0x9
 2690 0f9e 93       		.byte	0x93
 2691 0f9f A90F0000 		.4byte	0xfa9
 2692 0fa3 18       		.uleb128 0x18
 2693 0fa4 01010000 		.4byte	0x101
 2694 0fa8 00       		.byte	0
 2695 0fa9 2E       		.uleb128 0x2e
 2696 0faa 0D040000 		.4byte	.LASF160
 2697 0fae 0A       		.byte	0xa
 2698 0faf 39       		.byte	0x39
 2699 0fb0 BA0F0000 		.4byte	0xfba
 2700 0fb4 18       		.uleb128 0x18
 2701 0fb5 65040000 		.4byte	0x465
 2702 0fb9 00       		.byte	0
 2703 0fba 32       		.uleb128 0x32
 2704 0fbb 57010000 		.4byte	.LASF166
 2705 0fbf 0A       		.byte	0xa
 2706 0fc0 3D       		.byte	0x3d
 2707 0fc1 65040000 		.4byte	0x465
 2708 0fc5 00       		.byte	0
 2709              		.section	.debug_abbrev,"",%progbits
 2710              	.Ldebug_abbrev0:
 2711 0000 01       		.uleb128 0x1
 2712 0001 11       		.uleb128 0x11
 2713 0002 01       		.byte	0x1
 2714 0003 25       		.uleb128 0x25
 2715 0004 0E       		.uleb128 0xe
 2716 0005 13       		.uleb128 0x13
 2717 0006 0B       		.uleb128 0xb
 2718 0007 03       		.uleb128 0x3
 2719 0008 0E       		.uleb128 0xe
 2720 0009 1B       		.uleb128 0x1b
 2721 000a 0E       		.uleb128 0xe
 2722 000b 55       		.uleb128 0x55
 2723 000c 17       		.uleb128 0x17
 2724 000d 11       		.uleb128 0x11
 2725 000e 01       		.uleb128 0x1
 2726 000f 10       		.uleb128 0x10
 2727 0010 17       		.uleb128 0x17
 2728 0011 00       		.byte	0
 2729 0012 00       		.byte	0
 2730 0013 02       		.uleb128 0x2
 2731 0014 24       		.uleb128 0x24
 2732 0015 00       		.byte	0
 2733 0016 0B       		.uleb128 0xb
 2734 0017 0B       		.uleb128 0xb
 2735 0018 3E       		.uleb128 0x3e
 2736 0019 0B       		.uleb128 0xb
ARM GAS  /tmp/ccIdC3WY.s 			page 50


 2737 001a 03       		.uleb128 0x3
 2738 001b 08       		.uleb128 0x8
 2739 001c 00       		.byte	0
 2740 001d 00       		.byte	0
 2741 001e 03       		.uleb128 0x3
 2742 001f 16       		.uleb128 0x16
 2743 0020 00       		.byte	0
 2744 0021 03       		.uleb128 0x3
 2745 0022 0E       		.uleb128 0xe
 2746 0023 3A       		.uleb128 0x3a
 2747 0024 0B       		.uleb128 0xb
 2748 0025 3B       		.uleb128 0x3b
 2749 0026 0B       		.uleb128 0xb
 2750 0027 49       		.uleb128 0x49
 2751 0028 13       		.uleb128 0x13
 2752 0029 00       		.byte	0
 2753 002a 00       		.byte	0
 2754 002b 04       		.uleb128 0x4
 2755 002c 24       		.uleb128 0x24
 2756 002d 00       		.byte	0
 2757 002e 0B       		.uleb128 0xb
 2758 002f 0B       		.uleb128 0xb
 2759 0030 3E       		.uleb128 0x3e
 2760 0031 0B       		.uleb128 0xb
 2761 0032 03       		.uleb128 0x3
 2762 0033 0E       		.uleb128 0xe
 2763 0034 00       		.byte	0
 2764 0035 00       		.byte	0
 2765 0036 05       		.uleb128 0x5
 2766 0037 13       		.uleb128 0x13
 2767 0038 01       		.byte	0x1
 2768 0039 03       		.uleb128 0x3
 2769 003a 0E       		.uleb128 0xe
 2770 003b 0B       		.uleb128 0xb
 2771 003c 0B       		.uleb128 0xb
 2772 003d 3A       		.uleb128 0x3a
 2773 003e 0B       		.uleb128 0xb
 2774 003f 3B       		.uleb128 0x3b
 2775 0040 0B       		.uleb128 0xb
 2776 0041 01       		.uleb128 0x1
 2777 0042 13       		.uleb128 0x13
 2778 0043 00       		.byte	0
 2779 0044 00       		.byte	0
 2780 0045 06       		.uleb128 0x6
 2781 0046 0D       		.uleb128 0xd
 2782 0047 00       		.byte	0
 2783 0048 03       		.uleb128 0x3
 2784 0049 0E       		.uleb128 0xe
 2785 004a 3A       		.uleb128 0x3a
 2786 004b 0B       		.uleb128 0xb
 2787 004c 3B       		.uleb128 0x3b
 2788 004d 0B       		.uleb128 0xb
 2789 004e 49       		.uleb128 0x49
 2790 004f 13       		.uleb128 0x13
 2791 0050 38       		.uleb128 0x38
 2792 0051 0B       		.uleb128 0xb
 2793 0052 00       		.byte	0
ARM GAS  /tmp/ccIdC3WY.s 			page 51


 2794 0053 00       		.byte	0
 2795 0054 07       		.uleb128 0x7
 2796 0055 0D       		.uleb128 0xd
 2797 0056 00       		.byte	0
 2798 0057 03       		.uleb128 0x3
 2799 0058 08       		.uleb128 0x8
 2800 0059 3A       		.uleb128 0x3a
 2801 005a 0B       		.uleb128 0xb
 2802 005b 3B       		.uleb128 0x3b
 2803 005c 0B       		.uleb128 0xb
 2804 005d 49       		.uleb128 0x49
 2805 005e 13       		.uleb128 0x13
 2806 005f 38       		.uleb128 0x38
 2807 0060 0B       		.uleb128 0xb
 2808 0061 00       		.byte	0
 2809 0062 00       		.byte	0
 2810 0063 08       		.uleb128 0x8
 2811 0064 13       		.uleb128 0x13
 2812 0065 01       		.byte	0x1
 2813 0066 0B       		.uleb128 0xb
 2814 0067 0B       		.uleb128 0xb
 2815 0068 3A       		.uleb128 0x3a
 2816 0069 0B       		.uleb128 0xb
 2817 006a 3B       		.uleb128 0x3b
 2818 006b 0B       		.uleb128 0xb
 2819 006c 01       		.uleb128 0x1
 2820 006d 13       		.uleb128 0x13
 2821 006e 00       		.byte	0
 2822 006f 00       		.byte	0
 2823 0070 09       		.uleb128 0x9
 2824 0071 0F       		.uleb128 0xf
 2825 0072 00       		.byte	0
 2826 0073 0B       		.uleb128 0xb
 2827 0074 0B       		.uleb128 0xb
 2828 0075 49       		.uleb128 0x49
 2829 0076 13       		.uleb128 0x13
 2830 0077 00       		.byte	0
 2831 0078 00       		.byte	0
 2832 0079 0A       		.uleb128 0xa
 2833 007a 0F       		.uleb128 0xf
 2834 007b 00       		.byte	0
 2835 007c 0B       		.uleb128 0xb
 2836 007d 0B       		.uleb128 0xb
 2837 007e 00       		.byte	0
 2838 007f 00       		.byte	0
 2839 0080 0B       		.uleb128 0xb
 2840 0081 13       		.uleb128 0x13
 2841 0082 01       		.byte	0x1
 2842 0083 03       		.uleb128 0x3
 2843 0084 0E       		.uleb128 0xe
 2844 0085 0B       		.uleb128 0xb
 2845 0086 0B       		.uleb128 0xb
 2846 0087 3A       		.uleb128 0x3a
 2847 0088 0B       		.uleb128 0xb
 2848 0089 3B       		.uleb128 0x3b
 2849 008a 05       		.uleb128 0x5
 2850 008b 01       		.uleb128 0x1
ARM GAS  /tmp/ccIdC3WY.s 			page 52


 2851 008c 13       		.uleb128 0x13
 2852 008d 00       		.byte	0
 2853 008e 00       		.byte	0
 2854 008f 0C       		.uleb128 0xc
 2855 0090 0D       		.uleb128 0xd
 2856 0091 00       		.byte	0
 2857 0092 03       		.uleb128 0x3
 2858 0093 08       		.uleb128 0x8
 2859 0094 3A       		.uleb128 0x3a
 2860 0095 0B       		.uleb128 0xb
 2861 0096 3B       		.uleb128 0x3b
 2862 0097 05       		.uleb128 0x5
 2863 0098 49       		.uleb128 0x49
 2864 0099 13       		.uleb128 0x13
 2865 009a 38       		.uleb128 0x38
 2866 009b 0B       		.uleb128 0xb
 2867 009c 00       		.byte	0
 2868 009d 00       		.byte	0
 2869 009e 0D       		.uleb128 0xd
 2870 009f 35       		.uleb128 0x35
 2871 00a0 00       		.byte	0
 2872 00a1 49       		.uleb128 0x49
 2873 00a2 13       		.uleb128 0x13
 2874 00a3 00       		.byte	0
 2875 00a4 00       		.byte	0
 2876 00a5 0E       		.uleb128 0xe
 2877 00a6 17       		.uleb128 0x17
 2878 00a7 01       		.byte	0x1
 2879 00a8 0B       		.uleb128 0xb
 2880 00a9 0B       		.uleb128 0xb
 2881 00aa 3A       		.uleb128 0x3a
 2882 00ab 0B       		.uleb128 0xb
 2883 00ac 3B       		.uleb128 0x3b
 2884 00ad 0B       		.uleb128 0xb
 2885 00ae 01       		.uleb128 0x1
 2886 00af 13       		.uleb128 0x13
 2887 00b0 00       		.byte	0
 2888 00b1 00       		.byte	0
 2889 00b2 0F       		.uleb128 0xf
 2890 00b3 0D       		.uleb128 0xd
 2891 00b4 00       		.byte	0
 2892 00b5 03       		.uleb128 0x3
 2893 00b6 0E       		.uleb128 0xe
 2894 00b7 3A       		.uleb128 0x3a
 2895 00b8 0B       		.uleb128 0xb
 2896 00b9 3B       		.uleb128 0x3b
 2897 00ba 0B       		.uleb128 0xb
 2898 00bb 49       		.uleb128 0x49
 2899 00bc 13       		.uleb128 0x13
 2900 00bd 00       		.byte	0
 2901 00be 00       		.byte	0
 2902 00bf 10       		.uleb128 0x10
 2903 00c0 26       		.uleb128 0x26
 2904 00c1 00       		.byte	0
 2905 00c2 49       		.uleb128 0x49
 2906 00c3 13       		.uleb128 0x13
 2907 00c4 00       		.byte	0
ARM GAS  /tmp/ccIdC3WY.s 			page 53


 2908 00c5 00       		.byte	0
 2909 00c6 11       		.uleb128 0x11
 2910 00c7 13       		.uleb128 0x13
 2911 00c8 01       		.byte	0x1
 2912 00c9 0B       		.uleb128 0xb
 2913 00ca 0B       		.uleb128 0xb
 2914 00cb 3A       		.uleb128 0x3a
 2915 00cc 0B       		.uleb128 0xb
 2916 00cd 3B       		.uleb128 0x3b
 2917 00ce 05       		.uleb128 0x5
 2918 00cf 01       		.uleb128 0x1
 2919 00d0 13       		.uleb128 0x13
 2920 00d1 00       		.byte	0
 2921 00d2 00       		.byte	0
 2922 00d3 12       		.uleb128 0x12
 2923 00d4 0D       		.uleb128 0xd
 2924 00d5 00       		.byte	0
 2925 00d6 03       		.uleb128 0x3
 2926 00d7 0E       		.uleb128 0xe
 2927 00d8 3A       		.uleb128 0x3a
 2928 00d9 0B       		.uleb128 0xb
 2929 00da 3B       		.uleb128 0x3b
 2930 00db 05       		.uleb128 0x5
 2931 00dc 49       		.uleb128 0x49
 2932 00dd 13       		.uleb128 0x13
 2933 00de 38       		.uleb128 0x38
 2934 00df 0B       		.uleb128 0xb
 2935 00e0 00       		.byte	0
 2936 00e1 00       		.byte	0
 2937 00e2 13       		.uleb128 0x13
 2938 00e3 16       		.uleb128 0x16
 2939 00e4 00       		.byte	0
 2940 00e5 03       		.uleb128 0x3
 2941 00e6 0E       		.uleb128 0xe
 2942 00e7 3A       		.uleb128 0x3a
 2943 00e8 0B       		.uleb128 0xb
 2944 00e9 3B       		.uleb128 0x3b
 2945 00ea 05       		.uleb128 0x5
 2946 00eb 49       		.uleb128 0x49
 2947 00ec 13       		.uleb128 0x13
 2948 00ed 00       		.byte	0
 2949 00ee 00       		.byte	0
 2950 00ef 14       		.uleb128 0x14
 2951 00f0 04       		.uleb128 0x4
 2952 00f1 01       		.byte	0x1
 2953 00f2 0B       		.uleb128 0xb
 2954 00f3 0B       		.uleb128 0xb
 2955 00f4 3A       		.uleb128 0x3a
 2956 00f5 0B       		.uleb128 0xb
 2957 00f6 3B       		.uleb128 0x3b
 2958 00f7 0B       		.uleb128 0xb
 2959 00f8 01       		.uleb128 0x1
 2960 00f9 13       		.uleb128 0x13
 2961 00fa 00       		.byte	0
 2962 00fb 00       		.byte	0
 2963 00fc 15       		.uleb128 0x15
 2964 00fd 28       		.uleb128 0x28
ARM GAS  /tmp/ccIdC3WY.s 			page 54


 2965 00fe 00       		.byte	0
 2966 00ff 03       		.uleb128 0x3
 2967 0100 0E       		.uleb128 0xe
 2968 0101 1C       		.uleb128 0x1c
 2969 0102 0D       		.uleb128 0xd
 2970 0103 00       		.byte	0
 2971 0104 00       		.byte	0
 2972 0105 16       		.uleb128 0x16
 2973 0106 04       		.uleb128 0x4
 2974 0107 01       		.byte	0x1
 2975 0108 0B       		.uleb128 0xb
 2976 0109 0B       		.uleb128 0xb
 2977 010a 3A       		.uleb128 0x3a
 2978 010b 0B       		.uleb128 0xb
 2979 010c 3B       		.uleb128 0x3b
 2980 010d 05       		.uleb128 0x5
 2981 010e 01       		.uleb128 0x1
 2982 010f 13       		.uleb128 0x13
 2983 0110 00       		.byte	0
 2984 0111 00       		.byte	0
 2985 0112 17       		.uleb128 0x17
 2986 0113 15       		.uleb128 0x15
 2987 0114 01       		.byte	0x1
 2988 0115 27       		.uleb128 0x27
 2989 0116 19       		.uleb128 0x19
 2990 0117 01       		.uleb128 0x1
 2991 0118 13       		.uleb128 0x13
 2992 0119 00       		.byte	0
 2993 011a 00       		.byte	0
 2994 011b 18       		.uleb128 0x18
 2995 011c 05       		.uleb128 0x5
 2996 011d 00       		.byte	0
 2997 011e 49       		.uleb128 0x49
 2998 011f 13       		.uleb128 0x13
 2999 0120 00       		.byte	0
 3000 0121 00       		.byte	0
 3001 0122 19       		.uleb128 0x19
 3002 0123 2E       		.uleb128 0x2e
 3003 0124 01       		.byte	0x1
 3004 0125 3F       		.uleb128 0x3f
 3005 0126 19       		.uleb128 0x19
 3006 0127 03       		.uleb128 0x3
 3007 0128 0E       		.uleb128 0xe
 3008 0129 3A       		.uleb128 0x3a
 3009 012a 0B       		.uleb128 0xb
 3010 012b 3B       		.uleb128 0x3b
 3011 012c 0B       		.uleb128 0xb
 3012 012d 27       		.uleb128 0x27
 3013 012e 19       		.uleb128 0x19
 3014 012f 11       		.uleb128 0x11
 3015 0130 01       		.uleb128 0x1
 3016 0131 12       		.uleb128 0x12
 3017 0132 06       		.uleb128 0x6
 3018 0133 40       		.uleb128 0x40
 3019 0134 18       		.uleb128 0x18
 3020 0135 9742     		.uleb128 0x2117
 3021 0137 19       		.uleb128 0x19
ARM GAS  /tmp/ccIdC3WY.s 			page 55


 3022 0138 01       		.uleb128 0x1
 3023 0139 13       		.uleb128 0x13
 3024 013a 00       		.byte	0
 3025 013b 00       		.byte	0
 3026 013c 1A       		.uleb128 0x1a
 3027 013d 898201   		.uleb128 0x4109
 3028 0140 00       		.byte	0
 3029 0141 11       		.uleb128 0x11
 3030 0142 01       		.uleb128 0x1
 3031 0143 9542     		.uleb128 0x2115
 3032 0145 19       		.uleb128 0x19
 3033 0146 31       		.uleb128 0x31
 3034 0147 13       		.uleb128 0x13
 3035 0148 00       		.byte	0
 3036 0149 00       		.byte	0
 3037 014a 1B       		.uleb128 0x1b
 3038 014b 05       		.uleb128 0x5
 3039 014c 00       		.byte	0
 3040 014d 03       		.uleb128 0x3
 3041 014e 0E       		.uleb128 0xe
 3042 014f 3A       		.uleb128 0x3a
 3043 0150 0B       		.uleb128 0xb
 3044 0151 3B       		.uleb128 0x3b
 3045 0152 0B       		.uleb128 0xb
 3046 0153 49       		.uleb128 0x49
 3047 0154 13       		.uleb128 0x13
 3048 0155 02       		.uleb128 0x2
 3049 0156 17       		.uleb128 0x17
 3050 0157 00       		.byte	0
 3051 0158 00       		.byte	0
 3052 0159 1C       		.uleb128 0x1c
 3053 015a 898201   		.uleb128 0x4109
 3054 015d 01       		.byte	0x1
 3055 015e 11       		.uleb128 0x11
 3056 015f 01       		.uleb128 0x1
 3057 0160 9542     		.uleb128 0x2115
 3058 0162 19       		.uleb128 0x19
 3059 0163 31       		.uleb128 0x31
 3060 0164 13       		.uleb128 0x13
 3061 0165 00       		.byte	0
 3062 0166 00       		.byte	0
 3063 0167 1D       		.uleb128 0x1d
 3064 0168 8A8201   		.uleb128 0x410a
 3065 016b 00       		.byte	0
 3066 016c 02       		.uleb128 0x2
 3067 016d 18       		.uleb128 0x18
 3068 016e 9142     		.uleb128 0x2111
 3069 0170 18       		.uleb128 0x18
 3070 0171 00       		.byte	0
 3071 0172 00       		.byte	0
 3072 0173 1E       		.uleb128 0x1e
 3073 0174 0B       		.uleb128 0xb
 3074 0175 01       		.byte	0x1
 3075 0176 11       		.uleb128 0x11
 3076 0177 01       		.uleb128 0x1
 3077 0178 12       		.uleb128 0x12
 3078 0179 06       		.uleb128 0x6
ARM GAS  /tmp/ccIdC3WY.s 			page 56


 3079 017a 01       		.uleb128 0x1
 3080 017b 13       		.uleb128 0x13
 3081 017c 00       		.byte	0
 3082 017d 00       		.byte	0
 3083 017e 1F       		.uleb128 0x1f
 3084 017f 34       		.uleb128 0x34
 3085 0180 00       		.byte	0
 3086 0181 03       		.uleb128 0x3
 3087 0182 08       		.uleb128 0x8
 3088 0183 3A       		.uleb128 0x3a
 3089 0184 0B       		.uleb128 0xb
 3090 0185 3B       		.uleb128 0x3b
 3091 0186 0B       		.uleb128 0xb
 3092 0187 49       		.uleb128 0x49
 3093 0188 13       		.uleb128 0x13
 3094 0189 02       		.uleb128 0x2
 3095 018a 18       		.uleb128 0x18
 3096 018b 00       		.byte	0
 3097 018c 00       		.byte	0
 3098 018d 20       		.uleb128 0x20
 3099 018e 898201   		.uleb128 0x4109
 3100 0191 00       		.byte	0
 3101 0192 11       		.uleb128 0x11
 3102 0193 01       		.uleb128 0x1
 3103 0194 31       		.uleb128 0x31
 3104 0195 13       		.uleb128 0x13
 3105 0196 00       		.byte	0
 3106 0197 00       		.byte	0
 3107 0198 21       		.uleb128 0x21
 3108 0199 898201   		.uleb128 0x4109
 3109 019c 01       		.byte	0x1
 3110 019d 11       		.uleb128 0x11
 3111 019e 01       		.uleb128 0x1
 3112 019f 31       		.uleb128 0x31
 3113 01a0 13       		.uleb128 0x13
 3114 01a1 01       		.uleb128 0x1
 3115 01a2 13       		.uleb128 0x13
 3116 01a3 00       		.byte	0
 3117 01a4 00       		.byte	0
 3118 01a5 22       		.uleb128 0x22
 3119 01a6 898201   		.uleb128 0x4109
 3120 01a9 01       		.byte	0x1
 3121 01aa 11       		.uleb128 0x11
 3122 01ab 01       		.uleb128 0x1
 3123 01ac 31       		.uleb128 0x31
 3124 01ad 13       		.uleb128 0x13
 3125 01ae 00       		.byte	0
 3126 01af 00       		.byte	0
 3127 01b0 23       		.uleb128 0x23
 3128 01b1 898201   		.uleb128 0x4109
 3129 01b4 01       		.byte	0x1
 3130 01b5 11       		.uleb128 0x11
 3131 01b6 01       		.uleb128 0x1
 3132 01b7 9542     		.uleb128 0x2115
 3133 01b9 19       		.uleb128 0x19
 3134 01ba 31       		.uleb128 0x31
 3135 01bb 13       		.uleb128 0x13
ARM GAS  /tmp/ccIdC3WY.s 			page 57


 3136 01bc 01       		.uleb128 0x1
 3137 01bd 13       		.uleb128 0x13
 3138 01be 00       		.byte	0
 3139 01bf 00       		.byte	0
 3140 01c0 24       		.uleb128 0x24
 3141 01c1 34       		.uleb128 0x34
 3142 01c2 00       		.byte	0
 3143 01c3 03       		.uleb128 0x3
 3144 01c4 08       		.uleb128 0x8
 3145 01c5 3A       		.uleb128 0x3a
 3146 01c6 0B       		.uleb128 0xb
 3147 01c7 3B       		.uleb128 0x3b
 3148 01c8 0B       		.uleb128 0xb
 3149 01c9 49       		.uleb128 0x49
 3150 01ca 13       		.uleb128 0x13
 3151 01cb 02       		.uleb128 0x2
 3152 01cc 17       		.uleb128 0x17
 3153 01cd 00       		.byte	0
 3154 01ce 00       		.byte	0
 3155 01cf 25       		.uleb128 0x25
 3156 01d0 0B       		.uleb128 0xb
 3157 01d1 01       		.byte	0x1
 3158 01d2 55       		.uleb128 0x55
 3159 01d3 17       		.uleb128 0x17
 3160 01d4 01       		.uleb128 0x1
 3161 01d5 13       		.uleb128 0x13
 3162 01d6 00       		.byte	0
 3163 01d7 00       		.byte	0
 3164 01d8 26       		.uleb128 0x26
 3165 01d9 34       		.uleb128 0x34
 3166 01da 00       		.byte	0
 3167 01db 03       		.uleb128 0x3
 3168 01dc 08       		.uleb128 0x8
 3169 01dd 3A       		.uleb128 0x3a
 3170 01de 0B       		.uleb128 0xb
 3171 01df 3B       		.uleb128 0x3b
 3172 01e0 05       		.uleb128 0x5
 3173 01e1 49       		.uleb128 0x49
 3174 01e2 13       		.uleb128 0x13
 3175 01e3 02       		.uleb128 0x2
 3176 01e4 17       		.uleb128 0x17
 3177 01e5 00       		.byte	0
 3178 01e6 00       		.byte	0
 3179 01e7 27       		.uleb128 0x27
 3180 01e8 2E       		.uleb128 0x2e
 3181 01e9 01       		.byte	0x1
 3182 01ea 3F       		.uleb128 0x3f
 3183 01eb 19       		.uleb128 0x19
 3184 01ec 03       		.uleb128 0x3
 3185 01ed 0E       		.uleb128 0xe
 3186 01ee 3A       		.uleb128 0x3a
 3187 01ef 0B       		.uleb128 0xb
 3188 01f0 3B       		.uleb128 0x3b
 3189 01f1 05       		.uleb128 0x5
 3190 01f2 27       		.uleb128 0x27
 3191 01f3 19       		.uleb128 0x19
 3192 01f4 49       		.uleb128 0x49
ARM GAS  /tmp/ccIdC3WY.s 			page 58


 3193 01f5 13       		.uleb128 0x13
 3194 01f6 11       		.uleb128 0x11
 3195 01f7 01       		.uleb128 0x1
 3196 01f8 12       		.uleb128 0x12
 3197 01f9 06       		.uleb128 0x6
 3198 01fa 40       		.uleb128 0x40
 3199 01fb 18       		.uleb128 0x18
 3200 01fc 9742     		.uleb128 0x2117
 3201 01fe 19       		.uleb128 0x19
 3202 01ff 01       		.uleb128 0x1
 3203 0200 13       		.uleb128 0x13
 3204 0201 00       		.byte	0
 3205 0202 00       		.byte	0
 3206 0203 28       		.uleb128 0x28
 3207 0204 05       		.uleb128 0x5
 3208 0205 00       		.byte	0
 3209 0206 03       		.uleb128 0x3
 3210 0207 0E       		.uleb128 0xe
 3211 0208 3A       		.uleb128 0x3a
 3212 0209 0B       		.uleb128 0xb
 3213 020a 3B       		.uleb128 0x3b
 3214 020b 05       		.uleb128 0x5
 3215 020c 49       		.uleb128 0x49
 3216 020d 13       		.uleb128 0x13
 3217 020e 02       		.uleb128 0x2
 3218 020f 17       		.uleb128 0x17
 3219 0210 00       		.byte	0
 3220 0211 00       		.byte	0
 3221 0212 29       		.uleb128 0x29
 3222 0213 34       		.uleb128 0x34
 3223 0214 00       		.byte	0
 3224 0215 03       		.uleb128 0x3
 3225 0216 08       		.uleb128 0x8
 3226 0217 3A       		.uleb128 0x3a
 3227 0218 0B       		.uleb128 0xb
 3228 0219 3B       		.uleb128 0x3b
 3229 021a 05       		.uleb128 0x5
 3230 021b 49       		.uleb128 0x49
 3231 021c 13       		.uleb128 0x13
 3232 021d 02       		.uleb128 0x2
 3233 021e 18       		.uleb128 0x18
 3234 021f 00       		.byte	0
 3235 0220 00       		.byte	0
 3236 0221 2A       		.uleb128 0x2a
 3237 0222 2E       		.uleb128 0x2e
 3238 0223 01       		.byte	0x1
 3239 0224 3F       		.uleb128 0x3f
 3240 0225 19       		.uleb128 0x19
 3241 0226 03       		.uleb128 0x3
 3242 0227 0E       		.uleb128 0xe
 3243 0228 3A       		.uleb128 0x3a
 3244 0229 0B       		.uleb128 0xb
 3245 022a 3B       		.uleb128 0x3b
 3246 022b 05       		.uleb128 0x5
 3247 022c 27       		.uleb128 0x27
 3248 022d 19       		.uleb128 0x19
 3249 022e 11       		.uleb128 0x11
ARM GAS  /tmp/ccIdC3WY.s 			page 59


 3250 022f 01       		.uleb128 0x1
 3251 0230 12       		.uleb128 0x12
 3252 0231 06       		.uleb128 0x6
 3253 0232 40       		.uleb128 0x40
 3254 0233 18       		.uleb128 0x18
 3255 0234 9742     		.uleb128 0x2117
 3256 0236 19       		.uleb128 0x19
 3257 0237 01       		.uleb128 0x1
 3258 0238 13       		.uleb128 0x13
 3259 0239 00       		.byte	0
 3260 023a 00       		.byte	0
 3261 023b 2B       		.uleb128 0x2b
 3262 023c 34       		.uleb128 0x34
 3263 023d 00       		.byte	0
 3264 023e 03       		.uleb128 0x3
 3265 023f 0E       		.uleb128 0xe
 3266 0240 3A       		.uleb128 0x3a
 3267 0241 0B       		.uleb128 0xb
 3268 0242 3B       		.uleb128 0x3b
 3269 0243 0B       		.uleb128 0xb
 3270 0244 49       		.uleb128 0x49
 3271 0245 13       		.uleb128 0x13
 3272 0246 3F       		.uleb128 0x3f
 3273 0247 19       		.uleb128 0x19
 3274 0248 3C       		.uleb128 0x3c
 3275 0249 19       		.uleb128 0x19
 3276 024a 00       		.byte	0
 3277 024b 00       		.byte	0
 3278 024c 2C       		.uleb128 0x2c
 3279 024d 34       		.uleb128 0x34
 3280 024e 00       		.byte	0
 3281 024f 03       		.uleb128 0x3
 3282 0250 0E       		.uleb128 0xe
 3283 0251 3A       		.uleb128 0x3a
 3284 0252 0B       		.uleb128 0xb
 3285 0253 3B       		.uleb128 0x3b
 3286 0254 05       		.uleb128 0x5
 3287 0255 49       		.uleb128 0x49
 3288 0256 13       		.uleb128 0x13
 3289 0257 3F       		.uleb128 0x3f
 3290 0258 19       		.uleb128 0x19
 3291 0259 3C       		.uleb128 0x3c
 3292 025a 19       		.uleb128 0x19
 3293 025b 00       		.byte	0
 3294 025c 00       		.byte	0
 3295 025d 2D       		.uleb128 0x2d
 3296 025e 2E       		.uleb128 0x2e
 3297 025f 00       		.byte	0
 3298 0260 3F       		.uleb128 0x3f
 3299 0261 19       		.uleb128 0x19
 3300 0262 03       		.uleb128 0x3
 3301 0263 0E       		.uleb128 0xe
 3302 0264 3A       		.uleb128 0x3a
 3303 0265 0B       		.uleb128 0xb
 3304 0266 3B       		.uleb128 0x3b
 3305 0267 05       		.uleb128 0x5
 3306 0268 27       		.uleb128 0x27
ARM GAS  /tmp/ccIdC3WY.s 			page 60


 3307 0269 19       		.uleb128 0x19
 3308 026a 3C       		.uleb128 0x3c
 3309 026b 19       		.uleb128 0x19
 3310 026c 00       		.byte	0
 3311 026d 00       		.byte	0
 3312 026e 2E       		.uleb128 0x2e
 3313 026f 2E       		.uleb128 0x2e
 3314 0270 01       		.byte	0x1
 3315 0271 3F       		.uleb128 0x3f
 3316 0272 19       		.uleb128 0x19
 3317 0273 03       		.uleb128 0x3
 3318 0274 0E       		.uleb128 0xe
 3319 0275 3A       		.uleb128 0x3a
 3320 0276 0B       		.uleb128 0xb
 3321 0277 3B       		.uleb128 0x3b
 3322 0278 0B       		.uleb128 0xb
 3323 0279 27       		.uleb128 0x27
 3324 027a 19       		.uleb128 0x19
 3325 027b 3C       		.uleb128 0x3c
 3326 027c 19       		.uleb128 0x19
 3327 027d 01       		.uleb128 0x1
 3328 027e 13       		.uleb128 0x13
 3329 027f 00       		.byte	0
 3330 0280 00       		.byte	0
 3331 0281 2F       		.uleb128 0x2f
 3332 0282 2E       		.uleb128 0x2e
 3333 0283 00       		.byte	0
 3334 0284 3F       		.uleb128 0x3f
 3335 0285 19       		.uleb128 0x19
 3336 0286 03       		.uleb128 0x3
 3337 0287 0E       		.uleb128 0xe
 3338 0288 3A       		.uleb128 0x3a
 3339 0289 0B       		.uleb128 0xb
 3340 028a 3B       		.uleb128 0x3b
 3341 028b 0B       		.uleb128 0xb
 3342 028c 27       		.uleb128 0x27
 3343 028d 19       		.uleb128 0x19
 3344 028e 3C       		.uleb128 0x3c
 3345 028f 19       		.uleb128 0x19
 3346 0290 00       		.byte	0
 3347 0291 00       		.byte	0
 3348 0292 30       		.uleb128 0x30
 3349 0293 2E       		.uleb128 0x2e
 3350 0294 01       		.byte	0x1
 3351 0295 3F       		.uleb128 0x3f
 3352 0296 19       		.uleb128 0x19
 3353 0297 03       		.uleb128 0x3
 3354 0298 0E       		.uleb128 0xe
 3355 0299 3A       		.uleb128 0x3a
 3356 029a 0B       		.uleb128 0xb
 3357 029b 3B       		.uleb128 0x3b
 3358 029c 05       		.uleb128 0x5
 3359 029d 27       		.uleb128 0x27
 3360 029e 19       		.uleb128 0x19
 3361 029f 3C       		.uleb128 0x3c
 3362 02a0 19       		.uleb128 0x19
 3363 02a1 01       		.uleb128 0x1
ARM GAS  /tmp/ccIdC3WY.s 			page 61


 3364 02a2 13       		.uleb128 0x13
 3365 02a3 00       		.byte	0
 3366 02a4 00       		.byte	0
 3367 02a5 31       		.uleb128 0x31
 3368 02a6 2E       		.uleb128 0x2e
 3369 02a7 01       		.byte	0x1
 3370 02a8 3F       		.uleb128 0x3f
 3371 02a9 19       		.uleb128 0x19
 3372 02aa 03       		.uleb128 0x3
 3373 02ab 0E       		.uleb128 0xe
 3374 02ac 3A       		.uleb128 0x3a
 3375 02ad 0B       		.uleb128 0xb
 3376 02ae 3B       		.uleb128 0x3b
 3377 02af 0B       		.uleb128 0xb
 3378 02b0 27       		.uleb128 0x27
 3379 02b1 19       		.uleb128 0x19
 3380 02b2 49       		.uleb128 0x49
 3381 02b3 13       		.uleb128 0x13
 3382 02b4 3C       		.uleb128 0x3c
 3383 02b5 19       		.uleb128 0x19
 3384 02b6 01       		.uleb128 0x1
 3385 02b7 13       		.uleb128 0x13
 3386 02b8 00       		.byte	0
 3387 02b9 00       		.byte	0
 3388 02ba 32       		.uleb128 0x32
 3389 02bb 2E       		.uleb128 0x2e
 3390 02bc 00       		.byte	0
 3391 02bd 3F       		.uleb128 0x3f
 3392 02be 19       		.uleb128 0x19
 3393 02bf 03       		.uleb128 0x3
 3394 02c0 0E       		.uleb128 0xe
 3395 02c1 3A       		.uleb128 0x3a
 3396 02c2 0B       		.uleb128 0xb
 3397 02c3 3B       		.uleb128 0x3b
 3398 02c4 0B       		.uleb128 0xb
 3399 02c5 27       		.uleb128 0x27
 3400 02c6 19       		.uleb128 0x19
 3401 02c7 49       		.uleb128 0x49
 3402 02c8 13       		.uleb128 0x13
 3403 02c9 3C       		.uleb128 0x3c
 3404 02ca 19       		.uleb128 0x19
 3405 02cb 00       		.byte	0
 3406 02cc 00       		.byte	0
 3407 02cd 00       		.byte	0
 3408              		.section	.debug_loc,"",%progbits
 3409              	.Ldebug_loc0:
 3410              	.LLST0:
 3411 0000 00000000 		.4byte	.LVL1
 3412 0004 12000000 		.4byte	.LVL2
 3413 0008 0100     		.2byte	0x1
 3414 000a 50       		.byte	0x50
 3415 000b 12000000 		.4byte	.LVL2
 3416 000f 15000000 		.4byte	.LVL3-1
 3417 0013 0300     		.2byte	0x3
 3418 0015 70       		.byte	0x70
 3419 0016 68       		.sleb128 -24
 3420 0017 9F       		.byte	0x9f
ARM GAS  /tmp/ccIdC3WY.s 			page 62


 3421 0018 15000000 		.4byte	.LVL3-1
 3422 001c 16000000 		.4byte	.LFE119
 3423 0020 0400     		.2byte	0x4
 3424 0022 F3       		.byte	0xf3
 3425 0023 01       		.uleb128 0x1
 3426 0024 50       		.byte	0x50
 3427 0025 9F       		.byte	0x9f
 3428 0026 00000000 		.4byte	0
 3429 002a 00000000 		.4byte	0
 3430              	.LLST1:
 3431 002e 00000000 		.4byte	.LVL4
 3432 0032 08000000 		.4byte	.LVL5
 3433 0036 0100     		.2byte	0x1
 3434 0038 50       		.byte	0x50
 3435 0039 08000000 		.4byte	.LVL5
 3436 003d 40000000 		.4byte	.LVL10
 3437 0041 0100     		.2byte	0x1
 3438 0043 54       		.byte	0x54
 3439 0044 40000000 		.4byte	.LVL10
 3440 0048 44000000 		.4byte	.LVL11
 3441 004c 0100     		.2byte	0x1
 3442 004e 50       		.byte	0x50
 3443 004f 44000000 		.4byte	.LVL11
 3444 0053 4E000000 		.4byte	.LFE120
 3445 0057 0100     		.2byte	0x1
 3446 0059 54       		.byte	0x54
 3447 005a 00000000 		.4byte	0
 3448 005e 00000000 		.4byte	0
 3449              	.LLST2:
 3450 0062 00000000 		.4byte	.LVL4
 3451 0066 08000000 		.4byte	.LVL5
 3452 006a 0100     		.2byte	0x1
 3453 006c 51       		.byte	0x51
 3454 006d 08000000 		.4byte	.LVL5
 3455 0071 40000000 		.4byte	.LVL10
 3456 0075 0100     		.2byte	0x1
 3457 0077 55       		.byte	0x55
 3458 0078 40000000 		.4byte	.LVL10
 3459 007c 4B000000 		.4byte	.LVL12-1
 3460 0080 0100     		.2byte	0x1
 3461 0082 51       		.byte	0x51
 3462 0083 4B000000 		.4byte	.LVL12-1
 3463 0087 4E000000 		.4byte	.LFE120
 3464 008b 0100     		.2byte	0x1
 3465 008d 55       		.byte	0x55
 3466 008e 00000000 		.4byte	0
 3467 0092 00000000 		.4byte	0
 3468              	.LLST3:
 3469 0096 00000000 		.4byte	.LVL13
 3470 009a 06000000 		.4byte	.LVL14
 3471 009e 0100     		.2byte	0x1
 3472 00a0 50       		.byte	0x50
 3473 00a1 06000000 		.4byte	.LVL14
 3474 00a5 3C000000 		.4byte	.LVL19
 3475 00a9 0100     		.2byte	0x1
 3476 00ab 54       		.byte	0x54
 3477 00ac 3C000000 		.4byte	.LVL19
ARM GAS  /tmp/ccIdC3WY.s 			page 63


 3478 00b0 40000000 		.4byte	.LVL20
 3479 00b4 0100     		.2byte	0x1
 3480 00b6 50       		.byte	0x50
 3481 00b7 40000000 		.4byte	.LVL20
 3482 00bb 4A000000 		.4byte	.LFE121
 3483 00bf 0100     		.2byte	0x1
 3484 00c1 54       		.byte	0x54
 3485 00c2 00000000 		.4byte	0
 3486 00c6 00000000 		.4byte	0
 3487              	.LLST4:
 3488 00ca 00000000 		.4byte	.LVL22
 3489 00ce 0D000000 		.4byte	.LVL23-1
 3490 00d2 0100     		.2byte	0x1
 3491 00d4 50       		.byte	0x50
 3492 00d5 0D000000 		.4byte	.LVL23-1
 3493 00d9 4A000000 		.4byte	.LVL25
 3494 00dd 0100     		.2byte	0x1
 3495 00df 54       		.byte	0x54
 3496 00e0 4A000000 		.4byte	.LVL25
 3497 00e4 4D000000 		.4byte	.LVL26-1
 3498 00e8 0100     		.2byte	0x1
 3499 00ea 50       		.byte	0x50
 3500 00eb 4D000000 		.4byte	.LVL26-1
 3501 00ef 4E000000 		.4byte	.LVL26
 3502 00f3 0400     		.2byte	0x4
 3503 00f5 F3       		.byte	0xf3
 3504 00f6 01       		.uleb128 0x1
 3505 00f7 50       		.byte	0x50
 3506 00f8 9F       		.byte	0x9f
 3507 00f9 4E000000 		.4byte	.LVL26
 3508 00fd 5C000000 		.4byte	.LFE123
 3509 0101 0100     		.2byte	0x1
 3510 0103 54       		.byte	0x54
 3511 0104 00000000 		.4byte	0
 3512 0108 00000000 		.4byte	0
 3513              	.LLST5:
 3514 010c 00000000 		.4byte	.LVL22
 3515 0110 0D000000 		.4byte	.LVL23-1
 3516 0114 0100     		.2byte	0x1
 3517 0116 51       		.byte	0x51
 3518 0117 0D000000 		.4byte	.LVL23-1
 3519 011b 4A000000 		.4byte	.LVL25
 3520 011f 0100     		.2byte	0x1
 3521 0121 56       		.byte	0x56
 3522 0122 4A000000 		.4byte	.LVL25
 3523 0126 4D000000 		.4byte	.LVL26-1
 3524 012a 0200     		.2byte	0x2
 3525 012c 70       		.byte	0x70
 3526 012d 10       		.sleb128 16
 3527 012e 4D000000 		.4byte	.LVL26-1
 3528 0132 4E000000 		.4byte	.LVL26
 3529 0136 0400     		.2byte	0x4
 3530 0138 F3       		.byte	0xf3
 3531 0139 01       		.uleb128 0x1
 3532 013a 51       		.byte	0x51
 3533 013b 9F       		.byte	0x9f
 3534 013c 4E000000 		.4byte	.LVL26
ARM GAS  /tmp/ccIdC3WY.s 			page 64


 3535 0140 5C000000 		.4byte	.LFE123
 3536 0144 0100     		.2byte	0x1
 3537 0146 56       		.byte	0x56
 3538 0147 00000000 		.4byte	0
 3539 014b 00000000 		.4byte	0
 3540              	.LLST6:
 3541 014f 00000000 		.4byte	.LVL22
 3542 0153 0D000000 		.4byte	.LVL23-1
 3543 0157 0100     		.2byte	0x1
 3544 0159 52       		.byte	0x52
 3545 015a 0D000000 		.4byte	.LVL23-1
 3546 015e 4A000000 		.4byte	.LVL25
 3547 0162 0100     		.2byte	0x1
 3548 0164 57       		.byte	0x57
 3549 0165 4A000000 		.4byte	.LVL25
 3550 0169 4D000000 		.4byte	.LVL26-1
 3551 016d 0200     		.2byte	0x2
 3552 016f 70       		.byte	0x70
 3553 0170 08       		.sleb128 8
 3554 0171 4D000000 		.4byte	.LVL26-1
 3555 0175 4E000000 		.4byte	.LVL26
 3556 0179 0400     		.2byte	0x4
 3557 017b F3       		.byte	0xf3
 3558 017c 01       		.uleb128 0x1
 3559 017d 52       		.byte	0x52
 3560 017e 9F       		.byte	0x9f
 3561 017f 4E000000 		.4byte	.LVL26
 3562 0183 5C000000 		.4byte	.LFE123
 3563 0187 0100     		.2byte	0x1
 3564 0189 57       		.byte	0x57
 3565 018a 00000000 		.4byte	0
 3566 018e 00000000 		.4byte	0
 3567              	.LLST7:
 3568 0192 00000000 		.4byte	.LVL22
 3569 0196 0D000000 		.4byte	.LVL23-1
 3570 019a 0100     		.2byte	0x1
 3571 019c 53       		.byte	0x53
 3572 019d 0D000000 		.4byte	.LVL23-1
 3573 01a1 4A000000 		.4byte	.LVL25
 3574 01a5 0100     		.2byte	0x1
 3575 01a7 55       		.byte	0x55
 3576 01a8 4A000000 		.4byte	.LVL25
 3577 01ac 4D000000 		.4byte	.LVL26-1
 3578 01b0 0200     		.2byte	0x2
 3579 01b2 70       		.byte	0x70
 3580 01b3 0C       		.sleb128 12
 3581 01b4 4D000000 		.4byte	.LVL26-1
 3582 01b8 4E000000 		.4byte	.LVL26
 3583 01bc 0400     		.2byte	0x4
 3584 01be F3       		.byte	0xf3
 3585 01bf 01       		.uleb128 0x1
 3586 01c0 53       		.byte	0x53
 3587 01c1 9F       		.byte	0x9f
 3588 01c2 4E000000 		.4byte	.LVL26
 3589 01c6 5C000000 		.4byte	.LFE123
 3590 01ca 0100     		.2byte	0x1
 3591 01cc 55       		.byte	0x55
ARM GAS  /tmp/ccIdC3WY.s 			page 65


 3592 01cd 00000000 		.4byte	0
 3593 01d1 00000000 		.4byte	0
 3594              	.LLST8:
 3595 01d5 00000000 		.4byte	.LVL28
 3596 01d9 13000000 		.4byte	.LVL30-1
 3597 01dd 0100     		.2byte	0x1
 3598 01df 50       		.byte	0x50
 3599 01e0 13000000 		.4byte	.LVL30-1
 3600 01e4 2C000000 		.4byte	.LFE122
 3601 01e8 0100     		.2byte	0x1
 3602 01ea 57       		.byte	0x57
 3603 01eb 00000000 		.4byte	0
 3604 01ef 00000000 		.4byte	0
 3605              	.LLST9:
 3606 01f3 00000000 		.4byte	.LVL28
 3607 01f7 13000000 		.4byte	.LVL30-1
 3608 01fb 0100     		.2byte	0x1
 3609 01fd 51       		.byte	0x51
 3610 01fe 13000000 		.4byte	.LVL30-1
 3611 0202 2C000000 		.4byte	.LFE122
 3612 0206 0100     		.2byte	0x1
 3613 0208 56       		.byte	0x56
 3614 0209 00000000 		.4byte	0
 3615 020d 00000000 		.4byte	0
 3616              	.LLST10:
 3617 0211 00000000 		.4byte	.LVL28
 3618 0215 13000000 		.4byte	.LVL30-1
 3619 0219 0100     		.2byte	0x1
 3620 021b 52       		.byte	0x52
 3621 021c 13000000 		.4byte	.LVL30-1
 3622 0220 2C000000 		.4byte	.LFE122
 3623 0224 0100     		.2byte	0x1
 3624 0226 55       		.byte	0x55
 3625 0227 00000000 		.4byte	0
 3626 022b 00000000 		.4byte	0
 3627              	.LLST11:
 3628 022f 00000000 		.4byte	.LVL28
 3629 0233 0C000000 		.4byte	.LVL29
 3630 0237 0100     		.2byte	0x1
 3631 0239 53       		.byte	0x53
 3632 023a 0C000000 		.4byte	.LVL29
 3633 023e 2C000000 		.4byte	.LFE122
 3634 0242 0100     		.2byte	0x1
 3635 0244 54       		.byte	0x54
 3636 0245 00000000 		.4byte	0
 3637 0249 00000000 		.4byte	0
 3638              	.LLST12:
 3639 024d 00000000 		.4byte	.LVL33
 3640 0251 06000000 		.4byte	.LVL34
 3641 0255 0100     		.2byte	0x1
 3642 0257 50       		.byte	0x50
 3643 0258 06000000 		.4byte	.LVL34
 3644 025c 54000000 		.4byte	.LVL41
 3645 0260 0100     		.2byte	0x1
 3646 0262 54       		.byte	0x54
 3647 0263 54000000 		.4byte	.LVL41
 3648 0267 58000000 		.4byte	.LVL42
ARM GAS  /tmp/ccIdC3WY.s 			page 66


 3649 026b 0100     		.2byte	0x1
 3650 026d 50       		.byte	0x50
 3651 026e 58000000 		.4byte	.LVL42
 3652 0272 62000000 		.4byte	.LFE124
 3653 0276 0100     		.2byte	0x1
 3654 0278 54       		.byte	0x54
 3655 0279 00000000 		.4byte	0
 3656 027d 00000000 		.4byte	0
 3657              	.LLST13:
 3658 0281 3E000000 		.4byte	.LVL38
 3659 0285 47000000 		.4byte	.LVL39-1
 3660 0289 0100     		.2byte	0x1
 3661 028b 50       		.byte	0x50
 3662 028c 00000000 		.4byte	0
 3663 0290 00000000 		.4byte	0
 3664              	.LLST14:
 3665 0294 00000000 		.4byte	.LVL44
 3666 0298 07000000 		.4byte	.LVL45-1
 3667 029c 0100     		.2byte	0x1
 3668 029e 50       		.byte	0x50
 3669 029f 07000000 		.4byte	.LVL45-1
 3670 02a3 38000000 		.4byte	.LVL48
 3671 02a7 0100     		.2byte	0x1
 3672 02a9 54       		.byte	0x54
 3673 02aa 38000000 		.4byte	.LVL48
 3674 02ae 3C000000 		.4byte	.LVL49
 3675 02b2 0400     		.2byte	0x4
 3676 02b4 F3       		.byte	0xf3
 3677 02b5 01       		.uleb128 0x1
 3678 02b6 50       		.byte	0x50
 3679 02b7 9F       		.byte	0x9f
 3680 02b8 3C000000 		.4byte	.LVL49
 3681 02bc 5C000000 		.4byte	.LFE125
 3682 02c0 0100     		.2byte	0x1
 3683 02c2 54       		.byte	0x54
 3684 02c3 00000000 		.4byte	0
 3685 02c7 00000000 		.4byte	0
 3686              	.LLST15:
 3687 02cb 2A000000 		.4byte	.LVL47
 3688 02cf 3B000000 		.4byte	.LVL49-1
 3689 02d3 0100     		.2byte	0x1
 3690 02d5 53       		.byte	0x53
 3691 02d6 00000000 		.4byte	0
 3692 02da 00000000 		.4byte	0
 3693              	.LLST16:
 3694 02de 00000000 		.4byte	.LVL53
 3695 02e2 15000000 		.4byte	.LVL55-1
 3696 02e6 0100     		.2byte	0x1
 3697 02e8 50       		.byte	0x50
 3698 02e9 15000000 		.4byte	.LVL55-1
 3699 02ed 58000000 		.4byte	.LFE126
 3700 02f1 0100     		.2byte	0x1
 3701 02f3 55       		.byte	0x55
 3702 02f4 00000000 		.4byte	0
 3703 02f8 00000000 		.4byte	0
 3704              	.LLST17:
 3705 02fc 00000000 		.4byte	.LVL53
ARM GAS  /tmp/ccIdC3WY.s 			page 67


 3706 0300 15000000 		.4byte	.LVL55-1
 3707 0304 0100     		.2byte	0x1
 3708 0306 51       		.byte	0x51
 3709 0307 15000000 		.4byte	.LVL55-1
 3710 030b 58000000 		.4byte	.LFE126
 3711 030f 0100     		.2byte	0x1
 3712 0311 58       		.byte	0x58
 3713 0312 00000000 		.4byte	0
 3714 0316 00000000 		.4byte	0
 3715              	.LLST18:
 3716 031a 00000000 		.4byte	.LVL53
 3717 031e 15000000 		.4byte	.LVL55-1
 3718 0322 0100     		.2byte	0x1
 3719 0324 52       		.byte	0x52
 3720 0325 15000000 		.4byte	.LVL55-1
 3721 0329 58000000 		.4byte	.LFE126
 3722 032d 0100     		.2byte	0x1
 3723 032f 57       		.byte	0x57
 3724 0330 00000000 		.4byte	0
 3725 0334 00000000 		.4byte	0
 3726              	.LLST19:
 3727 0338 00000000 		.4byte	.LVL53
 3728 033c 0E000000 		.4byte	.LVL54
 3729 0340 0100     		.2byte	0x1
 3730 0342 53       		.byte	0x53
 3731 0343 0E000000 		.4byte	.LVL54
 3732 0347 58000000 		.4byte	.LFE126
 3733 034b 0100     		.2byte	0x1
 3734 034d 56       		.byte	0x56
 3735 034e 00000000 		.4byte	0
 3736 0352 00000000 		.4byte	0
 3737              	.LLST20:
 3738 0356 00000000 		.4byte	.LVL61
 3739 035a 0A000000 		.4byte	.LVL62
 3740 035e 0100     		.2byte	0x1
 3741 0360 50       		.byte	0x50
 3742 0361 0A000000 		.4byte	.LVL62
 3743 0365 0E000000 		.4byte	.LVL63
 3744 0369 0100     		.2byte	0x1
 3745 036b 54       		.byte	0x54
 3746 036c 0E000000 		.4byte	.LVL63
 3747 0370 11000000 		.4byte	.LVL64-1
 3748 0374 0300     		.2byte	0x3
 3749 0376 70       		.byte	0x70
 3750 0377 68       		.sleb128 -24
 3751 0378 9F       		.byte	0x9f
 3752 0379 11000000 		.4byte	.LVL64-1
 3753 037d 12000000 		.4byte	.LVL64
 3754 0381 0400     		.2byte	0x4
 3755 0383 F3       		.byte	0xf3
 3756 0384 01       		.uleb128 0x1
 3757 0385 50       		.byte	0x50
 3758 0386 9F       		.byte	0x9f
 3759 0387 12000000 		.4byte	.LVL64
 3760 038b 16000000 		.4byte	.LVL65
 3761 038f 0100     		.2byte	0x1
 3762 0391 50       		.byte	0x50
ARM GAS  /tmp/ccIdC3WY.s 			page 68


 3763 0392 16000000 		.4byte	.LVL65
 3764 0396 26000000 		.4byte	.LVL67
 3765 039a 0100     		.2byte	0x1
 3766 039c 54       		.byte	0x54
 3767 039d 26000000 		.4byte	.LVL67
 3768 03a1 29000000 		.4byte	.LVL68-1
 3769 03a5 0300     		.2byte	0x3
 3770 03a7 70       		.byte	0x70
 3771 03a8 68       		.sleb128 -24
 3772 03a9 9F       		.byte	0x9f
 3773 03aa 29000000 		.4byte	.LVL68-1
 3774 03ae 2A000000 		.4byte	.LFE127
 3775 03b2 0400     		.2byte	0x4
 3776 03b4 F3       		.byte	0xf3
 3777 03b5 01       		.uleb128 0x1
 3778 03b6 50       		.byte	0x50
 3779 03b7 9F       		.byte	0x9f
 3780 03b8 00000000 		.4byte	0
 3781 03bc 00000000 		.4byte	0
 3782              	.LLST21:
 3783 03c0 00000000 		.4byte	.LVL69
 3784 03c4 0B000000 		.4byte	.LVL70-1
 3785 03c8 0100     		.2byte	0x1
 3786 03ca 50       		.byte	0x50
 3787 03cb 0B000000 		.4byte	.LVL70-1
 3788 03cf 0C000000 		.4byte	.LVL70
 3789 03d3 0400     		.2byte	0x4
 3790 03d5 F3       		.byte	0xf3
 3791 03d6 01       		.uleb128 0x1
 3792 03d7 50       		.byte	0x50
 3793 03d8 9F       		.byte	0x9f
 3794 03d9 0C000000 		.4byte	.LVL70
 3795 03dd 10000000 		.4byte	.LVL71
 3796 03e1 0100     		.2byte	0x1
 3797 03e3 50       		.byte	0x50
 3798 03e4 10000000 		.4byte	.LVL71
 3799 03e8 20000000 		.4byte	.LFE128
 3800 03ec 0400     		.2byte	0x4
 3801 03ee F3       		.byte	0xf3
 3802 03ef 01       		.uleb128 0x1
 3803 03f0 50       		.byte	0x50
 3804 03f1 9F       		.byte	0x9f
 3805 03f2 00000000 		.4byte	0
 3806 03f6 00000000 		.4byte	0
 3807              		.section	.debug_aranges,"",%progbits
 3808 0000 6C000000 		.4byte	0x6c
 3809 0004 0200     		.2byte	0x2
 3810 0006 00000000 		.4byte	.Ldebug_info0
 3811 000a 04       		.byte	0x4
 3812 000b 00       		.byte	0
 3813 000c 0000     		.2byte	0
 3814 000e 0000     		.2byte	0
 3815 0010 00000000 		.4byte	.LFB118
 3816 0014 04000000 		.4byte	.LFE118-.LFB118
 3817 0018 00000000 		.4byte	.LFB119
 3818 001c 16000000 		.4byte	.LFE119-.LFB119
 3819 0020 00000000 		.4byte	.LFB120
ARM GAS  /tmp/ccIdC3WY.s 			page 69


 3820 0024 4E000000 		.4byte	.LFE120-.LFB120
 3821 0028 00000000 		.4byte	.LFB121
 3822 002c 4A000000 		.4byte	.LFE121-.LFB121
 3823 0030 00000000 		.4byte	.LFB123
 3824 0034 5C000000 		.4byte	.LFE123-.LFB123
 3825 0038 00000000 		.4byte	.LFB122
 3826 003c 2C000000 		.4byte	.LFE122-.LFB122
 3827 0040 00000000 		.4byte	.LFB124
 3828 0044 62000000 		.4byte	.LFE124-.LFB124
 3829 0048 00000000 		.4byte	.LFB125
 3830 004c 5C000000 		.4byte	.LFE125-.LFB125
 3831 0050 00000000 		.4byte	.LFB126
 3832 0054 58000000 		.4byte	.LFE126-.LFB126
 3833 0058 00000000 		.4byte	.LFB127
 3834 005c 2A000000 		.4byte	.LFE127-.LFB127
 3835 0060 00000000 		.4byte	.LFB128
 3836 0064 20000000 		.4byte	.LFE128-.LFB128
 3837 0068 00000000 		.4byte	0
 3838 006c 00000000 		.4byte	0
 3839              		.section	.debug_ranges,"",%progbits
 3840              	.Ldebug_ranges0:
 3841 0000 2A000000 		.4byte	.LBB11
 3842 0004 34000000 		.4byte	.LBE11
 3843 0008 38000000 		.4byte	.LBB12
 3844 000c 3E000000 		.4byte	.LBE12
 3845 0010 00000000 		.4byte	0
 3846 0014 00000000 		.4byte	0
 3847 0018 00000000 		.4byte	.LFB118
 3848 001c 04000000 		.4byte	.LFE118
 3849 0020 00000000 		.4byte	.LFB119
 3850 0024 16000000 		.4byte	.LFE119
 3851 0028 00000000 		.4byte	.LFB120
 3852 002c 4E000000 		.4byte	.LFE120
 3853 0030 00000000 		.4byte	.LFB121
 3854 0034 4A000000 		.4byte	.LFE121
 3855 0038 00000000 		.4byte	.LFB123
 3856 003c 5C000000 		.4byte	.LFE123
 3857 0040 00000000 		.4byte	.LFB122
 3858 0044 2C000000 		.4byte	.LFE122
 3859 0048 00000000 		.4byte	.LFB124
 3860 004c 62000000 		.4byte	.LFE124
 3861 0050 00000000 		.4byte	.LFB125
 3862 0054 5C000000 		.4byte	.LFE125
 3863 0058 00000000 		.4byte	.LFB126
 3864 005c 58000000 		.4byte	.LFE126
 3865 0060 00000000 		.4byte	.LFB127
 3866 0064 2A000000 		.4byte	.LFE127
 3867 0068 00000000 		.4byte	.LFB128
 3868 006c 20000000 		.4byte	.LFE128
 3869 0070 00000000 		.4byte	0
 3870 0074 00000000 		.4byte	0
 3871              		.section	.debug_line,"",%progbits
 3872              	.Ldebug_line0:
 3873 0000 92030000 		.section	.debug_str,"MS",%progbits,1
 3873      0200F601 
 3873      00000201 
 3873      FB0E0D00 
ARM GAS  /tmp/ccIdC3WY.s 			page 70


 3873      01010101 
 3874              	.LASF90:
 3875 0000 4D304152 		.ascii	"M0AR\000"
 3875      00
 3876              	.LASF2:
 3877 0005 73697A65 		.ascii	"size_t\000"
 3877      5F7400
 3878              	.LASF19:
 3879 000c 75696E74 		.ascii	"uint64_t\000"
 3879      36345F74 
 3879      00
 3880              	.LASF69:
 3881 0015 7264796D 		.ascii	"rdymsg\000"
 3881      736700
 3882              	.LASF120:
 3883 001c 646D616D 		.ascii	"dmamode\000"
 3883      6F646500 
 3884              	.LASF105:
 3885 0024 61646373 		.ascii	"adcstate_t\000"
 3885      74617465 
 3885      5F7400
 3886              	.LASF3:
 3887 002f 5F5F7569 		.ascii	"__uint8_t\000"
 3887      6E74385F 
 3887      7400
 3888              	.LASF139:
 3889 0039 61646353 		.ascii	"adcStop\000"
 3889      746F7000 
 3890              	.LASF93:
 3891 0041 73747265 		.ascii	"stream\000"
 3891      616D00
 3892              	.LASF161:
 3893 0048 474E5520 		.ascii	"GNU C 4.8.2 -mcpu=cortex-m4 -mno-thumb-interwork -m"
 3893      4320342E 
 3893      382E3220 
 3893      2D6D6370 
 3893      753D636F 
 3894 007b 7468756D 		.ascii	"thumb -ggdb -O2 -fomit-frame-pointer -falign-functi"
 3894      62202D67 
 3894      67646220 
 3894      2D4F3220 
 3894      2D666F6D 
 3895 00ae 6F6E733D 		.ascii	"ons=16 -ffunction-sections -fdata-sections -fno-com"
 3895      3136202D 
 3895      6666756E 
 3895      6374696F 
 3895      6E2D7365 
 3896 00e1 6D6F6E00 		.ascii	"mon\000"
 3897              	.LASF154:
 3898 00e5 6164635F 		.ascii	"adc_lld_stop\000"
 3898      6C6C645F 
 3898      73746F70 
 3898      00
 3899              	.LASF14:
 3900 00f2 6C6F6E67 		.ascii	"long long unsigned int\000"
 3900      206C6F6E 
 3900      6720756E 
ARM GAS  /tmp/ccIdC3WY.s 			page 71


 3900      7369676E 
 3900      65642069 
 3901              	.LASF70:
 3902 0109 65786974 		.ascii	"exitcode\000"
 3902      636F6465 
 3902      00
 3903              	.LASF97:
 3904 0112 76656374 		.ascii	"vector\000"
 3904      6F7200
 3905              	.LASF151:
 3906 0119 63684462 		.ascii	"chDbgPanic\000"
 3906      6750616E 
 3906      696300
 3907              	.LASF147:
 3908 0124 49544D5F 		.ascii	"ITM_RxBuffer\000"
 3908      52784275 
 3908      66666572 
 3908      00
 3909              	.LASF33:
 3910 0131 705F7072 		.ascii	"p_prio\000"
 3910      696F00
 3911              	.LASF83:
 3912 0138 4A535152 		.ascii	"JSQR\000"
 3912      00
 3913              	.LASF162:
 3914 013d 2E2E2F2E 		.ascii	"../../../os/hal/src/adc.c\000"
 3914      2E2F2E2E 
 3914      2F6F732F 
 3914      68616C2F 
 3914      7372632F 
 3915              	.LASF166:
 3916 0157 63684D74 		.ascii	"chMtxUnlock\000"
 3916      78556E6C 
 3916      6F636B00 
 3917              	.LASF1:
 3918 0163 7369676E 		.ascii	"signed char\000"
 3918      65642063 
 3918      68617200 
 3919              	.LASF50:
 3920 016f 705F6D70 		.ascii	"p_mpool\000"
 3920      6F6F6C00 
 3921              	.LASF20:
 3922 0177 626F6F6C 		.ascii	"bool_t\000"
 3922      5F7400
 3923              	.LASF66:
 3924 017e 6D5F7175 		.ascii	"m_queue\000"
 3924      65756500 
 3925              	.LASF110:
 3926 0186 61646365 		.ascii	"adcerror_t\000"
 3926      72726F72 
 3926      5F7400
 3927              	.LASF119:
 3928 0191 646D6173 		.ascii	"dmastp\000"
 3928      747000
 3929              	.LASF104:
 3930 0198 4144435F 		.ascii	"ADC_ERROR\000"
 3930      4552524F 
ARM GAS  /tmp/ccIdC3WY.s 			page 72


 3930      5200
 3931              	.LASF112:
 3932 01a2 73746174 		.ascii	"state\000"
 3932      6500
 3933              	.LASF123:
 3934 01a8 63697263 		.ascii	"circular\000"
 3934      756C6172 
 3934      00
 3935              	.LASF9:
 3936 01b1 6C6F6E67 		.ascii	"long int\000"
 3936      20696E74 
 3936      00
 3937              	.LASF108:
 3938 01ba 4144435F 		.ascii	"ADC_ERR_DMAFAILURE\000"
 3938      4552525F 
 3938      444D4146 
 3938      41494C55 
 3938      524500
 3939              	.LASF156:
 3940 01cd 6164635F 		.ascii	"adc_lld_start_conversion\000"
 3940      6C6C645F 
 3940      73746172 
 3940      745F636F 
 3940      6E766572 
 3941              	.LASF122:
 3942 01e6 61646365 		.ascii	"adcerrorcallback_t\000"
 3942      72726F72 
 3942      63616C6C 
 3942      6261636B 
 3942      5F7400
 3943              	.LASF23:
 3944 01f9 74737461 		.ascii	"tstate_t\000"
 3944      74655F74 
 3944      00
 3945              	.LASF117:
 3946 0202 74687265 		.ascii	"thread\000"
 3946      616400
 3947              	.LASF12:
 3948 0209 6C6F6E67 		.ascii	"long long int\000"
 3948      206C6F6E 
 3948      6720696E 
 3948      7400
 3949              	.LASF16:
 3950 0217 75696E74 		.ascii	"uint16_t\000"
 3950      31365F74 
 3950      00
 3951              	.LASF43:
 3952 0220 705F7469 		.ascii	"p_time\000"
 3952      6D6500
 3953              	.LASF88:
 3954 0227 4144435F 		.ascii	"ADC_TypeDef\000"
 3954      54797065 
 3954      44656600 
 3955              	.LASF35:
 3956 0233 705F6E65 		.ascii	"p_newer\000"
 3956      77657200 
 3957              	.LASF125:
ARM GAS  /tmp/ccIdC3WY.s 			page 73


 3958 023b 656E645F 		.ascii	"end_cb\000"
 3958      636200
 3959              	.LASF121:
 3960 0242 61646363 		.ascii	"adccallback_t\000"
 3960      616C6C62 
 3960      61636B5F 
 3960      7400
 3961              	.LASF106:
 3962 0250 61646373 		.ascii	"adcsample_t\000"
 3962      616D706C 
 3962      655F7400 
 3963              	.LASF61:
 3964 025c 725F6E65 		.ascii	"r_newer\000"
 3964      77657200 
 3965              	.LASF134:
 3966 0264 41444343 		.ascii	"ADCConfig\000"
 3966      6F6E6669 
 3966      6700
 3967              	.LASF53:
 3968 026e 72656761 		.ascii	"regarm_t\000"
 3968      726D5F74 
 3968      00
 3969              	.LASF96:
 3970 0277 73656C66 		.ascii	"selfindex\000"
 3970      696E6465 
 3970      7800
 3971              	.LASF133:
 3972 0281 64756D6D 		.ascii	"dummy\000"
 3972      7900
 3973              	.LASF163:
 3974 0287 2F686F6D 		.ascii	"/home/mo/ARMProjects/ChibiOS_Sample/ChibiOS_2.6.5/t"
 3974      652F6D6F 
 3974      2F41524D 
 3974      50726F6A 
 3974      65637473 
 3975 02ba 65737468 		.ascii	"esthal/STM32F4xx/ADC\000"
 3975      616C2F53 
 3975      544D3332 
 3975      46347878 
 3975      2F414443 
 3976              	.LASF99:
 3977 02cf 4144435F 		.ascii	"ADC_UNINIT\000"
 3977      554E494E 
 3977      495400
 3978              	.LASF109:
 3979 02da 4144435F 		.ascii	"ADC_ERR_OVERFLOW\000"
 3979      4552525F 
 3979      4F564552 
 3979      464C4F57 
 3979      00
 3980              	.LASF102:
 3981 02eb 4144435F 		.ascii	"ADC_ACTIVE\000"
 3981      41435449 
 3981      564500
 3982              	.LASF38:
 3983 02f6 705F7374 		.ascii	"p_stklimit\000"
 3983      6B6C696D 
ARM GAS  /tmp/ccIdC3WY.s 			page 74


 3983      697400
 3984              	.LASF0:
 3985 0301 756E7369 		.ascii	"unsigned int\000"
 3985      676E6564 
 3985      20696E74 
 3985      00
 3986              	.LASF136:
 3987 030e 6164634F 		.ascii	"adcObjectInit\000"
 3987      626A6563 
 3987      74496E69 
 3987      7400
 3988              	.LASF45:
 3989 031c 705F6D73 		.ascii	"p_msgqueue\000"
 3989      67717565 
 3989      756500
 3990              	.LASF111:
 3991 0327 41444344 		.ascii	"ADCDriver\000"
 3991      72697665 
 3991      7200
 3992              	.LASF138:
 3993 0331 61646370 		.ascii	"adcp\000"
 3993      00
 3994              	.LASF95:
 3995 0336 69736869 		.ascii	"ishift\000"
 3995      667400
 3996              	.LASF7:
 3997 033d 73686F72 		.ascii	"short unsigned int\000"
 3997      7420756E 
 3997      7369676E 
 3997      65642069 
 3997      6E7400
 3998              	.LASF101:
 3999 0350 4144435F 		.ascii	"ADC_READY\000"
 3999      52454144 
 3999      5900
 4000              	.LASF115:
 4001 035a 64657074 		.ascii	"depth\000"
 4001      6800
 4002              	.LASF27:
 4003 0360 6D73675F 		.ascii	"msg_t\000"
 4003      7400
 4004              	.LASF155:
 4005 0366 63684462 		.ascii	"chDbgCheckClassI\000"
 4005      67436865 
 4005      636B436C 
 4005      61737349 
 4005      00
 4006              	.LASF22:
 4007 0377 746D6F64 		.ascii	"tmode_t\000"
 4007      655F7400 
 4008              	.LASF124:
 4009 037f 6E756D5F 		.ascii	"num_channels\000"
 4009      6368616E 
 4009      6E656C73 
 4009      00
 4010              	.LASF52:
 4011 038c 54687265 		.ascii	"ThreadsList\000"
ARM GAS  /tmp/ccIdC3WY.s 			page 75


 4011      6164734C 
 4011      69737400 
 4012              	.LASF28:
 4013 0398 6576656E 		.ascii	"eventmask_t\000"
 4013      746D6173 
 4013      6B5F7400 
 4014              	.LASF5:
 4015 03a4 73686F72 		.ascii	"short int\000"
 4015      7420696E 
 4015      7400
 4016              	.LASF135:
 4017 03ae 61646349 		.ascii	"adcInit\000"
 4017      6E697400 
 4018              	.LASF145:
 4019 03b6 61646352 		.ascii	"adcReleaseBus\000"
 4019      656C6561 
 4019      73654275 
 4019      7300
 4020              	.LASF54:
 4021 03c4 73746B61 		.ascii	"stkalign_t\000"
 4021      6C69676E 
 4021      5F7400
 4022              	.LASF116:
 4023 03cf 67727070 		.ascii	"grpp\000"
 4023      00
 4024              	.LASF76:
 4025 03d4 4A4F4652 		.ascii	"JOFR1\000"
 4025      3100
 4026              	.LASF77:
 4027 03da 4A4F4652 		.ascii	"JOFR2\000"
 4027      3200
 4028              	.LASF148:
 4029 03e0 6164635F 		.ascii	"adc_lld_init\000"
 4029      6C6C645F 
 4029      696E6974 
 4029      00
 4030              	.LASF114:
 4031 03ed 73616D70 		.ascii	"samples\000"
 4031      6C657300 
 4032              	.LASF57:
 4033 03f5 73697A65 		.ascii	"sizetype\000"
 4033      74797065 
 4033      00
 4034              	.LASF65:
 4035 03fe 4D757465 		.ascii	"Mutex\000"
 4035      7800
 4036              	.LASF100:
 4037 0404 4144435F 		.ascii	"ADC_STOP\000"
 4037      53544F50 
 4037      00
 4038              	.LASF160:
 4039 040d 63684D74 		.ascii	"chMtxLock\000"
 4039      784C6F63 
 4039      6B00
 4040              	.LASF36:
 4041 0417 705F6F6C 		.ascii	"p_older\000"
 4041      64657200 
ARM GAS  /tmp/ccIdC3WY.s 			page 76


 4042              	.LASF60:
 4043 041f 725F6374 		.ascii	"r_ctx\000"
 4043      7800
 4044              	.LASF51:
 4045 0425 54687265 		.ascii	"ThreadsQueue\000"
 4045      61647351 
 4045      75657565 
 4045      00
 4046              	.LASF74:
 4047 0432 534D5052 		.ascii	"SMPR1\000"
 4047      3100
 4048              	.LASF75:
 4049 0438 534D5052 		.ascii	"SMPR2\000"
 4049      3200
 4050              	.LASF68:
 4051 043e 6D5F6E65 		.ascii	"m_next\000"
 4051      787400
 4052              	.LASF63:
 4053 0445 725F6375 		.ascii	"r_current\000"
 4053      7272656E 
 4053      7400
 4054              	.LASF149:
 4055 044f 6462675F 		.ascii	"dbg_check_lock\000"
 4055      63686563 
 4055      6B5F6C6F 
 4055      636B00
 4056              	.LASF153:
 4057 045e 6462675F 		.ascii	"dbg_check_unlock\000"
 4057      63686563 
 4057      6B5F756E 
 4057      6C6F636B 
 4057      00
 4058              	.LASF80:
 4059 046f 53515231 		.ascii	"SQR1\000"
 4059      00
 4060              	.LASF81:
 4061 0474 53515232 		.ascii	"SQR2\000"
 4061      00
 4062              	.LASF82:
 4063 0479 53515233 		.ascii	"SQR3\000"
 4063      00
 4064              	.LASF13:
 4065 047e 5F5F7569 		.ascii	"__uint64_t\000"
 4065      6E743634 
 4065      5F7400
 4066              	.LASF140:
 4067 0489 61646353 		.ascii	"adcStartConversionI\000"
 4067      74617274 
 4067      436F6E76 
 4067      65727369 
 4067      6F6E4900 
 4068              	.LASF24:
 4069 049d 74726566 		.ascii	"trefs_t\000"
 4069      735F7400 
 4070              	.LASF32:
 4071 04a5 705F7072 		.ascii	"p_prev\000"
 4071      657600
ARM GAS  /tmp/ccIdC3WY.s 			page 77


 4072              	.LASF98:
 4073 04ac 73746D33 		.ascii	"stm32_dma_stream_t\000"
 4073      325F646D 
 4073      615F7374 
 4073      7265616D 
 4073      5F7400
 4074              	.LASF26:
 4075 04bf 74707269 		.ascii	"tprio_t\000"
 4075      6F5F7400 
 4076              	.LASF118:
 4077 04c7 6D757465 		.ascii	"mutex\000"
 4077      7800
 4078              	.LASF21:
 4079 04cd 5F426F6F 		.ascii	"_Bool\000"
 4079      6C00
 4080              	.LASF17:
 4081 04d3 696E7433 		.ascii	"int32_t\000"
 4081      325F7400 
 4082              	.LASF4:
 4083 04db 756E7369 		.ascii	"unsigned char\000"
 4083      676E6564 
 4083      20636861 
 4083      7200
 4084              	.LASF48:
 4085 04e9 705F6D74 		.ascii	"p_mtxlist\000"
 4085      786C6973 
 4085      7400
 4086              	.LASF158:
 4087 04f3 6164635F 		.ascii	"adc_lld_stop_conversion\000"
 4087      6C6C645F 
 4087      73746F70 
 4087      5F636F6E 
 4087      76657273 
 4088              	.LASF39:
 4089 050b 705F7374 		.ascii	"p_state\000"
 4089      61746500 
 4090              	.LASF42:
 4091 0513 705F7072 		.ascii	"p_preempt\000"
 4091      65656D70 
 4091      7400
 4092              	.LASF126:
 4093 051d 6572726F 		.ascii	"error_cb\000"
 4093      725F6362 
 4093      00
 4094              	.LASF59:
 4095 0526 725F7072 		.ascii	"r_prio\000"
 4095      696F00
 4096              	.LASF72:
 4097 052d 65776D61 		.ascii	"ewmask\000"
 4097      736B00
 4098              	.LASF31:
 4099 0534 705F6E65 		.ascii	"p_next\000"
 4099      787400
 4100              	.LASF40:
 4101 053b 705F666C 		.ascii	"p_flags\000"
 4101      61677300 
 4102              	.LASF78:
ARM GAS  /tmp/ccIdC3WY.s 			page 78


 4103 0543 4A4F4652 		.ascii	"JOFR3\000"
 4103      3300
 4104              	.LASF79:
 4105 0549 4A4F4652 		.ascii	"JOFR4\000"
 4105      3400
 4106              	.LASF30:
 4107 054f 54687265 		.ascii	"Thread\000"
 4107      616400
 4108              	.LASF159:
 4109 0556 63685363 		.ascii	"chSchGoSleepS\000"
 4109      68476F53 
 4109      6C656570 
 4109      5300
 4110              	.LASF47:
 4111 0564 705F6570 		.ascii	"p_epending\000"
 4111      656E6469 
 4111      6E6700
 4112              	.LASF94:
 4113 056f 69666372 		.ascii	"ifcr\000"
 4113      00
 4114              	.LASF18:
 4115 0574 75696E74 		.ascii	"uint32_t\000"
 4115      33325F74 
 4115      00
 4116              	.LASF58:
 4117 057d 725F7175 		.ascii	"r_queue\000"
 4117      65756500 
 4118              	.LASF165:
 4119 0585 63685363 		.ascii	"chSchReadyI\000"
 4119      68526561 
 4119      64794900 
 4120              	.LASF25:
 4121 0591 74736C69 		.ascii	"tslices_t\000"
 4121      6365735F 
 4121      7400
 4122              	.LASF11:
 4123 059b 6C6F6E67 		.ascii	"long unsigned int\000"
 4123      20756E73 
 4123      69676E65 
 4123      6420696E 
 4123      7400
 4124              	.LASF73:
 4125 05ad 63686172 		.ascii	"char\000"
 4125      00
 4126              	.LASF113:
 4127 05b2 636F6E66 		.ascii	"config\000"
 4127      696700
 4128              	.LASF6:
 4129 05b9 5F5F7569 		.ascii	"__uint16_t\000"
 4129      6E743136 
 4129      5F7400
 4130              	.LASF129:
 4131 05c4 73717231 		.ascii	"sqr1\000"
 4131      00
 4132              	.LASF130:
 4133 05c9 73717232 		.ascii	"sqr2\000"
 4133      00
ARM GAS  /tmp/ccIdC3WY.s 			page 79


 4134              	.LASF131:
 4135 05ce 73717233 		.ascii	"sqr3\000"
 4135      00
 4136              	.LASF29:
 4137 05d3 73797374 		.ascii	"systime_t\000"
 4137      696D655F 
 4137      7400
 4138              	.LASF49:
 4139 05dd 705F7265 		.ascii	"p_realprio\000"
 4139      616C7072 
 4139      696F00
 4140              	.LASF8:
 4141 05e8 5F5F696E 		.ascii	"__int32_t\000"
 4141      7433325F 
 4141      7400
 4142              	.LASF10:
 4143 05f2 5F5F7569 		.ascii	"__uint32_t\000"
 4143      6E743332 
 4143      5F7400
 4144              	.LASF89:
 4145 05fd 4E445452 		.ascii	"NDTR\000"
 4145      00
 4146              	.LASF92:
 4147 0602 444D415F 		.ascii	"DMA_Stream_TypeDef\000"
 4147      53747265 
 4147      616D5F54 
 4147      79706544 
 4147      656600
 4148              	.LASF56:
 4149 0615 636F6E74 		.ascii	"context\000"
 4149      65787400 
 4150              	.LASF62:
 4151 061d 725F6F6C 		.ascii	"r_older\000"
 4151      64657200 
 4152              	.LASF141:
 4153 0625 61646353 		.ascii	"adcStartConversion\000"
 4153      74617274 
 4153      436F6E76 
 4153      65727369 
 4153      6F6E00
 4154              	.LASF55:
 4155 0638 696E7463 		.ascii	"intctx\000"
 4155      747800
 4156              	.LASF91:
 4157 063f 4D314152 		.ascii	"M1AR\000"
 4157      00
 4158              	.LASF152:
 4159 0644 6164635F 		.ascii	"adc_lld_start\000"
 4159      6C6C645F 
 4159      73746172 
 4159      7400
 4160              	.LASF157:
 4161 0652 63685363 		.ascii	"chSchWakeupS\000"
 4161      6857616B 
 4161      65757053 
 4161      00
 4162              	.LASF150:
ARM GAS  /tmp/ccIdC3WY.s 			page 80


 4163 065f 63684D74 		.ascii	"chMtxInit\000"
 4163      78496E69 
 4163      7400
 4164              	.LASF137:
 4165 0669 61646353 		.ascii	"adcStart\000"
 4165      74617274 
 4165      00
 4166              	.LASF41:
 4167 0672 705F7265 		.ascii	"p_refs\000"
 4167      667300
 4168              	.LASF64:
 4169 0679 52656164 		.ascii	"ReadyList\000"
 4169      794C6973 
 4169      7400
 4170              	.LASF127:
 4171 0683 736D7072 		.ascii	"smpr1\000"
 4171      3100
 4172              	.LASF128:
 4173 0689 736D7072 		.ascii	"smpr2\000"
 4173      3200
 4174              	.LASF146:
 4175 068f 726C6973 		.ascii	"rlist\000"
 4175      7400
 4176              	.LASF15:
 4177 0695 75696E74 		.ascii	"uint8_t\000"
 4177      385F7400 
 4178              	.LASF143:
 4179 069d 61646353 		.ascii	"adcStopConversionI\000"
 4179      746F7043 
 4179      6F6E7665 
 4179      7273696F 
 4179      6E4900
 4180              	.LASF132:
 4181 06b0 41444343 		.ascii	"ADCConversionGroup\000"
 4181      6F6E7665 
 4181      7273696F 
 4181      6E47726F 
 4181      757000
 4182              	.LASF84:
 4183 06c3 4A445231 		.ascii	"JDR1\000"
 4183      00
 4184              	.LASF85:
 4185 06c8 4A445232 		.ascii	"JDR2\000"
 4185      00
 4186              	.LASF86:
 4187 06cd 4A445233 		.ascii	"JDR3\000"
 4187      00
 4188              	.LASF87:
 4189 06d2 4A445234 		.ascii	"JDR4\000"
 4189      00
 4190              	.LASF71:
 4191 06d7 77746F62 		.ascii	"wtobjp\000"
 4191      6A7000
 4192              	.LASF103:
 4193 06de 4144435F 		.ascii	"ADC_COMPLETE\000"
 4193      434F4D50 
 4193      4C455445 
ARM GAS  /tmp/ccIdC3WY.s 			page 81


 4193      00
 4194              	.LASF37:
 4195 06eb 705F6E61 		.ascii	"p_name\000"
 4195      6D6500
 4196              	.LASF107:
 4197 06f2 6164635F 		.ascii	"adc_channels_num_t\000"
 4197      6368616E 
 4197      6E656C73 
 4197      5F6E756D 
 4197      5F7400
 4198              	.LASF46:
 4199 0705 705F6D73 		.ascii	"p_msg\000"
 4199      6700
 4200              	.LASF164:
 4201 070b 61646343 		.ascii	"adcConvert\000"
 4201      6F6E7665 
 4201      727400
 4202              	.LASF142:
 4203 0716 61646353 		.ascii	"adcStopConversion\000"
 4203      746F7043 
 4203      6F6E7665 
 4203      7273696F 
 4203      6E00
 4204              	.LASF67:
 4205 0728 6D5F6F77 		.ascii	"m_owner\000"
 4205      6E657200 
 4206              	.LASF144:
 4207 0730 61646341 		.ascii	"adcAcquireBus\000"
 4207      63717569 
 4207      72654275 
 4207      7300
 4208              	.LASF34:
 4209 073e 705F6374 		.ascii	"p_ctx\000"
 4209      7800
 4210              	.LASF44:
 4211 0744 705F7761 		.ascii	"p_waiting\000"
 4211      6974696E 
 4211      6700
 4212              		.ident	"GCC: (4.8.2-14ubuntu1+6) 4.8.2"
ARM GAS  /tmp/ccIdC3WY.s 			page 82


DEFINED SYMBOLS
                            *ABS*:0000000000000000 adc.c
     /tmp/ccIdC3WY.s:19     .text.adcInit:0000000000000000 $t
     /tmp/ccIdC3WY.s:25     .text.adcInit:0000000000000000 adcInit
     /tmp/ccIdC3WY.s:40     .text.adcObjectInit:0000000000000000 $t
     /tmp/ccIdC3WY.s:46     .text.adcObjectInit:0000000000000000 adcObjectInit
     /tmp/ccIdC3WY.s:78     .text.adcStart:0000000000000000 $t
     /tmp/ccIdC3WY.s:84     .text.adcStart:0000000000000000 adcStart
     /tmp/ccIdC3WY.s:744    .rodata.str1.4:0000000000000010 .LC1
     /tmp/ccIdC3WY.s:741    .rodata.str1.4:0000000000000000 .LC0
     /tmp/ccIdC3WY.s:161    .text.adcStop:0000000000000000 $t
     /tmp/ccIdC3WY.s:167    .text.adcStop:0000000000000000 adcStop
     /tmp/ccIdC3WY.s:749    .rodata.str1.4:000000000000002c .LC3
     /tmp/ccIdC3WY.s:747    .rodata.str1.4:0000000000000020 .LC2
     /tmp/ccIdC3WY.s:236    .text.adcStartConversionI:0000000000000000 $t
     /tmp/ccIdC3WY.s:242    .text.adcStartConversionI:0000000000000000 adcStartConversionI
     /tmp/ccIdC3WY.s:754    .rodata.str1.4:0000000000000054 .LC5
     /tmp/ccIdC3WY.s:752    .rodata.str1.4:000000000000003c .LC4
     /tmp/ccIdC3WY.s:321    .text.adcStartConversion:0000000000000000 $t
     /tmp/ccIdC3WY.s:327    .text.adcStartConversion:0000000000000000 adcStartConversion
     /tmp/ccIdC3WY.s:380    .text.adcStopConversion:0000000000000000 $t
     /tmp/ccIdC3WY.s:386    .text.adcStopConversion:0000000000000000 adcStopConversion
     /tmp/ccIdC3WY.s:760    .rodata.str1.4:0000000000000088 .LC7
     /tmp/ccIdC3WY.s:757    .rodata.str1.4:0000000000000070 .LC6
     /tmp/ccIdC3WY.s:477    .text.adcStopConversionI:0000000000000000 $t
     /tmp/ccIdC3WY.s:483    .text.adcStopConversionI:0000000000000000 adcStopConversionI
     /tmp/ccIdC3WY.s:765    .rodata.str1.4:00000000000000b8 .LC9
     /tmp/ccIdC3WY.s:762    .rodata.str1.4:00000000000000a0 .LC8
     /tmp/ccIdC3WY.s:566    .text.adcConvert:0000000000000000 $t
     /tmp/ccIdC3WY.s:572    .text.adcConvert:0000000000000000 adcConvert
     /tmp/ccIdC3WY.s:768    .rodata.str1.4:00000000000000d4 .LC10
     /tmp/ccIdC3WY.s:652    .text.adcAcquireBus:0000000000000000 $t
     /tmp/ccIdC3WY.s:658    .text.adcAcquireBus:0000000000000000 adcAcquireBus
     /tmp/ccIdC3WY.s:771    .rodata.str1.4:00000000000000e8 .LC11
     /tmp/ccIdC3WY.s:700    .text.adcReleaseBus:0000000000000000 $t
     /tmp/ccIdC3WY.s:706    .text.adcReleaseBus:0000000000000000 adcReleaseBus
     /tmp/ccIdC3WY.s:774    .rodata.str1.4:00000000000000fc .LC12
     /tmp/ccIdC3WY.s:740    .rodata.str1.4:0000000000000000 $d
                     .debug_frame:0000000000000010 $d

UNDEFINED SYMBOLS
adc_lld_init
chMtxInit
dbg_check_lock
chDbgPanic
adc_lld_start
dbg_check_unlock
adc_lld_stop
chDbgCheckClassI
adc_lld_start_conversion
adc_lld_stop_conversion
chSchWakeupS
chSchReadyI
rlist
chSchGoSleepS
chMtxLock
chMtxUnlock
ARM GAS  /tmp/ccIdC3WY.s 			page 83


