ARM GAS  /tmp/ccIdC3WY.s 			page 1


   1              		.syntax unified
   2              		.cpu cortex-m4
   3              		.fpu softvfp
   4              		.eabi_attribute 20, 1
   5              		.eabi_attribute 21, 1
   6              		.eabi_attribute 23, 3
   7              		.eabi_attribute 24, 1
   8              		.eabi_attribute 25, 1
   9              		.eabi_attribute 26, 1
  10              		.eabi_attribute 30, 2
  11              		.eabi_attribute 34, 1
  12              		.eabi_attribute 18, 4
  13              		.thumb
  14              		.file	"adc.c"
  15              		.text
  16              	.Ltext0:
  17              		.cfi_sections	.debug_frame
  18              		.section	.text.adcInit,"ax",%progbits
  19              		.align	2
  20              		.p2align 4,,15
  21              		.global	adcInit
  22              		.thumb
  23              		.thumb_func
  24              		.type	adcInit, %function
  25              	adcInit:
  26              	.LFB118:
  27              		.file 1 "../../../os/hal/src/adc.c"
  28              		.loc 1 68 0
  29              		.cfi_startproc
  30              		@ args = 0, pretend = 0, frame = 0
  31              		@ frame_needed = 0, uses_anonymous_args = 0
  32              		@ link register save eliminated.
  33              		.loc 1 70 0
  34 0000 FFF7FEBF 		b	adc_lld_init
  35              	.LVL0:
  36              		.cfi_endproc
  37              	.LFE118:
  38              		.size	adcInit, .-adcInit
  39 0004 AFF30080 		.section	.text.adcObjectInit,"ax",%progbits
  39      AFF30080 
  39      AFF30080 
  40              		.align	2
  41              		.p2align 4,,15
  42              		.global	adcObjectInit
  43              		.thumb
  44              		.thumb_func
  45              		.type	adcObjectInit, %function
  46              	adcObjectInit:
  47              	.LFB119:
  48              		.loc 1 80 0
  49              		.cfi_startproc
  50              		@ args = 0, pretend = 0, frame = 0
  51              		@ frame_needed = 0, uses_anonymous_args = 0
  52              		@ link register save eliminated.
  53              	.LVL1:
  54              		.loc 1 83 0
  55 0000 0023     		movs	r3, #0
ARM GAS  /tmp/ccIdC3WY.s 			page 2


  56              		.loc 1 82 0
  57 0002 0122     		movs	r2, #1
  58 0004 0270     		strb	r2, [r0]
  59              		.loc 1 83 0
  60 0006 4360     		str	r3, [r0, #4]
  61              		.loc 1 84 0
  62 0008 8360     		str	r3, [r0, #8]
  63              		.loc 1 85 0
  64 000a C360     		str	r3, [r0, #12]
  65              		.loc 1 86 0
  66 000c 0361     		str	r3, [r0, #16]
  67              		.loc 1 88 0
  68 000e 4361     		str	r3, [r0, #20]
  69              		.loc 1 92 0
  70 0010 1830     		adds	r0, r0, #24
  71              	.LVL2:
  72 0012 FFF7FEBF 		b	chMtxInit
  73              	.LVL3:
  74              		.cfi_endproc
  75              	.LFE119:
  76              		.size	adcObjectInit, .-adcObjectInit
  77 0016 00BFAFF3 		.section	.text.adcStart,"ax",%progbits
  77      0080AFF3 
  77      0080
  78              		.align	2
  79              		.p2align 4,,15
  80              		.global	adcStart
  81              		.thumb
  82              		.thumb_func
  83              		.type	adcStart, %function
  84              	adcStart:
  85              	.LFB120:
  86              		.loc 1 111 0
  87              		.cfi_startproc
  88              		@ args = 0, pretend = 0, frame = 0
  89              		@ frame_needed = 0, uses_anonymous_args = 0
  90              	.LVL4:
  91 0000 38B5     		push	{r3, r4, r5, lr}
  92              		.cfi_def_cfa_offset 16
  93              		.cfi_offset 3, -16
  94              		.cfi_offset 4, -12
  95              		.cfi_offset 5, -8
  96              		.cfi_offset 14, -4
  97              		.loc 1 113 0
  98 0002 0446     		mov	r4, r0
  99              		.loc 1 111 0
 100 0004 0D46     		mov	r5, r1
 101              		.loc 1 113 0
 102 0006 D8B1     		cbz	r0, .L7
 103              	.LVL5:
 104              	.L4:
 105              	.LBB2:
 106              		.loc 1 115 0
 107 0008 2023     		movs	r3, #32
 108              	@ 115 "../../../os/hal/src/adc.c" 1
 109 000a 83F31188 		msr     BASEPRI, r3
 110              	@ 0 "" 2
ARM GAS  /tmp/ccIdC3WY.s 			page 3


 111              		.thumb
 112              	.LBE2:
 113 000e FFF7FEFF 		bl	dbg_check_lock
 114              	.LVL6:
 115              		.loc 1 116 0
 116 0012 2378     		ldrb	r3, [r4]	@ zero_extendqisi2
 117 0014 013B     		subs	r3, r3, #1
 118 0016 DBB2     		uxtb	r3, r3
 119 0018 012B     		cmp	r3, #1
 120 001a 05D9     		bls	.L5
 121              		.loc 1 116 0 is_stmt 0 discriminator 1
 122 001c 40F20000 		movw	r0, #:lower16:.LC1
 123 0020 C0F20000 		movt	r0, #:upper16:.LC1
 124 0024 FFF7FEFF 		bl	chDbgPanic
 125              	.LVL7:
 126              	.L5:
 127              		.loc 1 119 0 is_stmt 1
 128 0028 2046     		mov	r0, r4
 129              		.loc 1 118 0
 130 002a 6560     		str	r5, [r4, #4]
 131              		.loc 1 119 0
 132 002c FFF7FEFF 		bl	adc_lld_start
 133              	.LVL8:
 134              		.loc 1 120 0
 135 0030 0223     		movs	r3, #2
 136 0032 2370     		strb	r3, [r4]
 137              		.loc 1 121 0
 138 0034 FFF7FEFF 		bl	dbg_check_unlock
 139              	.LVL9:
 140              	.LBB3:
 141 0038 0023     		movs	r3, #0
 142              	@ 121 "../../../os/hal/src/adc.c" 1
 143 003a 83F31188 		msr     BASEPRI, r3
 144              	@ 0 "" 2
 145              		.thumb
 146 003e 38BD     		pop	{r3, r4, r5, pc}
 147              	.LVL10:
 148              	.L7:
 149              	.LBE3:
 150              		.loc 1 113 0 discriminator 1
 151 0040 40F20000 		movw	r0, #:lower16:.LC0
 152              	.LVL11:
 153 0044 C0F20000 		movt	r0, #:upper16:.LC0
 154 0048 FFF7FEFF 		bl	chDbgPanic
 155              	.LVL12:
 156 004c DCE7     		b	.L4
 157              		.cfi_endproc
 158              	.LFE120:
 159              		.size	adcStart, .-adcStart
 160 004e 00BF     		.section	.text.adcStop,"ax",%progbits
 161              		.align	2
 162              		.p2align 4,,15
 163              		.global	adcStop
 164              		.thumb
 165              		.thumb_func
 166              		.type	adcStop, %function
 167              	adcStop:
ARM GAS  /tmp/ccIdC3WY.s 			page 4


 168              	.LFB121:
 169              		.loc 1 131 0
 170              		.cfi_startproc
 171              		@ args = 0, pretend = 0, frame = 0
 172              		@ frame_needed = 0, uses_anonymous_args = 0
 173              	.LVL13:
 174 0000 10B5     		push	{r4, lr}
 175              		.cfi_def_cfa_offset 8
 176              		.cfi_offset 4, -8
 177              		.cfi_offset 14, -4
 178              		.loc 1 133 0
 179 0002 0446     		mov	r4, r0
 180 0004 D0B1     		cbz	r0, .L11
 181              	.LVL14:
 182              	.L9:
 183              	.LBB4:
 184              		.loc 1 135 0
 185 0006 2023     		movs	r3, #32
 186              	@ 135 "../../../os/hal/src/adc.c" 1
 187 0008 83F31188 		msr     BASEPRI, r3
 188              	@ 0 "" 2
 189              		.thumb
 190              	.LBE4:
 191 000c FFF7FEFF 		bl	dbg_check_lock
 192              	.LVL15:
 193              		.loc 1 136 0
 194 0010 2378     		ldrb	r3, [r4]	@ zero_extendqisi2
 195 0012 013B     		subs	r3, r3, #1
 196 0014 DBB2     		uxtb	r3, r3
 197 0016 012B     		cmp	r3, #1
 198 0018 05D9     		bls	.L10
 199              		.loc 1 136 0 is_stmt 0 discriminator 1
 200 001a 40F20000 		movw	r0, #:lower16:.LC3
 201 001e C0F20000 		movt	r0, #:upper16:.LC3
 202 0022 FFF7FEFF 		bl	chDbgPanic
 203              	.LVL16:
 204              	.L10:
 205              		.loc 1 138 0 is_stmt 1
 206 0026 2046     		mov	r0, r4
 207 0028 FFF7FEFF 		bl	adc_lld_stop
 208              	.LVL17:
 209              		.loc 1 139 0
 210 002c 0123     		movs	r3, #1
 211 002e 2370     		strb	r3, [r4]
 212              		.loc 1 140 0
 213 0030 FFF7FEFF 		bl	dbg_check_unlock
 214              	.LVL18:
 215              	.LBB5:
 216 0034 0023     		movs	r3, #0
 217              	@ 140 "../../../os/hal/src/adc.c" 1
 218 0036 83F31188 		msr     BASEPRI, r3
 219              	@ 0 "" 2
 220              		.thumb
 221 003a 10BD     		pop	{r4, pc}
 222              	.LVL19:
 223              	.L11:
 224              	.LBE5:
ARM GAS  /tmp/ccIdC3WY.s 			page 5


 225              		.loc 1 133 0 discriminator 1
 226 003c 40F20000 		movw	r0, #:lower16:.LC2
 227              	.LVL20:
 228 0040 C0F20000 		movt	r0, #:upper16:.LC2
 229 0044 FFF7FEFF 		bl	chDbgPanic
 230              	.LVL21:
 231 0048 DDE7     		b	.L9
 232              		.cfi_endproc
 233              	.LFE121:
 234              		.size	adcStop, .-adcStop
 235 004a 00BFAFF3 		.section	.text.adcStartConversionI,"ax",%progbits
 235      0080
 236              		.align	2
 237              		.p2align 4,,15
 238              		.global	adcStartConversionI
 239              		.thumb
 240              		.thumb_func
 241              		.type	adcStartConversionI, %function
 242              	adcStartConversionI:
 243              	.LFB123:
 244              		.loc 1 190 0
 245              		.cfi_startproc
 246              		@ args = 0, pretend = 0, frame = 0
 247              		@ frame_needed = 0, uses_anonymous_args = 0
 248              	.LVL22:
 249 0000 F8B5     		push	{r3, r4, r5, r6, r7, lr}
 250              		.cfi_def_cfa_offset 24
 251              		.cfi_offset 3, -24
 252              		.cfi_offset 4, -20
 253              		.cfi_offset 5, -16
 254              		.cfi_offset 6, -12
 255              		.cfi_offset 7, -8
 256              		.cfi_offset 14, -4
 257              		.loc 1 190 0
 258 0002 0446     		mov	r4, r0
 259 0004 0E46     		mov	r6, r1
 260 0006 1746     		mov	r7, r2
 261 0008 1D46     		mov	r5, r3
 262              		.loc 1 192 0
 263 000a FFF7FEFF 		bl	chDbgCheckClassI
 264              	.LVL23:
 265              		.loc 1 193 0
 266 000e 002E     		cmp	r6, #0
 267 0010 18BF     		it	ne
 268 0012 002C     		cmpne	r4, #0
 269 0014 1BD0     		beq	.L13
 270              		.loc 1 193 0 is_stmt 0 discriminator 2
 271 0016 D7B1     		cbz	r7, .L13
 272              		.loc 1 193 0 discriminator 1
 273 0018 012D     		cmp	r5, #1
 274 001a 01D0     		beq	.L14
 275 001c EB07     		lsls	r3, r5, #31
 276 001e 16D4     		bmi	.L13
 277              	.L14:
 278              		.loc 1 196 0 is_stmt 1
 279 0020 2378     		ldrb	r3, [r4]	@ zero_extendqisi2
 280 0022 1A1F     		subs	r2, r3, #4
ARM GAS  /tmp/ccIdC3WY.s 			page 6


 281 0024 D2B2     		uxtb	r2, r2
 282 0026 022B     		cmp	r3, #2
 283 0028 18BF     		it	ne
 284 002a 012A     		cmpne	r2, #1
 285 002c 05D9     		bls	.L15
 286              		.loc 1 196 0 is_stmt 0 discriminator 1
 287 002e 40F20000 		movw	r0, #:lower16:.LC5
 288 0032 C0F20000 		movt	r0, #:upper16:.LC5
 289 0036 FFF7FEFF 		bl	chDbgPanic
 290              	.LVL24:
 291              	.L15:
 292              		.loc 1 204 0 is_stmt 1
 293 003a 0323     		movs	r3, #3
 294              		.loc 1 201 0
 295 003c A760     		str	r7, [r4, #8]
 296              		.loc 1 202 0
 297 003e E560     		str	r5, [r4, #12]
 298              		.loc 1 203 0
 299 0040 2661     		str	r6, [r4, #16]
 300              		.loc 1 204 0
 301 0042 2370     		strb	r3, [r4]
 302              		.loc 1 205 0
 303 0044 2046     		mov	r0, r4
 304              		.loc 1 206 0
 305 0046 BDE8F840 		pop	{r3, r4, r5, r6, r7, lr}
 306              	.LVL25:
 307              		.loc 1 205 0
 308 004a FFF7FEBF 		b	adc_lld_start_conversion
 309              	.LVL26:
 310              	.L13:
 311              		.loc 1 193 0 discriminator 1
 312 004e 40F20000 		movw	r0, #:lower16:.LC4
 313 0052 C0F20000 		movt	r0, #:upper16:.LC4
 314 0056 FFF7FEFF 		bl	chDbgPanic
 315              	.LVL27:
 316 005a E1E7     		b	.L14
 317              		.cfi_endproc
 318              	.LFE123:
 319              		.size	adcStartConversionI, .-adcStartConversionI
 320 005c AFF30080 		.section	.text.adcStartConversion,"ax",%progbits
 321              		.align	2
 322              		.p2align 4,,15
 323              		.global	adcStartConversion
 324              		.thumb
 325              		.thumb_func
 326              		.type	adcStartConversion, %function
 327              	adcStartConversion:
 328              	.LFB122:
 329              		.loc 1 162 0
 330              		.cfi_startproc
 331              		@ args = 0, pretend = 0, frame = 0
 332              		@ frame_needed = 0, uses_anonymous_args = 0
 333              	.LVL28:
 334 0000 F8B5     		push	{r3, r4, r5, r6, r7, lr}
 335              		.cfi_def_cfa_offset 24
 336              		.cfi_offset 3, -24
 337              		.cfi_offset 4, -20
ARM GAS  /tmp/ccIdC3WY.s 			page 7


 338              		.cfi_offset 5, -16
 339              		.cfi_offset 6, -12
 340              		.cfi_offset 7, -8
 341              		.cfi_offset 14, -4
 342              		.loc 1 162 0
 343 0002 1C46     		mov	r4, r3
 344 0004 0746     		mov	r7, r0
 345 0006 0E46     		mov	r6, r1
 346 0008 1546     		mov	r5, r2
 347              	.LBB6:
 348              		.loc 1 164 0
 349 000a 2023     		movs	r3, #32
 350              	.LVL29:
 351              	@ 164 "../../../os/hal/src/adc.c" 1
 352 000c 83F31188 		msr     BASEPRI, r3
 353              	@ 0 "" 2
 354              		.thumb
 355              	.LBE6:
 356 0010 FFF7FEFF 		bl	dbg_check_lock
 357              	.LVL30:
 358              		.loc 1 165 0
 359 0014 2346     		mov	r3, r4
 360 0016 3846     		mov	r0, r7
 361 0018 3146     		mov	r1, r6
 362 001a 2A46     		mov	r2, r5
 363 001c FFF7FEFF 		bl	adcStartConversionI
 364              	.LVL31:
 365              		.loc 1 166 0
 366 0020 FFF7FEFF 		bl	dbg_check_unlock
 367              	.LVL32:
 368              	.LBB7:
 369 0024 0023     		movs	r3, #0
 370              	@ 166 "../../../os/hal/src/adc.c" 1
 371 0026 83F31188 		msr     BASEPRI, r3
 372              	@ 0 "" 2
 373              		.thumb
 374 002a F8BD     		pop	{r3, r4, r5, r6, r7, pc}
 375              	.LBE7:
 376              		.cfi_endproc
 377              	.LFE122:
 378              		.size	adcStartConversion, .-adcStartConversion
 379 002c AFF30080 		.section	.text.adcStopConversion,"ax",%progbits
 380              		.align	2
 381              		.p2align 4,,15
 382              		.global	adcStopConversion
 383              		.thumb
 384              		.thumb_func
 385              		.type	adcStopConversion, %function
 386              	adcStopConversion:
 387              	.LFB124:
 388              		.loc 1 218 0
 389              		.cfi_startproc
 390              		@ args = 0, pretend = 0, frame = 0
 391              		@ frame_needed = 0, uses_anonymous_args = 0
 392              	.LVL33:
 393 0000 10B5     		push	{r4, lr}
 394              		.cfi_def_cfa_offset 8
ARM GAS  /tmp/ccIdC3WY.s 			page 8


 395              		.cfi_offset 4, -8
 396              		.cfi_offset 14, -4
 397              		.loc 1 220 0
 398 0002 0446     		mov	r4, r0
 399 0004 30B3     		cbz	r0, .L39
 400              	.LVL34:
 401              	.L30:
 402              	.LBB8:
 403              		.loc 1 222 0
 404 0006 2023     		movs	r3, #32
 405              	@ 222 "../../../os/hal/src/adc.c" 1
 406 0008 83F31188 		msr     BASEPRI, r3
 407              	@ 0 "" 2
 408              		.thumb
 409              	.LBE8:
 410 000c FFF7FEFF 		bl	dbg_check_lock
 411              	.LVL35:
 412              		.loc 1 223 0
 413 0010 2378     		ldrb	r3, [r4]	@ zero_extendqisi2
 414 0012 9A1E     		subs	r2, r3, #2
 415 0014 D2B2     		uxtb	r2, r2
 416 0016 012A     		cmp	r2, #1
 417 0018 06D9     		bls	.L31
 418              		.loc 1 223 0 is_stmt 0 discriminator 1
 419 001a 40F20000 		movw	r0, #:lower16:.LC7
 420 001e C0F20000 		movt	r0, #:upper16:.LC7
 421 0022 FFF7FEFF 		bl	chDbgPanic
 422              	.LVL36:
 423 0026 2378     		ldrb	r3, [r4]	@ zero_extendqisi2
 424              	.L31:
 425              		.loc 1 226 0 is_stmt 1
 426 0028 022B     		cmp	r3, #2
 427 002a 0DD0     		beq	.L33
 428              		.loc 1 227 0
 429 002c 2046     		mov	r0, r4
 430 002e FFF7FEFF 		bl	adc_lld_stop_conversion
 431              	.LVL37:
 432              		.loc 1 230 0
 433 0032 6069     		ldr	r0, [r4, #20]
 434              		.loc 1 228 0
 435 0034 0023     		movs	r3, #0
 436              		.loc 1 229 0
 437 0036 0222     		movs	r2, #2
 438              		.loc 1 228 0
 439 0038 2361     		str	r3, [r4, #16]
 440              		.loc 1 229 0
 441 003a 2270     		strb	r2, [r4]
 442              		.loc 1 230 0
 443 003c 20B1     		cbz	r0, .L33
 444              	.LVL38:
 445              	.LBB9:
 446              		.loc 1 230 0 is_stmt 0 discriminator 1
 447 003e 6361     		str	r3, [r4, #20]
 448 0040 6FF00101 		mvn	r1, #1
 449 0044 FFF7FEFF 		bl	chSchWakeupS
 450              	.LVL39:
 451              	.L33:
ARM GAS  /tmp/ccIdC3WY.s 			page 9


 452              	.LBE9:
 453              		.loc 1 232 0 is_stmt 1
 454 0048 FFF7FEFF 		bl	dbg_check_unlock
 455              	.LVL40:
 456              	.LBB10:
 457 004c 0023     		movs	r3, #0
 458              	@ 232 "../../../os/hal/src/adc.c" 1
 459 004e 83F31188 		msr     BASEPRI, r3
 460              	@ 0 "" 2
 461              		.thumb
 462 0052 10BD     		pop	{r4, pc}
 463              	.LVL41:
 464              	.L39:
 465              	.LBE10:
 466              		.loc 1 220 0 discriminator 1
 467 0054 40F20000 		movw	r0, #:lower16:.LC6
 468              	.LVL42:
 469 0058 C0F20000 		movt	r0, #:upper16:.LC6
 470 005c FFF7FEFF 		bl	chDbgPanic
 471              	.LVL43:
 472 0060 D1E7     		b	.L30
 473              		.cfi_endproc
 474              	.LFE124:
 475              		.size	adcStopConversion, .-adcStopConversion
 476 0062 00BFAFF3 		.section	.text.adcStopConversionI,"ax",%progbits
 476      0080AFF3 
 476      0080AFF3 
 476      0080
 477              		.align	2
 478              		.p2align 4,,15
 479              		.global	adcStopConversionI
 480              		.thumb
 481              		.thumb_func
 482              		.type	adcStopConversionI, %function
 483              	adcStopConversionI:
 484              	.LFB125:
 485              		.loc 1 245 0
 486              		.cfi_startproc
 487              		@ args = 0, pretend = 0, frame = 0
 488              		@ frame_needed = 0, uses_anonymous_args = 0
 489              	.LVL44:
 490 0000 10B5     		push	{r4, lr}
 491              		.cfi_def_cfa_offset 8
 492              		.cfi_offset 4, -8
 493              		.cfi_offset 14, -4
 494              		.loc 1 245 0
 495 0002 0446     		mov	r4, r0
 496              		.loc 1 247 0
 497 0004 FFF7FEFF 		bl	chDbgCheckClassI
 498              	.LVL45:
 499              		.loc 1 248 0
 500 0008 0CB3     		cbz	r4, .L50
 501              	.L41:
 502              		.loc 1 249 0
 503 000a 2378     		ldrb	r3, [r4]	@ zero_extendqisi2
 504 000c 9A1E     		subs	r2, r3, #2
 505 000e D2B2     		uxtb	r2, r2
ARM GAS  /tmp/ccIdC3WY.s 			page 10


 506 0010 022A     		cmp	r2, #2
 507 0012 14D8     		bhi	.L51
 508              	.L42:
 509              		.loc 1 254 0
 510 0014 022B     		cmp	r3, #2
 511 0016 11D0     		beq	.L40
 512              		.loc 1 255 0
 513 0018 2046     		mov	r0, r4
 514 001a FFF7FEFF 		bl	adc_lld_stop_conversion
 515              	.LVL46:
 516              		.loc 1 258 0
 517 001e 6369     		ldr	r3, [r4, #20]
 518              		.loc 1 256 0
 519 0020 0022     		movs	r2, #0
 520              		.loc 1 257 0
 521 0022 0221     		movs	r1, #2
 522              		.loc 1 256 0
 523 0024 2261     		str	r2, [r4, #16]
 524              		.loc 1 257 0
 525 0026 2170     		strb	r1, [r4]
 526              		.loc 1 258 0
 527 0028 43B1     		cbz	r3, .L40
 528              	.LVL47:
 529              	.LBB11:
 530              		.loc 1 258 0 is_stmt 0 discriminator 1
 531 002a 6FF00101 		mvn	r1, #1
 532 002e 6261     		str	r2, [r4, #20]
 533 0030 9962     		str	r1, [r3, #40]
 534 0032 1846     		mov	r0, r3
 535              	.LBE11:
 536              		.loc 1 260 0 is_stmt 1 discriminator 1
 537 0034 BDE81040 		pop	{r4, lr}
 538              	.LVL48:
 539              	.LBB12:
 540              		.loc 1 258 0 discriminator 1
 541 0038 FFF7FEBF 		b	chSchReadyI
 542              	.LVL49:
 543              	.L40:
 544 003c 10BD     		pop	{r4, pc}
 545              	.LVL50:
 546              	.L51:
 547              	.LBE12:
 548              		.loc 1 249 0 discriminator 1
 549 003e 40F20000 		movw	r0, #:lower16:.LC9
 550 0042 C0F20000 		movt	r0, #:upper16:.LC9
 551 0046 FFF7FEFF 		bl	chDbgPanic
 552              	.LVL51:
 553 004a 2378     		ldrb	r3, [r4]	@ zero_extendqisi2
 554 004c E2E7     		b	.L42
 555              	.L50:
 556              		.loc 1 248 0 discriminator 1
 557 004e 40F20000 		movw	r0, #:lower16:.LC8
 558 0052 C0F20000 		movt	r0, #:upper16:.LC8
 559 0056 FFF7FEFF 		bl	chDbgPanic
 560              	.LVL52:
 561 005a D6E7     		b	.L41
 562              		.cfi_endproc
ARM GAS  /tmp/ccIdC3WY.s 			page 11


 563              	.LFE125:
 564              		.size	adcStopConversionI, .-adcStopConversionI
 565 005c AFF30080 		.section	.text.adcConvert,"ax",%progbits
 566              		.align	2
 567              		.p2align 4,,15
 568              		.global	adcConvert
 569              		.thumb
 570              		.thumb_func
 571              		.type	adcConvert, %function
 572              	adcConvert:
 573              	.LFB126:
 574              		.loc 1 289 0
 575              		.cfi_startproc
 576              		@ args = 0, pretend = 0, frame = 0
 577              		@ frame_needed = 0, uses_anonymous_args = 0
 578              	.LVL53:
 579 0000 2DE9F041 		push	{r4, r5, r6, r7, r8, lr}
 580              		.cfi_def_cfa_offset 24
 581              		.cfi_offset 4, -24
 582              		.cfi_offset 5, -20
 583              		.cfi_offset 6, -16
 584              		.cfi_offset 7, -12
 585              		.cfi_offset 8, -8
 586              		.cfi_offset 14, -4
 587              		.loc 1 289 0
 588 0004 1E46     		mov	r6, r3
 589 0006 0546     		mov	r5, r0
 590 0008 8846     		mov	r8, r1
 591 000a 1746     		mov	r7, r2
 592              	.LBB13:
 593              		.loc 1 292 0
 594 000c 2023     		movs	r3, #32
 595              	.LVL54:
 596              	@ 292 "../../../os/hal/src/adc.c" 1
 597 000e 83F31188 		msr     BASEPRI, r3
 598              	@ 0 "" 2
 599              		.thumb
 600              	.LBE13:
 601 0012 FFF7FEFF 		bl	dbg_check_lock
 602              	.LVL55:
 603              		.loc 1 293 0
 604 0016 6B69     		ldr	r3, [r5, #20]
 605 0018 2BB1     		cbz	r3, .L53
 606              		.loc 1 293 0 is_stmt 0 discriminator 1
 607 001a 40F20000 		movw	r0, #:lower16:.LC10
 608 001e C0F20000 		movt	r0, #:upper16:.LC10
 609 0022 FFF7FEFF 		bl	chDbgPanic
 610              	.LVL56:
 611              	.L53:
 612              		.loc 1 295 0 is_stmt 1
 613 0026 40F20004 		movw	r4, #:lower16:rlist
 614 002a C0F20004 		movt	r4, #:upper16:rlist
 615              		.loc 1 294 0
 616 002e 4146     		mov	r1, r8
 617 0030 3A46     		mov	r2, r7
 618 0032 3346     		mov	r3, r6
 619 0034 2846     		mov	r0, r5
ARM GAS  /tmp/ccIdC3WY.s 			page 12


 620 0036 FFF7FEFF 		bl	adcStartConversionI
 621              	.LVL57:
 622              		.loc 1 295 0
 623 003a A369     		ldr	r3, [r4, #24]
 624              		.loc 1 296 0
 625 003c 0220     		movs	r0, #2
 626              		.loc 1 295 0
 627 003e 6B61     		str	r3, [r5, #20]
 628              		.loc 1 296 0
 629 0040 FFF7FEFF 		bl	chSchGoSleepS
 630              	.LVL58:
 631              		.loc 1 297 0
 632 0044 A369     		ldr	r3, [r4, #24]
 633 0046 9C6A     		ldr	r4, [r3, #40]
 634              	.LVL59:
 635              		.loc 1 298 0
 636 0048 FFF7FEFF 		bl	dbg_check_unlock
 637              	.LVL60:
 638              	.LBB14:
 639 004c 0023     		movs	r3, #0
 640              	@ 298 "../../../os/hal/src/adc.c" 1
 641 004e 83F31188 		msr     BASEPRI, r3
 642              	@ 0 "" 2
 643              		.thumb
 644              	.LBE14:
 645              		.loc 1 300 0
 646 0052 2046     		mov	r0, r4
 647 0054 BDE8F081 		pop	{r4, r5, r6, r7, r8, pc}
 648              		.cfi_endproc
 649              	.LFE126:
 650              		.size	adcConvert, .-adcConvert
 651 0058 AFF30080 		.section	.text.adcAcquireBus,"ax",%progbits
 651      AFF30080 
 652              		.align	2
 653              		.p2align 4,,15
 654              		.global	adcAcquireBus
 655              		.thumb
 656              		.thumb_func
 657              		.type	adcAcquireBus, %function
 658              	adcAcquireBus:
 659              	.LFB127:
 660              		.loc 1 315 0
 661              		.cfi_startproc
 662              		@ args = 0, pretend = 0, frame = 0
 663              		@ frame_needed = 0, uses_anonymous_args = 0
 664              	.LVL61:
 665 0000 10B5     		push	{r4, lr}
 666              		.cfi_def_cfa_offset 8
 667              		.cfi_offset 4, -8
 668              		.cfi_offset 14, -4
 669              		.loc 1 317 0
 670 0002 0446     		mov	r4, r0
 671 0004 28B1     		cbz	r0, .L59
 672              		.loc 1 320 0
 673 0006 04F11800 		add	r0, r4, #24
 674              	.LVL62:
 675              		.loc 1 324 0
ARM GAS  /tmp/ccIdC3WY.s 			page 13


 676 000a BDE81040 		pop	{r4, lr}
 677              	.LVL63:
 678              		.loc 1 320 0
 679 000e FFF7FEBF 		b	chMtxLock
 680              	.LVL64:
 681              	.L59:
 682              		.loc 1 317 0 discriminator 1
 683 0012 40F20000 		movw	r0, #:lower16:.LC11
 684              	.LVL65:
 685 0016 C0F20000 		movt	r0, #:upper16:.LC11
 686 001a FFF7FEFF 		bl	chDbgPanic
 687              	.LVL66:
 688              		.loc 1 320 0 discriminator 1
 689 001e 04F11800 		add	r0, r4, #24
 690              		.loc 1 324 0 discriminator 1
 691 0022 BDE81040 		pop	{r4, lr}
 692              	.LVL67:
 693              		.loc 1 320 0 discriminator 1
 694 0026 FFF7FEBF 		b	chMtxLock
 695              	.LVL68:
 696              		.cfi_endproc
 697              	.LFE127:
 698              		.size	adcAcquireBus, .-adcAcquireBus
 699 002a 00BFAFF3 		.section	.text.adcReleaseBus,"ax",%progbits
 699      0080
 700              		.align	2
 701              		.p2align 4,,15
 702              		.global	adcReleaseBus
 703              		.thumb
 704              		.thumb_func
 705              		.type	adcReleaseBus, %function
 706              	adcReleaseBus:
 707              	.LFB128:
 708              		.loc 1 335 0
 709              		.cfi_startproc
 710              		@ args = 0, pretend = 0, frame = 0
 711              		@ frame_needed = 0, uses_anonymous_args = 0
 712              	.LVL69:
 713 0000 08B5     		push	{r3, lr}
 714              		.cfi_def_cfa_offset 8
 715              		.cfi_offset 3, -8
 716              		.cfi_offset 14, -4
 717              		.loc 1 337 0
 718 0002 18B1     		cbz	r0, .L62
 719              		.loc 1 345 0
 720 0004 BDE80840 		pop	{r3, lr}
 721              		.loc 1 341 0
 722 0008 FFF7FEBF 		b	chMtxUnlock
 723              	.LVL70:
 724              	.L62:
 725              		.loc 1 337 0 discriminator 1
 726 000c 40F20000 		movw	r0, #:lower16:.LC12
 727              	.LVL71:
 728 0010 C0F20000 		movt	r0, #:upper16:.LC12
 729 0014 FFF7FEFF 		bl	chDbgPanic
 730              	.LVL72:
 731              		.loc 1 345 0 discriminator 1
ARM GAS  /tmp/ccIdC3WY.s 			page 14


 732 0018 BDE80840 		pop	{r3, lr}
 733              		.loc 1 341 0 discriminator 1
 734 001c FFF7FEBF 		b	chMtxUnlock
 735              	.LVL73:
 736              		.cfi_endproc
 737              	.LFE128:
 738              		.size	adcReleaseBus, .-adcReleaseBus
 739              		.section	.rodata.str1.4,"aMS",%progbits,1
 740              		.align	2
 741              	.LC0:
 742 0000 22616463 		.ascii	"\"adcStart\"()\000"
 742      53746172 
 742      74222829 
 742      00
 743 000d 000000   		.space	3
 744              	.LC1:
 745 0010 61646353 		.ascii	"adcStart(), #1\000"
 745      74617274 
 745      28292C20 
 745      233100
 746 001f 00       		.space	1
 747              	.LC2:
 748 0020 22616463 		.ascii	"\"adcStop\"()\000"
 748      53746F70 
 748      22282900 
 749              	.LC3:
 750 002c 61646353 		.ascii	"adcStop(), #1\000"
 750      746F7028 
 750      292C2023 
 750      3100
 751 003a 0000     		.space	2
 752              	.LC4:
 753 003c 22616463 		.ascii	"\"adcStartConversionI\"()\000"
 753      53746172 
 753      74436F6E 
 753      76657273 
 753      696F6E49 
 754              	.LC5:
 755 0054 61646353 		.ascii	"adcStartConversionI(), #1\000"
 755      74617274 
 755      436F6E76 
 755      65727369 
 755      6F6E4928 
 756 006e 0000     		.space	2
 757              	.LC6:
 758 0070 22616463 		.ascii	"\"adcStopConversion\"()\000"
 758      53746F70 
 758      436F6E76 
 758      65727369 
 758      6F6E2228 
 759 0086 0000     		.space	2
 760              	.LC7:
 761 0088 61646353 		.ascii	"adcStopConversion(), #1\000"
 761      746F7043 
 761      6F6E7665 
 761      7273696F 
 761      6E28292C 
ARM GAS  /tmp/ccIdC3WY.s 			page 15


 762              	.LC8:
 763 00a0 22616463 		.ascii	"\"adcStopConversionI\"()\000"
 763      53746F70 
 763      436F6E76 
 763      65727369 
 763      6F6E4922 
 764 00b7 00       		.space	1
 765              	.LC9:
 766 00b8 61646353 		.ascii	"adcStopConversionI(), #1\000"
 766      746F7043 
 766      6F6E7665 
 766      7273696F 
 766      6E492829 
 767 00d1 000000   		.space	3
 768              	.LC10:
 769 00d4 61646343 		.ascii	"adcConvert(), #1\000"
 769      6F6E7665 
 769      72742829 
 769      2C202331 
 769      00
 770 00e5 000000   		.space	3
 771              	.LC11:
 772 00e8 22616463 		.ascii	"\"adcAcquireBus\"()\000"
 772      41637175 
 772      69726542 
 772      75732228 
 772      2900
 773 00fa 0000     		.space	2
 774              	.LC12:
 775 00fc 22616463 		.ascii	"\"adcReleaseBus\"()\000"
 775      52656C65 
 775      61736542 
 775      75732228 
 775      2900
 776 010e 0000     		.text
 777              	.Letext0:
 778              		.file 2 "/usr/lib/gcc/arm-none-eabi/4.8.2/include/stddef.h"
 779              		.file 3 "/usr/include/newlib/machine/_default_types.h"
 780              		.file 4 "/usr/include/newlib/stdint.h"
 781              		.file 5 "../../../os/ports/GCC/ARMCMx/chtypes.h"
 782              		.file 6 "../../../os/kernel/include/chlists.h"
 783              		.file 7 "../../../os/kernel/include/chthreads.h"
 784              		.file 8 "../../../os/ports/GCC/ARMCMx/chcore_v7m.h"
 785              		.file 9 "../../../os/kernel/include/chschd.h"
 786              		.file 10 "../../../os/kernel/include/chmtx.h"
 787              		.file 11 "../../../os/hal/platforms/STM32F4xx/stm32f4xx.h"
 788              		.file 12 "../../../os/hal/platforms/STM32F4xx/stm32_dma.h"
 789              		.file 13 "../../../os/hal/include/adc.h"
 790              		.file 14 "../../../os/hal/platforms/STM32F4xx/adc_lld.h"
 791              		.file 15 "../../../os/ports/common/ARMCMx/CMSIS/include/core_cm4.h"
 792              		.file 16 "../../../os/kernel/include/chdebug.h"