ARM GAS  /tmp/cc7ioQBk.s 			page 1


   1              		.syntax unified
   2              		.cpu cortex-m4
   3              		.fpu softvfp
   4              		.eabi_attribute 20, 1
   5              		.eabi_attribute 21, 1
   6              		.eabi_attribute 23, 3
   7              		.eabi_attribute 24, 1
   8              		.eabi_attribute 25, 1
   9              		.eabi_attribute 26, 1
  10              		.eabi_attribute 30, 2
  11              		.eabi_attribute 34, 1
  12              		.eabi_attribute 18, 4
  13              		.thumb
  14              		.file	"adc_lld.c"
  15              		.text
  16              	.Ltext0:
  17              		.cfi_sections	.debug_frame
  18              		.section	.text.adc_lld_init,"ax",%progbits
  19              		.align	2
  20              		.p2align 4,,15
  21              		.global	adc_lld_init
  22              		.thumb
  23              		.thumb_func
  24              		.type	adc_lld_init, %function
  25              	adc_lld_init:
  26              	.LFB120:
  27              		.file 1 "../../../os/hal/platforms/STM32F4xx/adc_lld.c"
  28              		.loc 1 171 0
  29              		.cfi_startproc
  30              		@ args = 0, pretend = 0, frame = 0
  31              		@ frame_needed = 0, uses_anonymous_args = 0
  32 0000 F8B5     		push	{r3, r4, r5, r6, r7, lr}
  33              		.cfi_def_cfa_offset 24
  34              		.cfi_offset 3, -24
  35              		.cfi_offset 4, -20
  36              		.cfi_offset 5, -16
  37              		.cfi_offset 6, -12
  38              		.cfi_offset 7, -8
  39              		.cfi_offset 14, -4
  40              		.loc 1 175 0
  41 0002 40F20006 		movw	r6, #:lower16:.LANCHOR0
  42 0006 C0F20006 		movt	r6, #:upper16:.LANCHOR0
  43 000a 3046     		mov	r0, r6
  44              		.loc 1 188 0
  45 000c 40F20005 		movw	r5, #:lower16:.LANCHOR1
  46              		.loc 1 175 0
  47 0010 FFF7FEFF 		bl	adcObjectInit
  48              	.LVL0:
  49              		.loc 1 188 0
  50 0014 C0F20005 		movt	r5, #:upper16:.LANCHOR1
  51              		.loc 1 177 0
  52 0018 1A4F     		ldr	r7, .L2
  53              		.loc 1 176 0
  54 001a 4FF40052 		mov	r2, #8192
  55              		.loc 1 178 0
  56 001e 42F61643 		movw	r3, #11286
  57              		.loc 1 176 0
ARM GAS  /tmp/cc7ioQBk.s 			page 2


  58 0022 C4F20102 		movt	r2, 16385
  59              		.loc 1 178 0
  60 0026 C0F20203 		movt	r3, 2
  61              		.loc 1 188 0
  62 002a 2846     		mov	r0, r5
  63              		.loc 1 201 0
  64 002c 40F20004 		movw	r4, #:lower16:.LANCHOR2
  65 0030 C0F20004 		movt	r4, #:upper16:.LANCHOR2
  66              		.loc 1 176 0
  67 0034 B262     		str	r2, [r6, #40]
  68              		.loc 1 178 0
  69 0036 3363     		str	r3, [r6, #48]
  70              		.loc 1 177 0
  71 0038 F762     		str	r7, [r6, #44]
  72              		.loc 1 188 0
  73 003a FFF7FEFF 		bl	adcObjectInit
  74              	.LVL1:
  75              		.loc 1 189 0
  76 003e 4FF40452 		mov	r2, #8448
  77              		.loc 1 191 0
  78 0042 42F61643 		movw	r3, #11286
  79              		.loc 1 190 0
  80 0046 A7F11801 		sub	r1, r7, #24
  81              		.loc 1 189 0
  82 004a C4F20102 		movt	r2, 16385
  83              		.loc 1 191 0
  84 004e C0F20223 		movt	r3, 514
  85              		.loc 1 201 0
  86 0052 2046     		mov	r0, r4
  87              		.loc 1 189 0
  88 0054 AA62     		str	r2, [r5, #40]
  89              		.loc 1 190 0
  90 0056 E962     		str	r1, [r5, #44]
  91              		.loc 1 191 0
  92 0058 2B63     		str	r3, [r5, #48]
  93              		.loc 1 201 0
  94 005a FFF7FEFF 		bl	adcObjectInit
  95              	.LVL2:
  96              		.loc 1 202 0
  97 005e 4FF40852 		mov	r2, #8704
  98              		.loc 1 204 0
  99 0062 42F61643 		movw	r3, #11286
 100              		.loc 1 203 0
 101 0066 243F     		subs	r7, r7, #36
 102              		.loc 1 204 0
 103 0068 C0F20243 		movt	r3, 1026
 104              		.loc 1 202 0
 105 006c C4F20102 		movt	r2, 16385
 106              		.loc 1 203 0
 107 0070 E762     		str	r7, [r4, #44]
 108              		.loc 1 202 0
 109 0072 A262     		str	r2, [r4, #40]
 110              		.loc 1 204 0
 111 0074 2363     		str	r3, [r4, #48]
 112              		.loc 1 214 0
 113 0076 1220     		movs	r0, #18
 114 0078 6021     		movs	r1, #96
ARM GAS  /tmp/cc7ioQBk.s 			page 3


 115              		.loc 1 215 0
 116 007a BDE8F840 		pop	{r3, r4, r5, r6, r7, lr}
 117              		.loc 1 214 0
 118 007e FFF7FEBF 		b	nvicEnableVector
 119              	.LVL3:
 120              	.L3:
 121 0082 00BF     		.align	2
 122              	.L2:
 123 0084 90000000 		.word	_stm32_dma_streams+144
 124              		.cfi_endproc
 125              	.LFE120:
 126              		.size	adc_lld_init, .-adc_lld_init
 127 0088 AFF30080 		.section	.text.adc_lld_start,"ax",%progbits
 127      AFF30080 
 128              		.align	2
 129              		.p2align 4,,15
 130              		.global	adc_lld_start
 131              		.thumb
 132              		.thumb_func
 133              		.type	adc_lld_start, %function
 134              	adc_lld_start:
 135              	.LFB121:
 136              		.loc 1 224 0
 137              		.cfi_startproc
 138              		@ args = 0, pretend = 0, frame = 0
 139              		@ frame_needed = 0, uses_anonymous_args = 0
 140              	.LVL4:
 141 0000 38B5     		push	{r3, r4, r5, lr}
 142              		.cfi_def_cfa_offset 16
 143              		.cfi_offset 3, -16
 144              		.cfi_offset 4, -12
 145              		.cfi_offset 5, -8
 146              		.cfi_offset 14, -4
 147              		.loc 1 227 0
 148 0002 0378     		ldrb	r3, [r0]	@ zero_extendqisi2
 149 0004 012B     		cmp	r3, #1
 150              		.loc 1 224 0
 151 0006 0446     		mov	r4, r0
 152              		.loc 1 227 0
 153 0008 00D0     		beq	.L22
 154 000a 38BD     		pop	{r3, r4, r5, pc}
 155              	.L22:
 156              		.loc 1 229 0
 157 000c 40F20005 		movw	r5, #:lower16:.LANCHOR0
 158 0010 C0F20005 		movt	r5, #:upper16:.LANCHOR0
 159 0014 A842     		cmp	r0, r5
 160 0016 1CD0     		beq	.L23
 161              		.loc 1 242 0
 162 0018 40F20005 		movw	r5, #:lower16:.LANCHOR1
 163 001c C0F20005 		movt	r5, #:upper16:.LANCHOR1
 164 0020 A842     		cmp	r0, r5
 165 0022 31D0     		beq	.L24
 166              		.loc 1 255 0
 167 0024 40F20005 		movw	r5, #:lower16:.LANCHOR2
 168 0028 C0F20005 		movt	r5, #:upper16:.LANCHOR2
 169 002c A842     		cmp	r0, r5
 170 002e 45D0     		beq	.L25
ARM GAS  /tmp/cc7ioQBk.s 			page 4


 171              	.LVL5:
 172              	.L8:
 173              		.loc 1 269 0
 174 0030 4FF40C52 		mov	r2, #8960
 175 0034 C4F20102 		movt	r2, 16385
 176              		.loc 1 274 0
 177 0038 A36A     		ldr	r3, [r4, #40]
 178              		.loc 1 269 0
 179 003a 5468     		ldr	r4, [r2, #4]
 180              	.LVL6:
 181 003c 04F44004 		and	r4, r4, #12582912
 182              		.loc 1 274 0
 183 0040 0021     		movs	r1, #0
 184              		.loc 1 269 0
 185 0042 44F48034 		orr	r4, r4, #65536
 186              		.loc 1 276 0
 187 0046 0120     		movs	r0, #1
 188              		.loc 1 269 0
 189 0048 5460     		str	r4, [r2, #4]
 190              		.loc 1 274 0
 191 004a 5960     		str	r1, [r3, #4]
 192              		.loc 1 275 0
 193 004c 9960     		str	r1, [r3, #8]
 194              		.loc 1 276 0
 195 004e 9860     		str	r0, [r3, #8]
 196 0050 38BD     		pop	{r3, r4, r5, pc}
 197              	.LVL7:
 198              	.L23:
 199              	.LBB2:
 200              		.loc 1 231 0
 201 0052 40F20002 		movw	r2, #:lower16:adc_lld_serve_rx_interrupt
 202 0056 C0F20002 		movt	r2, #:upper16:adc_lld_serve_rx_interrupt
 203 005a C06A     		ldr	r0, [r0, #44]
 204              	.LVL8:
 205 005c 0621     		movs	r1, #6
 206 005e 2346     		mov	r3, r4
 207 0060 FFF7FEFF 		bl	dmaStreamAllocate
 208              	.LVL9:
 209              		.loc 1 235 0
 210 0064 0028     		cmp	r0, #0
 211 0066 43D1     		bne	.L26
 212              	.LVL10:
 213              	.L7:
 214              		.loc 1 236 0
 215 0068 EB6A     		ldr	r3, [r5, #44]
 216 006a 42F24C02 		movw	r2, #8268
 217 006e 1968     		ldr	r1, [r3]
 218              		.loc 1 237 0
 219 0070 4FF46053 		mov	r3, #14336
 220              		.loc 1 236 0
 221 0074 C4F20102 		movt	r2, 16385
 222              		.loc 1 237 0
 223 0078 C4F20203 		movt	r3, 16386
 224              		.loc 1 236 0
 225 007c 8A60     		str	r2, [r1, #8]
 226              		.loc 1 237 0
 227 007e 5A6C     		ldr	r2, [r3, #68]
ARM GAS  /tmp/cc7ioQBk.s 			page 5


 228 0080 42F48072 		orr	r2, r2, #256
 229 0084 5A64     		str	r2, [r3, #68]
 230 0086 D3E7     		b	.L8
 231              	.LVL11:
 232              	.L24:
 233              	.LBE2:
 234              	.LBB3:
 235              		.loc 1 244 0
 236 0088 40F20002 		movw	r2, #:lower16:adc_lld_serve_rx_interrupt
 237 008c C0F20002 		movt	r2, #:upper16:adc_lld_serve_rx_interrupt
 238 0090 C06A     		ldr	r0, [r0, #44]
 239              	.LVL12:
 240 0092 0621     		movs	r1, #6
 241 0094 2346     		mov	r3, r4
 242 0096 FFF7FEFF 		bl	dmaStreamAllocate
 243              	.LVL13:
 244              		.loc 1 248 0
 245 009a 80BB     		cbnz	r0, .L27
 246              	.LVL14:
 247              	.L10:
 248              		.loc 1 249 0
 249 009c EB6A     		ldr	r3, [r5, #44]
 250 009e 42F24C12 		movw	r2, #8524
 251 00a2 1968     		ldr	r1, [r3]
 252              		.loc 1 250 0
 253 00a4 4FF46053 		mov	r3, #14336
 254              		.loc 1 249 0
 255 00a8 C4F20102 		movt	r2, 16385
 256              		.loc 1 250 0
 257 00ac C4F20203 		movt	r3, 16386
 258              		.loc 1 249 0
 259 00b0 8A60     		str	r2, [r1, #8]
 260              		.loc 1 250 0
 261 00b2 5A6C     		ldr	r2, [r3, #68]
 262 00b4 42F40072 		orr	r2, r2, #512
 263 00b8 5A64     		str	r2, [r3, #68]
 264 00ba B9E7     		b	.L8
 265              	.LVL15:
 266              	.L25:
 267              	.LBE3:
 268              	.LBB4:
 269              		.loc 1 257 0
 270 00bc 40F20002 		movw	r2, #:lower16:adc_lld_serve_rx_interrupt
 271 00c0 C0F20002 		movt	r2, #:upper16:adc_lld_serve_rx_interrupt
 272 00c4 C06A     		ldr	r0, [r0, #44]
 273              	.LVL16:
 274 00c6 0621     		movs	r1, #6
 275 00c8 2346     		mov	r3, r4
 276 00ca FFF7FEFF 		bl	dmaStreamAllocate
 277              	.LVL17:
 278              		.loc 1 261 0
 279 00ce E8B9     		cbnz	r0, .L28
 280              	.LVL18:
 281              	.L11:
 282              		.loc 1 262 0
 283 00d0 EB6A     		ldr	r3, [r5, #44]
 284 00d2 42F24C22 		movw	r2, #8780
ARM GAS  /tmp/cc7ioQBk.s 			page 6


 285 00d6 1968     		ldr	r1, [r3]
 286              		.loc 1 263 0
 287 00d8 4FF46053 		mov	r3, #14336
 288              		.loc 1 262 0
 289 00dc C4F20102 		movt	r2, 16385
 290              		.loc 1 263 0
 291 00e0 C4F20203 		movt	r3, 16386
 292              		.loc 1 262 0
 293 00e4 8A60     		str	r2, [r1, #8]
 294              		.loc 1 263 0
 295 00e6 5A6C     		ldr	r2, [r3, #68]
 296 00e8 42F48062 		orr	r2, r2, #1024
 297 00ec 5A64     		str	r2, [r3, #68]
 298 00ee 9FE7     		b	.L8
 299              	.LVL19:
 300              	.L26:
 301              	.LBE4:
 302              	.LBB5:
 303              		.loc 1 235 0 discriminator 1
 304 00f0 40F20000 		movw	r0, #:lower16:.LC0
 305              	.LVL20:
 306 00f4 C0F20000 		movt	r0, #:upper16:.LC0
 307 00f8 FFF7FEFF 		bl	chDbgPanic
 308              	.LVL21:
 309 00fc B4E7     		b	.L7
 310              	.LVL22:
 311              	.L27:
 312              	.LBE5:
 313              	.LBB6:
 314              		.loc 1 248 0 discriminator 1
 315 00fe 40F20000 		movw	r0, #:lower16:.LC1
 316              	.LVL23:
 317 0102 C0F20000 		movt	r0, #:upper16:.LC1
 318 0106 FFF7FEFF 		bl	chDbgPanic
 319              	.LVL24:
 320 010a C7E7     		b	.L10
 321              	.LVL25:
 322              	.L28:
 323              	.LBE6:
 324              	.LBB7:
 325              		.loc 1 261 0 discriminator 1
 326 010c 40F20000 		movw	r0, #:lower16:.LC2
 327              	.LVL26:
 328 0110 C0F20000 		movt	r0, #:upper16:.LC2
 329 0114 FFF7FEFF 		bl	chDbgPanic
 330              	.LVL27:
 331 0118 DAE7     		b	.L11
 332              	.LBE7:
 333              		.cfi_endproc
 334              	.LFE121:
 335              		.size	adc_lld_start, .-adc_lld_start
 336 011a 00BFAFF3 		.section	.text.adc_lld_stop,"ax",%progbits
 336      0080
 337              		.align	2
 338              		.p2align 4,,15
 339              		.global	adc_lld_stop
 340              		.thumb
ARM GAS  /tmp/cc7ioQBk.s 			page 7


 341              		.thumb_func
 342              		.type	adc_lld_stop, %function
 343              	adc_lld_stop:
 344              	.LFB122:
 345              		.loc 1 287 0
 346              		.cfi_startproc
 347              		@ args = 0, pretend = 0, frame = 0
 348              		@ frame_needed = 0, uses_anonymous_args = 0
 349              	.LVL28:
 350              		.loc 1 290 0
 351 0000 0378     		ldrb	r3, [r0]	@ zero_extendqisi2
 352 0002 022B     		cmp	r3, #2
 353              		.loc 1 287 0
 354 0004 10B5     		push	{r4, lr}
 355              		.cfi_def_cfa_offset 8
 356              		.cfi_offset 4, -8
 357              		.cfi_offset 14, -4
 358              		.loc 1 287 0
 359 0006 0446     		mov	r4, r0
 360              		.loc 1 290 0
 361 0008 00D0     		beq	.L35
 362 000a 10BD     		pop	{r4, pc}
 363              	.L35:
 364              		.loc 1 291 0
 365 000c C06A     		ldr	r0, [r0, #44]
 366              	.LVL29:
 367 000e FFF7FEFF 		bl	dmaStreamRelease
 368              	.LVL30:
 369              		.loc 1 296 0
 370 0012 40F20003 		movw	r3, #:lower16:.LANCHOR0
 371              		.loc 1 292 0
 372 0016 A26A     		ldr	r2, [r4, #40]
 373              		.loc 1 296 0
 374 0018 C0F20003 		movt	r3, #:upper16:.LANCHOR0
 375              		.loc 1 292 0
 376 001c 0021     		movs	r1, #0
 377              		.loc 1 296 0
 378 001e 9C42     		cmp	r4, r3
 379              		.loc 1 292 0
 380 0020 5160     		str	r1, [r2, #4]
 381              		.loc 1 293 0
 382 0022 9160     		str	r1, [r2, #8]
 383              		.loc 1 296 0
 384 0024 15D0     		beq	.L36
 385              		.loc 1 301 0
 386 0026 40F20003 		movw	r3, #:lower16:.LANCHOR1
 387 002a C0F20003 		movt	r3, #:upper16:.LANCHOR1
 388 002e 9C42     		cmp	r4, r3
 389 0030 18D0     		beq	.L37
 390              		.loc 1 306 0
 391 0032 40F20003 		movw	r3, #:lower16:.LANCHOR2
 392 0036 C0F20003 		movt	r3, #:upper16:.LANCHOR2
 393 003a 9C42     		cmp	r4, r3
 394              		.loc 1 307 0
 395 003c 01BF     		itttt	eq
 396 003e 4FF46053 		moveq	r3, #14336
 397 0042 C4F20203 		movteq	r3, 16386
ARM GAS  /tmp/cc7ioQBk.s 			page 8


 398 0046 5A6C     		ldreq	r2, [r3, #68]
 399 0048 22F48062 		biceq	r2, r2, #1024
 400 004c 08BF     		it	eq
 401 004e 5A64     		streq	r2, [r3, #68]
 402 0050 10BD     		pop	{r4, pc}
 403              	.LVL31:
 404              	.L36:
 405              		.loc 1 297 0
 406 0052 4FF46053 		mov	r3, #14336
 407 0056 C4F20203 		movt	r3, 16386
 408 005a 5A6C     		ldr	r2, [r3, #68]
 409 005c 22F48072 		bic	r2, r2, #256
 410 0060 5A64     		str	r2, [r3, #68]
 411 0062 10BD     		pop	{r4, pc}
 412              	.LVL32:
 413              	.L37:
 414              		.loc 1 302 0
 415 0064 4FF46053 		mov	r3, #14336
 416 0068 C4F20203 		movt	r3, 16386
 417 006c 5A6C     		ldr	r2, [r3, #68]
 418 006e 22F40072 		bic	r2, r2, #512
 419 0072 5A64     		str	r2, [r3, #68]
 420 0074 10BD     		pop	{r4, pc}
 421              		.cfi_endproc
 422              	.LFE122:
 423              		.size	adc_lld_stop, .-adc_lld_stop
 424 0076 00BFAFF3 		.section	.text.adc_lld_start_conversion,"ax",%progbits
 424      0080AFF3 
 424      0080
 425              		.align	2
 426              		.p2align 4,,15
 427              		.global	adc_lld_start_conversion
 428              		.thumb
 429              		.thumb_func
 430              		.type	adc_lld_start_conversion, %function
 431              	adc_lld_start_conversion:
 432              	.LFB123:
 433              		.loc 1 319 0
 434              		.cfi_startproc
 435              		@ args = 0, pretend = 0, frame = 0
 436              		@ frame_needed = 0, uses_anonymous_args = 0
 437              		@ link register save eliminated.
 438              	.LVL33:
 439              		.loc 1 321 0
 440 0000 0369     		ldr	r3, [r0, #16]
 441              	.LVL34:
 442              		.loc 1 324 0
 443 0002 026B     		ldr	r2, [r0, #48]
 444              	.LVL35:
 445              		.loc 1 325 0
 446 0004 1978     		ldrb	r1, [r3]	@ zero_extendqisi2
 447              		.loc 1 319 0
 448 0006 2DE9F003 		push	{r4, r5, r6, r7, r8, r9}
 449              		.cfi_def_cfa_offset 24
 450              		.cfi_offset 4, -24
 451              		.cfi_offset 5, -20
 452              		.cfi_offset 6, -16
ARM GAS  /tmp/cc7ioQBk.s 			page 9


 453              		.cfi_offset 7, -12
 454              		.cfi_offset 8, -8
 455              		.cfi_offset 9, -4
 456              		.loc 1 327 0
 457 000a C568     		ldr	r5, [r0, #12]
 458              		.loc 1 325 0
 459 000c 29B1     		cbz	r1, .L40
 460              	.LVL36:
 461              		.loc 1 327 0
 462 000e 012D     		cmp	r5, #1
 463              		.loc 1 326 0
 464 0010 94BF     		ite	ls
 465 0012 42F48072 		orrls	r2, r2, #256
 466              	.LVL37:
 467              		.loc 1 330 0
 468 0016 42F48472 		orrhi	r2, r2, #264
 469              	.LVL38:
 470              	.L40:
 471              		.loc 1 333 0
 472 001a C16A     		ldr	r1, [r0, #44]
 473              		.loc 1 334 0
 474 001c 5E88     		ldrh	r6, [r3, #2]
 475              		.loc 1 333 0
 476 001e 8468     		ldr	r4, [r0, #8]
 477 0020 0968     		ldr	r1, [r1]
 478              		.loc 1 349 0
 479 0022 D3F80C80 		ldr	r8, [r3, #12]
 480              		.loc 1 333 0
 481 0026 CC60     		str	r4, [r1, #12]
 482              		.loc 1 334 0
 483 0028 06FB05F4 		mul	r4, r6, r5
 484 002c 4C60     		str	r4, [r1, #4]
 485              		.loc 1 342 0
 486 002e 9F69     		ldr	r7, [r3, #24]
 487              		.loc 1 336 0
 488 0030 0A60     		str	r2, [r1]
 489              		.loc 1 343 0
 490 0032 DE69     		ldr	r6, [r3, #28]
 491              		.loc 1 344 0
 492 0034 1D6A     		ldr	r5, [r3, #32]
 493              		.loc 1 345 0
 494 0036 5C6A     		ldr	r4, [r3, #36]
 495              		.loc 1 341 0
 496 0038 D3F814C0 		ldr	ip, [r3, #20]
 497              		.loc 1 350 0
 498 003c 1B69     		ldr	r3, [r3, #16]
 499              	.LVL39:
 500              		.loc 1 337 0
 501 003e D1F80090 		ldr	r9, [r1]
 502              		.loc 1 340 0
 503 0042 826A     		ldr	r2, [r0, #40]
 504              	.LVL40:
 505              		.loc 1 350 0
 506 0044 13F0804F 		tst	r3, #1073741824
 507              		.loc 1 349 0
 508 0048 48F08060 		orr	r0, r8, #67108864
 509              	.LVL41:
ARM GAS  /tmp/cc7ioQBk.s 			page 10


 510              		.loc 1 352 0
 511 004c 43F44073 		orr	r3, r3, #768
 512              		.loc 1 337 0
 513 0050 49F00109 		orr	r9, r9, #1
 514              		.loc 1 340 0
 515 0054 4FF00008 		mov	r8, #0
 516              		.loc 1 349 0
 517 0058 40F48070 		orr	r0, r0, #256
 518              		.loc 1 352 0
 519 005c 14BF     		ite	ne
 520 005e 43F00303 		orrne	r3, r3, #3
 521              		.loc 1 355 0
 522 0062 43F00103 		orreq	r3, r3, #1
 523              		.loc 1 337 0
 524 0066 C1F80090 		str	r9, [r1]
 525              	.LVL42:
 526              		.loc 1 340 0
 527 006a C2F80080 		str	r8, [r2]
 528              		.loc 1 341 0
 529 006e C2F80CC0 		str	ip, [r2, #12]
 530              		.loc 1 342 0
 531 0072 1761     		str	r7, [r2, #16]
 532              		.loc 1 343 0
 533 0074 D662     		str	r6, [r2, #44]
 534              		.loc 1 344 0
 535 0076 1563     		str	r5, [r2, #48]
 536              		.loc 1 345 0
 537 0078 5463     		str	r4, [r2, #52]
 538              		.loc 1 349 0
 539 007a 5060     		str	r0, [r2, #4]
 540              		.loc 1 356 0
 541 007c BDE8F003 		pop	{r4, r5, r6, r7, r8, r9}
 542              		.loc 1 354 0
 543 0080 9360     		str	r3, [r2, #8]
 544              		.loc 1 356 0
 545 0082 7047     		bx	lr
 546              		.cfi_endproc
 547              	.LFE123:
 548              		.size	adc_lld_start_conversion, .-adc_lld_start_conversion
 549 0084 AFF30080 		.section	.text.adc_lld_stop_conversion,"ax",%progbits
 549      AFF30080 
 549      AFF30080 
 550              		.align	2
 551              		.p2align 4,,15
 552              		.global	adc_lld_stop_conversion
 553              		.thumb
 554              		.thumb_func
 555              		.type	adc_lld_stop_conversion, %function
 556              	adc_lld_stop_conversion:
 557              	.LFB124:
 558              		.loc 1 365 0
 559              		.cfi_startproc
 560              		@ args = 0, pretend = 0, frame = 0
 561              		@ frame_needed = 0, uses_anonymous_args = 0
 562              		@ link register save eliminated.
 563              	.LVL43:
 564              		.loc 1 367 0
ARM GAS  /tmp/cc7ioQBk.s 			page 11


 565 0000 C16A     		ldr	r1, [r0, #44]
 566 0002 0A68     		ldr	r2, [r1]
 567 0004 1368     		ldr	r3, [r2]
 568 0006 23F01F03 		bic	r3, r3, #31
 569              		.loc 1 365 0
 570 000a 10B4     		push	{r4}
 571              		.cfi_def_cfa_offset 4
 572              		.cfi_offset 4, -4
 573              		.loc 1 367 0
 574 000c 1360     		str	r3, [r2]
 575              	.L46:
 576              		.loc 1 367 0 is_stmt 0 discriminator 1
 577 000e 1368     		ldr	r3, [r2]
 578 0010 13F00103 		ands	r3, r3, #1
 579 0014 FBD1     		bne	.L46
 580              		.loc 1 367 0 discriminator 2
 581 0016 0C7A     		ldrb	r4, [r1, #8]	@ zero_extendqisi2
 582              		.loc 1 368 0 is_stmt 1 discriminator 2
 583 0018 826A     		ldr	r2, [r0, #40]
 584              		.loc 1 367 0 discriminator 2
 585 001a 4868     		ldr	r0, [r1, #4]
 586              	.LVL44:
 587 001c 3D21     		movs	r1, #61
 588 001e 01FA04F4 		lsl	r4, r1, r4
 589              		.loc 1 370 0 discriminator 2
 590 0022 0121     		movs	r1, #1
 591              		.loc 1 367 0 discriminator 2
 592 0024 0460     		str	r4, [r0]
 593              		.loc 1 368 0 discriminator 2
 594 0026 5360     		str	r3, [r2, #4]
 595              		.loc 1 371 0 discriminator 2
 596 0028 5DF8044B 		ldr	r4, [sp], #4
 597              		.loc 1 369 0 discriminator 2
 598 002c 9360     		str	r3, [r2, #8]
 599              		.loc 1 370 0 discriminator 2
 600 002e 9160     		str	r1, [r2, #8]
 601              		.loc 1 371 0 discriminator 2
 602 0030 7047     		bx	lr
 603              		.cfi_endproc
 604              	.LFE124:
 605              		.size	adc_lld_stop_conversion, .-adc_lld_stop_conversion
 606 0032 00BFAFF3 		.section	.text.Vector88,"ax",%progbits
 606      0080AFF3 
 606      0080AFF3 
 606      0080
 607              		.align	2
 608              		.p2align 4,,15
 609              		.global	Vector88
 610              		.thumb
 611              		.thumb_func
 612              		.type	Vector88, %function
 613              	Vector88:
 614              	.LFB119:
 615              		.loc 1 111 0
 616              		.cfi_startproc
 617              		@ args = 0, pretend = 0, frame = 0
 618              		@ frame_needed = 0, uses_anonymous_args = 0
ARM GAS  /tmp/cc7ioQBk.s 			page 12


 619 0000 10B5     		push	{r4, lr}
 620              		.cfi_def_cfa_offset 8
 621              		.cfi_offset 4, -8
 622              		.cfi_offset 14, -4
 623              		.loc 1 114 0
 624 0002 FFF7FEFF 		bl	dbg_check_enter_isr
 625              	.LVL45:
 626              		.loc 1 117 0
 627 0006 4FF40053 		mov	r3, #8192
 628 000a C4F20103 		movt	r3, 16385
 629              		.loc 1 118 0
 630 000e 0021     		movs	r1, #0
 631              		.loc 1 117 0
 632 0010 1A68     		ldr	r2, [r3]
 633              	.LVL46:
 634              		.loc 1 118 0
 635 0012 1960     		str	r1, [r3]
 636              		.loc 1 121 0
 637 0014 9106     		lsls	r1, r2, #26
 638 0016 09D5     		bpl	.L48
 639              		.loc 1 121 0 is_stmt 0 discriminator 1
 640 0018 40F20004 		movw	r4, #:lower16:.LANCHOR0
 641 001c C0F20004 		movt	r4, #:upper16:.LANCHOR0
 642 0020 E36A     		ldr	r3, [r4, #44]
 643 0022 1B68     		ldr	r3, [r3]
 644 0024 5B68     		ldr	r3, [r3, #4]
 645 0026 002B     		cmp	r3, #0
 646 0028 40F08180 		bne	.L99
 647              	.LVL47:
 648              	.L48:
 649              		.loc 1 131 0 is_stmt 1
 650 002c 4FF40453 		mov	r3, #8448
 651 0030 C4F20103 		movt	r3, 16385
 652              		.loc 1 132 0
 653 0034 0021     		movs	r1, #0
 654              		.loc 1 131 0
 655 0036 1A68     		ldr	r2, [r3]
 656              	.LVL48:
 657              		.loc 1 132 0
 658 0038 1960     		str	r1, [r3]
 659              		.loc 1 135 0
 660 003a 9206     		lsls	r2, r2, #26
 661              	.LVL49:
 662 003c 08D5     		bpl	.L53
 663              		.loc 1 135 0 is_stmt 0 discriminator 1
 664 003e 40F20004 		movw	r4, #:lower16:.LANCHOR1
 665 0042 C0F20004 		movt	r4, #:upper16:.LANCHOR1
 666 0046 E36A     		ldr	r3, [r4, #44]
 667 0048 1B68     		ldr	r3, [r3]
 668 004a 5B68     		ldr	r3, [r3, #4]
 669 004c 002B     		cmp	r3, #0
 670 004e 41D1     		bne	.L100
 671              	.L53:
 672              		.loc 1 145 0 is_stmt 1
 673 0050 4FF40853 		mov	r3, #8704
 674 0054 C4F20103 		movt	r3, 16385
 675              		.loc 1 146 0
ARM GAS  /tmp/cc7ioQBk.s 			page 13


 676 0058 0021     		movs	r1, #0
 677              		.loc 1 145 0
 678 005a 1A68     		ldr	r2, [r3]
 679              	.LVL50:
 680              		.loc 1 146 0
 681 005c 1960     		str	r1, [r3]
 682              		.loc 1 149 0
 683 005e 9306     		lsls	r3, r2, #26
 684 0060 32D5     		bpl	.L58
 685              		.loc 1 149 0 is_stmt 0 discriminator 1
 686 0062 40F20004 		movw	r4, #:lower16:.LANCHOR2
 687 0066 C0F20004 		movt	r4, #:upper16:.LANCHOR2
 688 006a E36A     		ldr	r3, [r4, #44]
 689 006c 1B68     		ldr	r3, [r3]
 690 006e 5B68     		ldr	r3, [r3, #4]
 691 0070 53B3     		cbz	r3, .L58
 692              		.loc 1 152 0 is_stmt 1
 693 0072 2369     		ldr	r3, [r4, #16]
 694 0074 43B3     		cbz	r3, .L58
 695              		.loc 1 153 0
 696 0076 2046     		mov	r0, r4
 697 0078 FFF7FEFF 		bl	adc_lld_stop_conversion
 698              	.LVL51:
 699 007c 2369     		ldr	r3, [r4, #16]
 700 007e 9B68     		ldr	r3, [r3, #8]
 701 0080 4BB1     		cbz	r3, .L60
 702              		.loc 1 153 0 is_stmt 0 discriminator 1
 703 0082 0522     		movs	r2, #5
 704 0084 2270     		strb	r2, [r4]
 705 0086 2046     		mov	r0, r4
 706 0088 0121     		movs	r1, #1
 707 008a 9847     		blx	r3
 708              	.LVL52:
 709 008c 2378     		ldrb	r3, [r4]	@ zero_extendqisi2
 710 008e 052B     		cmp	r3, #5
 711 0090 04BF     		itt	eq
 712 0092 0223     		moveq	r3, #2
 713 0094 2370     		strbeq	r3, [r4]
 714              	.L60:
 715              		.loc 1 153 0 discriminator 2
 716 0096 0023     		movs	r3, #0
 717 0098 2361     		str	r3, [r4, #16]
 718              	.LBB8:
 719 009a 2023     		movs	r3, #32
 720              	@ 153 "../../../os/hal/platforms/STM32F4xx/adc_lld.c" 1
 721 009c 83F31188 		msr     BASEPRI, r3
 722              	@ 0 "" 2
 723              		.thumb
 724              	.LBE8:
 725 00a0 FFF7FEFF 		bl	dbg_check_lock_from_isr
 726              	.LVL53:
 727 00a4 40F20003 		movw	r3, #:lower16:.LANCHOR2
 728 00a8 C0F20003 		movt	r3, #:upper16:.LANCHOR2
 729 00ac 5869     		ldr	r0, [r3, #20]
 730 00ae 30B1     		cbz	r0, .L62
 731              	.LVL54:
 732              	.LBB9:
ARM GAS  /tmp/cc7ioQBk.s 			page 14


 733              		.loc 1 153 0 discriminator 1
 734 00b0 4FF0FF32 		mov	r2, #-1
 735 00b4 8262     		str	r2, [r0, #40]
 736 00b6 0022     		movs	r2, #0
 737 00b8 5A61     		str	r2, [r3, #20]
 738 00ba FFF7FEFF 		bl	chSchReadyI
 739              	.LVL55:
 740              	.L62:
 741              	.LBE9:
 742              		.loc 1 153 0 discriminator 2
 743 00be FFF7FEFF 		bl	dbg_check_unlock_from_isr
 744              	.LVL56:
 745              	.LBB10:
 746 00c2 0023     		movs	r3, #0
 747              	@ 153 "../../../os/hal/platforms/STM32F4xx/adc_lld.c" 1
 748 00c4 83F31188 		msr     BASEPRI, r3
 749              	@ 0 "" 2
 750              		.thumb
 751              	.L58:
 752              	.LBE10:
 753              		.loc 1 158 0 is_stmt 1
 754 00c8 FFF7FEFF 		bl	dbg_check_leave_isr
 755              	.LVL57:
 756              		.loc 1 159 0
 757 00cc BDE81040 		pop	{r4, lr}
 758              		.loc 1 158 0
 759 00d0 FFF7FEBF 		b	_port_irq_epilogue
 760              	.LVL58:
 761              	.L100:
 762              		.loc 1 138 0
 763 00d4 2369     		ldr	r3, [r4, #16]
 764 00d6 002B     		cmp	r3, #0
 765 00d8 BAD0     		beq	.L53
 766              		.loc 1 139 0
 767 00da 2046     		mov	r0, r4
 768 00dc FFF7FEFF 		bl	adc_lld_stop_conversion
 769              	.LVL59:
 770 00e0 2369     		ldr	r3, [r4, #16]
 771 00e2 9B68     		ldr	r3, [r3, #8]
 772 00e4 4BB1     		cbz	r3, .L55
 773              		.loc 1 139 0 is_stmt 0 discriminator 1
 774 00e6 0522     		movs	r2, #5
 775 00e8 2270     		strb	r2, [r4]
 776 00ea 2046     		mov	r0, r4
 777 00ec 0121     		movs	r1, #1
 778 00ee 9847     		blx	r3
 779              	.LVL60:
 780 00f0 2378     		ldrb	r3, [r4]	@ zero_extendqisi2
 781 00f2 052B     		cmp	r3, #5
 782 00f4 04BF     		itt	eq
 783 00f6 0223     		moveq	r3, #2
 784 00f8 2370     		strbeq	r3, [r4]
 785              	.L55:
 786              		.loc 1 139 0 discriminator 2
 787 00fa 0023     		movs	r3, #0
 788 00fc 2361     		str	r3, [r4, #16]
 789              	.LBB11:
ARM GAS  /tmp/cc7ioQBk.s 			page 15


 790 00fe 2023     		movs	r3, #32
 791              	@ 139 "../../../os/hal/platforms/STM32F4xx/adc_lld.c" 1
 792 0100 83F31188 		msr     BASEPRI, r3
 793              	@ 0 "" 2
 794              		.thumb
 795              	.LBE11:
 796 0104 FFF7FEFF 		bl	dbg_check_lock_from_isr
 797              	.LVL61:
 798 0108 40F20003 		movw	r3, #:lower16:.LANCHOR1
 799 010c C0F20003 		movt	r3, #:upper16:.LANCHOR1
 800 0110 5869     		ldr	r0, [r3, #20]
 801 0112 30B1     		cbz	r0, .L57
 802              	.LVL62:
 803              	.LBB12:
 804              		.loc 1 139 0 discriminator 1
 805 0114 4FF0FF32 		mov	r2, #-1
 806 0118 8262     		str	r2, [r0, #40]
 807 011a 0022     		movs	r2, #0
 808 011c 5A61     		str	r2, [r3, #20]
 809 011e FFF7FEFF 		bl	chSchReadyI
 810              	.LVL63:
 811              	.L57:
 812              	.LBE12:
 813              		.loc 1 139 0 discriminator 2
 814 0122 FFF7FEFF 		bl	dbg_check_unlock_from_isr
 815              	.LVL64:
 816              	.LBB13:
 817 0126 0023     		movs	r3, #0
 818              	@ 139 "../../../os/hal/platforms/STM32F4xx/adc_lld.c" 1
 819 0128 83F31188 		msr     BASEPRI, r3
 820              	@ 0 "" 2
 821              		.thumb
 822 012c 90E7     		b	.L53
 823              	.LVL65:
 824              	.L99:
 825              	.LBE13:
 826              		.loc 1 124 0 is_stmt 1
 827 012e 2369     		ldr	r3, [r4, #16]
 828 0130 002B     		cmp	r3, #0
 829 0132 3FF47BAF 		beq	.L48
 830              		.loc 1 125 0
 831 0136 2046     		mov	r0, r4
 832 0138 FFF7FEFF 		bl	adc_lld_stop_conversion
 833              	.LVL66:
 834 013c 2369     		ldr	r3, [r4, #16]
 835 013e 9B68     		ldr	r3, [r3, #8]
 836 0140 4BB1     		cbz	r3, .L50
 837              		.loc 1 125 0 is_stmt 0 discriminator 1
 838 0142 0522     		movs	r2, #5
 839 0144 2270     		strb	r2, [r4]
 840 0146 2046     		mov	r0, r4
 841 0148 0121     		movs	r1, #1
 842 014a 9847     		blx	r3
 843              	.LVL67:
 844 014c 2378     		ldrb	r3, [r4]	@ zero_extendqisi2
 845 014e 052B     		cmp	r3, #5
 846 0150 04BF     		itt	eq
ARM GAS  /tmp/cc7ioQBk.s 			page 16


 847 0152 0223     		moveq	r3, #2
 848 0154 2370     		strbeq	r3, [r4]
 849              	.L50:
 850              		.loc 1 125 0 discriminator 2
 851 0156 0023     		movs	r3, #0
 852 0158 2361     		str	r3, [r4, #16]
 853              	.LBB14:
 854 015a 2023     		movs	r3, #32
 855              	@ 125 "../../../os/hal/platforms/STM32F4xx/adc_lld.c" 1
 856 015c 83F31188 		msr     BASEPRI, r3
 857              	@ 0 "" 2
 858              		.thumb
 859              	.LBE14:
 860 0160 FFF7FEFF 		bl	dbg_check_lock_from_isr
 861              	.LVL68:
 862 0164 40F20003 		movw	r3, #:lower16:.LANCHOR0
 863 0168 C0F20003 		movt	r3, #:upper16:.LANCHOR0
 864 016c 5869     		ldr	r0, [r3, #20]
 865 016e 30B1     		cbz	r0, .L52
 866              	.LVL69:
 867              	.LBB15:
 868              		.loc 1 125 0 discriminator 1
 869 0170 4FF0FF32 		mov	r2, #-1
 870 0174 8262     		str	r2, [r0, #40]
 871 0176 0022     		movs	r2, #0
 872 0178 5A61     		str	r2, [r3, #20]
 873 017a FFF7FEFF 		bl	chSchReadyI
 874              	.LVL70:
 875              	.L52:
 876              	.LBE15:
 877              		.loc 1 125 0 discriminator 2
 878 017e FFF7FEFF 		bl	dbg_check_unlock_from_isr
 879              	.LVL71:
 880              	.LBB16:
 881 0182 0023     		movs	r3, #0
 882              	@ 125 "../../../os/hal/platforms/STM32F4xx/adc_lld.c" 1
 883 0184 83F31188 		msr     BASEPRI, r3
 884              	@ 0 "" 2
 885              		.thumb
 886 0188 50E7     		b	.L48
 887              	.LBE16:
 888              		.cfi_endproc
 889              	.LFE119:
 890              		.size	Vector88, .-Vector88
 891 018a 00BFAFF3 		.section	.text.adc_lld_serve_rx_interrupt,"ax",%progbits
 891      0080
 892              		.align	2
 893              		.p2align 4,,15
 894              		.thumb
 895              		.thumb_func
 896              		.type	adc_lld_serve_rx_interrupt, %function
 897              	adc_lld_serve_rx_interrupt:
 898              	.LFB118:
 899              		.loc 1 76 0 is_stmt 1
 900              		.cfi_startproc
 901              		@ args = 0, pretend = 0, frame = 0
 902              		@ frame_needed = 0, uses_anonymous_args = 0
ARM GAS  /tmp/cc7ioQBk.s 			page 17


 903              	.LVL72:
 904              		.loc 1 79 0
 905 0000 11F00C0F 		tst	r1, #12
 906              		.loc 1 76 0
 907 0004 38B5     		push	{r3, r4, r5, lr}
 908              		.cfi_def_cfa_offset 16
 909              		.cfi_offset 3, -16
 910              		.cfi_offset 4, -12
 911              		.cfi_offset 5, -8
 912              		.cfi_offset 14, -4
 913              		.loc 1 76 0
 914 0006 0446     		mov	r4, r0
 915              		.loc 1 79 0
 916 0008 1ED1     		bne	.L132
 917              		.loc 1 87 0
 918 000a 0369     		ldr	r3, [r0, #16]
 919 000c DBB1     		cbz	r3, .L101
 920              		.loc 1 88 0
 921 000e 8A06     		lsls	r2, r1, #26
 922 0010 11D5     		bpl	.L108
 923              		.loc 1 90 0
 924 0012 1D78     		ldrb	r5, [r3]	@ zero_extendqisi2
 925 0014 002D     		cmp	r5, #0
 926 0016 3DD0     		beq	.L109
 927              		.loc 1 90 0 is_stmt 0 discriminator 1
 928 0018 5D68     		ldr	r5, [r3, #4]
 929 001a A5B1     		cbz	r5, .L101
 930 001c C268     		ldr	r2, [r0, #12]
 931 001e 012A     		cmp	r2, #1
 932              	.LBB17:
 933 0020 85BF     		ittet	hi
 934 0022 5988     		ldrhhi	r1, [r3, #2]
 935              	.LVL73:
 936 0024 8368     		ldrhi	r3, [r0, #8]
 937              	.LBE17:
 938 0026 8168     		ldrls	r1, [r0, #8]
 939              	.LBB18:
 940 0028 5208     		lsrhi	r2, r2, #1
 941              	.LVL74:
 942 002a 84BF     		itt	hi
 943 002c 5143     		mulhi	r1, r1, r2
 944 002e 03EB4101 		addhi	r1, r3, r1, lsl #1
 945              	.LBE18:
 946 0032 A847     		blx	r5
 947              	.LVL75:
 948 0034 38BD     		pop	{r3, r4, r5, pc}
 949              	.LVL76:
 950              	.L108:
 951              		.loc 1 92 0 is_stmt 1
 952 0036 CD06     		lsls	r5, r1, #27
 953 0038 05D5     		bpl	.L101
 954              		.loc 1 94 0
 955 003a 5B68     		ldr	r3, [r3, #4]
 956 003c 1BB1     		cbz	r3, .L101
 957              		.loc 1 94 0 is_stmt 0 discriminator 1
 958 003e C268     		ldr	r2, [r0, #12]
 959 0040 8168     		ldr	r1, [r0, #8]
ARM GAS  /tmp/cc7ioQBk.s 			page 18


 960              	.LVL77:
 961 0042 5208     		lsrs	r2, r2, #1
 962 0044 9847     		blx	r3
 963              	.LVL78:
 964              	.L101:
 965 0046 38BD     		pop	{r3, r4, r5, pc}
 966              	.LVL79:
 967              	.L132:
 968              		.loc 1 82 0 is_stmt 1
 969 0048 FFF7FEFF 		bl	adc_lld_stop_conversion
 970              	.LVL80:
 971 004c 2369     		ldr	r3, [r4, #16]
 972 004e 9B68     		ldr	r3, [r3, #8]
 973 0050 4BB1     		cbz	r3, .L104
 974              		.loc 1 82 0 is_stmt 0 discriminator 1
 975 0052 0522     		movs	r2, #5
 976 0054 2270     		strb	r2, [r4]
 977 0056 2046     		mov	r0, r4
 978 0058 0021     		movs	r1, #0
 979 005a 9847     		blx	r3
 980              	.LVL81:
 981 005c 2378     		ldrb	r3, [r4]	@ zero_extendqisi2
 982 005e 052B     		cmp	r3, #5
 983 0060 04BF     		itt	eq
 984 0062 0223     		moveq	r3, #2
 985 0064 2370     		strbeq	r3, [r4]
 986              	.L104:
 987              		.loc 1 82 0 discriminator 2
 988 0066 0023     		movs	r3, #0
 989 0068 2361     		str	r3, [r4, #16]
 990              	.LBB19:
 991 006a 2023     		movs	r3, #32
 992              	@ 82 "../../../os/hal/platforms/STM32F4xx/adc_lld.c" 1
 993 006c 83F31188 		msr     BASEPRI, r3
 994              	@ 0 "" 2
 995              		.thumb
 996              	.LBE19:
 997 0070 FFF7FEFF 		bl	dbg_check_lock_from_isr
 998              	.LVL82:
 999 0074 6369     		ldr	r3, [r4, #20]
 1000 0076 3BB1     		cbz	r3, .L113
 1001              	.LVL83:
 1002              	.LBB20:
 1003              		.loc 1 82 0 discriminator 1
 1004 0078 0021     		movs	r1, #0
 1005 007a 4FF0FF32 		mov	r2, #-1
 1006 007e 6161     		str	r1, [r4, #20]
 1007 0080 1846     		mov	r0, r3
 1008 0082 9A62     		str	r2, [r3, #40]
 1009 0084 FFF7FEFF 		bl	chSchReadyI
 1010              	.LVL84:
 1011              	.L113:
 1012              	.LBE20:
 1013              		.loc 1 90 0 is_stmt 1 discriminator 2
 1014 0088 FFF7FEFF 		bl	dbg_check_unlock_from_isr
 1015              	.LVL85:
 1016              	.LBB21:
ARM GAS  /tmp/cc7ioQBk.s 			page 19


 1017 008c 0023     		movs	r3, #0
 1018              	@ 90 "../../../os/hal/platforms/STM32F4xx/adc_lld.c" 1
 1019 008e 83F31188 		msr     BASEPRI, r3
 1020              	@ 0 "" 2
 1021              		.thumb
 1022 0092 38BD     		pop	{r3, r4, r5, pc}
 1023              	.LVL86:
 1024              	.L109:
 1025              	.LBE21:
 1026 0094 FFF7FEFF 		bl	adc_lld_stop_conversion
 1027              	.LVL87:
 1028 0098 2369     		ldr	r3, [r4, #16]
 1029 009a 5B68     		ldr	r3, [r3, #4]
 1030 009c D3B1     		cbz	r3, .L111
 1031              		.loc 1 90 0 is_stmt 0 discriminator 1
 1032 009e 0422     		movs	r2, #4
 1033 00a0 2270     		strb	r2, [r4]
 1034 00a2 2046     		mov	r0, r4
 1035 00a4 A168     		ldr	r1, [r4, #8]
 1036 00a6 E268     		ldr	r2, [r4, #12]
 1037 00a8 9847     		blx	r3
 1038              	.LVL88:
 1039 00aa 2378     		ldrb	r3, [r4]	@ zero_extendqisi2
 1040 00ac 042B     		cmp	r3, #4
 1041 00ae 02BF     		ittt	eq
 1042 00b0 0223     		moveq	r3, #2
 1043 00b2 2561     		streq	r5, [r4, #16]
 1044 00b4 2370     		strbeq	r3, [r4]
 1045              	.L112:
 1046              	.LBB22:
 1047 00b6 2023     		movs	r3, #32
 1048              	@ 90 "../../../os/hal/platforms/STM32F4xx/adc_lld.c" 1
 1049 00b8 83F31188 		msr     BASEPRI, r3
 1050              	@ 0 "" 2
 1051              		.thumb
 1052              	.LBE22:
 1053 00bc FFF7FEFF 		bl	dbg_check_lock_from_isr
 1054              	.LVL89:
 1055 00c0 6369     		ldr	r3, [r4, #20]
 1056 00c2 002B     		cmp	r3, #0
 1057 00c4 E0D0     		beq	.L113
 1058              	.LVL90:
 1059              	.LBB23:
 1060 00c6 0022     		movs	r2, #0
 1061 00c8 6261     		str	r2, [r4, #20]
 1062 00ca 1846     		mov	r0, r3
 1063 00cc 9A62     		str	r2, [r3, #40]
 1064 00ce FFF7FEFF 		bl	chSchReadyI
 1065              	.LVL91:
 1066 00d2 D9E7     		b	.L113
 1067              	.L111:
 1068              	.LBE23:
 1069              		.loc 1 90 0 discriminator 2
 1070 00d4 0222     		movs	r2, #2
 1071 00d6 2361     		str	r3, [r4, #16]
 1072 00d8 2270     		strb	r2, [r4]
 1073 00da ECE7     		b	.L112
ARM GAS  /tmp/cc7ioQBk.s 			page 20


 1074              		.cfi_endproc
 1075              	.LFE118:
 1076              		.size	adc_lld_serve_rx_interrupt, .-adc_lld_serve_rx_interrupt
 1077 00dc AFF30080 		.section	.text.adcSTM32EnableTSVREFE,"ax",%progbits
 1078              		.align	2
 1079              		.p2align 4,,15
 1080              		.global	adcSTM32EnableTSVREFE
 1081              		.thumb
 1082              		.thumb_func
 1083              		.type	adcSTM32EnableTSVREFE, %function
 1084              	adcSTM32EnableTSVREFE:
 1085              	.LFB125:
 1086              		.loc 1 379 0 is_stmt 1
 1087              		.cfi_startproc
 1088              		@ args = 0, pretend = 0, frame = 0
 1089              		@ frame_needed = 0, uses_anonymous_args = 0
 1090              		@ link register save eliminated.
 1091              		.loc 1 381 0
 1092 0000 4FF40C53 		mov	r3, #8960
 1093 0004 C4F20103 		movt	r3, 16385
 1094 0008 5A68     		ldr	r2, [r3, #4]
 1095 000a 42F40002 		orr	r2, r2, #8388608
 1096 000e 5A60     		str	r2, [r3, #4]
 1097 0010 7047     		bx	lr
 1098              		.cfi_endproc
 1099              	.LFE125:
 1100              		.size	adcSTM32EnableTSVREFE, .-adcSTM32EnableTSVREFE
 1101 0012 00BFAFF3 		.section	.text.adcSTM32DisableTSVREFE,"ax",%progbits
 1101      0080AFF3 
 1101      0080AFF3 
 1101      0080
 1102              		.align	2
 1103              		.p2align 4,,15
 1104              		.global	adcSTM32DisableTSVREFE
 1105              		.thumb
 1106              		.thumb_func
 1107              		.type	adcSTM32DisableTSVREFE, %function
 1108              	adcSTM32DisableTSVREFE:
 1109              	.LFB126:
 1110              		.loc 1 390 0
 1111              		.cfi_startproc
 1112              		@ args = 0, pretend = 0, frame = 0
 1113              		@ frame_needed = 0, uses_anonymous_args = 0
 1114              		@ link register save eliminated.
 1115              		.loc 1 392 0
 1116 0000 4FF40C53 		mov	r3, #8960
 1117 0004 C4F20103 		movt	r3, 16385
 1118 0008 5A68     		ldr	r2, [r3, #4]
 1119 000a 22F40002 		bic	r2, r2, #8388608
 1120 000e 5A60     		str	r2, [r3, #4]
 1121 0010 7047     		bx	lr
 1122              		.cfi_endproc
 1123              	.LFE126:
 1124              		.size	adcSTM32DisableTSVREFE, .-adcSTM32DisableTSVREFE
 1125 0012 00BFAFF3 		.section	.text.adcSTM32EnableVBATE,"ax",%progbits
 1125      0080AFF3 
 1125      0080AFF3 
ARM GAS  /tmp/cc7ioQBk.s 			page 21


 1125      0080
 1126              		.align	2
 1127              		.p2align 4,,15
 1128              		.global	adcSTM32EnableVBATE
 1129              		.thumb
 1130              		.thumb_func
 1131              		.type	adcSTM32EnableVBATE, %function
 1132              	adcSTM32EnableVBATE:
 1133              	.LFB127:
 1134              		.loc 1 401 0
 1135              		.cfi_startproc
 1136              		@ args = 0, pretend = 0, frame = 0
 1137              		@ frame_needed = 0, uses_anonymous_args = 0
 1138              		@ link register save eliminated.
 1139              		.loc 1 403 0
 1140 0000 4FF40C53 		mov	r3, #8960
 1141 0004 C4F20103 		movt	r3, 16385
 1142 0008 5A68     		ldr	r2, [r3, #4]
 1143 000a 42F48002 		orr	r2, r2, #4194304
 1144 000e 5A60     		str	r2, [r3, #4]
 1145 0010 7047     		bx	lr
 1146              		.cfi_endproc
 1147              	.LFE127:
 1148              		.size	adcSTM32EnableVBATE, .-adcSTM32EnableVBATE
 1149 0012 00BFAFF3 		.section	.text.adcSTM32DisableVBATE,"ax",%progbits
 1149      0080AFF3 
 1149      0080AFF3 
 1149      0080
 1150              		.align	2
 1151              		.p2align 4,,15
 1152              		.global	adcSTM32DisableVBATE
 1153              		.thumb
 1154              		.thumb_func
 1155              		.type	adcSTM32DisableVBATE, %function
 1156              	adcSTM32DisableVBATE:
 1157              	.LFB128:
 1158              		.loc 1 412 0
 1159              		.cfi_startproc
 1160              		@ args = 0, pretend = 0, frame = 0
 1161              		@ frame_needed = 0, uses_anonymous_args = 0
 1162              		@ link register save eliminated.
 1163              		.loc 1 414 0
 1164 0000 4FF40C53 		mov	r3, #8960
 1165 0004 C4F20103 		movt	r3, 16385
 1166 0008 5A68     		ldr	r2, [r3, #4]
 1167 000a 22F48002 		bic	r2, r2, #4194304
 1168 000e 5A60     		str	r2, [r3, #4]
 1169 0010 7047     		bx	lr
 1170              		.cfi_endproc
 1171              	.LFE128:
 1172              		.size	adcSTM32DisableVBATE, .-adcSTM32DisableVBATE
 1173              		.global	ADCD3
 1174              		.global	ADCD2
 1175              		.global	ADCD1
 1176 0012 00BFAFF3 		.section	.bss.ADCD1,"aw",%nobits
 1176      0080AFF3 
 1176      0080AFF3 
ARM GAS  /tmp/cc7ioQBk.s 			page 22


 1176      0080
 1177              		.align	2
 1178              		.set	.LANCHOR0,. + 0
 1179              		.type	ADCD1, %object
 1180              		.size	ADCD1, 52
 1181              	ADCD1:
 1182 0000 00000000 		.space	52
 1182      00000000 
 1182      00000000 
 1182      00000000 
 1182      00000000 
 1183              		.section	.bss.ADCD2,"aw",%nobits
 1184              		.align	2
 1185              		.set	.LANCHOR1,. + 0
 1186              		.type	ADCD2, %object
 1187              		.size	ADCD2, 52
 1188              	ADCD2:
 1189 0000 00000000 		.space	52
 1189      00000000 
 1189      00000000 
 1189      00000000 
 1189      00000000 
 1190              		.section	.bss.ADCD3,"aw",%nobits
 1191              		.align	2
 1192              		.set	.LANCHOR2,. + 0
 1193              		.type	ADCD3, %object
 1194              		.size	ADCD3, 52
 1195              	ADCD3:
 1196 0000 00000000 		.space	52
 1196      00000000 
 1196      00000000 
 1196      00000000 
 1196      00000000 
 1197              		.section	.rodata.str1.4,"aMS",%progbits,1
 1198              		.align	2
 1199              	.LC0:
 1200 0000 6164635F 		.ascii	"adc_lld_start(), #1\000"
 1200      6C6C645F 
 1200      73746172 
 1200      7428292C 
 1200      20233100 
 1201              	.LC1:
 1202 0014 6164635F 		.ascii	"adc_lld_start(), #2\000"
 1202      6C6C645F 
 1202      73746172 
 1202      7428292C 
 1202      20233200 
 1203              	.LC2:
 1204 0028 6164635F 		.ascii	"adc_lld_start(), #3\000"
 1204      6C6C645F 
 1204      73746172 
 1204      7428292C 
 1204      20233300 
 1205              		.text
 1206              	.Letext0:
 1207              		.file 2 "/usr/lib/gcc/arm-none-eabi/4.8.2/include/stddef.h"
 1208              		.file 3 "/usr/include/newlib/machine/_default_types.h"
ARM GAS  /tmp/cc7ioQBk.s 			page 23


 1209              		.file 4 "/usr/include/newlib/stdint.h"
 1210              		.file 5 "../../../os/ports/GCC/ARMCMx/chtypes.h"
 1211              		.file 6 "../../../os/kernel/include/chlists.h"
 1212              		.file 7 "../../../os/kernel/include/chthreads.h"
 1213              		.file 8 "../../../os/ports/GCC/ARMCMx/chcore_v7m.h"
 1214              		.file 9 "../../../os/kernel/include/chmtx.h"
 1215              		.file 10 "../../../os/hal/platforms/STM32F4xx/stm32f4xx.h"
 1216              		.file 11 "../../../os/hal/platforms/STM32F4xx/stm32_dma.h"
 1217              		.file 12 "../../../os/hal/include/adc.h"
 1218              		.file 13 "../../../os/hal/platforms/STM32F4xx/adc_lld.h"
 1219              		.file 14 "../../../os/ports/common/ARMCMx/CMSIS/include/core_cm4.h"
 1220              		.file 15 "../../../os/ports/common/ARMCMx/nvic.h"
 1221              		.file 16 "../../../os/kernel/include/chdebug.h"
 1222              		.file 17 "../../../os/kernel/include/chschd.h"