ARM GAS  /tmp/ccFM3XU1.s 			page 1


   1              		.syntax unified
   2              		.cpu cortex-m4
   3              		.fpu softvfp
   4              		.eabi_attribute 20, 1
   5              		.eabi_attribute 21, 1
   6              		.eabi_attribute 23, 3
   7              		.eabi_attribute 24, 1
   8              		.eabi_attribute 25, 1
   9              		.eabi_attribute 26, 1
  10              		.eabi_attribute 30, 2
  11              		.eabi_attribute 34, 1
  12              		.eabi_attribute 18, 4
  13              		.thumb
  14              		.file	"chcond.c"
  15              		.text
  16              	.Ltext0:
  17              		.cfi_sections	.debug_frame
  18              		.section	.text.chCondInit,"ax",%progbits
  19              		.align	2
  20              		.p2align 4,,15
  21              		.global	chCondInit
  22              		.thumb
  23              		.thumb_func
  24              		.type	chCondInit, %function
  25              	chCondInit:
  26              	.LFB7:
  27              		.file 1 "../../../os/kernel/src/chcond.c"
  28              		.loc 1 59 0
  29              		.cfi_startproc
  30              		@ args = 0, pretend = 0, frame = 0
  31              		@ frame_needed = 0, uses_anonymous_args = 0
  32              	.LVL0:
  33 0000 10B5     		push	{r4, lr}
  34              		.cfi_def_cfa_offset 8
  35              		.cfi_offset 4, -8
  36              		.cfi_offset 14, -4
  37              		.loc 1 61 0
  38 0002 0446     		mov	r4, r0
  39 0004 10B1     		cbz	r0, .L4
  40              		.loc 1 63 0
  41 0006 6460     		str	r4, [r4, #4]
  42 0008 2460     		str	r4, [r4]
  43 000a 10BD     		pop	{r4, pc}
  44              	.L4:
  45              		.loc 1 61 0 discriminator 1
  46 000c 40F20000 		movw	r0, #:lower16:.LC0
  47              	.LVL1:
  48 0010 C0F20000 		movt	r0, #:upper16:.LC0
  49 0014 FFF7FEFF 		bl	chDbgPanic
  50              	.LVL2:
  51              		.loc 1 63 0 discriminator 1
  52 0018 6460     		str	r4, [r4, #4]
  53 001a 2460     		str	r4, [r4]
  54 001c 10BD     		pop	{r4, pc}
  55              		.cfi_endproc
  56              	.LFE7:
  57              		.size	chCondInit, .-chCondInit
ARM GAS  /tmp/ccFM3XU1.s 			page 2


  58 001e 00BF     		.section	.text.chCondSignal,"ax",%progbits
  59              		.align	2
  60              		.p2align 4,,15
  61              		.global	chCondSignal
  62              		.thumb
  63              		.thumb_func
  64              		.type	chCondSignal, %function
  65              	chCondSignal:
  66              	.LFB8:
  67              		.loc 1 73 0
  68              		.cfi_startproc
  69              		@ args = 0, pretend = 0, frame = 0
  70              		@ frame_needed = 0, uses_anonymous_args = 0
  71              	.LVL3:
  72 0000 10B5     		push	{r4, lr}
  73              		.cfi_def_cfa_offset 8
  74              		.cfi_offset 4, -8
  75              		.cfi_offset 14, -4
  76              		.loc 1 75 0
  77 0002 0446     		mov	r4, r0
  78 0004 98B1     		cbz	r0, .L8
  79              	.LVL4:
  80              	.L6:
  81              	.LBB14:
  82              		.loc 1 77 0
  83 0006 2023     		movs	r3, #32
  84              	@ 77 "../../../os/kernel/src/chcond.c" 1
  85 0008 83F31188 		msr     BASEPRI, r3
  86              	@ 0 "" 2
  87              		.thumb
  88              	.LBE14:
  89 000c FFF7FEFF 		bl	dbg_check_lock
  90              	.LVL5:
  91              		.loc 1 78 0
  92 0010 2068     		ldr	r0, [r4]
  93 0012 A042     		cmp	r0, r4
  94 0014 05D0     		beq	.L7
  95              	.LVL6:
  96              	.LBB15:
  97              	.LBB16:
  98              		.file 2 "../../../os/kernel/include/chinline.h"
  99              		.loc 2 62 0
 100 0016 0368     		ldr	r3, [r0]
 101              	.LBE16:
 102              	.LBE15:
 103              		.loc 1 79 0
 104 0018 0021     		movs	r1, #0
 105              	.LBB18:
 106              	.LBB17:
 107              		.loc 2 62 0
 108 001a 2360     		str	r3, [r4]
 109 001c 5C60     		str	r4, [r3, #4]
 110              	.LBE17:
 111              	.LBE18:
 112              		.loc 1 79 0
 113 001e FFF7FEFF 		bl	chSchWakeupS
 114              	.LVL7:
ARM GAS  /tmp/ccFM3XU1.s 			page 3


 115              	.L7:
 116              		.loc 1 80 0
 117 0022 FFF7FEFF 		bl	dbg_check_unlock
 118              	.LVL8:
 119              	.LBB19:
 120 0026 0023     		movs	r3, #0
 121              	@ 80 "../../../os/kernel/src/chcond.c" 1
 122 0028 83F31188 		msr     BASEPRI, r3
 123              	@ 0 "" 2
 124              		.thumb
 125 002c 10BD     		pop	{r4, pc}
 126              	.LVL9:
 127              	.L8:
 128              	.LBE19:
 129              		.loc 1 75 0 discriminator 1
 130 002e 40F20000 		movw	r0, #:lower16:.LC1
 131              	.LVL10:
 132 0032 C0F20000 		movt	r0, #:upper16:.LC1
 133 0036 FFF7FEFF 		bl	chDbgPanic
 134              	.LVL11:
 135 003a E4E7     		b	.L6
 136              		.cfi_endproc
 137              	.LFE8:
 138              		.size	chCondSignal, .-chCondSignal
 139 003c AFF30080 		.section	.text.chCondSignalI,"ax",%progbits
 140              		.align	2
 141              		.p2align 4,,15
 142              		.global	chCondSignalI
 143              		.thumb
 144              		.thumb_func
 145              		.type	chCondSignalI, %function
 146              	chCondSignalI:
 147              	.LFB9:
 148              		.loc 1 94 0
 149              		.cfi_startproc
 150              		@ args = 0, pretend = 0, frame = 0
 151              		@ frame_needed = 0, uses_anonymous_args = 0
 152              	.LVL12:
 153 0000 10B5     		push	{r4, lr}
 154              		.cfi_def_cfa_offset 8
 155              		.cfi_offset 4, -8
 156              		.cfi_offset 14, -4
 157              		.loc 1 94 0
 158 0002 0446     		mov	r4, r0
 159              		.loc 1 96 0
 160 0004 FFF7FEFF 		bl	chDbgCheckClassI
 161              	.LVL13:
 162              		.loc 1 97 0
 163 0008 54B1     		cbz	r4, .L12
 164              	.L10:
 165              		.loc 1 99 0
 166 000a 2068     		ldr	r0, [r4]
 167 000c A042     		cmp	r0, r4
 168 000e 06D0     		beq	.L9
 169              	.LVL14:
 170              	.LBB20:
 171              	.LBB21:
ARM GAS  /tmp/ccFM3XU1.s 			page 4


 172              		.loc 2 62 0
 173 0010 0368     		ldr	r3, [r0]
 174 0012 2360     		str	r3, [r4]
 175 0014 5C60     		str	r4, [r3, #4]
 176              	.LBE21:
 177              	.LBE20:
 178              		.loc 1 100 0
 179 0016 FFF7FEFF 		bl	chSchReadyI
 180              	.LVL15:
 181 001a 0023     		movs	r3, #0
 182 001c 8362     		str	r3, [r0, #40]
 183              	.LVL16:
 184              	.L9:
 185 001e 10BD     		pop	{r4, pc}
 186              	.LVL17:
 187              	.L12:
 188              		.loc 1 97 0 discriminator 1
 189 0020 40F20000 		movw	r0, #:lower16:.LC2
 190 0024 C0F20000 		movt	r0, #:upper16:.LC2
 191 0028 FFF7FEFF 		bl	chDbgPanic
 192              	.LVL18:
 193 002c EDE7     		b	.L10
 194              		.cfi_endproc
 195              	.LFE9:
 196              		.size	chCondSignalI, .-chCondSignalI
 197 002e 00BF     		.section	.text.chCondBroadcastI,"ax",%progbits
 198              		.align	2
 199              		.p2align 4,,15
 200              		.global	chCondBroadcastI
 201              		.thumb
 202              		.thumb_func
 203              		.type	chCondBroadcastI, %function
 204              	chCondBroadcastI:
 205              	.LFB11:
 206              		.loc 1 129 0
 207              		.cfi_startproc
 208              		@ args = 0, pretend = 0, frame = 0
 209              		@ frame_needed = 0, uses_anonymous_args = 0
 210              	.LVL19:
 211 0000 38B5     		push	{r3, r4, r5, lr}
 212              		.cfi_def_cfa_offset 16
 213              		.cfi_offset 3, -16
 214              		.cfi_offset 4, -12
 215              		.cfi_offset 5, -8
 216              		.cfi_offset 14, -4
 217              		.loc 1 129 0
 218 0002 0446     		mov	r4, r0
 219              		.loc 1 131 0
 220 0004 FFF7FEFF 		bl	chDbgCheckClassI
 221              	.LVL20:
 222              		.loc 1 132 0
 223 0008 74B1     		cbz	r4, .L18
 224              	.L14:
 225              		.loc 1 137 0 discriminator 1
 226 000a 2068     		ldr	r0, [r4]
 227 000c A042     		cmp	r0, r4
 228 000e 0AD0     		beq	.L13
ARM GAS  /tmp/ccFM3XU1.s 			page 5


 229              		.loc 1 138 0
 230 0010 6FF00105 		mvn	r5, #1
 231              	.L17:
 232              	.LVL21:
 233              	.LBB22:
 234              	.LBB23:
 235              		.loc 2 62 0
 236 0014 0368     		ldr	r3, [r0]
 237 0016 2360     		str	r3, [r4]
 238 0018 5C60     		str	r4, [r3, #4]
 239              	.LBE23:
 240              	.LBE22:
 241              		.loc 1 138 0
 242 001a FFF7FEFF 		bl	chSchReadyI
 243              	.LVL22:
 244 001e 8562     		str	r5, [r0, #40]
 245              		.loc 1 137 0
 246 0020 2068     		ldr	r0, [r4]
 247 0022 A042     		cmp	r0, r4
 248 0024 F6D1     		bne	.L17
 249              	.LVL23:
 250              	.L13:
 251 0026 38BD     		pop	{r3, r4, r5, pc}
 252              	.LVL24:
 253              	.L18:
 254              		.loc 1 132 0 discriminator 1
 255 0028 40F20000 		movw	r0, #:lower16:.LC3
 256 002c C0F20000 		movt	r0, #:upper16:.LC3
 257 0030 FFF7FEFF 		bl	chDbgPanic
 258              	.LVL25:
 259 0034 E9E7     		b	.L14
 260              		.cfi_endproc
 261              	.LFE11:
 262              		.size	chCondBroadcastI, .-chCondBroadcastI
 263 0036 00BFAFF3 		.section	.text.chCondBroadcast,"ax",%progbits
 263      0080AFF3 
 263      0080
 264              		.align	2
 265              		.p2align 4,,15
 266              		.global	chCondBroadcast
 267              		.thumb
 268              		.thumb_func
 269              		.type	chCondBroadcast, %function
 270              	chCondBroadcast:
 271              	.LFB10:
 272              		.loc 1 110 0
 273              		.cfi_startproc
 274              		@ args = 0, pretend = 0, frame = 0
 275              		@ frame_needed = 0, uses_anonymous_args = 0
 276              	.LVL26:
 277 0000 10B5     		push	{r4, lr}
 278              		.cfi_def_cfa_offset 8
 279              		.cfi_offset 4, -8
 280              		.cfi_offset 14, -4
 281              	.LBB24:
 282              		.loc 1 112 0
 283 0002 2023     		movs	r3, #32
ARM GAS  /tmp/ccFM3XU1.s 			page 6


 284              	.LBE24:
 285              		.loc 1 110 0
 286 0004 0446     		mov	r4, r0
 287              	.LBB25:
 288              		.loc 1 112 0
 289              	@ 112 "../../../os/kernel/src/chcond.c" 1
 290 0006 83F31188 		msr     BASEPRI, r3
 291              	@ 0 "" 2
 292              		.thumb
 293              	.LBE25:
 294 000a FFF7FEFF 		bl	dbg_check_lock
 295              	.LVL27:
 296              		.loc 1 113 0
 297 000e 2046     		mov	r0, r4
 298 0010 FFF7FEFF 		bl	chCondBroadcastI
 299              	.LVL28:
 300              		.loc 1 114 0
 301 0014 FFF7FEFF 		bl	chSchRescheduleS
 302              	.LVL29:
 303              		.loc 1 115 0
 304 0018 FFF7FEFF 		bl	dbg_check_unlock
 305              	.LVL30:
 306              	.LBB26:
 307 001c 0023     		movs	r3, #0
 308              	@ 115 "../../../os/kernel/src/chcond.c" 1
 309 001e 83F31188 		msr     BASEPRI, r3
 310              	@ 0 "" 2
 311              		.thumb
 312 0022 10BD     		pop	{r4, pc}
 313              	.LBE26:
 314              		.cfi_endproc
 315              	.LFE10:
 316              		.size	chCondBroadcast, .-chCondBroadcast
 317 0024 AFF30080 		.section	.text.chCondWaitS,"ax",%progbits
 317      AFF30080 
 317      AFF30080 
 318              		.align	2
 319              		.p2align 4,,15
 320              		.global	chCondWaitS
 321              		.thumb
 322              		.thumb_func
 323              		.type	chCondWaitS, %function
 324              	chCondWaitS:
 325              	.LFB13:
 326              		.loc 1 184 0
 327              		.cfi_startproc
 328              		@ args = 0, pretend = 0, frame = 0
 329              		@ frame_needed = 0, uses_anonymous_args = 0
 330              	.LVL31:
 331              		.loc 1 185 0
 332 0000 40F20003 		movw	r3, #:lower16:rlist
 333 0004 C0F20003 		movt	r3, #:upper16:rlist
 334              		.loc 1 184 0
 335 0008 70B5     		push	{r4, r5, r6, lr}
 336              		.cfi_def_cfa_offset 16
 337              		.cfi_offset 4, -16
 338              		.cfi_offset 5, -12
ARM GAS  /tmp/ccFM3XU1.s 			page 7


 339              		.cfi_offset 6, -8
 340              		.cfi_offset 14, -4
 341              		.loc 1 184 0
 342 000a 0546     		mov	r5, r0
 343              		.loc 1 185 0
 344 000c 9C69     		ldr	r4, [r3, #24]
 345              	.LVL32:
 346              		.loc 1 189 0
 347 000e FFF7FEFF 		bl	chDbgCheckClassS
 348              	.LVL33:
 349              		.loc 1 190 0
 350 0012 E5B1     		cbz	r5, .L27
 351              	.L21:
 352              		.loc 1 191 0
 353 0014 236C     		ldr	r3, [r4, #64]
 354 0016 0BB3     		cbz	r3, .L28
 355              	.L22:
 356              		.loc 1 195 0
 357 0018 FFF7FEFF 		bl	chMtxUnlockS
 358              	.LVL34:
 359              		.loc 1 196 0
 360 001c A562     		str	r5, [r4, #40]
 361              		.loc 1 195 0
 362 001e 0646     		mov	r6, r0
 363              	.LVL35:
 364              	.LBB27:
 365              	.LBB28:
 366              		.loc 2 43 0
 367 0020 2B46     		mov	r3, r5
 368 0022 03E0     		b	.L25
 369              	.LVL36:
 370              	.L29:
 371              		.loc 2 46 0
 372 0024 9968     		ldr	r1, [r3, #8]
 373 0026 A268     		ldr	r2, [r4, #8]
 374 0028 9142     		cmp	r1, r2
 375 002a 02D3     		bcc	.L24
 376              	.L25:
 377              		.loc 2 45 0
 378 002c 1B68     		ldr	r3, [r3]
 379              	.LVL37:
 380              		.loc 2 46 0
 381 002e 9D42     		cmp	r5, r3
 382 0030 F8D1     		bne	.L29
 383              	.L24:
 384              		.loc 2 48 0
 385 0032 5A68     		ldr	r2, [r3, #4]
 386              		.loc 2 47 0
 387 0034 2360     		str	r3, [r4]
 388              		.loc 2 48 0
 389 0036 6260     		str	r2, [r4, #4]
 390              	.LBE28:
 391              	.LBE27:
 392              		.loc 1 198 0
 393 0038 0520     		movs	r0, #5
 394              	.LVL38:
 395              	.LBB30:
ARM GAS  /tmp/ccFM3XU1.s 			page 8


 396              	.LBB29:
 397              		.loc 2 49 0
 398 003a 5C60     		str	r4, [r3, #4]
 399 003c 1460     		str	r4, [r2]
 400              	.LBE29:
 401              	.LBE30:
 402              		.loc 1 198 0
 403 003e FFF7FEFF 		bl	chSchGoSleepS
 404              	.LVL39:
 405              		.loc 1 199 0
 406 0042 A46A     		ldr	r4, [r4, #40]
 407              	.LVL40:
 408              		.loc 1 200 0
 409 0044 3046     		mov	r0, r6
 410 0046 FFF7FEFF 		bl	chMtxLockS
 411              	.LVL41:
 412              		.loc 1 202 0
 413 004a 2046     		mov	r0, r4
 414 004c 70BD     		pop	{r4, r5, r6, pc}
 415              	.LVL42:
 416              	.L27:
 417              		.loc 1 190 0 discriminator 1
 418 004e 40F20000 		movw	r0, #:lower16:.LC4
 419 0052 C0F20000 		movt	r0, #:upper16:.LC4
 420 0056 FFF7FEFF 		bl	chDbgPanic
 421              	.LVL43:
 422 005a DBE7     		b	.L21
 423              	.L28:
 424              		.loc 1 191 0 discriminator 1
 425 005c 40F20000 		movw	r0, #:lower16:.LC5
 426 0060 C0F20000 		movt	r0, #:upper16:.LC5
 427 0064 FFF7FEFF 		bl	chDbgPanic
 428              	.LVL44:
 429 0068 D6E7     		b	.L22
 430              		.cfi_endproc
 431              	.LFE13:
 432              		.size	chCondWaitS, .-chCondWaitS
 433 006a 00BFAFF3 		.section	.text.chCondWait,"ax",%progbits
 433      0080
 434              		.align	2
 435              		.p2align 4,,15
 436              		.global	chCondWait
 437              		.thumb
 438              		.thumb_func
 439              		.type	chCondWait, %function
 440              	chCondWait:
 441              	.LFB12:
 442              		.loc 1 158 0
 443              		.cfi_startproc
 444              		@ args = 0, pretend = 0, frame = 0
 445              		@ frame_needed = 0, uses_anonymous_args = 0
 446              	.LVL45:
 447 0000 10B5     		push	{r4, lr}
 448              		.cfi_def_cfa_offset 8
 449              		.cfi_offset 4, -8
 450              		.cfi_offset 14, -4
 451              	.LBB31:
ARM GAS  /tmp/ccFM3XU1.s 			page 9


 452              		.loc 1 161 0
 453 0002 2023     		movs	r3, #32
 454              	.LBE31:
 455              		.loc 1 158 0
 456 0004 0446     		mov	r4, r0
 457              	.LBB32:
 458              		.loc 1 161 0
 459              	@ 161 "../../../os/kernel/src/chcond.c" 1
 460 0006 83F31188 		msr     BASEPRI, r3
 461              	@ 0 "" 2
 462              		.thumb
 463              	.LBE32:
 464 000a FFF7FEFF 		bl	dbg_check_lock
 465              	.LVL46:
 466              		.loc 1 162 0
 467 000e 2046     		mov	r0, r4
 468 0010 FFF7FEFF 		bl	chCondWaitS
 469              	.LVL47:
 470 0014 0446     		mov	r4, r0
 471              	.LVL48:
 472              		.loc 1 163 0
 473 0016 FFF7FEFF 		bl	dbg_check_unlock
 474              	.LVL49:
 475              	.LBB33:
 476 001a 0023     		movs	r3, #0
 477              	@ 163 "../../../os/kernel/src/chcond.c" 1
 478 001c 83F31188 		msr     BASEPRI, r3
 479              	@ 0 "" 2
 480              		.thumb
 481              	.LBE33:
 482              		.loc 1 165 0
 483 0020 2046     		mov	r0, r4
 484 0022 10BD     		pop	{r4, pc}
 485              		.cfi_endproc
 486              	.LFE12:
 487              		.size	chCondWait, .-chCondWait
 488 0024 AFF30080 		.section	.text.chCondWaitTimeoutS,"ax",%progbits
 488      AFF30080 
 488      AFF30080 
 489              		.align	2
 490              		.p2align 4,,15
 491              		.global	chCondWaitTimeoutS
 492              		.thumb
 493              		.thumb_func
 494              		.type	chCondWaitTimeoutS, %function
 495              	chCondWaitTimeoutS:
 496              	.LFB15:
 497              		.loc 1 270 0
 498              		.cfi_startproc
 499              		@ args = 0, pretend = 0, frame = 0
 500              		@ frame_needed = 0, uses_anonymous_args = 0
 501              	.LVL50:
 502 0000 2DE9F041 		push	{r4, r5, r6, r7, r8, lr}
 503              		.cfi_def_cfa_offset 24
 504              		.cfi_offset 4, -24
 505              		.cfi_offset 5, -20
 506              		.cfi_offset 6, -16
ARM GAS  /tmp/ccFM3XU1.s 			page 10


 507              		.cfi_offset 7, -12
 508              		.cfi_offset 8, -8
 509              		.cfi_offset 14, -4
 510              		.loc 1 270 0
 511 0004 0646     		mov	r6, r0
 512 0006 0F46     		mov	r7, r1
 513              		.loc 1 274 0
 514 0008 FFF7FEFF 		bl	chDbgCheckClassS
 515              	.LVL51:
 516              		.loc 1 275 0
 517 000c 002F     		cmp	r7, #0
 518 000e 18BF     		it	ne
 519 0010 002E     		cmpne	r6, #0
 520 0012 26D0     		beq	.L42
 521              	.L32:
 522              		.loc 1 276 0
 523 0014 40F20004 		movw	r4, #:lower16:rlist
 524 0018 C0F20004 		movt	r4, #:upper16:rlist
 525 001c A369     		ldr	r3, [r4, #24]
 526 001e 1B6C     		ldr	r3, [r3, #64]
 527 0020 33B3     		cbz	r3, .L43
 528              	.L33:
 529              		.loc 1 280 0
 530 0022 FFF7FEFF 		bl	chMtxUnlockS
 531              	.LVL52:
 532              		.loc 1 281 0
 533 0026 A569     		ldr	r5, [r4, #24]
 534              		.loc 1 280 0
 535 0028 8046     		mov	r8, r0
 536              	.LVL53:
 537              	.LBB34:
 538              	.LBB35:
 539              		.loc 2 43 0
 540 002a 3346     		mov	r3, r6
 541              	.LBE35:
 542              	.LBE34:
 543              		.loc 1 281 0
 544 002c AE62     		str	r6, [r5, #40]
 545              	.LVL54:
 546 002e 03E0     		b	.L38
 547              	.LVL55:
 548              	.L34:
 549              	.LBB39:
 550              	.LBB36:
 551              		.loc 2 46 0
 552 0030 9C68     		ldr	r4, [r3, #8]
 553 0032 AA68     		ldr	r2, [r5, #8]
 554 0034 9442     		cmp	r4, r2
 555 0036 02D3     		bcc	.L37
 556              	.L38:
 557              		.loc 2 45 0
 558 0038 1B68     		ldr	r3, [r3]
 559              	.LVL56:
 560              		.loc 2 46 0
 561 003a 9E42     		cmp	r6, r3
 562 003c F8D1     		bne	.L34
 563              	.L37:
ARM GAS  /tmp/ccFM3XU1.s 			page 11


 564              		.loc 2 48 0
 565 003e 5A68     		ldr	r2, [r3, #4]
 566              		.loc 2 47 0
 567 0040 2B60     		str	r3, [r5]
 568              		.loc 2 48 0
 569 0042 6A60     		str	r2, [r5, #4]
 570              	.LBE36:
 571              	.LBE39:
 572              		.loc 1 283 0
 573 0044 3946     		mov	r1, r7
 574              	.LBB40:
 575              	.LBB37:
 576              		.loc 2 49 0
 577 0046 5D60     		str	r5, [r3, #4]
 578              	.LBE37:
 579              	.LBE40:
 580              		.loc 1 283 0
 581 0048 0520     		movs	r0, #5
 582              	.LVL57:
 583              	.LBB41:
 584              	.LBB38:
 585              		.loc 2 49 0
 586 004a 1560     		str	r5, [r2]
 587              	.LBE38:
 588              	.LBE41:
 589              		.loc 1 283 0
 590 004c FFF7FEFF 		bl	chSchGoSleepTimeoutS
 591              	.LVL58:
 592              		.loc 1 284 0
 593 0050 431C     		adds	r3, r0, #1
 594              		.loc 1 283 0
 595 0052 0446     		mov	r4, r0
 596              	.LVL59:
 597              		.loc 1 284 0
 598 0054 02D0     		beq	.L36
 599              		.loc 1 285 0
 600 0056 4046     		mov	r0, r8
 601              	.LVL60:
 602 0058 FFF7FEFF 		bl	chMtxLockS
 603              	.LVL61:
 604              	.L36:
 605              		.loc 1 287 0
 606 005c 2046     		mov	r0, r4
 607 005e BDE8F081 		pop	{r4, r5, r6, r7, r8, pc}
 608              	.LVL62:
 609              	.L42:
 610              		.loc 1 275 0 discriminator 1
 611 0062 40F20000 		movw	r0, #:lower16:.LC6
 612 0066 C0F20000 		movt	r0, #:upper16:.LC6
 613 006a FFF7FEFF 		bl	chDbgPanic
 614              	.LVL63:
 615 006e D1E7     		b	.L32
 616              	.L43:
 617              		.loc 1 276 0 discriminator 1
 618 0070 40F20000 		movw	r0, #:lower16:.LC7
 619 0074 C0F20000 		movt	r0, #:upper16:.LC7
 620 0078 FFF7FEFF 		bl	chDbgPanic
ARM GAS  /tmp/ccFM3XU1.s 			page 12


 621              	.LVL64:
 622 007c D1E7     		b	.L33
 623              		.cfi_endproc
 624              	.LFE15:
 625              		.size	chCondWaitTimeoutS, .-chCondWaitTimeoutS
 626 007e 00BF     		.section	.text.chCondWaitTimeout,"ax",%progbits
 627              		.align	2
 628              		.p2align 4,,15
 629              		.global	chCondWaitTimeout
 630              		.thumb
 631              		.thumb_func
 632              		.type	chCondWaitTimeout, %function
 633              	chCondWaitTimeout:
 634              	.LFB14:
 635              		.loc 1 233 0
 636              		.cfi_startproc
 637              		@ args = 0, pretend = 0, frame = 0
 638              		@ frame_needed = 0, uses_anonymous_args = 0
 639              	.LVL65:
 640 0000 38B5     		push	{r3, r4, r5, lr}
 641              		.cfi_def_cfa_offset 16
 642              		.cfi_offset 3, -16
 643              		.cfi_offset 4, -12
 644              		.cfi_offset 5, -8
 645              		.cfi_offset 14, -4
 646              		.loc 1 233 0
 647 0002 0546     		mov	r5, r0
 648 0004 0C46     		mov	r4, r1
 649              	.LBB42:
 650              		.loc 1 236 0
 651 0006 2023     		movs	r3, #32
 652              	@ 236 "../../../os/kernel/src/chcond.c" 1
 653 0008 83F31188 		msr     BASEPRI, r3
 654              	@ 0 "" 2
 655              		.thumb
 656              	.LBE42:
 657 000c FFF7FEFF 		bl	dbg_check_lock
 658              	.LVL66:
 659              		.loc 1 237 0
 660 0010 2146     		mov	r1, r4
 661 0012 2846     		mov	r0, r5
 662 0014 FFF7FEFF 		bl	chCondWaitTimeoutS
 663              	.LVL67:
 664 0018 0446     		mov	r4, r0
 665              	.LVL68:
 666              		.loc 1 238 0
 667 001a FFF7FEFF 		bl	dbg_check_unlock
 668              	.LVL69:
 669              	.LBB43:
 670 001e 0023     		movs	r3, #0
 671              	@ 238 "../../../os/kernel/src/chcond.c" 1
 672 0020 83F31188 		msr     BASEPRI, r3
 673              	@ 0 "" 2
 674              		.thumb
 675              	.LBE43:
 676              		.loc 1 240 0
 677 0024 2046     		mov	r0, r4
ARM GAS  /tmp/ccFM3XU1.s 			page 13


 678 0026 38BD     		pop	{r3, r4, r5, pc}
 679              		.cfi_endproc
 680              	.LFE14:
 681              		.size	chCondWaitTimeout, .-chCondWaitTimeout
 682 0028 AFF30080 		.section	.rodata.str1.4,"aMS",%progbits,1
 682      AFF30080 
 683              		.align	2
 684              	.LC0:
 685 0000 22636843 		.ascii	"\"chCondInit\"()\000"
 685      6F6E6449 
 685      6E697422 
 685      282900
 686 000f 00       		.space	1
 687              	.LC1:
 688 0010 22636843 		.ascii	"\"chCondSignal\"()\000"
 688      6F6E6453 
 688      69676E61 
 688      6C222829 
 688      00
 689 0021 000000   		.space	3
 690              	.LC2:
 691 0024 22636843 		.ascii	"\"chCondSignalI\"()\000"
 691      6F6E6453 
 691      69676E61 
 691      6C492228 
 691      2900
 692 0036 0000     		.space	2
 693              	.LC3:
 694 0038 22636843 		.ascii	"\"chCondBroadcastI\"()\000"
 694      6F6E6442 
 694      726F6164 
 694      63617374 
 694      49222829 
 695 004d 000000   		.space	3
 696              	.LC4:
 697 0050 22636843 		.ascii	"\"chCondWaitS\"()\000"
 697      6F6E6457 
 697      61697453 
 697      22282900 
 698              	.LC5:
 699 0060 6368436F 		.ascii	"chCondWaitS(), #1\000"
 699      6E645761 
 699      69745328 
 699      292C2023 
 699      3100
 700 0072 0000     		.space	2
 701              	.LC6:
 702 0074 22636843 		.ascii	"\"chCondWaitTimeoutS\"()\000"
 702      6F6E6457 
 702      61697454 
 702      696D656F 
 702      75745322 
 703 008b 00       		.space	1
 704              	.LC7:
 705 008c 6368436F 		.ascii	"chCondWaitTimeoutS(), #1\000"
 705      6E645761 
 705      69745469 
ARM GAS  /tmp/ccFM3XU1.s 			page 14


 705      6D656F75 
 705      74532829 
 706 00a5 000000   		.text
 707              	.Letext0:
 708              		.file 3 "/usr/include/newlib/machine/_default_types.h"
 709              		.file 4 "/usr/include/newlib/stdint.h"
 710              		.file 5 "../../../os/ports/GCC/ARMCMx/chtypes.h"
 711              		.file 6 "../../../os/kernel/include/chlists.h"
 712              		.file 7 "../../../os/kernel/include/chthreads.h"
 713              		.file 8 "../../../os/ports/GCC/ARMCMx/chcore_v7m.h"
 714              		.file 9 "../../../os/kernel/include/chschd.h"
 715              		.file 10 "../../../os/kernel/include/chmtx.h"
 716              		.file 11 "../../../os/kernel/include/chcond.h"
 717              		.file 12 "../../../os/kernel/include/chdebug.h"
 718              		.section	.debug_info,"",%progbits
 719              	.Ldebug_info0:
 720 0000 ED0A0000 		.4byte	0xaed
 721 0004 0400     		.2byte	0x4
 722 0006 00000000 		.4byte	.Ldebug_abbrev0
 723 000a 04       		.byte	0x4
 724 000b 01       		.uleb128 0x1
 725 000c 36000000 		.4byte	.LASF92
 726 0010 01       		.byte	0x1
 727 0011 06030000 		.4byte	.LASF93
 728 0015 8C020000 		.4byte	.LASF94
 729 0019 88000000 		.4byte	.Ldebug_ranges0+0x88
 730 001d 00000000 		.4byte	0
 731 0021 00000000 		.4byte	.Ldebug_line0
 732 0025 02       		.uleb128 0x2
 733 0026 04       		.byte	0x4
 734 0027 05       		.byte	0x5
 735 0028 696E7400 		.ascii	"int\000"
 736 002c 03       		.uleb128 0x3
 737 002d 04       		.byte	0x4
 738 002e 07       		.byte	0x7
 739 002f A9010000 		.4byte	.LASF0
 740 0033 03       		.uleb128 0x3
 741 0034 01       		.byte	0x1
 742 0035 06       		.byte	0x6
 743 0036 19010000 		.4byte	.LASF1
 744 003a 04       		.uleb128 0x4
 745 003b 2C000000 		.4byte	.LASF5
 746 003f 03       		.byte	0x3
 747 0040 1C       		.byte	0x1c
 748 0041 45000000 		.4byte	0x45
 749 0045 03       		.uleb128 0x3
 750 0046 01       		.byte	0x1
 751 0047 08       		.byte	0x8
 752 0048 59030000 		.4byte	.LASF2
 753 004c 03       		.uleb128 0x3
 754 004d 02       		.byte	0x2
 755 004e 05       		.byte	0x5
 756 004f 71030000 		.4byte	.LASF3
 757 0053 03       		.uleb128 0x3
 758 0054 02       		.byte	0x2
 759 0055 07       		.byte	0x7
 760 0056 D0010000 		.4byte	.LASF4
ARM GAS  /tmp/ccFM3XU1.s 			page 15


 761 005a 04       		.uleb128 0x4
 762 005b 35040000 		.4byte	.LASF6
 763 005f 03       		.byte	0x3
 764 0060 37       		.byte	0x37
 765 0061 65000000 		.4byte	0x65
 766 0065 03       		.uleb128 0x3
 767 0066 04       		.byte	0x4
 768 0067 05       		.byte	0x5
 769 0068 47010000 		.4byte	.LASF7
 770 006c 04       		.uleb128 0x4
 771 006d 7D010000 		.4byte	.LASF8
 772 0071 03       		.byte	0x3
 773 0072 38       		.byte	0x38
 774 0073 77000000 		.4byte	0x77
 775 0077 03       		.uleb128 0x3
 776 0078 04       		.byte	0x4
 777 0079 07       		.byte	0x7
 778 007a B6010000 		.4byte	.LASF9
 779 007e 03       		.uleb128 0x3
 780 007f 08       		.byte	0x8
 781 0080 05       		.byte	0x5
 782 0081 0B010000 		.4byte	.LASF10
 783 0085 04       		.uleb128 0x4
 784 0086 FB020000 		.4byte	.LASF11
 785 008a 03       		.byte	0x3
 786 008b 4E       		.byte	0x4e
 787 008c 90000000 		.4byte	0x90
 788 0090 03       		.uleb128 0x3
 789 0091 08       		.byte	0x8
 790 0092 07       		.byte	0x7
 791 0093 D3000000 		.4byte	.LASF12
 792 0097 04       		.uleb128 0x4
 793 0098 93040000 		.4byte	.LASF13
 794 009c 04       		.byte	0x4
 795 009d 2A       		.byte	0x2a
 796 009e 3A000000 		.4byte	0x3a
 797 00a2 04       		.uleb128 0x4
 798 00a3 51030000 		.4byte	.LASF14
 799 00a7 04       		.byte	0x4
 800 00a8 41       		.byte	0x41
 801 00a9 5A000000 		.4byte	0x5a
 802 00ad 04       		.uleb128 0x4
 803 00ae DF030000 		.4byte	.LASF15
 804 00b2 04       		.byte	0x4
 805 00b3 42       		.byte	0x42
 806 00b4 6C000000 		.4byte	0x6c
 807 00b8 04       		.uleb128 0x4
 808 00b9 23000000 		.4byte	.LASF16
 809 00bd 04       		.byte	0x4
 810 00be 4E       		.byte	0x4e
 811 00bf 85000000 		.4byte	0x85
 812 00c3 03       		.uleb128 0x3
 813 00c4 01       		.byte	0x1
 814 00c5 02       		.byte	0x2
 815 00c6 4B030000 		.4byte	.LASF17
 816 00ca 04       		.uleb128 0x4
 817 00cb 02020000 		.4byte	.LASF18
ARM GAS  /tmp/ccFM3XU1.s 			page 16


 818 00cf 05       		.byte	0x5
 819 00d0 2C       		.byte	0x2c
 820 00d1 97000000 		.4byte	0x97
 821 00d5 04       		.uleb128 0x4
 822 00d6 50010000 		.4byte	.LASF19
 823 00da 05       		.byte	0x5
 824 00db 2D       		.byte	0x2d
 825 00dc 97000000 		.4byte	0x97
 826 00e0 04       		.uleb128 0x4
 827 00e1 26030000 		.4byte	.LASF20
 828 00e5 05       		.byte	0x5
 829 00e6 2E       		.byte	0x2e
 830 00e7 97000000 		.4byte	0x97
 831 00eb 04       		.uleb128 0x4
 832 00ec 35010000 		.4byte	.LASF21
 833 00f0 05       		.byte	0x5
 834 00f1 2F       		.byte	0x2f
 835 00f2 97000000 		.4byte	0x97
 836 00f6 04       		.uleb128 0x4
 837 00f7 35030000 		.4byte	.LASF22
 838 00fb 05       		.byte	0x5
 839 00fc 30       		.byte	0x30
 840 00fd AD000000 		.4byte	0xad
 841 0101 04       		.uleb128 0x4
 842 0102 E3010000 		.4byte	.LASF23
 843 0106 05       		.byte	0x5
 844 0107 31       		.byte	0x31
 845 0108 A2000000 		.4byte	0xa2
 846 010c 04       		.uleb128 0x4
 847 010d 27020000 		.4byte	.LASF24
 848 0111 05       		.byte	0x5
 849 0112 33       		.byte	0x33
 850 0113 AD000000 		.4byte	0xad
 851 0117 04       		.uleb128 0x4
 852 0118 20040000 		.4byte	.LASF25
 853 011c 05       		.byte	0x5
 854 011d 35       		.byte	0x35
 855 011e AD000000 		.4byte	0xad
 856 0122 04       		.uleb128 0x4
 857 0123 B7030000 		.4byte	.LASF26
 858 0127 06       		.byte	0x6
 859 0128 2A       		.byte	0x2a
 860 0129 2D010000 		.4byte	0x12d
 861 012d 05       		.uleb128 0x5
 862 012e B7030000 		.4byte	.LASF26
 863 0132 4C       		.byte	0x4c
 864 0133 07       		.byte	0x7
 865 0134 5E       		.byte	0x5e
 866 0135 36020000 		.4byte	0x236
 867 0139 06       		.uleb128 0x6
 868 013a 9B030000 		.4byte	.LASF27
 869 013e 07       		.byte	0x7
 870 013f 5F       		.byte	0x5f
 871 0140 57020000 		.4byte	0x257
 872 0144 00       		.byte	0
 873 0145 06       		.uleb128 0x6
 874 0146 2E030000 		.4byte	.LASF28
ARM GAS  /tmp/ccFM3XU1.s 			page 17


 875 014a 07       		.byte	0x7
 876 014b 61       		.byte	0x61
 877 014c 57020000 		.4byte	0x257
 878 0150 04       		.byte	0x4
 879 0151 06       		.uleb128 0x6
 880 0152 04010000 		.4byte	.LASF29
 881 0156 07       		.byte	0x7
 882 0157 63       		.byte	0x63
 883 0158 F6000000 		.4byte	0xf6
 884 015c 08       		.byte	0x8
 885 015d 06       		.uleb128 0x6
 886 015e E7040000 		.4byte	.LASF30
 887 0162 07       		.byte	0x7
 888 0163 64       		.byte	0x64
 889 0164 1C030000 		.4byte	0x31c
 890 0168 0C       		.byte	0xc
 891 0169 06       		.uleb128 0x6
 892 016a 64010000 		.4byte	.LASF31
 893 016e 07       		.byte	0x7
 894 016f 66       		.byte	0x66
 895 0170 57020000 		.4byte	0x257
 896 0174 10       		.byte	0x10
 897 0175 06       		.uleb128 0x6
 898 0176 71020000 		.4byte	.LASF32
 899 017a 07       		.byte	0x7
 900 017b 67       		.byte	0x67
 901 017c 57020000 		.4byte	0x257
 902 0180 14       		.byte	0x14
 903 0181 06       		.uleb128 0x6
 904 0182 A2040000 		.4byte	.LASF33
 905 0186 07       		.byte	0x7
 906 0187 6E       		.byte	0x6e
 907 0188 40040000 		.4byte	0x440
 908 018c 18       		.byte	0x18
 909 018d 06       		.uleb128 0x6
 910 018e 9E010000 		.4byte	.LASF34
 911 0192 07       		.byte	0x7
 912 0193 74       		.byte	0x74
 913 0194 52040000 		.4byte	0x452
 914 0198 1C       		.byte	0x1c
 915 0199 06       		.uleb128 0x6
 916 019a 7B030000 		.4byte	.LASF35
 917 019e 07       		.byte	0x7
 918 019f 79       		.byte	0x79
 919 01a0 D5000000 		.4byte	0xd5
 920 01a4 20       		.byte	0x20
 921 01a5 06       		.uleb128 0x6
 922 01a6 A2030000 		.4byte	.LASF36
 923 01aa 07       		.byte	0x7
 924 01ab 7D       		.byte	0x7d
 925 01ac CA000000 		.4byte	0xca
 926 01b0 21       		.byte	0x21
 927 01b1 06       		.uleb128 0x6
 928 01b2 7C040000 		.4byte	.LASF37
 929 01b6 07       		.byte	0x7
 930 01b7 82       		.byte	0x82
 931 01b8 E0000000 		.4byte	0xe0
ARM GAS  /tmp/ccFM3XU1.s 			page 18


 932 01bc 22       		.byte	0x22
 933 01bd 06       		.uleb128 0x6
 934 01be 83030000 		.4byte	.LASF38
 935 01c2 07       		.byte	0x7
 936 01c3 88       		.byte	0x88
 937 01c4 EB000000 		.4byte	0xeb
 938 01c8 23       		.byte	0x23
 939 01c9 06       		.uleb128 0x6
 940 01ca 56040000 		.4byte	.LASF39
 941 01ce 07       		.byte	0x7
 942 01cf 8F       		.byte	0x8f
 943 01d0 44030000 		.4byte	0x344
 944 01d4 24       		.byte	0x24
 945 01d5 07       		.uleb128 0x7
 946 01d6 705F7500 		.ascii	"p_u\000"
 947 01da 07       		.byte	0x7
 948 01db B4       		.byte	0xb4
 949 01dc 0B040000 		.4byte	0x40b
 950 01e0 28       		.byte	0x28
 951 01e1 06       		.uleb128 0x6
 952 01e2 ED040000 		.4byte	.LASF40
 953 01e6 07       		.byte	0x7
 954 01e7 B9       		.byte	0xb9
 955 01e8 7D020000 		.4byte	0x27d
 956 01ec 2C       		.byte	0x2c
 957 01ed 06       		.uleb128 0x6
 958 01ee 64040000 		.4byte	.LASF41
 959 01f2 07       		.byte	0x7
 960 01f3 BF       		.byte	0xbf
 961 01f4 5D020000 		.4byte	0x25d
 962 01f8 30       		.byte	0x30
 963 01f9 06       		.uleb128 0x6
 964 01fa 00000000 		.4byte	.LASF42
 965 01fe 07       		.byte	0x7
 966 01ff C3       		.byte	0xc3
 967 0200 01010000 		.4byte	0x101
 968 0204 38       		.byte	0x38
 969 0205 06       		.uleb128 0x6
 970 0206 D4030000 		.4byte	.LASF43
 971 020a 07       		.byte	0x7
 972 020b C9       		.byte	0xc9
 973 020c 0C010000 		.4byte	0x10c
 974 0210 3C       		.byte	0x3c
 975 0211 06       		.uleb128 0x6
 976 0212 67030000 		.4byte	.LASF44
 977 0216 07       		.byte	0x7
 978 0217 D0       		.byte	0xd0
 979 0218 58040000 		.4byte	0x458
 980 021c 40       		.byte	0x40
 981 021d 06       		.uleb128 0x6
 982 021e 2A040000 		.4byte	.LASF45
 983 0222 07       		.byte	0x7
 984 0223 D4       		.byte	0xd4
 985 0224 F6000000 		.4byte	0xf6
 986 0228 44       		.byte	0x44
 987 0229 06       		.uleb128 0x6
 988 022a 25010000 		.4byte	.LASF46
ARM GAS  /tmp/ccFM3XU1.s 			page 19


 989 022e 07       		.byte	0x7
 990 022f DA       		.byte	0xda
 991 0230 93020000 		.4byte	0x293
 992 0234 48       		.byte	0x48
 993 0235 00       		.byte	0
 994 0236 08       		.uleb128 0x8
 995 0237 08       		.byte	0x8
 996 0238 06       		.byte	0x6
 997 0239 61       		.byte	0x61
 998 023a 57020000 		.4byte	0x257
 999 023e 06       		.uleb128 0x6
 1000 023f 9B030000 		.4byte	.LASF27
 1001 0243 06       		.byte	0x6
 1002 0244 62       		.byte	0x62
 1003 0245 57020000 		.4byte	0x257
 1004 0249 00       		.byte	0
 1005 024a 06       		.uleb128 0x6
 1006 024b 2E030000 		.4byte	.LASF28
 1007 024f 06       		.byte	0x6
 1008 0250 64       		.byte	0x64
 1009 0251 57020000 		.4byte	0x257
 1010 0255 04       		.byte	0x4
 1011 0256 00       		.byte	0
 1012 0257 09       		.uleb128 0x9
 1013 0258 04       		.byte	0x4
 1014 0259 22010000 		.4byte	0x122
 1015 025d 04       		.uleb128 0x4
 1016 025e 7F020000 		.4byte	.LASF47
 1017 0262 06       		.byte	0x6
 1018 0263 66       		.byte	0x66
 1019 0264 36020000 		.4byte	0x236
 1020 0268 08       		.uleb128 0x8
 1021 0269 04       		.byte	0x4
 1022 026a 06       		.byte	0x6
 1023 026b 6B       		.byte	0x6b
 1024 026c 7D020000 		.4byte	0x27d
 1025 0270 06       		.uleb128 0x6
 1026 0271 9B030000 		.4byte	.LASF27
 1027 0275 06       		.byte	0x6
 1028 0276 6D       		.byte	0x6d
 1029 0277 57020000 		.4byte	0x257
 1030 027b 00       		.byte	0
 1031 027c 00       		.byte	0
 1032 027d 04       		.uleb128 0x4
 1033 027e 1B020000 		.4byte	.LASF48
 1034 0282 06       		.byte	0x6
 1035 0283 70       		.byte	0x70
 1036 0284 68020000 		.4byte	0x268
 1037 0288 04       		.uleb128 0x4
 1038 0289 88010000 		.4byte	.LASF49
 1039 028d 08       		.byte	0x8
 1040 028e E5       		.byte	0xe5
 1041 028f 93020000 		.4byte	0x293
 1042 0293 0A       		.uleb128 0xa
 1043 0294 04       		.byte	0x4
 1044 0295 04       		.uleb128 0x4
 1045 0296 39020000 		.4byte	.LASF50
ARM GAS  /tmp/ccFM3XU1.s 			page 20


 1046 029a 08       		.byte	0x8
 1047 029b EB       		.byte	0xeb
 1048 029c B8000000 		.4byte	0xb8
 1049 02a0 0B       		.uleb128 0xb
 1050 02a1 5D040000 		.4byte	.LASF51
 1051 02a5 24       		.byte	0x24
 1052 02a6 08       		.byte	0x8
 1053 02a7 0C01     		.2byte	0x10c
 1054 02a9 1C030000 		.4byte	0x31c
 1055 02ad 0C       		.uleb128 0xc
 1056 02ae 723400   		.ascii	"r4\000"
 1057 02b1 08       		.byte	0x8
 1058 02b2 1F01     		.2byte	0x11f
 1059 02b4 88020000 		.4byte	0x288
 1060 02b8 00       		.byte	0
 1061 02b9 0C       		.uleb128 0xc
 1062 02ba 723500   		.ascii	"r5\000"
 1063 02bd 08       		.byte	0x8
 1064 02be 2001     		.2byte	0x120
 1065 02c0 88020000 		.4byte	0x288
 1066 02c4 04       		.byte	0x4
 1067 02c5 0C       		.uleb128 0xc
 1068 02c6 723600   		.ascii	"r6\000"
 1069 02c9 08       		.byte	0x8
 1070 02ca 2101     		.2byte	0x121
 1071 02cc 88020000 		.4byte	0x288
 1072 02d0 08       		.byte	0x8
 1073 02d1 0C       		.uleb128 0xc
 1074 02d2 723700   		.ascii	"r7\000"
 1075 02d5 08       		.byte	0x8
 1076 02d6 2201     		.2byte	0x122
 1077 02d8 88020000 		.4byte	0x288
 1078 02dc 0C       		.byte	0xc
 1079 02dd 0C       		.uleb128 0xc
 1080 02de 723800   		.ascii	"r8\000"
 1081 02e1 08       		.byte	0x8
 1082 02e2 2301     		.2byte	0x123
 1083 02e4 88020000 		.4byte	0x288
 1084 02e8 10       		.byte	0x10
 1085 02e9 0C       		.uleb128 0xc
 1086 02ea 723900   		.ascii	"r9\000"
 1087 02ed 08       		.byte	0x8
 1088 02ee 2401     		.2byte	0x124
 1089 02f0 88020000 		.4byte	0x288
 1090 02f4 14       		.byte	0x14
 1091 02f5 0C       		.uleb128 0xc
 1092 02f6 72313000 		.ascii	"r10\000"
 1093 02fa 08       		.byte	0x8
 1094 02fb 2501     		.2byte	0x125
 1095 02fd 88020000 		.4byte	0x288
 1096 0301 18       		.byte	0x18
 1097 0302 0C       		.uleb128 0xc
 1098 0303 72313100 		.ascii	"r11\000"
 1099 0307 08       		.byte	0x8
 1100 0308 2601     		.2byte	0x126
 1101 030a 88020000 		.4byte	0x288
 1102 030e 1C       		.byte	0x1c
ARM GAS  /tmp/ccFM3XU1.s 			page 21


 1103 030f 0C       		.uleb128 0xc
 1104 0310 6C7200   		.ascii	"lr\000"
 1105 0313 08       		.byte	0x8
 1106 0314 2701     		.2byte	0x127
 1107 0316 88020000 		.4byte	0x288
 1108 031a 20       		.byte	0x20
 1109 031b 00       		.byte	0
 1110 031c 0B       		.uleb128 0xb
 1111 031d C8010000 		.4byte	.LASF52
 1112 0321 04       		.byte	0x4
 1113 0322 08       		.byte	0x8
 1114 0323 3101     		.2byte	0x131
 1115 0325 37030000 		.4byte	0x337
 1116 0329 0C       		.uleb128 0xc
 1117 032a 72313300 		.ascii	"r13\000"
 1118 032e 08       		.byte	0x8
 1119 032f 3201     		.2byte	0x132
 1120 0331 37030000 		.4byte	0x337
 1121 0335 00       		.byte	0
 1122 0336 00       		.byte	0
 1123 0337 09       		.uleb128 0x9
 1124 0338 04       		.byte	0x4
 1125 0339 A0020000 		.4byte	0x2a0
 1126 033d 03       		.uleb128 0x3
 1127 033e 04       		.byte	0x4
 1128 033f 07       		.byte	0x7
 1129 0340 55020000 		.4byte	.LASF53
 1130 0344 0D       		.uleb128 0xd
 1131 0345 17010000 		.4byte	0x117
 1132 0349 08       		.uleb128 0x8
 1133 034a 1C       		.byte	0x1c
 1134 034b 09       		.byte	0x9
 1135 034c 5E       		.byte	0x5e
 1136 034d 9A030000 		.4byte	0x39a
 1137 0351 06       		.uleb128 0x6
 1138 0352 E8030000 		.4byte	.LASF54
 1139 0356 09       		.byte	0x9
 1140 0357 5F       		.byte	0x5f
 1141 0358 5D020000 		.4byte	0x25d
 1142 035c 00       		.byte	0
 1143 035d 06       		.uleb128 0x6
 1144 035e 8D030000 		.4byte	.LASF55
 1145 0362 09       		.byte	0x9
 1146 0363 60       		.byte	0x60
 1147 0364 F6000000 		.4byte	0xf6
 1148 0368 08       		.byte	0x8
 1149 0369 06       		.uleb128 0x6
 1150 036a 79020000 		.4byte	.LASF56
 1151 036e 09       		.byte	0x9
 1152 036f 62       		.byte	0x62
 1153 0370 1C030000 		.4byte	0x31c
 1154 0374 0C       		.byte	0xc
 1155 0375 06       		.uleb128 0x6
 1156 0376 E9010000 		.4byte	.LASF57
 1157 037a 09       		.byte	0x9
 1158 037b 65       		.byte	0x65
 1159 037c 57020000 		.4byte	0x257
ARM GAS  /tmp/ccFM3XU1.s 			page 22


 1160 0380 10       		.byte	0x10
 1161 0381 06       		.uleb128 0x6
 1162 0382 E3020000 		.4byte	.LASF58
 1163 0386 09       		.byte	0x9
 1164 0387 66       		.byte	0x66
 1165 0388 57020000 		.4byte	0x257
 1166 038c 14       		.byte	0x14
 1167 038d 06       		.uleb128 0x6
 1168 038e D9020000 		.4byte	.LASF59
 1169 0392 09       		.byte	0x9
 1170 0393 69       		.byte	0x69
 1171 0394 57020000 		.4byte	0x257
 1172 0398 18       		.byte	0x18
 1173 0399 00       		.byte	0
 1174 039a 04       		.uleb128 0x4
 1175 039b 83040000 		.4byte	.LASF60
 1176 039f 09       		.byte	0x9
 1177 03a0 6B       		.byte	0x6b
 1178 03a1 49030000 		.4byte	0x349
 1179 03a5 05       		.uleb128 0x5
 1180 03a6 33020000 		.4byte	.LASF61
 1181 03aa 10       		.byte	0x10
 1182 03ab 0A       		.byte	0xa
 1183 03ac 2C       		.byte	0x2c
 1184 03ad D6030000 		.4byte	0x3d6
 1185 03b1 06       		.uleb128 0x6
 1186 03b2 2D010000 		.4byte	.LASF62
 1187 03b6 0A       		.byte	0xa
 1188 03b7 2D       		.byte	0x2d
 1189 03b8 5D020000 		.4byte	0x25d
 1190 03bc 00       		.byte	0
 1191 03bd 06       		.uleb128 0x6
 1192 03be D0040000 		.4byte	.LASF63
 1193 03c2 0A       		.byte	0xa
 1194 03c3 2F       		.byte	0x2f
 1195 03c4 57020000 		.4byte	0x257
 1196 03c8 08       		.byte	0x8
 1197 03c9 06       		.uleb128 0x6
 1198 03ca 19040000 		.4byte	.LASF64
 1199 03ce 0A       		.byte	0xa
 1200 03cf 31       		.byte	0x31
 1201 03d0 D6030000 		.4byte	0x3d6
 1202 03d4 0C       		.byte	0xc
 1203 03d5 00       		.byte	0
 1204 03d6 09       		.uleb128 0x9
 1205 03d7 04       		.byte	0x4
 1206 03d8 A5030000 		.4byte	0x3a5
 1207 03dc 04       		.uleb128 0x4
 1208 03dd 33020000 		.4byte	.LASF61
 1209 03e1 0A       		.byte	0xa
 1210 03e2 33       		.byte	0x33
 1211 03e3 A5030000 		.4byte	0x3a5
 1212 03e7 05       		.uleb128 0x5
 1213 03e8 3F010000 		.4byte	.LASF65
 1214 03ec 08       		.byte	0x8
 1215 03ed 0B       		.byte	0xb
 1216 03ee 36       		.byte	0x36
ARM GAS  /tmp/ccFM3XU1.s 			page 23


 1217 03ef 00040000 		.4byte	0x400
 1218 03f3 06       		.uleb128 0x6
 1219 03f4 BE030000 		.4byte	.LASF66
 1220 03f8 0B       		.byte	0xb
 1221 03f9 37       		.byte	0x37
 1222 03fa 5D020000 		.4byte	0x25d
 1223 03fe 00       		.byte	0
 1224 03ff 00       		.byte	0
 1225 0400 04       		.uleb128 0x4
 1226 0401 3F010000 		.4byte	.LASF65
 1227 0405 0B       		.byte	0xb
 1228 0406 38       		.byte	0x38
 1229 0407 E7030000 		.4byte	0x3e7
 1230 040b 0E       		.uleb128 0xe
 1231 040c 04       		.byte	0x4
 1232 040d 07       		.byte	0x7
 1233 040e 96       		.byte	0x96
 1234 040f 40040000 		.4byte	0x440
 1235 0413 0F       		.uleb128 0xf
 1236 0414 1C000000 		.4byte	.LASF67
 1237 0418 07       		.byte	0x7
 1238 0419 9D       		.byte	0x9d
 1239 041a 01010000 		.4byte	0x101
 1240 041e 0F       		.uleb128 0xf
 1241 041f EA000000 		.4byte	.LASF68
 1242 0423 07       		.byte	0x7
 1243 0424 A4       		.byte	0xa4
 1244 0425 01010000 		.4byte	0x101
 1245 0429 0F       		.uleb128 0xf
 1246 042a 9B040000 		.4byte	.LASF69
 1247 042e 07       		.byte	0x7
 1248 042f AB       		.byte	0xab
 1249 0430 93020000 		.4byte	0x293
 1250 0434 0F       		.uleb128 0xf
 1251 0435 94030000 		.4byte	.LASF70
 1252 0439 07       		.byte	0x7
 1253 043a B2       		.byte	0xb2
 1254 043b 0C010000 		.4byte	0x10c
 1255 043f 00       		.byte	0
 1256 0440 09       		.uleb128 0x9
 1257 0441 04       		.byte	0x4
 1258 0442 46040000 		.4byte	0x446
 1259 0446 10       		.uleb128 0x10
 1260 0447 4B040000 		.4byte	0x44b
 1261 044b 03       		.uleb128 0x3
 1262 044c 01       		.byte	0x1
 1263 044d 08       		.byte	0x8
 1264 044e FC030000 		.4byte	.LASF71
 1265 0452 09       		.uleb128 0x9
 1266 0453 04       		.byte	0x4
 1267 0454 95020000 		.4byte	0x295
 1268 0458 09       		.uleb128 0x9
 1269 0459 04       		.byte	0x4
 1270 045a DC030000 		.4byte	0x3dc
 1271 045e 11       		.uleb128 0x11
 1272 045f 01040000 		.4byte	.LASF95
 1273 0463 02       		.byte	0x2
ARM GAS  /tmp/ccFM3XU1.s 			page 24


 1274 0464 3B       		.byte	0x3b
 1275 0465 57020000 		.4byte	0x257
 1276 0469 03       		.byte	0x3
 1277 046a 84040000 		.4byte	0x484
 1278 046e 12       		.uleb128 0x12
 1279 046f 74717000 		.ascii	"tqp\000"
 1280 0473 02       		.byte	0x2
 1281 0474 3B       		.byte	0x3b
 1282 0475 84040000 		.4byte	0x484
 1283 0479 13       		.uleb128 0x13
 1284 047a 747000   		.ascii	"tp\000"
 1285 047d 02       		.byte	0x2
 1286 047e 3C       		.byte	0x3c
 1287 047f 57020000 		.4byte	0x257
 1288 0483 00       		.byte	0
 1289 0484 09       		.uleb128 0x9
 1290 0485 04       		.byte	0x4
 1291 0486 5D020000 		.4byte	0x25d
 1292 048a 14       		.uleb128 0x14
 1293 048b 3F040000 		.4byte	.LASF96
 1294 048f 02       		.byte	0x2
 1295 0490 29       		.byte	0x29
 1296 0491 03       		.byte	0x3
 1297 0492 B6040000 		.4byte	0x4b6
 1298 0496 12       		.uleb128 0x12
 1299 0497 747000   		.ascii	"tp\000"
 1300 049a 02       		.byte	0x2
 1301 049b 29       		.byte	0x29
 1302 049c 57020000 		.4byte	0x257
 1303 04a0 12       		.uleb128 0x12
 1304 04a1 74717000 		.ascii	"tqp\000"
 1305 04a5 02       		.byte	0x2
 1306 04a6 29       		.byte	0x29
 1307 04a7 84040000 		.4byte	0x484
 1308 04ab 13       		.uleb128 0x13
 1309 04ac 637000   		.ascii	"cp\000"
 1310 04af 02       		.byte	0x2
 1311 04b0 2B       		.byte	0x2b
 1312 04b1 57020000 		.4byte	0x257
 1313 04b5 00       		.byte	0
 1314 04b6 15       		.uleb128 0x15
 1315 04b7 11000000 		.4byte	.LASF72
 1316 04bb 01       		.byte	0x1
 1317 04bc 3B       		.byte	0x3b
 1318 04bd 00000000 		.4byte	.LFB7
 1319 04c1 1E000000 		.4byte	.LFE7-.LFB7
 1320 04c5 01       		.uleb128 0x1
 1321 04c6 9C       		.byte	0x9c
 1322 04c7 ED040000 		.4byte	0x4ed
 1323 04cb 16       		.uleb128 0x16
 1324 04cc 637000   		.ascii	"cp\000"
 1325 04cf 01       		.byte	0x1
 1326 04d0 3B       		.byte	0x3b
 1327 04d1 ED040000 		.4byte	0x4ed
 1328 04d5 00000000 		.4byte	.LLST0
 1329 04d9 17       		.uleb128 0x17
 1330 04da 18000000 		.4byte	.LVL2
ARM GAS  /tmp/ccFM3XU1.s 			page 25


 1331 04de 4E0A0000 		.4byte	0xa4e
 1332 04e2 18       		.uleb128 0x18
 1333 04e3 01       		.uleb128 0x1
 1334 04e4 50       		.byte	0x50
 1335 04e5 05       		.uleb128 0x5
 1336 04e6 03       		.byte	0x3
 1337 04e7 00000000 		.4byte	.LC0
 1338 04eb 00       		.byte	0
 1339 04ec 00       		.byte	0
 1340 04ed 09       		.uleb128 0x9
 1341 04ee 04       		.byte	0x4
 1342 04ef 00040000 		.4byte	0x400
 1343 04f3 15       		.uleb128 0x15
 1344 04f4 91010000 		.4byte	.LASF73
 1345 04f8 01       		.byte	0x1
 1346 04f9 49       		.byte	0x49
 1347 04fa 00000000 		.4byte	.LFB8
 1348 04fe 3C000000 		.4byte	.LFE8-.LFB8
 1349 0502 01       		.uleb128 0x1
 1350 0503 9C       		.byte	0x9c
 1351 0504 B1050000 		.4byte	0x5b1
 1352 0508 16       		.uleb128 0x16
 1353 0509 637000   		.ascii	"cp\000"
 1354 050c 01       		.byte	0x1
 1355 050d 49       		.byte	0x49
 1356 050e ED040000 		.4byte	0x4ed
 1357 0512 1E000000 		.4byte	.LLST1
 1358 0516 19       		.uleb128 0x19
 1359 0517 06000000 		.4byte	.LBB14
 1360 051b 06000000 		.4byte	.LBE14-.LBB14
 1361 051f 31050000 		.4byte	0x531
 1362 0523 1A       		.uleb128 0x1a
 1363 0524 746D7000 		.ascii	"tmp\000"
 1364 0528 01       		.byte	0x1
 1365 0529 4D       		.byte	0x4d
 1366 052a AD000000 		.4byte	0xad
 1367 052e 01       		.uleb128 0x1
 1368 052f 53       		.byte	0x53
 1369 0530 00       		.byte	0
 1370 0531 1B       		.uleb128 0x1b
 1371 0532 5E040000 		.4byte	0x45e
 1372 0536 16000000 		.4byte	.LBB15
 1373 053a 00000000 		.4byte	.Ldebug_ranges0+0
 1374 053e 01       		.byte	0x1
 1375 053f 4F       		.byte	0x4f
 1376 0540 5D050000 		.4byte	0x55d
 1377 0544 1C       		.uleb128 0x1c
 1378 0545 6E040000 		.4byte	0x46e
 1379 0549 52000000 		.4byte	.LLST2
 1380 054d 1D       		.uleb128 0x1d
 1381 054e 00000000 		.4byte	.Ldebug_ranges0+0
 1382 0552 1E       		.uleb128 0x1e
 1383 0553 79040000 		.4byte	0x479
 1384 0557 65000000 		.4byte	.LLST3
 1385 055b 00       		.byte	0
 1386 055c 00       		.byte	0
 1387 055d 19       		.uleb128 0x19
ARM GAS  /tmp/ccFM3XU1.s 			page 26


 1388 055e 26000000 		.4byte	.LBB19
 1389 0562 08000000 		.4byte	.LBE19-.LBB19
 1390 0566 78050000 		.4byte	0x578
 1391 056a 1A       		.uleb128 0x1a
 1392 056b 746D7000 		.ascii	"tmp\000"
 1393 056f 01       		.byte	0x1
 1394 0570 50       		.byte	0x50
 1395 0571 AD000000 		.4byte	0xad
 1396 0575 01       		.uleb128 0x1
 1397 0576 53       		.byte	0x53
 1398 0577 00       		.byte	0
 1399 0578 1F       		.uleb128 0x1f
 1400 0579 10000000 		.4byte	.LVL5
 1401 057d 5F0A0000 		.4byte	0xa5f
 1402 0581 20       		.uleb128 0x20
 1403 0582 22000000 		.4byte	.LVL7
 1404 0586 660A0000 		.4byte	0xa66
 1405 058a 94050000 		.4byte	0x594
 1406 058e 18       		.uleb128 0x18
 1407 058f 01       		.uleb128 0x1
 1408 0590 51       		.byte	0x51
 1409 0591 01       		.uleb128 0x1
 1410 0592 30       		.byte	0x30
 1411 0593 00       		.byte	0
 1412 0594 1F       		.uleb128 0x1f
 1413 0595 26000000 		.4byte	.LVL8
 1414 0599 7C0A0000 		.4byte	0xa7c
 1415 059d 17       		.uleb128 0x17
 1416 059e 3A000000 		.4byte	.LVL11
 1417 05a2 4E0A0000 		.4byte	0xa4e
 1418 05a6 18       		.uleb128 0x18
 1419 05a7 01       		.uleb128 0x1
 1420 05a8 50       		.byte	0x50
 1421 05a9 05       		.uleb128 0x5
 1422 05aa 03       		.byte	0x3
 1423 05ab 10000000 		.4byte	.LC1
 1424 05af 00       		.byte	0
 1425 05b0 00       		.byte	0
 1426 05b1 15       		.uleb128 0x15
 1427 05b2 3D030000 		.4byte	.LASF74
 1428 05b6 01       		.byte	0x1
 1429 05b7 5E       		.byte	0x5e
 1430 05b8 00000000 		.4byte	.LFB9
 1431 05bc 2E000000 		.4byte	.LFE9-.LFB9
 1432 05c0 01       		.uleb128 0x1
 1433 05c1 9C       		.byte	0x9c
 1434 05c2 2A060000 		.4byte	0x62a
 1435 05c6 16       		.uleb128 0x16
 1436 05c7 637000   		.ascii	"cp\000"
 1437 05ca 01       		.byte	0x1
 1438 05cb 5E       		.byte	0x5e
 1439 05cc ED040000 		.4byte	0x4ed
 1440 05d0 78000000 		.4byte	.LLST4
 1441 05d4 21       		.uleb128 0x21
 1442 05d5 5E040000 		.4byte	0x45e
 1443 05d9 10000000 		.4byte	.LBB20
 1444 05dd 06000000 		.4byte	.LBE20-.LBB20
ARM GAS  /tmp/ccFM3XU1.s 			page 27


 1445 05e1 01       		.byte	0x1
 1446 05e2 64       		.byte	0x64
 1447 05e3 04060000 		.4byte	0x604
 1448 05e7 1C       		.uleb128 0x1c
 1449 05e8 6E040000 		.4byte	0x46e
 1450 05ec 96000000 		.4byte	.LLST5
 1451 05f0 22       		.uleb128 0x22
 1452 05f1 10000000 		.4byte	.LBB21
 1453 05f5 06000000 		.4byte	.LBE21-.LBB21
 1454 05f9 1E       		.uleb128 0x1e
 1455 05fa 79040000 		.4byte	0x479
 1456 05fe A9000000 		.4byte	.LLST6
 1457 0602 00       		.byte	0
 1458 0603 00       		.byte	0
 1459 0604 1F       		.uleb128 0x1f
 1460 0605 08000000 		.4byte	.LVL13
 1461 0609 830A0000 		.4byte	0xa83
 1462 060d 1F       		.uleb128 0x1f
 1463 060e 1A000000 		.4byte	.LVL15
 1464 0612 8A0A0000 		.4byte	0xa8a
 1465 0616 17       		.uleb128 0x17
 1466 0617 2C000000 		.4byte	.LVL18
 1467 061b 4E0A0000 		.4byte	0xa4e
 1468 061f 18       		.uleb128 0x18
 1469 0620 01       		.uleb128 0x1
 1470 0621 50       		.byte	0x50
 1471 0622 05       		.uleb128 0x5
 1472 0623 03       		.byte	0x3
 1473 0624 24000000 		.4byte	.LC2
 1474 0628 00       		.byte	0
 1475 0629 00       		.byte	0
 1476 062a 15       		.uleb128 0x15
 1477 062b F3000000 		.4byte	.LASF75
 1478 062f 01       		.byte	0x1
 1479 0630 81       		.byte	0x81
 1480 0631 00000000 		.4byte	.LFB11
 1481 0635 36000000 		.4byte	.LFE11-.LFB11
 1482 0639 01       		.uleb128 0x1
 1483 063a 9C       		.byte	0x9c
 1484 063b A3060000 		.4byte	0x6a3
 1485 063f 16       		.uleb128 0x16
 1486 0640 637000   		.ascii	"cp\000"
 1487 0643 01       		.byte	0x1
 1488 0644 81       		.byte	0x81
 1489 0645 ED040000 		.4byte	0x4ed
 1490 0649 BC000000 		.4byte	.LLST7
 1491 064d 21       		.uleb128 0x21
 1492 064e 5E040000 		.4byte	0x45e
 1493 0652 14000000 		.4byte	.LBB22
 1494 0656 06000000 		.4byte	.LBE22-.LBB22
 1495 065a 01       		.byte	0x1
 1496 065b 8A       		.byte	0x8a
 1497 065c 7D060000 		.4byte	0x67d
 1498 0660 1C       		.uleb128 0x1c
 1499 0661 6E040000 		.4byte	0x46e
 1500 0665 DA000000 		.4byte	.LLST8
 1501 0669 22       		.uleb128 0x22
ARM GAS  /tmp/ccFM3XU1.s 			page 28


 1502 066a 14000000 		.4byte	.LBB23
 1503 066e 06000000 		.4byte	.LBE23-.LBB23
 1504 0672 1E       		.uleb128 0x1e
 1505 0673 79040000 		.4byte	0x479
 1506 0677 ED000000 		.4byte	.LLST9
 1507 067b 00       		.byte	0
 1508 067c 00       		.byte	0
 1509 067d 1F       		.uleb128 0x1f
 1510 067e 08000000 		.4byte	.LVL20
 1511 0682 830A0000 		.4byte	0xa83
 1512 0686 1F       		.uleb128 0x1f
 1513 0687 1E000000 		.4byte	.LVL22
 1514 068b 8A0A0000 		.4byte	0xa8a
 1515 068f 17       		.uleb128 0x17
 1516 0690 34000000 		.4byte	.LVL25
 1517 0694 4E0A0000 		.4byte	0xa4e
 1518 0698 18       		.uleb128 0x18
 1519 0699 01       		.uleb128 0x1
 1520 069a 50       		.byte	0x50
 1521 069b 05       		.uleb128 0x5
 1522 069c 03       		.byte	0x3
 1523 069d 38000000 		.4byte	.LC3
 1524 06a1 00       		.byte	0
 1525 06a2 00       		.byte	0
 1526 06a3 15       		.uleb128 0x15
 1527 06a4 EB020000 		.4byte	.LASF76
 1528 06a8 01       		.byte	0x1
 1529 06a9 6E       		.byte	0x6e
 1530 06aa 00000000 		.4byte	.LFB10
 1531 06ae 24000000 		.4byte	.LFE10-.LFB10
 1532 06b2 01       		.uleb128 0x1
 1533 06b3 9C       		.byte	0x9c
 1534 06b4 28070000 		.4byte	0x728
 1535 06b8 16       		.uleb128 0x16
 1536 06b9 637000   		.ascii	"cp\000"
 1537 06bc 01       		.byte	0x1
 1538 06bd 6E       		.byte	0x6e
 1539 06be ED040000 		.4byte	0x4ed
 1540 06c2 00010000 		.4byte	.LLST10
 1541 06c6 23       		.uleb128 0x23
 1542 06c7 18000000 		.4byte	.Ldebug_ranges0+0x18
 1543 06cb DD060000 		.4byte	0x6dd
 1544 06cf 1A       		.uleb128 0x1a
 1545 06d0 746D7000 		.ascii	"tmp\000"
 1546 06d4 01       		.byte	0x1
 1547 06d5 70       		.byte	0x70
 1548 06d6 AD000000 		.4byte	0xad
 1549 06da 01       		.uleb128 0x1
 1550 06db 53       		.byte	0x53
 1551 06dc 00       		.byte	0
 1552 06dd 19       		.uleb128 0x19
 1553 06de 1C000000 		.4byte	.LBB26
 1554 06e2 08000000 		.4byte	.LBE26-.LBB26
 1555 06e6 F8060000 		.4byte	0x6f8
 1556 06ea 1A       		.uleb128 0x1a
 1557 06eb 746D7000 		.ascii	"tmp\000"
 1558 06ef 01       		.byte	0x1
ARM GAS  /tmp/ccFM3XU1.s 			page 29


 1559 06f0 73       		.byte	0x73
 1560 06f1 AD000000 		.4byte	0xad
 1561 06f5 01       		.uleb128 0x1
 1562 06f6 53       		.byte	0x53
 1563 06f7 00       		.byte	0
 1564 06f8 1F       		.uleb128 0x1f
 1565 06f9 0E000000 		.4byte	.LVL27
 1566 06fd 5F0A0000 		.4byte	0xa5f
 1567 0701 20       		.uleb128 0x20
 1568 0702 14000000 		.4byte	.LVL28
 1569 0706 2A060000 		.4byte	0x62a
 1570 070a 15070000 		.4byte	0x715
 1571 070e 18       		.uleb128 0x18
 1572 070f 01       		.uleb128 0x1
 1573 0710 50       		.byte	0x50
 1574 0711 02       		.uleb128 0x2
 1575 0712 74       		.byte	0x74
 1576 0713 00       		.sleb128 0
 1577 0714 00       		.byte	0
 1578 0715 1F       		.uleb128 0x1f
 1579 0716 18000000 		.4byte	.LVL29
 1580 071a 9F0A0000 		.4byte	0xa9f
 1581 071e 1F       		.uleb128 0x1f
 1582 071f 1C000000 		.4byte	.LVL30
 1583 0723 7C0A0000 		.4byte	0xa7c
 1584 0727 00       		.byte	0
 1585 0728 24       		.uleb128 0x24
 1586 0729 0D040000 		.4byte	.LASF77
 1587 072d 01       		.byte	0x1
 1588 072e B8       		.byte	0xb8
 1589 072f 01010000 		.4byte	0x101
 1590 0733 00000000 		.4byte	.LFB13
 1591 0737 6A000000 		.4byte	.LFE13-.LFB13
 1592 073b 01       		.uleb128 0x1
 1593 073c 9C       		.byte	0x9c
 1594 073d 14080000 		.4byte	0x814
 1595 0741 16       		.uleb128 0x16
 1596 0742 637000   		.ascii	"cp\000"
 1597 0745 01       		.byte	0x1
 1598 0746 B8       		.byte	0xb8
 1599 0747 ED040000 		.4byte	0x4ed
 1600 074b 1E010000 		.4byte	.LLST11
 1601 074f 25       		.uleb128 0x25
 1602 0750 63747000 		.ascii	"ctp\000"
 1603 0754 01       		.byte	0x1
 1604 0755 B9       		.byte	0xb9
 1605 0756 57020000 		.4byte	0x257
 1606 075a 3C010000 		.4byte	.LLST12
 1607 075e 25       		.uleb128 0x25
 1608 075f 6D7000   		.ascii	"mp\000"
 1609 0762 01       		.byte	0x1
 1610 0763 BA       		.byte	0xba
 1611 0764 58040000 		.4byte	0x458
 1612 0768 5A010000 		.4byte	.LLST13
 1613 076c 25       		.uleb128 0x25
 1614 076d 6D736700 		.ascii	"msg\000"
 1615 0771 01       		.byte	0x1
ARM GAS  /tmp/ccFM3XU1.s 			page 30


 1616 0772 BB       		.byte	0xbb
 1617 0773 01010000 		.4byte	0x101
 1618 0777 78010000 		.4byte	.LLST14
 1619 077b 1B       		.uleb128 0x1b
 1620 077c 8A040000 		.4byte	0x48a
 1621 0780 20000000 		.4byte	.LBB27
 1622 0784 30000000 		.4byte	.Ldebug_ranges0+0x30
 1623 0788 01       		.byte	0x1
 1624 0789 C5       		.byte	0xc5
 1625 078a B0070000 		.4byte	0x7b0
 1626 078e 1C       		.uleb128 0x1c
 1627 078f A0040000 		.4byte	0x4a0
 1628 0793 8B010000 		.4byte	.LLST15
 1629 0797 1C       		.uleb128 0x1c
 1630 0798 96040000 		.4byte	0x496
 1631 079c AA010000 		.4byte	.LLST16
 1632 07a0 1D       		.uleb128 0x1d
 1633 07a1 30000000 		.4byte	.Ldebug_ranges0+0x30
 1634 07a5 1E       		.uleb128 0x1e
 1635 07a6 AB040000 		.4byte	0x4ab
 1636 07aa BD010000 		.4byte	.LLST17
 1637 07ae 00       		.byte	0
 1638 07af 00       		.byte	0
 1639 07b0 1F       		.uleb128 0x1f
 1640 07b1 12000000 		.4byte	.LVL33
 1641 07b5 A60A0000 		.4byte	0xaa6
 1642 07b9 1F       		.uleb128 0x1f
 1643 07ba 1C000000 		.4byte	.LVL34
 1644 07be AD0A0000 		.4byte	0xaad
 1645 07c2 20       		.uleb128 0x20
 1646 07c3 42000000 		.4byte	.LVL39
 1647 07c7 B80A0000 		.4byte	0xab8
 1648 07cb D5070000 		.4byte	0x7d5
 1649 07cf 18       		.uleb128 0x18
 1650 07d0 01       		.uleb128 0x1
 1651 07d1 50       		.byte	0x50
 1652 07d2 01       		.uleb128 0x1
 1653 07d3 35       		.byte	0x35
 1654 07d4 00       		.byte	0
 1655 07d5 20       		.uleb128 0x20
 1656 07d6 4A000000 		.4byte	.LVL41
 1657 07da C90A0000 		.4byte	0xac9
 1658 07de E9070000 		.4byte	0x7e9
 1659 07e2 18       		.uleb128 0x18
 1660 07e3 01       		.uleb128 0x1
 1661 07e4 50       		.byte	0x50
 1662 07e5 02       		.uleb128 0x2
 1663 07e6 76       		.byte	0x76
 1664 07e7 00       		.sleb128 0
 1665 07e8 00       		.byte	0
 1666 07e9 20       		.uleb128 0x20
 1667 07ea 5A000000 		.4byte	.LVL43
 1668 07ee 4E0A0000 		.4byte	0xa4e
 1669 07f2 00080000 		.4byte	0x800
 1670 07f6 18       		.uleb128 0x18
 1671 07f7 01       		.uleb128 0x1
 1672 07f8 50       		.byte	0x50
ARM GAS  /tmp/ccFM3XU1.s 			page 31


 1673 07f9 05       		.uleb128 0x5
 1674 07fa 03       		.byte	0x3
 1675 07fb 50000000 		.4byte	.LC4
 1676 07ff 00       		.byte	0
 1677 0800 17       		.uleb128 0x17
 1678 0801 68000000 		.4byte	.LVL44
 1679 0805 4E0A0000 		.4byte	0xa4e
 1680 0809 18       		.uleb128 0x18
 1681 080a 01       		.uleb128 0x1
 1682 080b 50       		.byte	0x50
 1683 080c 05       		.uleb128 0x5
 1684 080d 03       		.byte	0x3
 1685 080e 60000000 		.4byte	.LC5
 1686 0812 00       		.byte	0
 1687 0813 00       		.byte	0
 1688 0814 24       		.uleb128 0x24
 1689 0815 4B040000 		.4byte	.LASF78
 1690 0819 01       		.byte	0x1
 1691 081a 9E       		.byte	0x9e
 1692 081b 01010000 		.4byte	0x101
 1693 081f 00000000 		.4byte	.LFB12
 1694 0823 24000000 		.4byte	.LFE12-.LFB12
 1695 0827 01       		.uleb128 0x1
 1696 0828 9C       		.byte	0x9c
 1697 0829 A3080000 		.4byte	0x8a3
 1698 082d 16       		.uleb128 0x16
 1699 082e 637000   		.ascii	"cp\000"
 1700 0831 01       		.byte	0x1
 1701 0832 9E       		.byte	0x9e
 1702 0833 ED040000 		.4byte	0x4ed
 1703 0837 DC010000 		.4byte	.LLST18
 1704 083b 25       		.uleb128 0x25
 1705 083c 6D736700 		.ascii	"msg\000"
 1706 0840 01       		.byte	0x1
 1707 0841 9F       		.byte	0x9f
 1708 0842 01010000 		.4byte	0x101
 1709 0846 08020000 		.4byte	.LLST19
 1710 084a 23       		.uleb128 0x23
 1711 084b 48000000 		.4byte	.Ldebug_ranges0+0x48
 1712 084f 61080000 		.4byte	0x861
 1713 0853 1A       		.uleb128 0x1a
 1714 0854 746D7000 		.ascii	"tmp\000"
 1715 0858 01       		.byte	0x1
 1716 0859 A1       		.byte	0xa1
 1717 085a AD000000 		.4byte	0xad
 1718 085e 01       		.uleb128 0x1
 1719 085f 53       		.byte	0x53
 1720 0860 00       		.byte	0
 1721 0861 19       		.uleb128 0x19
 1722 0862 1A000000 		.4byte	.LBB33
 1723 0866 06000000 		.4byte	.LBE33-.LBB33
 1724 086a 7C080000 		.4byte	0x87c
 1725 086e 1A       		.uleb128 0x1a
 1726 086f 746D7000 		.ascii	"tmp\000"
 1727 0873 01       		.byte	0x1
 1728 0874 A3       		.byte	0xa3
 1729 0875 AD000000 		.4byte	0xad
ARM GAS  /tmp/ccFM3XU1.s 			page 32


 1730 0879 01       		.uleb128 0x1
 1731 087a 53       		.byte	0x53
 1732 087b 00       		.byte	0
 1733 087c 1F       		.uleb128 0x1f
 1734 087d 0E000000 		.4byte	.LVL46
 1735 0881 5F0A0000 		.4byte	0xa5f
 1736 0885 20       		.uleb128 0x20
 1737 0886 14000000 		.4byte	.LVL47
 1738 088a 28070000 		.4byte	0x728
 1739 088e 99080000 		.4byte	0x899
 1740 0892 18       		.uleb128 0x18
 1741 0893 01       		.uleb128 0x1
 1742 0894 50       		.byte	0x50
 1743 0895 02       		.uleb128 0x2
 1744 0896 74       		.byte	0x74
 1745 0897 00       		.sleb128 0
 1746 0898 00       		.byte	0
 1747 0899 1F       		.uleb128 0x1f
 1748 089a 1A000000 		.4byte	.LVL49
 1749 089e 7C0A0000 		.4byte	0xa7c
 1750 08a2 00       		.byte	0
 1751 08a3 26       		.uleb128 0x26
 1752 08a4 5E020000 		.4byte	.LASF79
 1753 08a8 01       		.byte	0x1
 1754 08a9 0E01     		.2byte	0x10e
 1755 08ab 01010000 		.4byte	0x101
 1756 08af 00000000 		.4byte	.LFB15
 1757 08b3 7E000000 		.4byte	.LFE15-.LFB15
 1758 08b7 01       		.uleb128 0x1
 1759 08b8 9C       		.byte	0x9c
 1760 08b9 9B090000 		.4byte	0x99b
 1761 08bd 27       		.uleb128 0x27
 1762 08be 637000   		.ascii	"cp\000"
 1763 08c1 01       		.byte	0x1
 1764 08c2 0E01     		.2byte	0x10e
 1765 08c4 ED040000 		.4byte	0x4ed
 1766 08c8 26020000 		.4byte	.LLST20
 1767 08cc 28       		.uleb128 0x28
 1768 08cd D4020000 		.4byte	.LASF80
 1769 08d1 01       		.byte	0x1
 1770 08d2 0E01     		.2byte	0x10e
 1771 08d4 17010000 		.4byte	0x117
 1772 08d8 44020000 		.4byte	.LLST21
 1773 08dc 29       		.uleb128 0x29
 1774 08dd 6D7000   		.ascii	"mp\000"
 1775 08e0 01       		.byte	0x1
 1776 08e1 0F01     		.2byte	0x10f
 1777 08e3 58040000 		.4byte	0x458
 1778 08e7 62020000 		.4byte	.LLST22
 1779 08eb 29       		.uleb128 0x29
 1780 08ec 6D736700 		.ascii	"msg\000"
 1781 08f0 01       		.byte	0x1
 1782 08f1 1001     		.2byte	0x110
 1783 08f3 01010000 		.4byte	0x101
 1784 08f7 80020000 		.4byte	.LLST23
 1785 08fb 2A       		.uleb128 0x2a
 1786 08fc 8A040000 		.4byte	0x48a
ARM GAS  /tmp/ccFM3XU1.s 			page 33


 1787 0900 2A000000 		.4byte	.LBB34
 1788 0904 60000000 		.4byte	.Ldebug_ranges0+0x60
 1789 0908 01       		.byte	0x1
 1790 0909 1A01     		.2byte	0x11a
 1791 090b 31090000 		.4byte	0x931
 1792 090f 1C       		.uleb128 0x1c
 1793 0910 A0040000 		.4byte	0x4a0
 1794 0914 9E020000 		.4byte	.LLST24
 1795 0918 1C       		.uleb128 0x1c
 1796 0919 96040000 		.4byte	0x496
 1797 091d BC020000 		.4byte	.LLST25
 1798 0921 1D       		.uleb128 0x1d
 1799 0922 60000000 		.4byte	.Ldebug_ranges0+0x60
 1800 0926 1E       		.uleb128 0x1e
 1801 0927 AB040000 		.4byte	0x4ab
 1802 092b CF020000 		.4byte	.LLST26
 1803 092f 00       		.byte	0
 1804 0930 00       		.byte	0
 1805 0931 1F       		.uleb128 0x1f
 1806 0932 0C000000 		.4byte	.LVL51
 1807 0936 A60A0000 		.4byte	0xaa6
 1808 093a 1F       		.uleb128 0x1f
 1809 093b 26000000 		.4byte	.LVL52
 1810 093f AD0A0000 		.4byte	0xaad
 1811 0943 20       		.uleb128 0x20
 1812 0944 50000000 		.4byte	.LVL58
 1813 0948 DA0A0000 		.4byte	0xada
 1814 094c 5C090000 		.4byte	0x95c
 1815 0950 18       		.uleb128 0x18
 1816 0951 01       		.uleb128 0x1
 1817 0952 51       		.byte	0x51
 1818 0953 02       		.uleb128 0x2
 1819 0954 77       		.byte	0x77
 1820 0955 00       		.sleb128 0
 1821 0956 18       		.uleb128 0x18
 1822 0957 01       		.uleb128 0x1
 1823 0958 50       		.byte	0x50
 1824 0959 01       		.uleb128 0x1
 1825 095a 35       		.byte	0x35
 1826 095b 00       		.byte	0
 1827 095c 20       		.uleb128 0x20
 1828 095d 5C000000 		.4byte	.LVL61
 1829 0961 C90A0000 		.4byte	0xac9
 1830 0965 70090000 		.4byte	0x970
 1831 0969 18       		.uleb128 0x18
 1832 096a 01       		.uleb128 0x1
 1833 096b 50       		.byte	0x50
 1834 096c 02       		.uleb128 0x2
 1835 096d 78       		.byte	0x78
 1836 096e 00       		.sleb128 0
 1837 096f 00       		.byte	0
 1838 0970 20       		.uleb128 0x20
 1839 0971 6E000000 		.4byte	.LVL63
 1840 0975 4E0A0000 		.4byte	0xa4e
 1841 0979 87090000 		.4byte	0x987
 1842 097d 18       		.uleb128 0x18
 1843 097e 01       		.uleb128 0x1
ARM GAS  /tmp/ccFM3XU1.s 			page 34


 1844 097f 50       		.byte	0x50
 1845 0980 05       		.uleb128 0x5
 1846 0981 03       		.byte	0x3
 1847 0982 74000000 		.4byte	.LC6
 1848 0986 00       		.byte	0
 1849 0987 17       		.uleb128 0x17
 1850 0988 7C000000 		.4byte	.LVL64
 1851 098c 4E0A0000 		.4byte	0xa4e
 1852 0990 18       		.uleb128 0x18
 1853 0991 01       		.uleb128 0x1
 1854 0992 50       		.byte	0x50
 1855 0993 05       		.uleb128 0x5
 1856 0994 03       		.byte	0x3
 1857 0995 8C000000 		.4byte	.LC7
 1858 0999 00       		.byte	0
 1859 099a 00       		.byte	0
 1860 099b 24       		.uleb128 0x24
 1861 099c A9040000 		.4byte	.LASF81
 1862 09a0 01       		.byte	0x1
 1863 09a1 E9       		.byte	0xe9
 1864 09a2 01010000 		.4byte	0x101
 1865 09a6 00000000 		.4byte	.LFB14
 1866 09aa 28000000 		.4byte	.LFE14-.LFB14
 1867 09ae 01       		.uleb128 0x1
 1868 09af 9C       		.byte	0x9c
 1869 09b0 430A0000 		.4byte	0xa43
 1870 09b4 16       		.uleb128 0x16
 1871 09b5 637000   		.ascii	"cp\000"
 1872 09b8 01       		.byte	0x1
 1873 09b9 E9       		.byte	0xe9
 1874 09ba ED040000 		.4byte	0x4ed
 1875 09be E2020000 		.4byte	.LLST27
 1876 09c2 2B       		.uleb128 0x2b
 1877 09c3 D4020000 		.4byte	.LASF80
 1878 09c7 01       		.byte	0x1
 1879 09c8 E9       		.byte	0xe9
 1880 09c9 17010000 		.4byte	0x117
 1881 09cd 00030000 		.4byte	.LLST28
 1882 09d1 25       		.uleb128 0x25
 1883 09d2 6D736700 		.ascii	"msg\000"
 1884 09d6 01       		.byte	0x1
 1885 09d7 EA       		.byte	0xea
 1886 09d8 01010000 		.4byte	0x101
 1887 09dc 2C030000 		.4byte	.LLST29
 1888 09e0 19       		.uleb128 0x19
 1889 09e1 06000000 		.4byte	.LBB42
 1890 09e5 06000000 		.4byte	.LBE42-.LBB42
 1891 09e9 FB090000 		.4byte	0x9fb
 1892 09ed 1A       		.uleb128 0x1a
 1893 09ee 746D7000 		.ascii	"tmp\000"
 1894 09f2 01       		.byte	0x1
 1895 09f3 EC       		.byte	0xec
 1896 09f4 AD000000 		.4byte	0xad
 1897 09f8 01       		.uleb128 0x1
 1898 09f9 53       		.byte	0x53
 1899 09fa 00       		.byte	0
 1900 09fb 19       		.uleb128 0x19
ARM GAS  /tmp/ccFM3XU1.s 			page 35


 1901 09fc 1E000000 		.4byte	.LBB43
 1902 0a00 06000000 		.4byte	.LBE43-.LBB43
 1903 0a04 160A0000 		.4byte	0xa16
 1904 0a08 1A       		.uleb128 0x1a
 1905 0a09 746D7000 		.ascii	"tmp\000"
 1906 0a0d 01       		.byte	0x1
 1907 0a0e EE       		.byte	0xee
 1908 0a0f AD000000 		.4byte	0xad
 1909 0a13 01       		.uleb128 0x1
 1910 0a14 53       		.byte	0x53
 1911 0a15 00       		.byte	0
 1912 0a16 1F       		.uleb128 0x1f
 1913 0a17 10000000 		.4byte	.LVL66
 1914 0a1b 5F0A0000 		.4byte	0xa5f
 1915 0a1f 20       		.uleb128 0x20
 1916 0a20 18000000 		.4byte	.LVL67
 1917 0a24 A3080000 		.4byte	0x8a3
 1918 0a28 390A0000 		.4byte	0xa39
 1919 0a2c 18       		.uleb128 0x18
 1920 0a2d 01       		.uleb128 0x1
 1921 0a2e 51       		.byte	0x51
 1922 0a2f 02       		.uleb128 0x2
 1923 0a30 74       		.byte	0x74
 1924 0a31 00       		.sleb128 0
 1925 0a32 18       		.uleb128 0x18
 1926 0a33 01       		.uleb128 0x1
 1927 0a34 50       		.byte	0x50
 1928 0a35 02       		.uleb128 0x2
 1929 0a36 75       		.byte	0x75
 1930 0a37 00       		.sleb128 0
 1931 0a38 00       		.byte	0
 1932 0a39 1F       		.uleb128 0x1f
 1933 0a3a 1E000000 		.4byte	.LVL69
 1934 0a3e 7C0A0000 		.4byte	0xa7c
 1935 0a42 00       		.byte	0
 1936 0a43 2C       		.uleb128 0x2c
 1937 0a44 8D040000 		.4byte	.LASF97
 1938 0a48 09       		.byte	0x9
 1939 0a49 6F       		.byte	0x6f
 1940 0a4a 9A030000 		.4byte	0x39a
 1941 0a4e 2D       		.uleb128 0x2d
 1942 0a4f 06000000 		.4byte	.LASF82
 1943 0a53 0C       		.byte	0xc
 1944 0a54 F6       		.byte	0xf6
 1945 0a55 5F0A0000 		.4byte	0xa5f
 1946 0a59 2E       		.uleb128 0x2e
 1947 0a5a 40040000 		.4byte	0x440
 1948 0a5e 00       		.byte	0
 1949 0a5f 2F       		.uleb128 0x2f
 1950 0a60 D8040000 		.4byte	.LASF84
 1951 0a64 0C       		.byte	0xc
 1952 0a65 E7       		.byte	0xe7
 1953 0a66 2D       		.uleb128 0x2d
 1954 0a67 6F040000 		.4byte	.LASF83
 1955 0a6b 09       		.byte	0x9
 1956 0a6c 99       		.byte	0x99
 1957 0a6d 7C0A0000 		.4byte	0xa7c
ARM GAS  /tmp/ccFM3XU1.s 			page 36


 1958 0a71 2E       		.uleb128 0x2e
 1959 0a72 57020000 		.4byte	0x257
 1960 0a76 2E       		.uleb128 0x2e
 1961 0a77 01010000 		.4byte	0x101
 1962 0a7b 00       		.byte	0
 1963 0a7c 2F       		.uleb128 0x2f
 1964 0a7d 44020000 		.4byte	.LASF85
 1965 0a81 0C       		.byte	0xc
 1966 0a82 E8       		.byte	0xe8
 1967 0a83 2F       		.uleb128 0x2f
 1968 0a84 F1010000 		.4byte	.LASF86
 1969 0a88 0C       		.byte	0xc
 1970 0a89 ED       		.byte	0xed
 1971 0a8a 30       		.uleb128 0x30
 1972 0a8b F0030000 		.4byte	.LASF98
 1973 0a8f 09       		.byte	0x9
 1974 0a90 90       		.byte	0x90
 1975 0a91 57020000 		.4byte	0x257
 1976 0a95 9F0A0000 		.4byte	0xa9f
 1977 0a99 2E       		.uleb128 0x2e
 1978 0a9a 57020000 		.4byte	0x257
 1979 0a9e 00       		.byte	0
 1980 0a9f 2F       		.uleb128 0x2f
 1981 0aa0 6C010000 		.4byte	.LASF87
 1982 0aa4 09       		.byte	0x9
 1983 0aa5 9C       		.byte	0x9c
 1984 0aa6 2F       		.uleb128 0x2f
 1985 0aa7 0A020000 		.4byte	.LASF88
 1986 0aab 0C       		.byte	0xc
 1987 0aac EE       		.byte	0xee
 1988 0aad 31       		.uleb128 0x31
 1989 0aae AA030000 		.4byte	.LASF99
 1990 0ab2 0A       		.byte	0xa
 1991 0ab3 3E       		.byte	0x3e
 1992 0ab4 58040000 		.4byte	0x458
 1993 0ab8 2D       		.uleb128 0x2d
 1994 0ab9 C6030000 		.4byte	.LASF89
 1995 0abd 09       		.byte	0x9
 1996 0abe 93       		.byte	0x93
 1997 0abf C90A0000 		.4byte	0xac9
 1998 0ac3 2E       		.uleb128 0x2e
 1999 0ac4 D5000000 		.4byte	0xd5
 2000 0ac8 00       		.byte	0
 2001 0ac9 2D       		.uleb128 0x2d
 2002 0aca 59010000 		.4byte	.LASF90
 2003 0ace 0A       		.byte	0xa
 2004 0acf 3A       		.byte	0x3a
 2005 0ad0 DA0A0000 		.4byte	0xada
 2006 0ad4 2E       		.uleb128 0x2e
 2007 0ad5 58040000 		.4byte	0x458
 2008 0ad9 00       		.byte	0
 2009 0ada 32       		.uleb128 0x32
 2010 0adb BB040000 		.4byte	.LASF91
 2011 0adf 09       		.byte	0x9
 2012 0ae0 96       		.byte	0x96
 2013 0ae1 01010000 		.4byte	0x101
 2014 0ae5 2E       		.uleb128 0x2e
ARM GAS  /tmp/ccFM3XU1.s 			page 37


 2015 0ae6 D5000000 		.4byte	0xd5
 2016 0aea 2E       		.uleb128 0x2e
 2017 0aeb 17010000 		.4byte	0x117
 2018 0aef 00       		.byte	0
 2019 0af0 00       		.byte	0
 2020              		.section	.debug_abbrev,"",%progbits
 2021              	.Ldebug_abbrev0:
 2022 0000 01       		.uleb128 0x1
 2023 0001 11       		.uleb128 0x11
 2024 0002 01       		.byte	0x1
 2025 0003 25       		.uleb128 0x25
 2026 0004 0E       		.uleb128 0xe
 2027 0005 13       		.uleb128 0x13
 2028 0006 0B       		.uleb128 0xb
 2029 0007 03       		.uleb128 0x3
 2030 0008 0E       		.uleb128 0xe
 2031 0009 1B       		.uleb128 0x1b
 2032 000a 0E       		.uleb128 0xe
 2033 000b 55       		.uleb128 0x55
 2034 000c 17       		.uleb128 0x17
 2035 000d 11       		.uleb128 0x11
 2036 000e 01       		.uleb128 0x1
 2037 000f 10       		.uleb128 0x10
 2038 0010 17       		.uleb128 0x17
 2039 0011 00       		.byte	0
 2040 0012 00       		.byte	0
 2041 0013 02       		.uleb128 0x2
 2042 0014 24       		.uleb128 0x24
 2043 0015 00       		.byte	0
 2044 0016 0B       		.uleb128 0xb
 2045 0017 0B       		.uleb128 0xb
 2046 0018 3E       		.uleb128 0x3e
 2047 0019 0B       		.uleb128 0xb
 2048 001a 03       		.uleb128 0x3
 2049 001b 08       		.uleb128 0x8
 2050 001c 00       		.byte	0
 2051 001d 00       		.byte	0
 2052 001e 03       		.uleb128 0x3
 2053 001f 24       		.uleb128 0x24
 2054 0020 00       		.byte	0
 2055 0021 0B       		.uleb128 0xb
 2056 0022 0B       		.uleb128 0xb
 2057 0023 3E       		.uleb128 0x3e
 2058 0024 0B       		.uleb128 0xb
 2059 0025 03       		.uleb128 0x3
 2060 0026 0E       		.uleb128 0xe
 2061 0027 00       		.byte	0
 2062 0028 00       		.byte	0
 2063 0029 04       		.uleb128 0x4
 2064 002a 16       		.uleb128 0x16
 2065 002b 00       		.byte	0
 2066 002c 03       		.uleb128 0x3
 2067 002d 0E       		.uleb128 0xe
 2068 002e 3A       		.uleb128 0x3a
 2069 002f 0B       		.uleb128 0xb
 2070 0030 3B       		.uleb128 0x3b
 2071 0031 0B       		.uleb128 0xb
ARM GAS  /tmp/ccFM3XU1.s 			page 38


 2072 0032 49       		.uleb128 0x49
 2073 0033 13       		.uleb128 0x13
 2074 0034 00       		.byte	0
 2075 0035 00       		.byte	0
 2076 0036 05       		.uleb128 0x5
 2077 0037 13       		.uleb128 0x13
 2078 0038 01       		.byte	0x1
 2079 0039 03       		.uleb128 0x3
 2080 003a 0E       		.uleb128 0xe
 2081 003b 0B       		.uleb128 0xb
 2082 003c 0B       		.uleb128 0xb
 2083 003d 3A       		.uleb128 0x3a
 2084 003e 0B       		.uleb128 0xb
 2085 003f 3B       		.uleb128 0x3b
 2086 0040 0B       		.uleb128 0xb
 2087 0041 01       		.uleb128 0x1
 2088 0042 13       		.uleb128 0x13
 2089 0043 00       		.byte	0
 2090 0044 00       		.byte	0
 2091 0045 06       		.uleb128 0x6
 2092 0046 0D       		.uleb128 0xd
 2093 0047 00       		.byte	0
 2094 0048 03       		.uleb128 0x3
 2095 0049 0E       		.uleb128 0xe
 2096 004a 3A       		.uleb128 0x3a
 2097 004b 0B       		.uleb128 0xb
 2098 004c 3B       		.uleb128 0x3b
 2099 004d 0B       		.uleb128 0xb
 2100 004e 49       		.uleb128 0x49
 2101 004f 13       		.uleb128 0x13
 2102 0050 38       		.uleb128 0x38
 2103 0051 0B       		.uleb128 0xb
 2104 0052 00       		.byte	0
 2105 0053 00       		.byte	0
 2106 0054 07       		.uleb128 0x7
 2107 0055 0D       		.uleb128 0xd
 2108 0056 00       		.byte	0
 2109 0057 03       		.uleb128 0x3
 2110 0058 08       		.uleb128 0x8
 2111 0059 3A       		.uleb128 0x3a
 2112 005a 0B       		.uleb128 0xb
 2113 005b 3B       		.uleb128 0x3b
 2114 005c 0B       		.uleb128 0xb
 2115 005d 49       		.uleb128 0x49
 2116 005e 13       		.uleb128 0x13
 2117 005f 38       		.uleb128 0x38
 2118 0060 0B       		.uleb128 0xb
 2119 0061 00       		.byte	0
 2120 0062 00       		.byte	0
 2121 0063 08       		.uleb128 0x8
 2122 0064 13       		.uleb128 0x13
 2123 0065 01       		.byte	0x1
 2124 0066 0B       		.uleb128 0xb
 2125 0067 0B       		.uleb128 0xb
 2126 0068 3A       		.uleb128 0x3a
 2127 0069 0B       		.uleb128 0xb
 2128 006a 3B       		.uleb128 0x3b
ARM GAS  /tmp/ccFM3XU1.s 			page 39


 2129 006b 0B       		.uleb128 0xb
 2130 006c 01       		.uleb128 0x1
 2131 006d 13       		.uleb128 0x13
 2132 006e 00       		.byte	0
 2133 006f 00       		.byte	0
 2134 0070 09       		.uleb128 0x9
 2135 0071 0F       		.uleb128 0xf
 2136 0072 00       		.byte	0
 2137 0073 0B       		.uleb128 0xb
 2138 0074 0B       		.uleb128 0xb
 2139 0075 49       		.uleb128 0x49
 2140 0076 13       		.uleb128 0x13
 2141 0077 00       		.byte	0
 2142 0078 00       		.byte	0
 2143 0079 0A       		.uleb128 0xa
 2144 007a 0F       		.uleb128 0xf
 2145 007b 00       		.byte	0
 2146 007c 0B       		.uleb128 0xb
 2147 007d 0B       		.uleb128 0xb
 2148 007e 00       		.byte	0
 2149 007f 00       		.byte	0
 2150 0080 0B       		.uleb128 0xb
 2151 0081 13       		.uleb128 0x13
 2152 0082 01       		.byte	0x1
 2153 0083 03       		.uleb128 0x3
 2154 0084 0E       		.uleb128 0xe
 2155 0085 0B       		.uleb128 0xb
 2156 0086 0B       		.uleb128 0xb
 2157 0087 3A       		.uleb128 0x3a
 2158 0088 0B       		.uleb128 0xb
 2159 0089 3B       		.uleb128 0x3b
 2160 008a 05       		.uleb128 0x5
 2161 008b 01       		.uleb128 0x1
 2162 008c 13       		.uleb128 0x13
 2163 008d 00       		.byte	0
 2164 008e 00       		.byte	0
 2165 008f 0C       		.uleb128 0xc
 2166 0090 0D       		.uleb128 0xd
 2167 0091 00       		.byte	0
 2168 0092 03       		.uleb128 0x3
 2169 0093 08       		.uleb128 0x8
 2170 0094 3A       		.uleb128 0x3a
 2171 0095 0B       		.uleb128 0xb
 2172 0096 3B       		.uleb128 0x3b
 2173 0097 05       		.uleb128 0x5
 2174 0098 49       		.uleb128 0x49
 2175 0099 13       		.uleb128 0x13
 2176 009a 38       		.uleb128 0x38
 2177 009b 0B       		.uleb128 0xb
 2178 009c 00       		.byte	0
 2179 009d 00       		.byte	0
 2180 009e 0D       		.uleb128 0xd
 2181 009f 35       		.uleb128 0x35
 2182 00a0 00       		.byte	0
 2183 00a1 49       		.uleb128 0x49
 2184 00a2 13       		.uleb128 0x13
 2185 00a3 00       		.byte	0
ARM GAS  /tmp/ccFM3XU1.s 			page 40


 2186 00a4 00       		.byte	0
 2187 00a5 0E       		.uleb128 0xe
 2188 00a6 17       		.uleb128 0x17
 2189 00a7 01       		.byte	0x1
 2190 00a8 0B       		.uleb128 0xb
 2191 00a9 0B       		.uleb128 0xb
 2192 00aa 3A       		.uleb128 0x3a
 2193 00ab 0B       		.uleb128 0xb
 2194 00ac 3B       		.uleb128 0x3b
 2195 00ad 0B       		.uleb128 0xb
 2196 00ae 01       		.uleb128 0x1
 2197 00af 13       		.uleb128 0x13
 2198 00b0 00       		.byte	0
 2199 00b1 00       		.byte	0
 2200 00b2 0F       		.uleb128 0xf
 2201 00b3 0D       		.uleb128 0xd
 2202 00b4 00       		.byte	0
 2203 00b5 03       		.uleb128 0x3
 2204 00b6 0E       		.uleb128 0xe
 2205 00b7 3A       		.uleb128 0x3a
 2206 00b8 0B       		.uleb128 0xb
 2207 00b9 3B       		.uleb128 0x3b
 2208 00ba 0B       		.uleb128 0xb
 2209 00bb 49       		.uleb128 0x49
 2210 00bc 13       		.uleb128 0x13
 2211 00bd 00       		.byte	0
 2212 00be 00       		.byte	0
 2213 00bf 10       		.uleb128 0x10
 2214 00c0 26       		.uleb128 0x26
 2215 00c1 00       		.byte	0
 2216 00c2 49       		.uleb128 0x49
 2217 00c3 13       		.uleb128 0x13
 2218 00c4 00       		.byte	0
 2219 00c5 00       		.byte	0
 2220 00c6 11       		.uleb128 0x11
 2221 00c7 2E       		.uleb128 0x2e
 2222 00c8 01       		.byte	0x1
 2223 00c9 03       		.uleb128 0x3
 2224 00ca 0E       		.uleb128 0xe
 2225 00cb 3A       		.uleb128 0x3a
 2226 00cc 0B       		.uleb128 0xb
 2227 00cd 3B       		.uleb128 0x3b
 2228 00ce 0B       		.uleb128 0xb
 2229 00cf 27       		.uleb128 0x27
 2230 00d0 19       		.uleb128 0x19
 2231 00d1 49       		.uleb128 0x49
 2232 00d2 13       		.uleb128 0x13
 2233 00d3 20       		.uleb128 0x20
 2234 00d4 0B       		.uleb128 0xb
 2235 00d5 01       		.uleb128 0x1
 2236 00d6 13       		.uleb128 0x13
 2237 00d7 00       		.byte	0
 2238 00d8 00       		.byte	0
 2239 00d9 12       		.uleb128 0x12
 2240 00da 05       		.uleb128 0x5
 2241 00db 00       		.byte	0
 2242 00dc 03       		.uleb128 0x3
ARM GAS  /tmp/ccFM3XU1.s 			page 41


 2243 00dd 08       		.uleb128 0x8
 2244 00de 3A       		.uleb128 0x3a
 2245 00df 0B       		.uleb128 0xb
 2246 00e0 3B       		.uleb128 0x3b
 2247 00e1 0B       		.uleb128 0xb
 2248 00e2 49       		.uleb128 0x49
 2249 00e3 13       		.uleb128 0x13
 2250 00e4 00       		.byte	0
 2251 00e5 00       		.byte	0
 2252 00e6 13       		.uleb128 0x13
 2253 00e7 34       		.uleb128 0x34
 2254 00e8 00       		.byte	0
 2255 00e9 03       		.uleb128 0x3
 2256 00ea 08       		.uleb128 0x8
 2257 00eb 3A       		.uleb128 0x3a
 2258 00ec 0B       		.uleb128 0xb
 2259 00ed 3B       		.uleb128 0x3b
 2260 00ee 0B       		.uleb128 0xb
 2261 00ef 49       		.uleb128 0x49
 2262 00f0 13       		.uleb128 0x13
 2263 00f1 00       		.byte	0
 2264 00f2 00       		.byte	0
 2265 00f3 14       		.uleb128 0x14
 2266 00f4 2E       		.uleb128 0x2e
 2267 00f5 01       		.byte	0x1
 2268 00f6 03       		.uleb128 0x3
 2269 00f7 0E       		.uleb128 0xe
 2270 00f8 3A       		.uleb128 0x3a
 2271 00f9 0B       		.uleb128 0xb
 2272 00fa 3B       		.uleb128 0x3b
 2273 00fb 0B       		.uleb128 0xb
 2274 00fc 27       		.uleb128 0x27
 2275 00fd 19       		.uleb128 0x19
 2276 00fe 20       		.uleb128 0x20
 2277 00ff 0B       		.uleb128 0xb
 2278 0100 01       		.uleb128 0x1
 2279 0101 13       		.uleb128 0x13
 2280 0102 00       		.byte	0
 2281 0103 00       		.byte	0
 2282 0104 15       		.uleb128 0x15
 2283 0105 2E       		.uleb128 0x2e
 2284 0106 01       		.byte	0x1
 2285 0107 3F       		.uleb128 0x3f
 2286 0108 19       		.uleb128 0x19
 2287 0109 03       		.uleb128 0x3
 2288 010a 0E       		.uleb128 0xe
 2289 010b 3A       		.uleb128 0x3a
 2290 010c 0B       		.uleb128 0xb
 2291 010d 3B       		.uleb128 0x3b
 2292 010e 0B       		.uleb128 0xb
 2293 010f 27       		.uleb128 0x27
 2294 0110 19       		.uleb128 0x19
 2295 0111 11       		.uleb128 0x11
 2296 0112 01       		.uleb128 0x1
 2297 0113 12       		.uleb128 0x12
 2298 0114 06       		.uleb128 0x6
 2299 0115 40       		.uleb128 0x40
ARM GAS  /tmp/ccFM3XU1.s 			page 42


 2300 0116 18       		.uleb128 0x18
 2301 0117 9742     		.uleb128 0x2117
 2302 0119 19       		.uleb128 0x19
 2303 011a 01       		.uleb128 0x1
 2304 011b 13       		.uleb128 0x13
 2305 011c 00       		.byte	0
 2306 011d 00       		.byte	0
 2307 011e 16       		.uleb128 0x16
 2308 011f 05       		.uleb128 0x5
 2309 0120 00       		.byte	0
 2310 0121 03       		.uleb128 0x3
 2311 0122 08       		.uleb128 0x8
 2312 0123 3A       		.uleb128 0x3a
 2313 0124 0B       		.uleb128 0xb
 2314 0125 3B       		.uleb128 0x3b
 2315 0126 0B       		.uleb128 0xb
 2316 0127 49       		.uleb128 0x49
 2317 0128 13       		.uleb128 0x13
 2318 0129 02       		.uleb128 0x2
 2319 012a 17       		.uleb128 0x17
 2320 012b 00       		.byte	0
 2321 012c 00       		.byte	0
 2322 012d 17       		.uleb128 0x17
 2323 012e 898201   		.uleb128 0x4109
 2324 0131 01       		.byte	0x1
 2325 0132 11       		.uleb128 0x11
 2326 0133 01       		.uleb128 0x1
 2327 0134 31       		.uleb128 0x31
 2328 0135 13       		.uleb128 0x13
 2329 0136 00       		.byte	0
 2330 0137 00       		.byte	0
 2331 0138 18       		.uleb128 0x18
 2332 0139 8A8201   		.uleb128 0x410a
 2333 013c 00       		.byte	0
 2334 013d 02       		.uleb128 0x2
 2335 013e 18       		.uleb128 0x18
 2336 013f 9142     		.uleb128 0x2111
 2337 0141 18       		.uleb128 0x18
 2338 0142 00       		.byte	0
 2339 0143 00       		.byte	0
 2340 0144 19       		.uleb128 0x19
 2341 0145 0B       		.uleb128 0xb
 2342 0146 01       		.byte	0x1
 2343 0147 11       		.uleb128 0x11
 2344 0148 01       		.uleb128 0x1
 2345 0149 12       		.uleb128 0x12
 2346 014a 06       		.uleb128 0x6
 2347 014b 01       		.uleb128 0x1
 2348 014c 13       		.uleb128 0x13
 2349 014d 00       		.byte	0
 2350 014e 00       		.byte	0
 2351 014f 1A       		.uleb128 0x1a
 2352 0150 34       		.uleb128 0x34
 2353 0151 00       		.byte	0
 2354 0152 03       		.uleb128 0x3
 2355 0153 08       		.uleb128 0x8
 2356 0154 3A       		.uleb128 0x3a
ARM GAS  /tmp/ccFM3XU1.s 			page 43


 2357 0155 0B       		.uleb128 0xb
 2358 0156 3B       		.uleb128 0x3b
 2359 0157 0B       		.uleb128 0xb
 2360 0158 49       		.uleb128 0x49
 2361 0159 13       		.uleb128 0x13
 2362 015a 02       		.uleb128 0x2
 2363 015b 18       		.uleb128 0x18
 2364 015c 00       		.byte	0
 2365 015d 00       		.byte	0
 2366 015e 1B       		.uleb128 0x1b
 2367 015f 1D       		.uleb128 0x1d
 2368 0160 01       		.byte	0x1
 2369 0161 31       		.uleb128 0x31
 2370 0162 13       		.uleb128 0x13
 2371 0163 52       		.uleb128 0x52
 2372 0164 01       		.uleb128 0x1
 2373 0165 55       		.uleb128 0x55
 2374 0166 17       		.uleb128 0x17
 2375 0167 58       		.uleb128 0x58
 2376 0168 0B       		.uleb128 0xb
 2377 0169 59       		.uleb128 0x59
 2378 016a 0B       		.uleb128 0xb
 2379 016b 01       		.uleb128 0x1
 2380 016c 13       		.uleb128 0x13
 2381 016d 00       		.byte	0
 2382 016e 00       		.byte	0
 2383 016f 1C       		.uleb128 0x1c
 2384 0170 05       		.uleb128 0x5
 2385 0171 00       		.byte	0
 2386 0172 31       		.uleb128 0x31
 2387 0173 13       		.uleb128 0x13
 2388 0174 02       		.uleb128 0x2
 2389 0175 17       		.uleb128 0x17
 2390 0176 00       		.byte	0
 2391 0177 00       		.byte	0
 2392 0178 1D       		.uleb128 0x1d
 2393 0179 0B       		.uleb128 0xb
 2394 017a 01       		.byte	0x1
 2395 017b 55       		.uleb128 0x55
 2396 017c 17       		.uleb128 0x17
 2397 017d 00       		.byte	0
 2398 017e 00       		.byte	0
 2399 017f 1E       		.uleb128 0x1e
 2400 0180 34       		.uleb128 0x34
 2401 0181 00       		.byte	0
 2402 0182 31       		.uleb128 0x31
 2403 0183 13       		.uleb128 0x13
 2404 0184 02       		.uleb128 0x2
 2405 0185 17       		.uleb128 0x17
 2406 0186 00       		.byte	0
 2407 0187 00       		.byte	0
 2408 0188 1F       		.uleb128 0x1f
 2409 0189 898201   		.uleb128 0x4109
 2410 018c 00       		.byte	0
 2411 018d 11       		.uleb128 0x11
 2412 018e 01       		.uleb128 0x1
 2413 018f 31       		.uleb128 0x31
ARM GAS  /tmp/ccFM3XU1.s 			page 44


 2414 0190 13       		.uleb128 0x13
 2415 0191 00       		.byte	0
 2416 0192 00       		.byte	0
 2417 0193 20       		.uleb128 0x20
 2418 0194 898201   		.uleb128 0x4109
 2419 0197 01       		.byte	0x1
 2420 0198 11       		.uleb128 0x11
 2421 0199 01       		.uleb128 0x1
 2422 019a 31       		.uleb128 0x31
 2423 019b 13       		.uleb128 0x13
 2424 019c 01       		.uleb128 0x1
 2425 019d 13       		.uleb128 0x13
 2426 019e 00       		.byte	0
 2427 019f 00       		.byte	0
 2428 01a0 21       		.uleb128 0x21
 2429 01a1 1D       		.uleb128 0x1d
 2430 01a2 01       		.byte	0x1
 2431 01a3 31       		.uleb128 0x31
 2432 01a4 13       		.uleb128 0x13
 2433 01a5 11       		.uleb128 0x11
 2434 01a6 01       		.uleb128 0x1
 2435 01a7 12       		.uleb128 0x12
 2436 01a8 06       		.uleb128 0x6
 2437 01a9 58       		.uleb128 0x58
 2438 01aa 0B       		.uleb128 0xb
 2439 01ab 59       		.uleb128 0x59
 2440 01ac 0B       		.uleb128 0xb
 2441 01ad 01       		.uleb128 0x1
 2442 01ae 13       		.uleb128 0x13
 2443 01af 00       		.byte	0
 2444 01b0 00       		.byte	0
 2445 01b1 22       		.uleb128 0x22
 2446 01b2 0B       		.uleb128 0xb
 2447 01b3 01       		.byte	0x1
 2448 01b4 11       		.uleb128 0x11
 2449 01b5 01       		.uleb128 0x1
 2450 01b6 12       		.uleb128 0x12
 2451 01b7 06       		.uleb128 0x6
 2452 01b8 00       		.byte	0
 2453 01b9 00       		.byte	0
 2454 01ba 23       		.uleb128 0x23
 2455 01bb 0B       		.uleb128 0xb
 2456 01bc 01       		.byte	0x1
 2457 01bd 55       		.uleb128 0x55
 2458 01be 17       		.uleb128 0x17
 2459 01bf 01       		.uleb128 0x1
 2460 01c0 13       		.uleb128 0x13
 2461 01c1 00       		.byte	0
 2462 01c2 00       		.byte	0
 2463 01c3 24       		.uleb128 0x24
 2464 01c4 2E       		.uleb128 0x2e
 2465 01c5 01       		.byte	0x1
 2466 01c6 3F       		.uleb128 0x3f
 2467 01c7 19       		.uleb128 0x19
 2468 01c8 03       		.uleb128 0x3
 2469 01c9 0E       		.uleb128 0xe
 2470 01ca 3A       		.uleb128 0x3a
ARM GAS  /tmp/ccFM3XU1.s 			page 45


 2471 01cb 0B       		.uleb128 0xb
 2472 01cc 3B       		.uleb128 0x3b
 2473 01cd 0B       		.uleb128 0xb
 2474 01ce 27       		.uleb128 0x27
 2475 01cf 19       		.uleb128 0x19
 2476 01d0 49       		.uleb128 0x49
 2477 01d1 13       		.uleb128 0x13
 2478 01d2 11       		.uleb128 0x11
 2479 01d3 01       		.uleb128 0x1
 2480 01d4 12       		.uleb128 0x12
 2481 01d5 06       		.uleb128 0x6
 2482 01d6 40       		.uleb128 0x40
 2483 01d7 18       		.uleb128 0x18
 2484 01d8 9742     		.uleb128 0x2117
 2485 01da 19       		.uleb128 0x19
 2486 01db 01       		.uleb128 0x1
 2487 01dc 13       		.uleb128 0x13
 2488 01dd 00       		.byte	0
 2489 01de 00       		.byte	0
 2490 01df 25       		.uleb128 0x25
 2491 01e0 34       		.uleb128 0x34
 2492 01e1 00       		.byte	0
 2493 01e2 03       		.uleb128 0x3
 2494 01e3 08       		.uleb128 0x8
 2495 01e4 3A       		.uleb128 0x3a
 2496 01e5 0B       		.uleb128 0xb
 2497 01e6 3B       		.uleb128 0x3b
 2498 01e7 0B       		.uleb128 0xb
 2499 01e8 49       		.uleb128 0x49
 2500 01e9 13       		.uleb128 0x13
 2501 01ea 02       		.uleb128 0x2
 2502 01eb 17       		.uleb128 0x17
 2503 01ec 00       		.byte	0
 2504 01ed 00       		.byte	0
 2505 01ee 26       		.uleb128 0x26
 2506 01ef 2E       		.uleb128 0x2e
 2507 01f0 01       		.byte	0x1
 2508 01f1 3F       		.uleb128 0x3f
 2509 01f2 19       		.uleb128 0x19
 2510 01f3 03       		.uleb128 0x3
 2511 01f4 0E       		.uleb128 0xe
 2512 01f5 3A       		.uleb128 0x3a
 2513 01f6 0B       		.uleb128 0xb
 2514 01f7 3B       		.uleb128 0x3b
 2515 01f8 05       		.uleb128 0x5
 2516 01f9 27       		.uleb128 0x27
 2517 01fa 19       		.uleb128 0x19
 2518 01fb 49       		.uleb128 0x49
 2519 01fc 13       		.uleb128 0x13
 2520 01fd 11       		.uleb128 0x11
 2521 01fe 01       		.uleb128 0x1
 2522 01ff 12       		.uleb128 0x12
 2523 0200 06       		.uleb128 0x6
 2524 0201 40       		.uleb128 0x40
 2525 0202 18       		.uleb128 0x18
 2526 0203 9742     		.uleb128 0x2117
 2527 0205 19       		.uleb128 0x19
ARM GAS  /tmp/ccFM3XU1.s 			page 46


 2528 0206 01       		.uleb128 0x1
 2529 0207 13       		.uleb128 0x13
 2530 0208 00       		.byte	0
 2531 0209 00       		.byte	0
 2532 020a 27       		.uleb128 0x27
 2533 020b 05       		.uleb128 0x5
 2534 020c 00       		.byte	0
 2535 020d 03       		.uleb128 0x3
 2536 020e 08       		.uleb128 0x8
 2537 020f 3A       		.uleb128 0x3a
 2538 0210 0B       		.uleb128 0xb
 2539 0211 3B       		.uleb128 0x3b
 2540 0212 05       		.uleb128 0x5
 2541 0213 49       		.uleb128 0x49
 2542 0214 13       		.uleb128 0x13
 2543 0215 02       		.uleb128 0x2
 2544 0216 17       		.uleb128 0x17
 2545 0217 00       		.byte	0
 2546 0218 00       		.byte	0
 2547 0219 28       		.uleb128 0x28
 2548 021a 05       		.uleb128 0x5
 2549 021b 00       		.byte	0
 2550 021c 03       		.uleb128 0x3
 2551 021d 0E       		.uleb128 0xe
 2552 021e 3A       		.uleb128 0x3a
 2553 021f 0B       		.uleb128 0xb
 2554 0220 3B       		.uleb128 0x3b
 2555 0221 05       		.uleb128 0x5
 2556 0222 49       		.uleb128 0x49
 2557 0223 13       		.uleb128 0x13
 2558 0224 02       		.uleb128 0x2
 2559 0225 17       		.uleb128 0x17
 2560 0226 00       		.byte	0
 2561 0227 00       		.byte	0
 2562 0228 29       		.uleb128 0x29
 2563 0229 34       		.uleb128 0x34
 2564 022a 00       		.byte	0
 2565 022b 03       		.uleb128 0x3
 2566 022c 08       		.uleb128 0x8
 2567 022d 3A       		.uleb128 0x3a
 2568 022e 0B       		.uleb128 0xb
 2569 022f 3B       		.uleb128 0x3b
 2570 0230 05       		.uleb128 0x5
 2571 0231 49       		.uleb128 0x49
 2572 0232 13       		.uleb128 0x13
 2573 0233 02       		.uleb128 0x2
 2574 0234 17       		.uleb128 0x17
 2575 0235 00       		.byte	0
 2576 0236 00       		.byte	0
 2577 0237 2A       		.uleb128 0x2a
 2578 0238 1D       		.uleb128 0x1d
 2579 0239 01       		.byte	0x1
 2580 023a 31       		.uleb128 0x31
 2581 023b 13       		.uleb128 0x13
 2582 023c 52       		.uleb128 0x52
 2583 023d 01       		.uleb128 0x1
 2584 023e 55       		.uleb128 0x55
ARM GAS  /tmp/ccFM3XU1.s 			page 47


 2585 023f 17       		.uleb128 0x17
 2586 0240 58       		.uleb128 0x58
 2587 0241 0B       		.uleb128 0xb
 2588 0242 59       		.uleb128 0x59
 2589 0243 05       		.uleb128 0x5
 2590 0244 01       		.uleb128 0x1
 2591 0245 13       		.uleb128 0x13
 2592 0246 00       		.byte	0
 2593 0247 00       		.byte	0
 2594 0248 2B       		.uleb128 0x2b
 2595 0249 05       		.uleb128 0x5
 2596 024a 00       		.byte	0
 2597 024b 03       		.uleb128 0x3
 2598 024c 0E       		.uleb128 0xe
 2599 024d 3A       		.uleb128 0x3a
 2600 024e 0B       		.uleb128 0xb
 2601 024f 3B       		.uleb128 0x3b
 2602 0250 0B       		.uleb128 0xb
 2603 0251 49       		.uleb128 0x49
 2604 0252 13       		.uleb128 0x13
 2605 0253 02       		.uleb128 0x2
 2606 0254 17       		.uleb128 0x17
 2607 0255 00       		.byte	0
 2608 0256 00       		.byte	0
 2609 0257 2C       		.uleb128 0x2c
 2610 0258 34       		.uleb128 0x34
 2611 0259 00       		.byte	0
 2612 025a 03       		.uleb128 0x3
 2613 025b 0E       		.uleb128 0xe
 2614 025c 3A       		.uleb128 0x3a
 2615 025d 0B       		.uleb128 0xb
 2616 025e 3B       		.uleb128 0x3b
 2617 025f 0B       		.uleb128 0xb
 2618 0260 49       		.uleb128 0x49
 2619 0261 13       		.uleb128 0x13
 2620 0262 3F       		.uleb128 0x3f
 2621 0263 19       		.uleb128 0x19
 2622 0264 3C       		.uleb128 0x3c
 2623 0265 19       		.uleb128 0x19
 2624 0266 00       		.byte	0
 2625 0267 00       		.byte	0
 2626 0268 2D       		.uleb128 0x2d
 2627 0269 2E       		.uleb128 0x2e
 2628 026a 01       		.byte	0x1
 2629 026b 3F       		.uleb128 0x3f
 2630 026c 19       		.uleb128 0x19
 2631 026d 03       		.uleb128 0x3
 2632 026e 0E       		.uleb128 0xe
 2633 026f 3A       		.uleb128 0x3a
 2634 0270 0B       		.uleb128 0xb
 2635 0271 3B       		.uleb128 0x3b
 2636 0272 0B       		.uleb128 0xb
 2637 0273 27       		.uleb128 0x27
 2638 0274 19       		.uleb128 0x19
 2639 0275 3C       		.uleb128 0x3c
 2640 0276 19       		.uleb128 0x19
 2641 0277 01       		.uleb128 0x1
ARM GAS  /tmp/ccFM3XU1.s 			page 48


 2642 0278 13       		.uleb128 0x13
 2643 0279 00       		.byte	0
 2644 027a 00       		.byte	0
 2645 027b 2E       		.uleb128 0x2e
 2646 027c 05       		.uleb128 0x5
 2647 027d 00       		.byte	0
 2648 027e 49       		.uleb128 0x49
 2649 027f 13       		.uleb128 0x13
 2650 0280 00       		.byte	0
 2651 0281 00       		.byte	0
 2652 0282 2F       		.uleb128 0x2f
 2653 0283 2E       		.uleb128 0x2e
 2654 0284 00       		.byte	0
 2655 0285 3F       		.uleb128 0x3f
 2656 0286 19       		.uleb128 0x19
 2657 0287 03       		.uleb128 0x3
 2658 0288 0E       		.uleb128 0xe
 2659 0289 3A       		.uleb128 0x3a
 2660 028a 0B       		.uleb128 0xb
 2661 028b 3B       		.uleb128 0x3b
 2662 028c 0B       		.uleb128 0xb
 2663 028d 27       		.uleb128 0x27
 2664 028e 19       		.uleb128 0x19
 2665 028f 3C       		.uleb128 0x3c
 2666 0290 19       		.uleb128 0x19
 2667 0291 00       		.byte	0
 2668 0292 00       		.byte	0
 2669 0293 30       		.uleb128 0x30
 2670 0294 2E       		.uleb128 0x2e
 2671 0295 01       		.byte	0x1
 2672 0296 3F       		.uleb128 0x3f
 2673 0297 19       		.uleb128 0x19
 2674 0298 03       		.uleb128 0x3
 2675 0299 0E       		.uleb128 0xe
 2676 029a 3A       		.uleb128 0x3a
 2677 029b 0B       		.uleb128 0xb
 2678 029c 3B       		.uleb128 0x3b
 2679 029d 0B       		.uleb128 0xb
 2680 029e 27       		.uleb128 0x27
 2681 029f 19       		.uleb128 0x19
 2682 02a0 49       		.uleb128 0x49
 2683 02a1 13       		.uleb128 0x13
 2684 02a2 3C       		.uleb128 0x3c
 2685 02a3 19       		.uleb128 0x19
 2686 02a4 01       		.uleb128 0x1
 2687 02a5 13       		.uleb128 0x13
 2688 02a6 00       		.byte	0
 2689 02a7 00       		.byte	0
 2690 02a8 31       		.uleb128 0x31
 2691 02a9 2E       		.uleb128 0x2e
 2692 02aa 00       		.byte	0
 2693 02ab 3F       		.uleb128 0x3f
 2694 02ac 19       		.uleb128 0x19
 2695 02ad 03       		.uleb128 0x3
 2696 02ae 0E       		.uleb128 0xe
 2697 02af 3A       		.uleb128 0x3a
 2698 02b0 0B       		.uleb128 0xb
ARM GAS  /tmp/ccFM3XU1.s 			page 49


 2699 02b1 3B       		.uleb128 0x3b
 2700 02b2 0B       		.uleb128 0xb
 2701 02b3 27       		.uleb128 0x27
 2702 02b4 19       		.uleb128 0x19
 2703 02b5 49       		.uleb128 0x49
 2704 02b6 13       		.uleb128 0x13
 2705 02b7 3C       		.uleb128 0x3c
 2706 02b8 19       		.uleb128 0x19
 2707 02b9 00       		.byte	0
 2708 02ba 00       		.byte	0
 2709 02bb 32       		.uleb128 0x32
 2710 02bc 2E       		.uleb128 0x2e
 2711 02bd 01       		.byte	0x1
 2712 02be 3F       		.uleb128 0x3f
 2713 02bf 19       		.uleb128 0x19
 2714 02c0 03       		.uleb128 0x3
 2715 02c1 0E       		.uleb128 0xe
 2716 02c2 3A       		.uleb128 0x3a
 2717 02c3 0B       		.uleb128 0xb
 2718 02c4 3B       		.uleb128 0x3b
 2719 02c5 0B       		.uleb128 0xb
 2720 02c6 27       		.uleb128 0x27
 2721 02c7 19       		.uleb128 0x19
 2722 02c8 49       		.uleb128 0x49
 2723 02c9 13       		.uleb128 0x13
 2724 02ca 3C       		.uleb128 0x3c
 2725 02cb 19       		.uleb128 0x19
 2726 02cc 00       		.byte	0
 2727 02cd 00       		.byte	0
 2728 02ce 00       		.byte	0
 2729              		.section	.debug_loc,"",%progbits
 2730              	.Ldebug_loc0:
 2731              	.LLST0:
 2732 0000 00000000 		.4byte	.LVL0
 2733 0004 10000000 		.4byte	.LVL1
 2734 0008 0100     		.2byte	0x1
 2735 000a 50       		.byte	0x50
 2736 000b 10000000 		.4byte	.LVL1
 2737 000f 1E000000 		.4byte	.LFE7
 2738 0013 0100     		.2byte	0x1
 2739 0015 54       		.byte	0x54
 2740 0016 00000000 		.4byte	0
 2741 001a 00000000 		.4byte	0
 2742              	.LLST1:
 2743 001e 00000000 		.4byte	.LVL3
 2744 0022 06000000 		.4byte	.LVL4
 2745 0026 0100     		.2byte	0x1
 2746 0028 50       		.byte	0x50
 2747 0029 06000000 		.4byte	.LVL4
 2748 002d 2E000000 		.4byte	.LVL9
 2749 0031 0100     		.2byte	0x1
 2750 0033 54       		.byte	0x54
 2751 0034 2E000000 		.4byte	.LVL9
 2752 0038 32000000 		.4byte	.LVL10
 2753 003c 0100     		.2byte	0x1
 2754 003e 50       		.byte	0x50
 2755 003f 32000000 		.4byte	.LVL10
ARM GAS  /tmp/ccFM3XU1.s 			page 50


 2756 0043 3C000000 		.4byte	.LFE8
 2757 0047 0100     		.2byte	0x1
 2758 0049 54       		.byte	0x54
 2759 004a 00000000 		.4byte	0
 2760 004e 00000000 		.4byte	0
 2761              	.LLST2:
 2762 0052 16000000 		.4byte	.LVL6
 2763 0056 22000000 		.4byte	.LVL7
 2764 005a 0100     		.2byte	0x1
 2765 005c 54       		.byte	0x54
 2766 005d 00000000 		.4byte	0
 2767 0061 00000000 		.4byte	0
 2768              	.LLST3:
 2769 0065 16000000 		.4byte	.LVL6
 2770 0069 21000000 		.4byte	.LVL7-1
 2771 006d 0100     		.2byte	0x1
 2772 006f 50       		.byte	0x50
 2773 0070 00000000 		.4byte	0
 2774 0074 00000000 		.4byte	0
 2775              	.LLST4:
 2776 0078 00000000 		.4byte	.LVL12
 2777 007c 07000000 		.4byte	.LVL13-1
 2778 0080 0100     		.2byte	0x1
 2779 0082 50       		.byte	0x50
 2780 0083 07000000 		.4byte	.LVL13-1
 2781 0087 2E000000 		.4byte	.LFE9
 2782 008b 0100     		.2byte	0x1
 2783 008d 54       		.byte	0x54
 2784 008e 00000000 		.4byte	0
 2785 0092 00000000 		.4byte	0
 2786              	.LLST5:
 2787 0096 10000000 		.4byte	.LVL14
 2788 009a 1E000000 		.4byte	.LVL16
 2789 009e 0100     		.2byte	0x1
 2790 00a0 54       		.byte	0x54
 2791 00a1 00000000 		.4byte	0
 2792 00a5 00000000 		.4byte	0
 2793              	.LLST6:
 2794 00a9 10000000 		.4byte	.LVL14
 2795 00ad 19000000 		.4byte	.LVL15-1
 2796 00b1 0100     		.2byte	0x1
 2797 00b3 50       		.byte	0x50
 2798 00b4 00000000 		.4byte	0
 2799 00b8 00000000 		.4byte	0
 2800              	.LLST7:
 2801 00bc 00000000 		.4byte	.LVL19
 2802 00c0 07000000 		.4byte	.LVL20-1
 2803 00c4 0100     		.2byte	0x1
 2804 00c6 50       		.byte	0x50
 2805 00c7 07000000 		.4byte	.LVL20-1
 2806 00cb 36000000 		.4byte	.LFE11
 2807 00cf 0100     		.2byte	0x1
 2808 00d1 54       		.byte	0x54
 2809 00d2 00000000 		.4byte	0
 2810 00d6 00000000 		.4byte	0
 2811              	.LLST8:
 2812 00da 14000000 		.4byte	.LVL21
ARM GAS  /tmp/ccFM3XU1.s 			page 51


 2813 00de 26000000 		.4byte	.LVL23
 2814 00e2 0100     		.2byte	0x1
 2815 00e4 54       		.byte	0x54
 2816 00e5 00000000 		.4byte	0
 2817 00e9 00000000 		.4byte	0
 2818              	.LLST9:
 2819 00ed 14000000 		.4byte	.LVL21
 2820 00f1 1D000000 		.4byte	.LVL22-1
 2821 00f5 0100     		.2byte	0x1
 2822 00f7 50       		.byte	0x50
 2823 00f8 00000000 		.4byte	0
 2824 00fc 00000000 		.4byte	0
 2825              	.LLST10:
 2826 0100 00000000 		.4byte	.LVL26
 2827 0104 0D000000 		.4byte	.LVL27-1
 2828 0108 0100     		.2byte	0x1
 2829 010a 50       		.byte	0x50
 2830 010b 0D000000 		.4byte	.LVL27-1
 2831 010f 24000000 		.4byte	.LFE10
 2832 0113 0100     		.2byte	0x1
 2833 0115 54       		.byte	0x54
 2834 0116 00000000 		.4byte	0
 2835 011a 00000000 		.4byte	0
 2836              	.LLST11:
 2837 011e 00000000 		.4byte	.LVL31
 2838 0122 11000000 		.4byte	.LVL33-1
 2839 0126 0100     		.2byte	0x1
 2840 0128 50       		.byte	0x50
 2841 0129 11000000 		.4byte	.LVL33-1
 2842 012d 6A000000 		.4byte	.LFE13
 2843 0131 0100     		.2byte	0x1
 2844 0133 55       		.byte	0x55
 2845 0134 00000000 		.4byte	0
 2846 0138 00000000 		.4byte	0
 2847              	.LLST12:
 2848 013c 0E000000 		.4byte	.LVL32
 2849 0140 44000000 		.4byte	.LVL40
 2850 0144 0100     		.2byte	0x1
 2851 0146 54       		.byte	0x54
 2852 0147 4E000000 		.4byte	.LVL42
 2853 014b 6A000000 		.4byte	.LFE13
 2854 014f 0100     		.2byte	0x1
 2855 0151 54       		.byte	0x54
 2856 0152 00000000 		.4byte	0
 2857 0156 00000000 		.4byte	0
 2858              	.LLST13:
 2859 015a 20000000 		.4byte	.LVL35
 2860 015e 3A000000 		.4byte	.LVL38
 2861 0162 0100     		.2byte	0x1
 2862 0164 50       		.byte	0x50
 2863 0165 3A000000 		.4byte	.LVL38
 2864 0169 4E000000 		.4byte	.LVL42
 2865 016d 0100     		.2byte	0x1
 2866 016f 56       		.byte	0x56
 2867 0170 00000000 		.4byte	0
 2868 0174 00000000 		.4byte	0
 2869              	.LLST14:
ARM GAS  /tmp/ccFM3XU1.s 			page 52


 2870 0178 44000000 		.4byte	.LVL40
 2871 017c 4E000000 		.4byte	.LVL42
 2872 0180 0100     		.2byte	0x1
 2873 0182 54       		.byte	0x54
 2874 0183 00000000 		.4byte	0
 2875 0187 00000000 		.4byte	0
 2876              	.LLST15:
 2877 018b 20000000 		.4byte	.LVL35
 2878 018f 24000000 		.4byte	.LVL36
 2879 0193 0200     		.2byte	0x2
 2880 0195 74       		.byte	0x74
 2881 0196 28       		.sleb128 40
 2882 0197 24000000 		.4byte	.LVL36
 2883 019b 4E000000 		.4byte	.LVL42
 2884 019f 0100     		.2byte	0x1
 2885 01a1 55       		.byte	0x55
 2886 01a2 00000000 		.4byte	0
 2887 01a6 00000000 		.4byte	0
 2888              	.LLST16:
 2889 01aa 20000000 		.4byte	.LVL35
 2890 01ae 44000000 		.4byte	.LVL40
 2891 01b2 0100     		.2byte	0x1
 2892 01b4 54       		.byte	0x54
 2893 01b5 00000000 		.4byte	0
 2894 01b9 00000000 		.4byte	0
 2895              	.LLST17:
 2896 01bd 20000000 		.4byte	.LVL35
 2897 01c1 24000000 		.4byte	.LVL36
 2898 01c5 0200     		.2byte	0x2
 2899 01c7 74       		.byte	0x74
 2900 01c8 28       		.sleb128 40
 2901 01c9 24000000 		.4byte	.LVL36
 2902 01cd 41000000 		.4byte	.LVL39-1
 2903 01d1 0100     		.2byte	0x1
 2904 01d3 53       		.byte	0x53
 2905 01d4 00000000 		.4byte	0
 2906 01d8 00000000 		.4byte	0
 2907              	.LLST18:
 2908 01dc 00000000 		.4byte	.LVL45
 2909 01e0 0D000000 		.4byte	.LVL46-1
 2910 01e4 0100     		.2byte	0x1
 2911 01e6 50       		.byte	0x50
 2912 01e7 0D000000 		.4byte	.LVL46-1
 2913 01eb 16000000 		.4byte	.LVL48
 2914 01ef 0100     		.2byte	0x1
 2915 01f1 54       		.byte	0x54
 2916 01f2 16000000 		.4byte	.LVL48
 2917 01f6 24000000 		.4byte	.LFE12
 2918 01fa 0400     		.2byte	0x4
 2919 01fc F3       		.byte	0xf3
 2920 01fd 01       		.uleb128 0x1
 2921 01fe 50       		.byte	0x50
 2922 01ff 9F       		.byte	0x9f
 2923 0200 00000000 		.4byte	0
 2924 0204 00000000 		.4byte	0
 2925              	.LLST19:
 2926 0208 16000000 		.4byte	.LVL48
ARM GAS  /tmp/ccFM3XU1.s 			page 53


 2927 020c 19000000 		.4byte	.LVL49-1
 2928 0210 0100     		.2byte	0x1
 2929 0212 50       		.byte	0x50
 2930 0213 19000000 		.4byte	.LVL49-1
 2931 0217 24000000 		.4byte	.LFE12
 2932 021b 0100     		.2byte	0x1
 2933 021d 54       		.byte	0x54
 2934 021e 00000000 		.4byte	0
 2935 0222 00000000 		.4byte	0
 2936              	.LLST20:
 2937 0226 00000000 		.4byte	.LVL50
 2938 022a 0B000000 		.4byte	.LVL51-1
 2939 022e 0100     		.2byte	0x1
 2940 0230 50       		.byte	0x50
 2941 0231 0B000000 		.4byte	.LVL51-1
 2942 0235 7E000000 		.4byte	.LFE15
 2943 0239 0100     		.2byte	0x1
 2944 023b 56       		.byte	0x56
 2945 023c 00000000 		.4byte	0
 2946 0240 00000000 		.4byte	0
 2947              	.LLST21:
 2948 0244 00000000 		.4byte	.LVL50
 2949 0248 0B000000 		.4byte	.LVL51-1
 2950 024c 0100     		.2byte	0x1
 2951 024e 51       		.byte	0x51
 2952 024f 0B000000 		.4byte	.LVL51-1
 2953 0253 7E000000 		.4byte	.LFE15
 2954 0257 0100     		.2byte	0x1
 2955 0259 57       		.byte	0x57
 2956 025a 00000000 		.4byte	0
 2957 025e 00000000 		.4byte	0
 2958              	.LLST22:
 2959 0262 2A000000 		.4byte	.LVL53
 2960 0266 4A000000 		.4byte	.LVL57
 2961 026a 0100     		.2byte	0x1
 2962 026c 50       		.byte	0x50
 2963 026d 4A000000 		.4byte	.LVL57
 2964 0271 62000000 		.4byte	.LVL62
 2965 0275 0100     		.2byte	0x1
 2966 0277 58       		.byte	0x58
 2967 0278 00000000 		.4byte	0
 2968 027c 00000000 		.4byte	0
 2969              	.LLST23:
 2970 0280 54000000 		.4byte	.LVL59
 2971 0284 58000000 		.4byte	.LVL60
 2972 0288 0100     		.2byte	0x1
 2973 028a 50       		.byte	0x50
 2974 028b 58000000 		.4byte	.LVL60
 2975 028f 62000000 		.4byte	.LVL62
 2976 0293 0100     		.2byte	0x1
 2977 0295 54       		.byte	0x54
 2978 0296 00000000 		.4byte	0
 2979 029a 00000000 		.4byte	0
 2980              	.LLST24:
 2981 029e 2E000000 		.4byte	.LVL54
 2982 02a2 30000000 		.4byte	.LVL55
 2983 02a6 0100     		.2byte	0x1
ARM GAS  /tmp/ccFM3XU1.s 			page 54


 2984 02a8 53       		.byte	0x53
 2985 02a9 30000000 		.4byte	.LVL55
 2986 02ad 62000000 		.4byte	.LVL62
 2987 02b1 0100     		.2byte	0x1
 2988 02b3 56       		.byte	0x56
 2989 02b4 00000000 		.4byte	0
 2990 02b8 00000000 		.4byte	0
 2991              	.LLST25:
 2992 02bc 2E000000 		.4byte	.LVL54
 2993 02c0 62000000 		.4byte	.LVL62
 2994 02c4 0100     		.2byte	0x1
 2995 02c6 55       		.byte	0x55
 2996 02c7 00000000 		.4byte	0
 2997 02cb 00000000 		.4byte	0
 2998              	.LLST26:
 2999 02cf 2E000000 		.4byte	.LVL54
 3000 02d3 4F000000 		.4byte	.LVL58-1
 3001 02d7 0100     		.2byte	0x1
 3002 02d9 53       		.byte	0x53
 3003 02da 00000000 		.4byte	0
 3004 02de 00000000 		.4byte	0
 3005              	.LLST27:
 3006 02e2 00000000 		.4byte	.LVL65
 3007 02e6 0F000000 		.4byte	.LVL66-1
 3008 02ea 0100     		.2byte	0x1
 3009 02ec 50       		.byte	0x50
 3010 02ed 0F000000 		.4byte	.LVL66-1
 3011 02f1 28000000 		.4byte	.LFE14
 3012 02f5 0100     		.2byte	0x1
 3013 02f7 55       		.byte	0x55
 3014 02f8 00000000 		.4byte	0
 3015 02fc 00000000 		.4byte	0
 3016              	.LLST28:
 3017 0300 00000000 		.4byte	.LVL65
 3018 0304 0F000000 		.4byte	.LVL66-1
 3019 0308 0100     		.2byte	0x1
 3020 030a 51       		.byte	0x51
 3021 030b 0F000000 		.4byte	.LVL66-1
 3022 030f 1A000000 		.4byte	.LVL68
 3023 0313 0100     		.2byte	0x1
 3024 0315 54       		.byte	0x54
 3025 0316 1A000000 		.4byte	.LVL68
 3026 031a 28000000 		.4byte	.LFE14
 3027 031e 0400     		.2byte	0x4
 3028 0320 F3       		.byte	0xf3
 3029 0321 01       		.uleb128 0x1
 3030 0322 51       		.byte	0x51
 3031 0323 9F       		.byte	0x9f
 3032 0324 00000000 		.4byte	0
 3033 0328 00000000 		.4byte	0
 3034              	.LLST29:
 3035 032c 1A000000 		.4byte	.LVL68
 3036 0330 1D000000 		.4byte	.LVL69-1
 3037 0334 0100     		.2byte	0x1
 3038 0336 50       		.byte	0x50
 3039 0337 1D000000 		.4byte	.LVL69-1
 3040 033b 28000000 		.4byte	.LFE14
ARM GAS  /tmp/ccFM3XU1.s 			page 55


 3041 033f 0100     		.2byte	0x1
 3042 0341 54       		.byte	0x54
 3043 0342 00000000 		.4byte	0
 3044 0346 00000000 		.4byte	0
 3045              		.section	.debug_aranges,"",%progbits
 3046 0000 5C000000 		.4byte	0x5c
 3047 0004 0200     		.2byte	0x2
 3048 0006 00000000 		.4byte	.Ldebug_info0
 3049 000a 04       		.byte	0x4
 3050 000b 00       		.byte	0
 3051 000c 0000     		.2byte	0
 3052 000e 0000     		.2byte	0
 3053 0010 00000000 		.4byte	.LFB7
 3054 0014 1E000000 		.4byte	.LFE7-.LFB7
 3055 0018 00000000 		.4byte	.LFB8
 3056 001c 3C000000 		.4byte	.LFE8-.LFB8
 3057 0020 00000000 		.4byte	.LFB9
 3058 0024 2E000000 		.4byte	.LFE9-.LFB9
 3059 0028 00000000 		.4byte	.LFB11
 3060 002c 36000000 		.4byte	.LFE11-.LFB11
 3061 0030 00000000 		.4byte	.LFB10
 3062 0034 24000000 		.4byte	.LFE10-.LFB10
 3063 0038 00000000 		.4byte	.LFB13
 3064 003c 6A000000 		.4byte	.LFE13-.LFB13
 3065 0040 00000000 		.4byte	.LFB12
 3066 0044 24000000 		.4byte	.LFE12-.LFB12
 3067 0048 00000000 		.4byte	.LFB15
 3068 004c 7E000000 		.4byte	.LFE15-.LFB15
 3069 0050 00000000 		.4byte	.LFB14
 3070 0054 28000000 		.4byte	.LFE14-.LFB14
 3071 0058 00000000 		.4byte	0
 3072 005c 00000000 		.4byte	0
 3073              		.section	.debug_ranges,"",%progbits
 3074              	.Ldebug_ranges0:
 3075 0000 16000000 		.4byte	.LBB15
 3076 0004 18000000 		.4byte	.LBE15
 3077 0008 1A000000 		.4byte	.LBB18
 3078 000c 1E000000 		.4byte	.LBE18
 3079 0010 00000000 		.4byte	0
 3080 0014 00000000 		.4byte	0
 3081 0018 02000000 		.4byte	.LBB24
 3082 001c 04000000 		.4byte	.LBE24
 3083 0020 06000000 		.4byte	.LBB25
 3084 0024 0A000000 		.4byte	.LBE25
 3085 0028 00000000 		.4byte	0
 3086 002c 00000000 		.4byte	0
 3087 0030 20000000 		.4byte	.LBB27
 3088 0034 38000000 		.4byte	.LBE27
 3089 0038 3A000000 		.4byte	.LBB30
 3090 003c 3E000000 		.4byte	.LBE30
 3091 0040 00000000 		.4byte	0
 3092 0044 00000000 		.4byte	0
 3093 0048 02000000 		.4byte	.LBB31
 3094 004c 04000000 		.4byte	.LBE31
 3095 0050 06000000 		.4byte	.LBB32
 3096 0054 0A000000 		.4byte	.LBE32
 3097 0058 00000000 		.4byte	0
ARM GAS  /tmp/ccFM3XU1.s 			page 56


 3098 005c 00000000 		.4byte	0
 3099 0060 2A000000 		.4byte	.LBB34
 3100 0064 2C000000 		.4byte	.LBE34
 3101 0068 30000000 		.4byte	.LBB39
 3102 006c 44000000 		.4byte	.LBE39
 3103 0070 46000000 		.4byte	.LBB40
 3104 0074 48000000 		.4byte	.LBE40
 3105 0078 4A000000 		.4byte	.LBB41
 3106 007c 4C000000 		.4byte	.LBE41
 3107 0080 00000000 		.4byte	0
 3108 0084 00000000 		.4byte	0
 3109 0088 00000000 		.4byte	.LFB7
 3110 008c 1E000000 		.4byte	.LFE7
 3111 0090 00000000 		.4byte	.LFB8
 3112 0094 3C000000 		.4byte	.LFE8
 3113 0098 00000000 		.4byte	.LFB9
 3114 009c 2E000000 		.4byte	.LFE9
 3115 00a0 00000000 		.4byte	.LFB11
 3116 00a4 36000000 		.4byte	.LFE11
 3117 00a8 00000000 		.4byte	.LFB10
 3118 00ac 24000000 		.4byte	.LFE10
 3119 00b0 00000000 		.4byte	.LFB13
 3120 00b4 6A000000 		.4byte	.LFE13
 3121 00b8 00000000 		.4byte	.LFB12
 3122 00bc 24000000 		.4byte	.LFE12
 3123 00c0 00000000 		.4byte	.LFB15
 3124 00c4 7E000000 		.4byte	.LFE15
 3125 00c8 00000000 		.4byte	.LFB14
 3126 00cc 28000000 		.4byte	.LFE14
 3127 00d0 00000000 		.4byte	0
 3128 00d4 00000000 		.4byte	0
 3129              		.section	.debug_line,"",%progbits
 3130              	.Ldebug_line0:
 3131 0000 B6020000 		.section	.debug_str,"MS",%progbits,1
 3131      02003501 
 3131      00000201 
 3131      FB0E0D00 
 3131      01010101 
 3132              	.LASF42:
 3133 0000 705F6D73 		.ascii	"p_msg\000"
 3133      6700
 3134              	.LASF82:
 3135 0006 63684462 		.ascii	"chDbgPanic\000"
 3135      6750616E 
 3135      696300
 3136              	.LASF72:
 3137 0011 6368436F 		.ascii	"chCondInit\000"
 3137      6E64496E 
 3137      697400
 3138              	.LASF67:
 3139 001c 7264796D 		.ascii	"rdymsg\000"
 3139      736700
 3140              	.LASF16:
 3141 0023 75696E74 		.ascii	"uint64_t\000"
 3141      36345F74 
 3141      00
 3142              	.LASF5:
ARM GAS  /tmp/ccFM3XU1.s 			page 57


 3143 002c 5F5F7569 		.ascii	"__uint8_t\000"
 3143      6E74385F 
 3143      7400
 3144              	.LASF92:
 3145 0036 474E5520 		.ascii	"GNU C 4.8.2 -mcpu=cortex-m4 -mno-thumb-interwork -m"
 3145      4320342E 
 3145      382E3220 
 3145      2D6D6370 
 3145      753D636F 
 3146 0069 7468756D 		.ascii	"thumb -ggdb -O2 -fomit-frame-pointer -falign-functi"
 3146      62202D67 
 3146      67646220 
 3146      2D4F3220 
 3146      2D666F6D 
 3147 009c 6F6E733D 		.ascii	"ons=16 -ffunction-sections -fdata-sections -fno-com"
 3147      3136202D 
 3147      6666756E 
 3147      6374696F 
 3147      6E2D7365 
 3148 00cf 6D6F6E00 		.ascii	"mon\000"
 3149              	.LASF12:
 3150 00d3 6C6F6E67 		.ascii	"long long unsigned int\000"
 3150      206C6F6E 
 3150      6720756E 
 3150      7369676E 
 3150      65642069 
 3151              	.LASF68:
 3152 00ea 65786974 		.ascii	"exitcode\000"
 3152      636F6465 
 3152      00
 3153              	.LASF75:
 3154 00f3 6368436F 		.ascii	"chCondBroadcastI\000"
 3154      6E644272 
 3154      6F616463 
 3154      61737449 
 3154      00
 3155              	.LASF29:
 3156 0104 705F7072 		.ascii	"p_prio\000"
 3156      696F00
 3157              	.LASF10:
 3158 010b 6C6F6E67 		.ascii	"long long int\000"
 3158      206C6F6E 
 3158      6720696E 
 3158      7400
 3159              	.LASF1:
 3160 0119 7369676E 		.ascii	"signed char\000"
 3160      65642063 
 3160      68617200 
 3161              	.LASF46:
 3162 0125 705F6D70 		.ascii	"p_mpool\000"
 3162      6F6F6C00 
 3163              	.LASF62:
 3164 012d 6D5F7175 		.ascii	"m_queue\000"
 3164      65756500 
 3165              	.LASF21:
 3166 0135 74736C69 		.ascii	"tslices_t\000"
 3166      6365735F 
ARM GAS  /tmp/ccFM3XU1.s 			page 58


 3166      7400
 3167              	.LASF65:
 3168 013f 436F6E64 		.ascii	"CondVar\000"
 3168      56617200 
 3169              	.LASF7:
 3170 0147 6C6F6E67 		.ascii	"long int\000"
 3170      20696E74 
 3170      00
 3171              	.LASF19:
 3172 0150 74737461 		.ascii	"tstate_t\000"
 3172      74655F74 
 3172      00
 3173              	.LASF90:
 3174 0159 63684D74 		.ascii	"chMtxLockS\000"
 3174      784C6F63 
 3174      6B5300
 3175              	.LASF31:
 3176 0164 705F6E65 		.ascii	"p_newer\000"
 3176      77657200 
 3177              	.LASF87:
 3178 016c 63685363 		.ascii	"chSchRescheduleS\000"
 3178      68526573 
 3178      63686564 
 3178      756C6553 
 3178      00
 3179              	.LASF8:
 3180 017d 5F5F7569 		.ascii	"__uint32_t\000"
 3180      6E743332 
 3180      5F7400
 3181              	.LASF49:
 3182 0188 72656761 		.ascii	"regarm_t\000"
 3182      726D5F74 
 3182      00
 3183              	.LASF73:
 3184 0191 6368436F 		.ascii	"chCondSignal\000"
 3184      6E645369 
 3184      676E616C 
 3184      00
 3185              	.LASF34:
 3186 019e 705F7374 		.ascii	"p_stklimit\000"
 3186      6B6C696D 
 3186      697400
 3187              	.LASF0:
 3188 01a9 756E7369 		.ascii	"unsigned int\000"
 3188      676E6564 
 3188      20696E74 
 3188      00
 3189              	.LASF9:
 3190 01b6 6C6F6E67 		.ascii	"long unsigned int\000"
 3190      20756E73 
 3190      69676E65 
 3190      6420696E 
 3190      7400
 3191              	.LASF52:
 3192 01c8 636F6E74 		.ascii	"context\000"
 3192      65787400 
 3193              	.LASF4:
ARM GAS  /tmp/ccFM3XU1.s 			page 59


 3194 01d0 73686F72 		.ascii	"short unsigned int\000"
 3194      7420756E 
 3194      7369676E 
 3194      65642069 
 3194      6E7400
 3195              	.LASF23:
 3196 01e3 6D73675F 		.ascii	"msg_t\000"
 3196      7400
 3197              	.LASF57:
 3198 01e9 725F6E65 		.ascii	"r_newer\000"
 3198      77657200 
 3199              	.LASF86:
 3200 01f1 63684462 		.ascii	"chDbgCheckClassI\000"
 3200      67436865 
 3200      636B436C 
 3200      61737349 
 3200      00
 3201              	.LASF18:
 3202 0202 746D6F64 		.ascii	"tmode_t\000"
 3202      655F7400 
 3203              	.LASF88:
 3204 020a 63684462 		.ascii	"chDbgCheckClassS\000"
 3204      67436865 
 3204      636B436C 
 3204      61737353 
 3204      00
 3205              	.LASF48:
 3206 021b 54687265 		.ascii	"ThreadsList\000"
 3206      6164734C 
 3206      69737400 
 3207              	.LASF24:
 3208 0227 6576656E 		.ascii	"eventmask_t\000"
 3208      746D6173 
 3208      6B5F7400 
 3209              	.LASF61:
 3210 0233 4D757465 		.ascii	"Mutex\000"
 3210      7800
 3211              	.LASF50:
 3212 0239 73746B61 		.ascii	"stkalign_t\000"
 3212      6C69676E 
 3212      5F7400
 3213              	.LASF85:
 3214 0244 6462675F 		.ascii	"dbg_check_unlock\000"
 3214      63686563 
 3214      6B5F756E 
 3214      6C6F636B 
 3214      00
 3215              	.LASF53:
 3216 0255 73697A65 		.ascii	"sizetype\000"
 3216      74797065 
 3216      00
 3217              	.LASF79:
 3218 025e 6368436F 		.ascii	"chCondWaitTimeoutS\000"
 3218      6E645761 
 3218      69745469 
 3218      6D656F75 
 3218      745300
ARM GAS  /tmp/ccFM3XU1.s 			page 60


 3219              	.LASF32:
 3220 0271 705F6F6C 		.ascii	"p_older\000"
 3220      64657200 
 3221              	.LASF56:
 3222 0279 725F6374 		.ascii	"r_ctx\000"
 3222      7800
 3223              	.LASF47:
 3224 027f 54687265 		.ascii	"ThreadsQueue\000"
 3224      61647351 
 3224      75657565 
 3224      00
 3225              	.LASF94:
 3226 028c 2F686F6D 		.ascii	"/home/mo/ARMProjects/ChibiOS_Sample/ChibiOS_2.6.5/t"
 3226      652F6D6F 
 3226      2F41524D 
 3226      50726F6A 
 3226      65637473 
 3227 02bf 65737468 		.ascii	"esthal/STM32F4xx/ADC\000"
 3227      616C2F53 
 3227      544D3332 
 3227      46347878 
 3227      2F414443 
 3228              	.LASF80:
 3229 02d4 74696D65 		.ascii	"time\000"
 3229      00
 3230              	.LASF59:
 3231 02d9 725F6375 		.ascii	"r_current\000"
 3231      7272656E 
 3231      7400
 3232              	.LASF58:
 3233 02e3 725F6F6C 		.ascii	"r_older\000"
 3233      64657200 
 3234              	.LASF76:
 3235 02eb 6368436F 		.ascii	"chCondBroadcast\000"
 3235      6E644272 
 3235      6F616463 
 3235      61737400 
 3236              	.LASF11:
 3237 02fb 5F5F7569 		.ascii	"__uint64_t\000"
 3237      6E743634 
 3237      5F7400
 3238              	.LASF93:
 3239 0306 2E2E2F2E 		.ascii	"../../../os/kernel/src/chcond.c\000"
 3239      2E2F2E2E 
 3239      2F6F732F 
 3239      6B65726E 
 3239      656C2F73 
 3240              	.LASF20:
 3241 0326 74726566 		.ascii	"trefs_t\000"
 3241      735F7400 
 3242              	.LASF28:
 3243 032e 705F7072 		.ascii	"p_prev\000"
 3243      657600
 3244              	.LASF22:
 3245 0335 74707269 		.ascii	"tprio_t\000"
 3245      6F5F7400 
 3246              	.LASF74:
ARM GAS  /tmp/ccFM3XU1.s 			page 61


 3247 033d 6368436F 		.ascii	"chCondSignalI\000"
 3247      6E645369 
 3247      676E616C 
 3247      4900
 3248              	.LASF17:
 3249 034b 5F426F6F 		.ascii	"_Bool\000"
 3249      6C00
 3250              	.LASF14:
 3251 0351 696E7433 		.ascii	"int32_t\000"
 3251      325F7400 
 3252              	.LASF2:
 3253 0359 756E7369 		.ascii	"unsigned char\000"
 3253      676E6564 
 3253      20636861 
 3253      7200
 3254              	.LASF44:
 3255 0367 705F6D74 		.ascii	"p_mtxlist\000"
 3255      786C6973 
 3255      7400
 3256              	.LASF3:
 3257 0371 73686F72 		.ascii	"short int\000"
 3257      7420696E 
 3257      7400
 3258              	.LASF35:
 3259 037b 705F7374 		.ascii	"p_state\000"
 3259      61746500 
 3260              	.LASF38:
 3261 0383 705F7072 		.ascii	"p_preempt\000"
 3261      65656D70 
 3261      7400
 3262              	.LASF55:
 3263 038d 725F7072 		.ascii	"r_prio\000"
 3263      696F00
 3264              	.LASF70:
 3265 0394 65776D61 		.ascii	"ewmask\000"
 3265      736B00
 3266              	.LASF27:
 3267 039b 705F6E65 		.ascii	"p_next\000"
 3267      787400
 3268              	.LASF36:
 3269 03a2 705F666C 		.ascii	"p_flags\000"
 3269      61677300 
 3270              	.LASF99:
 3271 03aa 63684D74 		.ascii	"chMtxUnlockS\000"
 3271      78556E6C 
 3271      6F636B53 
 3271      00
 3272              	.LASF26:
 3273 03b7 54687265 		.ascii	"Thread\000"
 3273      616400
 3274              	.LASF66:
 3275 03be 635F7175 		.ascii	"c_queue\000"
 3275      65756500 
 3276              	.LASF89:
 3277 03c6 63685363 		.ascii	"chSchGoSleepS\000"
 3277      68476F53 
 3277      6C656570 
ARM GAS  /tmp/ccFM3XU1.s 			page 62


 3277      5300
 3278              	.LASF43:
 3279 03d4 705F6570 		.ascii	"p_epending\000"
 3279      656E6469 
 3279      6E6700
 3280              	.LASF15:
 3281 03df 75696E74 		.ascii	"uint32_t\000"
 3281      33325F74 
 3281      00
 3282              	.LASF54:
 3283 03e8 725F7175 		.ascii	"r_queue\000"
 3283      65756500 
 3284              	.LASF98:
 3285 03f0 63685363 		.ascii	"chSchReadyI\000"
 3285      68526561 
 3285      64794900 
 3286              	.LASF71:
 3287 03fc 63686172 		.ascii	"char\000"
 3287      00
 3288              	.LASF95:
 3289 0401 6669666F 		.ascii	"fifo_remove\000"
 3289      5F72656D 
 3289      6F766500 
 3290              	.LASF77:
 3291 040d 6368436F 		.ascii	"chCondWaitS\000"
 3291      6E645761 
 3291      69745300 
 3292              	.LASF64:
 3293 0419 6D5F6E65 		.ascii	"m_next\000"
 3293      787400
 3294              	.LASF25:
 3295 0420 73797374 		.ascii	"systime_t\000"
 3295      696D655F 
 3295      7400
 3296              	.LASF45:
 3297 042a 705F7265 		.ascii	"p_realprio\000"
 3297      616C7072 
 3297      696F00
 3298              	.LASF6:
 3299 0435 5F5F696E 		.ascii	"__int32_t\000"
 3299      7433325F 
 3299      7400
 3300              	.LASF96:
 3301 043f 7072696F 		.ascii	"prio_insert\000"
 3301      5F696E73 
 3301      65727400 
 3302              	.LASF78:
 3303 044b 6368436F 		.ascii	"chCondWait\000"
 3303      6E645761 
 3303      697400
 3304              	.LASF39:
 3305 0456 705F7469 		.ascii	"p_time\000"
 3305      6D6500
 3306              	.LASF51:
 3307 045d 696E7463 		.ascii	"intctx\000"
 3307      747800
 3308              	.LASF41:
ARM GAS  /tmp/ccFM3XU1.s 			page 63


 3309 0464 705F6D73 		.ascii	"p_msgqueue\000"
 3309      67717565 
 3309      756500
 3310              	.LASF83:
 3311 046f 63685363 		.ascii	"chSchWakeupS\000"
 3311      6857616B 
 3311      65757053 
 3311      00
 3312              	.LASF37:
 3313 047c 705F7265 		.ascii	"p_refs\000"
 3313      667300
 3314              	.LASF60:
 3315 0483 52656164 		.ascii	"ReadyList\000"
 3315      794C6973 
 3315      7400
 3316              	.LASF97:
 3317 048d 726C6973 		.ascii	"rlist\000"
 3317      7400
 3318              	.LASF13:
 3319 0493 75696E74 		.ascii	"uint8_t\000"
 3319      385F7400 
 3320              	.LASF69:
 3321 049b 77746F62 		.ascii	"wtobjp\000"
 3321      6A7000
 3322              	.LASF33:
 3323 04a2 705F6E61 		.ascii	"p_name\000"
 3323      6D6500
 3324              	.LASF81:
 3325 04a9 6368436F 		.ascii	"chCondWaitTimeout\000"
 3325      6E645761 
 3325      69745469 
 3325      6D656F75 
 3325      7400
 3326              	.LASF91:
 3327 04bb 63685363 		.ascii	"chSchGoSleepTimeoutS\000"
 3327      68476F53 
 3327      6C656570 
 3327      54696D65 
 3327      6F757453 
 3328              	.LASF63:
 3329 04d0 6D5F6F77 		.ascii	"m_owner\000"
 3329      6E657200 
 3330              	.LASF84:
 3331 04d8 6462675F 		.ascii	"dbg_check_lock\000"
 3331      63686563 
 3331      6B5F6C6F 
 3331      636B00
 3332              	.LASF30:
 3333 04e7 705F6374 		.ascii	"p_ctx\000"
 3333      7800
 3334              	.LASF40:
 3335 04ed 705F7761 		.ascii	"p_waiting\000"
 3335      6974696E 
 3335      6700
 3336              		.ident	"GCC: (4.8.2-14ubuntu1+6) 4.8.2"
ARM GAS  /tmp/ccFM3XU1.s 			page 64


DEFINED SYMBOLS
                            *ABS*:0000000000000000 chcond.c
     /tmp/ccFM3XU1.s:19     .text.chCondInit:0000000000000000 $t
     /tmp/ccFM3XU1.s:25     .text.chCondInit:0000000000000000 chCondInit
     /tmp/ccFM3XU1.s:684    .rodata.str1.4:0000000000000000 .LC0
     /tmp/ccFM3XU1.s:59     .text.chCondSignal:0000000000000000 $t
     /tmp/ccFM3XU1.s:65     .text.chCondSignal:0000000000000000 chCondSignal
     /tmp/ccFM3XU1.s:687    .rodata.str1.4:0000000000000010 .LC1
     /tmp/ccFM3XU1.s:140    .text.chCondSignalI:0000000000000000 $t
     /tmp/ccFM3XU1.s:146    .text.chCondSignalI:0000000000000000 chCondSignalI
     /tmp/ccFM3XU1.s:690    .rodata.str1.4:0000000000000024 .LC2
     /tmp/ccFM3XU1.s:198    .text.chCondBroadcastI:0000000000000000 $t
     /tmp/ccFM3XU1.s:204    .text.chCondBroadcastI:0000000000000000 chCondBroadcastI
     /tmp/ccFM3XU1.s:693    .rodata.str1.4:0000000000000038 .LC3
     /tmp/ccFM3XU1.s:264    .text.chCondBroadcast:0000000000000000 $t
     /tmp/ccFM3XU1.s:270    .text.chCondBroadcast:0000000000000000 chCondBroadcast
     /tmp/ccFM3XU1.s:318    .text.chCondWaitS:0000000000000000 $t
     /tmp/ccFM3XU1.s:324    .text.chCondWaitS:0000000000000000 chCondWaitS
     /tmp/ccFM3XU1.s:696    .rodata.str1.4:0000000000000050 .LC4
     /tmp/ccFM3XU1.s:698    .rodata.str1.4:0000000000000060 .LC5
     /tmp/ccFM3XU1.s:434    .text.chCondWait:0000000000000000 $t
     /tmp/ccFM3XU1.s:440    .text.chCondWait:0000000000000000 chCondWait
     /tmp/ccFM3XU1.s:489    .text.chCondWaitTimeoutS:0000000000000000 $t
     /tmp/ccFM3XU1.s:495    .text.chCondWaitTimeoutS:0000000000000000 chCondWaitTimeoutS
     /tmp/ccFM3XU1.s:701    .rodata.str1.4:0000000000000074 .LC6
     /tmp/ccFM3XU1.s:704    .rodata.str1.4:000000000000008c .LC7
     /tmp/ccFM3XU1.s:627    .text.chCondWaitTimeout:0000000000000000 $t
     /tmp/ccFM3XU1.s:633    .text.chCondWaitTimeout:0000000000000000 chCondWaitTimeout
     /tmp/ccFM3XU1.s:683    .rodata.str1.4:0000000000000000 $d
                     .debug_frame:0000000000000010 $d

UNDEFINED SYMBOLS
chDbgPanic
dbg_check_lock
chSchWakeupS
dbg_check_unlock
chDbgCheckClassI
chSchReadyI
chSchRescheduleS
rlist
chDbgCheckClassS
chMtxUnlockS
chSchGoSleepS
chMtxLockS
chSchGoSleepTimeoutS
