ARM GAS  /tmp/ccFM3XU1.s 			page 1


   1              		.syntax unified
   2              		.cpu cortex-m4
   3              		.fpu softvfp
   4              		.eabi_attribute 20, 1
   5              		.eabi_attribute 21, 1
   6              		.eabi_attribute 23, 3
   7              		.eabi_attribute 24, 1
   8              		.eabi_attribute 25, 1
   9              		.eabi_attribute 26, 1
  10              		.eabi_attribute 30, 2
  11              		.eabi_attribute 34, 1
  12              		.eabi_attribute 18, 4
  13              		.thumb
  14              		.file	"chcond.c"
  15              		.text
  16              	.Ltext0:
  17              		.cfi_sections	.debug_frame
  18              		.section	.text.chCondInit,"ax",%progbits
  19              		.align	2
  20              		.p2align 4,,15
  21              		.global	chCondInit
  22              		.thumb
  23              		.thumb_func
  24              		.type	chCondInit, %function
  25              	chCondInit:
  26              	.LFB7:
  27              		.file 1 "../../../os/kernel/src/chcond.c"
  28              		.loc 1 59 0
  29              		.cfi_startproc
  30              		@ args = 0, pretend = 0, frame = 0
  31              		@ frame_needed = 0, uses_anonymous_args = 0
  32              	.LVL0:
  33 0000 10B5     		push	{r4, lr}
  34              		.cfi_def_cfa_offset 8
  35              		.cfi_offset 4, -8
  36              		.cfi_offset 14, -4
  37              		.loc 1 61 0
  38 0002 0446     		mov	r4, r0
  39 0004 10B1     		cbz	r0, .L4
  40              		.loc 1 63 0
  41 0006 6460     		str	r4, [r4, #4]
  42 0008 2460     		str	r4, [r4]
  43 000a 10BD     		pop	{r4, pc}
  44              	.L4:
  45              		.loc 1 61 0 discriminator 1
  46 000c 40F20000 		movw	r0, #:lower16:.LC0
  47              	.LVL1:
  48 0010 C0F20000 		movt	r0, #:upper16:.LC0
  49 0014 FFF7FEFF 		bl	chDbgPanic
  50              	.LVL2:
  51              		.loc 1 63 0 discriminator 1
  52 0018 6460     		str	r4, [r4, #4]
  53 001a 2460     		str	r4, [r4]
  54 001c 10BD     		pop	{r4, pc}
  55              		.cfi_endproc
  56              	.LFE7:
  57              		.size	chCondInit, .-chCondInit
ARM GAS  /tmp/ccFM3XU1.s 			page 2


  58 001e 00BF     		.section	.text.chCondSignal,"ax",%progbits
  59              		.align	2
  60              		.p2align 4,,15
  61              		.global	chCondSignal
  62              		.thumb
  63              		.thumb_func
  64              		.type	chCondSignal, %function
  65              	chCondSignal:
  66              	.LFB8:
  67              		.loc 1 73 0
  68              		.cfi_startproc
  69              		@ args = 0, pretend = 0, frame = 0
  70              		@ frame_needed = 0, uses_anonymous_args = 0
  71              	.LVL3:
  72 0000 10B5     		push	{r4, lr}
  73              		.cfi_def_cfa_offset 8
  74              		.cfi_offset 4, -8
  75              		.cfi_offset 14, -4
  76              		.loc 1 75 0
  77 0002 0446     		mov	r4, r0
  78 0004 98B1     		cbz	r0, .L8
  79              	.LVL4:
  80              	.L6:
  81              	.LBB14:
  82              		.loc 1 77 0
  83 0006 2023     		movs	r3, #32
  84              	@ 77 "../../../os/kernel/src/chcond.c" 1
  85 0008 83F31188 		msr     BASEPRI, r3
  86              	@ 0 "" 2
  87              		.thumb
  88              	.LBE14:
  89 000c FFF7FEFF 		bl	dbg_check_lock
  90              	.LVL5:
  91              		.loc 1 78 0
  92 0010 2068     		ldr	r0, [r4]
  93 0012 A042     		cmp	r0, r4
  94 0014 05D0     		beq	.L7
  95              	.LVL6:
  96              	.LBB15:
  97              	.LBB16:
  98              		.file 2 "../../../os/kernel/include/chinline.h"
  99              		.loc 2 62 0
 100 0016 0368     		ldr	r3, [r0]
 101              	.LBE16:
 102              	.LBE15:
 103              		.loc 1 79 0
 104 0018 0021     		movs	r1, #0
 105              	.LBB18:
 106              	.LBB17:
 107              		.loc 2 62 0
 108 001a 2360     		str	r3, [r4]
 109 001c 5C60     		str	r4, [r3, #4]
 110              	.LBE17:
 111              	.LBE18:
 112              		.loc 1 79 0
 113 001e FFF7FEFF 		bl	chSchWakeupS
 114              	.LVL7:
ARM GAS  /tmp/ccFM3XU1.s 			page 3


 115              	.L7:
 116              		.loc 1 80 0
 117 0022 FFF7FEFF 		bl	dbg_check_unlock
 118              	.LVL8:
 119              	.LBB19:
 120 0026 0023     		movs	r3, #0
 121              	@ 80 "../../../os/kernel/src/chcond.c" 1
 122 0028 83F31188 		msr     BASEPRI, r3
 123              	@ 0 "" 2
 124              		.thumb
 125 002c 10BD     		pop	{r4, pc}
 126              	.LVL9:
 127              	.L8:
 128              	.LBE19:
 129              		.loc 1 75 0 discriminator 1
 130 002e 40F20000 		movw	r0, #:lower16:.LC1
 131              	.LVL10:
 132 0032 C0F20000 		movt	r0, #:upper16:.LC1
 133 0036 FFF7FEFF 		bl	chDbgPanic
 134              	.LVL11:
 135 003a E4E7     		b	.L6
 136              		.cfi_endproc
 137              	.LFE8:
 138              		.size	chCondSignal, .-chCondSignal
 139 003c AFF30080 		.section	.text.chCondSignalI,"ax",%progbits
 140              		.align	2
 141              		.p2align 4,,15
 142              		.global	chCondSignalI
 143              		.thumb
 144              		.thumb_func
 145              		.type	chCondSignalI, %function
 146              	chCondSignalI:
 147              	.LFB9:
 148              		.loc 1 94 0
 149              		.cfi_startproc
 150              		@ args = 0, pretend = 0, frame = 0
 151              		@ frame_needed = 0, uses_anonymous_args = 0
 152              	.LVL12:
 153 0000 10B5     		push	{r4, lr}
 154              		.cfi_def_cfa_offset 8
 155              		.cfi_offset 4, -8
 156              		.cfi_offset 14, -4
 157              		.loc 1 94 0
 158 0002 0446     		mov	r4, r0
 159              		.loc 1 96 0
 160 0004 FFF7FEFF 		bl	chDbgCheckClassI
 161              	.LVL13:
 162              		.loc 1 97 0
 163 0008 54B1     		cbz	r4, .L12
 164              	.L10:
 165              		.loc 1 99 0
 166 000a 2068     		ldr	r0, [r4]
 167 000c A042     		cmp	r0, r4
 168 000e 06D0     		beq	.L9
 169              	.LVL14:
 170              	.LBB20:
 171              	.LBB21:
ARM GAS  /tmp/ccFM3XU1.s 			page 4


 172              		.loc 2 62 0
 173 0010 0368     		ldr	r3, [r0]
 174 0012 2360     		str	r3, [r4]
 175 0014 5C60     		str	r4, [r3, #4]
 176              	.LBE21:
 177              	.LBE20:
 178              		.loc 1 100 0
 179 0016 FFF7FEFF 		bl	chSchReadyI
 180              	.LVL15:
 181 001a 0023     		movs	r3, #0
 182 001c 8362     		str	r3, [r0, #40]
 183              	.LVL16:
 184              	.L9:
 185 001e 10BD     		pop	{r4, pc}
 186              	.LVL17:
 187              	.L12:
 188              		.loc 1 97 0 discriminator 1
 189 0020 40F20000 		movw	r0, #:lower16:.LC2
 190 0024 C0F20000 		movt	r0, #:upper16:.LC2
 191 0028 FFF7FEFF 		bl	chDbgPanic
 192              	.LVL18:
 193 002c EDE7     		b	.L10
 194              		.cfi_endproc
 195              	.LFE9:
 196              		.size	chCondSignalI, .-chCondSignalI
 197 002e 00BF     		.section	.text.chCondBroadcastI,"ax",%progbits
 198              		.align	2
 199              		.p2align 4,,15
 200              		.global	chCondBroadcastI
 201              		.thumb
 202              		.thumb_func
 203              		.type	chCondBroadcastI, %function
 204              	chCondBroadcastI:
 205              	.LFB11:
 206              		.loc 1 129 0
 207              		.cfi_startproc
 208              		@ args = 0, pretend = 0, frame = 0
 209              		@ frame_needed = 0, uses_anonymous_args = 0
 210              	.LVL19:
 211 0000 38B5     		push	{r3, r4, r5, lr}
 212              		.cfi_def_cfa_offset 16
 213              		.cfi_offset 3, -16
 214              		.cfi_offset 4, -12
 215              		.cfi_offset 5, -8
 216              		.cfi_offset 14, -4
 217              		.loc 1 129 0
 218 0002 0446     		mov	r4, r0
 219              		.loc 1 131 0
 220 0004 FFF7FEFF 		bl	chDbgCheckClassI
 221              	.LVL20:
 222              		.loc 1 132 0
 223 0008 74B1     		cbz	r4, .L18
 224              	.L14:
 225              		.loc 1 137 0 discriminator 1
 226 000a 2068     		ldr	r0, [r4]
 227 000c A042     		cmp	r0, r4
 228 000e 0AD0     		beq	.L13
ARM GAS  /tmp/ccFM3XU1.s 			page 5


 229              		.loc 1 138 0
 230 0010 6FF00105 		mvn	r5, #1
 231              	.L17:
 232              	.LVL21:
 233              	.LBB22:
 234              	.LBB23:
 235              		.loc 2 62 0
 236 0014 0368     		ldr	r3, [r0]
 237 0016 2360     		str	r3, [r4]
 238 0018 5C60     		str	r4, [r3, #4]
 239              	.LBE23:
 240              	.LBE22:
 241              		.loc 1 138 0
 242 001a FFF7FEFF 		bl	chSchReadyI
 243              	.LVL22:
 244 001e 8562     		str	r5, [r0, #40]
 245              		.loc 1 137 0
 246 0020 2068     		ldr	r0, [r4]
 247 0022 A042     		cmp	r0, r4
 248 0024 F6D1     		bne	.L17
 249              	.LVL23:
 250              	.L13:
 251 0026 38BD     		pop	{r3, r4, r5, pc}
 252              	.LVL24:
 253              	.L18:
 254              		.loc 1 132 0 discriminator 1
 255 0028 40F20000 		movw	r0, #:lower16:.LC3
 256 002c C0F20000 		movt	r0, #:upper16:.LC3
 257 0030 FFF7FEFF 		bl	chDbgPanic
 258              	.LVL25:
 259 0034 E9E7     		b	.L14
 260              		.cfi_endproc
 261              	.LFE11:
 262              		.size	chCondBroadcastI, .-chCondBroadcastI
 263 0036 00BFAFF3 		.section	.text.chCondBroadcast,"ax",%progbits
 263      0080AFF3 
 263      0080
 264              		.align	2
 265              		.p2align 4,,15
 266              		.global	chCondBroadcast
 267              		.thumb
 268              		.thumb_func
 269              		.type	chCondBroadcast, %function
 270              	chCondBroadcast:
 271              	.LFB10:
 272              		.loc 1 110 0
 273              		.cfi_startproc
 274              		@ args = 0, pretend = 0, frame = 0
 275              		@ frame_needed = 0, uses_anonymous_args = 0
 276              	.LVL26:
 277 0000 10B5     		push	{r4, lr}
 278              		.cfi_def_cfa_offset 8
 279              		.cfi_offset 4, -8
 280              		.cfi_offset 14, -4
 281              	.LBB24:
 282              		.loc 1 112 0
 283 0002 2023     		movs	r3, #32
ARM GAS  /tmp/ccFM3XU1.s 			page 6


 284              	.LBE24:
 285              		.loc 1 110 0
 286 0004 0446     		mov	r4, r0
 287              	.LBB25:
 288              		.loc 1 112 0
 289              	@ 112 "../../../os/kernel/src/chcond.c" 1
 290 0006 83F31188 		msr     BASEPRI, r3
 291              	@ 0 "" 2
 292              		.thumb
 293              	.LBE25:
 294 000a FFF7FEFF 		bl	dbg_check_lock
 295              	.LVL27:
 296              		.loc 1 113 0
 297 000e 2046     		mov	r0, r4
 298 0010 FFF7FEFF 		bl	chCondBroadcastI
 299              	.LVL28:
 300              		.loc 1 114 0
 301 0014 FFF7FEFF 		bl	chSchRescheduleS
 302              	.LVL29:
 303              		.loc 1 115 0
 304 0018 FFF7FEFF 		bl	dbg_check_unlock
 305              	.LVL30:
 306              	.LBB26:
 307 001c 0023     		movs	r3, #0
 308              	@ 115 "../../../os/kernel/src/chcond.c" 1
 309 001e 83F31188 		msr     BASEPRI, r3
 310              	@ 0 "" 2
 311              		.thumb
 312 0022 10BD     		pop	{r4, pc}
 313              	.LBE26:
 314              		.cfi_endproc
 315              	.LFE10:
 316              		.size	chCondBroadcast, .-chCondBroadcast
 317 0024 AFF30080 		.section	.text.chCondWaitS,"ax",%progbits
 317      AFF30080 
 317      AFF30080 
 318              		.align	2
 319              		.p2align 4,,15
 320              		.global	chCondWaitS
 321              		.thumb
 322              		.thumb_func
 323              		.type	chCondWaitS, %function
 324              	chCondWaitS:
 325              	.LFB13:
 326              		.loc 1 184 0
 327              		.cfi_startproc
 328              		@ args = 0, pretend = 0, frame = 0
 329              		@ frame_needed = 0, uses_anonymous_args = 0
 330              	.LVL31:
 331              		.loc 1 185 0
 332 0000 40F20003 		movw	r3, #:lower16:rlist
 333 0004 C0F20003 		movt	r3, #:upper16:rlist
 334              		.loc 1 184 0
 335 0008 70B5     		push	{r4, r5, r6, lr}
 336              		.cfi_def_cfa_offset 16
 337              		.cfi_offset 4, -16
 338              		.cfi_offset 5, -12
ARM GAS  /tmp/ccFM3XU1.s 			page 7


 339              		.cfi_offset 6, -8
 340              		.cfi_offset 14, -4
 341              		.loc 1 184 0
 342 000a 0546     		mov	r5, r0
 343              		.loc 1 185 0
 344 000c 9C69     		ldr	r4, [r3, #24]
 345              	.LVL32:
 346              		.loc 1 189 0
 347 000e FFF7FEFF 		bl	chDbgCheckClassS
 348              	.LVL33:
 349              		.loc 1 190 0
 350 0012 E5B1     		cbz	r5, .L27
 351              	.L21:
 352              		.loc 1 191 0
 353 0014 236C     		ldr	r3, [r4, #64]
 354 0016 0BB3     		cbz	r3, .L28
 355              	.L22:
 356              		.loc 1 195 0
 357 0018 FFF7FEFF 		bl	chMtxUnlockS
 358              	.LVL34:
 359              		.loc 1 196 0
 360 001c A562     		str	r5, [r4, #40]
 361              		.loc 1 195 0
 362 001e 0646     		mov	r6, r0
 363              	.LVL35:
 364              	.LBB27:
 365              	.LBB28:
 366              		.loc 2 43 0
 367 0020 2B46     		mov	r3, r5
 368 0022 03E0     		b	.L25
 369              	.LVL36:
 370              	.L29:
 371              		.loc 2 46 0
 372 0024 9968     		ldr	r1, [r3, #8]
 373 0026 A268     		ldr	r2, [r4, #8]
 374 0028 9142     		cmp	r1, r2
 375 002a 02D3     		bcc	.L24
 376              	.L25:
 377              		.loc 2 45 0
 378 002c 1B68     		ldr	r3, [r3]
 379              	.LVL37:
 380              		.loc 2 46 0
 381 002e 9D42     		cmp	r5, r3
 382 0030 F8D1     		bne	.L29
 383              	.L24:
 384              		.loc 2 48 0
 385 0032 5A68     		ldr	r2, [r3, #4]
 386              		.loc 2 47 0
 387 0034 2360     		str	r3, [r4]
 388              		.loc 2 48 0
 389 0036 6260     		str	r2, [r4, #4]
 390              	.LBE28:
 391              	.LBE27:
 392              		.loc 1 198 0
 393 0038 0520     		movs	r0, #5
 394              	.LVL38:
 395              	.LBB30:
ARM GAS  /tmp/ccFM3XU1.s 			page 8


 396              	.LBB29:
 397              		.loc 2 49 0
 398 003a 5C60     		str	r4, [r3, #4]
 399 003c 1460     		str	r4, [r2]
 400              	.LBE29:
 401              	.LBE30:
 402              		.loc 1 198 0
 403 003e FFF7FEFF 		bl	chSchGoSleepS
 404              	.LVL39:
 405              		.loc 1 199 0
 406 0042 A46A     		ldr	r4, [r4, #40]
 407              	.LVL40:
 408              		.loc 1 200 0
 409 0044 3046     		mov	r0, r6
 410 0046 FFF7FEFF 		bl	chMtxLockS
 411              	.LVL41:
 412              		.loc 1 202 0
 413 004a 2046     		mov	r0, r4
 414 004c 70BD     		pop	{r4, r5, r6, pc}
 415              	.LVL42:
 416              	.L27:
 417              		.loc 1 190 0 discriminator 1
 418 004e 40F20000 		movw	r0, #:lower16:.LC4
 419 0052 C0F20000 		movt	r0, #:upper16:.LC4
 420 0056 FFF7FEFF 		bl	chDbgPanic
 421              	.LVL43:
 422 005a DBE7     		b	.L21
 423              	.L28:
 424              		.loc 1 191 0 discriminator 1
 425 005c 40F20000 		movw	r0, #:lower16:.LC5
 426 0060 C0F20000 		movt	r0, #:upper16:.LC5
 427 0064 FFF7FEFF 		bl	chDbgPanic
 428              	.LVL44:
 429 0068 D6E7     		b	.L22
 430              		.cfi_endproc
 431              	.LFE13:
 432              		.size	chCondWaitS, .-chCondWaitS
 433 006a 00BFAFF3 		.section	.text.chCondWait,"ax",%progbits
 433      0080
 434              		.align	2
 435              		.p2align 4,,15
 436              		.global	chCondWait
 437              		.thumb
 438              		.thumb_func
 439              		.type	chCondWait, %function
 440              	chCondWait:
 441              	.LFB12:
 442              		.loc 1 158 0
 443              		.cfi_startproc
 444              		@ args = 0, pretend = 0, frame = 0
 445              		@ frame_needed = 0, uses_anonymous_args = 0
 446              	.LVL45:
 447 0000 10B5     		push	{r4, lr}
 448              		.cfi_def_cfa_offset 8
 449              		.cfi_offset 4, -8
 450              		.cfi_offset 14, -4
 451              	.LBB31:
ARM GAS  /tmp/ccFM3XU1.s 			page 9


 452              		.loc 1 161 0
 453 0002 2023     		movs	r3, #32
 454              	.LBE31:
 455              		.loc 1 158 0
 456 0004 0446     		mov	r4, r0
 457              	.LBB32:
 458              		.loc 1 161 0
 459              	@ 161 "../../../os/kernel/src/chcond.c" 1
 460 0006 83F31188 		msr     BASEPRI, r3
 461              	@ 0 "" 2
 462              		.thumb
 463              	.LBE32:
 464 000a FFF7FEFF 		bl	dbg_check_lock
 465              	.LVL46:
 466              		.loc 1 162 0
 467 000e 2046     		mov	r0, r4
 468 0010 FFF7FEFF 		bl	chCondWaitS
 469              	.LVL47:
 470 0014 0446     		mov	r4, r0
 471              	.LVL48:
 472              		.loc 1 163 0
 473 0016 FFF7FEFF 		bl	dbg_check_unlock
 474              	.LVL49:
 475              	.LBB33:
 476 001a 0023     		movs	r3, #0
 477              	@ 163 "../../../os/kernel/src/chcond.c" 1
 478 001c 83F31188 		msr     BASEPRI, r3
 479              	@ 0 "" 2
 480              		.thumb
 481              	.LBE33:
 482              		.loc 1 165 0
 483 0020 2046     		mov	r0, r4
 484 0022 10BD     		pop	{r4, pc}
 485              		.cfi_endproc
 486              	.LFE12:
 487              		.size	chCondWait, .-chCondWait
 488 0024 AFF30080 		.section	.text.chCondWaitTimeoutS,"ax",%progbits
 488      AFF30080 
 488      AFF30080 
 489              		.align	2
 490              		.p2align 4,,15
 491              		.global	chCondWaitTimeoutS
 492              		.thumb
 493              		.thumb_func
 494              		.type	chCondWaitTimeoutS, %function
 495              	chCondWaitTimeoutS:
 496              	.LFB15:
 497              		.loc 1 270 0
 498              		.cfi_startproc
 499              		@ args = 0, pretend = 0, frame = 0
 500              		@ frame_needed = 0, uses_anonymous_args = 0
 501              	.LVL50:
 502 0000 2DE9F041 		push	{r4, r5, r6, r7, r8, lr}
 503              		.cfi_def_cfa_offset 24
 504              		.cfi_offset 4, -24
 505              		.cfi_offset 5, -20
 506              		.cfi_offset 6, -16
ARM GAS  /tmp/ccFM3XU1.s 			page 10


 507              		.cfi_offset 7, -12
 508              		.cfi_offset 8, -8
 509              		.cfi_offset 14, -4
 510              		.loc 1 270 0
 511 0004 0646     		mov	r6, r0
 512 0006 0F46     		mov	r7, r1
 513              		.loc 1 274 0
 514 0008 FFF7FEFF 		bl	chDbgCheckClassS
 515              	.LVL51:
 516              		.loc 1 275 0
 517 000c 002F     		cmp	r7, #0
 518 000e 18BF     		it	ne
 519 0010 002E     		cmpne	r6, #0
 520 0012 26D0     		beq	.L42
 521              	.L32:
 522              		.loc 1 276 0
 523 0014 40F20004 		movw	r4, #:lower16:rlist
 524 0018 C0F20004 		movt	r4, #:upper16:rlist
 525 001c A369     		ldr	r3, [r4, #24]
 526 001e 1B6C     		ldr	r3, [r3, #64]
 527 0020 33B3     		cbz	r3, .L43
 528              	.L33:
 529              		.loc 1 280 0
 530 0022 FFF7FEFF 		bl	chMtxUnlockS
 531              	.LVL52:
 532              		.loc 1 281 0
 533 0026 A569     		ldr	r5, [r4, #24]
 534              		.loc 1 280 0
 535 0028 8046     		mov	r8, r0
 536              	.LVL53:
 537              	.LBB34:
 538              	.LBB35:
 539              		.loc 2 43 0
 540 002a 3346     		mov	r3, r6
 541              	.LBE35:
 542              	.LBE34:
 543              		.loc 1 281 0
 544 002c AE62     		str	r6, [r5, #40]
 545              	.LVL54:
 546 002e 03E0     		b	.L38
 547              	.LVL55:
 548              	.L34:
 549              	.LBB39:
 550              	.LBB36:
 551              		.loc 2 46 0
 552 0030 9C68     		ldr	r4, [r3, #8]
 553 0032 AA68     		ldr	r2, [r5, #8]
 554 0034 9442     		cmp	r4, r2
 555 0036 02D3     		bcc	.L37
 556              	.L38:
 557              		.loc 2 45 0
 558 0038 1B68     		ldr	r3, [r3]
 559              	.LVL56:
 560              		.loc 2 46 0
 561 003a 9E42     		cmp	r6, r3
 562 003c F8D1     		bne	.L34
 563              	.L37:
ARM GAS  /tmp/ccFM3XU1.s 			page 11


 564              		.loc 2 48 0
 565 003e 5A68     		ldr	r2, [r3, #4]
 566              		.loc 2 47 0
 567 0040 2B60     		str	r3, [r5]
 568              		.loc 2 48 0
 569 0042 6A60     		str	r2, [r5, #4]
 570              	.LBE36:
 571              	.LBE39:
 572              		.loc 1 283 0
 573 0044 3946     		mov	r1, r7
 574              	.LBB40:
 575              	.LBB37:
 576              		.loc 2 49 0
 577 0046 5D60     		str	r5, [r3, #4]
 578              	.LBE37:
 579              	.LBE40:
 580              		.loc 1 283 0
 581 0048 0520     		movs	r0, #5
 582              	.LVL57:
 583              	.LBB41:
 584              	.LBB38:
 585              		.loc 2 49 0
 586 004a 1560     		str	r5, [r2]
 587              	.LBE38:
 588              	.LBE41:
 589              		.loc 1 283 0
 590 004c FFF7FEFF 		bl	chSchGoSleepTimeoutS
 591              	.LVL58:
 592              		.loc 1 284 0
 593 0050 431C     		adds	r3, r0, #1
 594              		.loc 1 283 0
 595 0052 0446     		mov	r4, r0
 596              	.LVL59:
 597              		.loc 1 284 0
 598 0054 02D0     		beq	.L36
 599              		.loc 1 285 0
 600 0056 4046     		mov	r0, r8
 601              	.LVL60:
 602 0058 FFF7FEFF 		bl	chMtxLockS
 603              	.LVL61:
 604              	.L36:
 605              		.loc 1 287 0
 606 005c 2046     		mov	r0, r4
 607 005e BDE8F081 		pop	{r4, r5, r6, r7, r8, pc}
 608              	.LVL62:
 609              	.L42:
 610              		.loc 1 275 0 discriminator 1
 611 0062 40F20000 		movw	r0, #:lower16:.LC6
 612 0066 C0F20000 		movt	r0, #:upper16:.LC6
 613 006a FFF7FEFF 		bl	chDbgPanic
 614              	.LVL63:
 615 006e D1E7     		b	.L32
 616              	.L43:
 617              		.loc 1 276 0 discriminator 1
 618 0070 40F20000 		movw	r0, #:lower16:.LC7
 619 0074 C0F20000 		movt	r0, #:upper16:.LC7
 620 0078 FFF7FEFF 		bl	chDbgPanic
ARM GAS  /tmp/ccFM3XU1.s 			page 12


 621              	.LVL64:
 622 007c D1E7     		b	.L33
 623              		.cfi_endproc
 624              	.LFE15:
 625              		.size	chCondWaitTimeoutS, .-chCondWaitTimeoutS
 626 007e 00BF     		.section	.text.chCondWaitTimeout,"ax",%progbits
 627              		.align	2
 628              		.p2align 4,,15
 629              		.global	chCondWaitTimeout
 630              		.thumb
 631              		.thumb_func
 632              		.type	chCondWaitTimeout, %function
 633              	chCondWaitTimeout:
 634              	.LFB14:
 635              		.loc 1 233 0
 636              		.cfi_startproc
 637              		@ args = 0, pretend = 0, frame = 0
 638              		@ frame_needed = 0, uses_anonymous_args = 0
 639              	.LVL65:
 640 0000 38B5     		push	{r3, r4, r5, lr}
 641              		.cfi_def_cfa_offset 16
 642              		.cfi_offset 3, -16
 643              		.cfi_offset 4, -12
 644              		.cfi_offset 5, -8
 645              		.cfi_offset 14, -4
 646              		.loc 1 233 0
 647 0002 0546     		mov	r5, r0
 648 0004 0C46     		mov	r4, r1
 649              	.LBB42:
 650              		.loc 1 236 0
 651 0006 2023     		movs	r3, #32
 652              	@ 236 "../../../os/kernel/src/chcond.c" 1
 653 0008 83F31188 		msr     BASEPRI, r3
 654              	@ 0 "" 2
 655              		.thumb
 656              	.LBE42:
 657 000c FFF7FEFF 		bl	dbg_check_lock
 658              	.LVL66:
 659              		.loc 1 237 0
 660 0010 2146     		mov	r1, r4
 661 0012 2846     		mov	r0, r5
 662 0014 FFF7FEFF 		bl	chCondWaitTimeoutS
 663              	.LVL67:
 664 0018 0446     		mov	r4, r0
 665              	.LVL68:
 666              		.loc 1 238 0
 667 001a FFF7FEFF 		bl	dbg_check_unlock
 668              	.LVL69:
 669              	.LBB43:
 670 001e 0023     		movs	r3, #0
 671              	@ 238 "../../../os/kernel/src/chcond.c" 1
 672 0020 83F31188 		msr     BASEPRI, r3
 673              	@ 0 "" 2
 674              		.thumb
 675              	.LBE43:
 676              		.loc 1 240 0
 677 0024 2046     		mov	r0, r4
ARM GAS  /tmp/ccFM3XU1.s 			page 13


 678 0026 38BD     		pop	{r3, r4, r5, pc}
 679              		.cfi_endproc
 680              	.LFE14:
 681              		.size	chCondWaitTimeout, .-chCondWaitTimeout
 682 0028 AFF30080 		.section	.rodata.str1.4,"aMS",%progbits,1
 682      AFF30080 
 683              		.align	2
 684              	.LC0:
 685 0000 22636843 		.ascii	"\"chCondInit\"()\000"
 685      6F6E6449 
 685      6E697422 
 685      282900
 686 000f 00       		.space	1
 687              	.LC1:
 688 0010 22636843 		.ascii	"\"chCondSignal\"()\000"
 688      6F6E6453 
 688      69676E61 
 688      6C222829 
 688      00
 689 0021 000000   		.space	3
 690              	.LC2:
 691 0024 22636843 		.ascii	"\"chCondSignalI\"()\000"
 691      6F6E6453 
 691      69676E61 
 691      6C492228 
 691      2900
 692 0036 0000     		.space	2
 693              	.LC3:
 694 0038 22636843 		.ascii	"\"chCondBroadcastI\"()\000"
 694      6F6E6442 
 694      726F6164 
 694      63617374 
 694      49222829 
 695 004d 000000   		.space	3
 696              	.LC4:
 697 0050 22636843 		.ascii	"\"chCondWaitS\"()\000"
 697      6F6E6457 
 697      61697453 
 697      22282900 
 698              	.LC5:
 699 0060 6368436F 		.ascii	"chCondWaitS(), #1\000"
 699      6E645761 
 699      69745328 
 699      292C2023 
 699      3100
 700 0072 0000     		.space	2
 701              	.LC6:
 702 0074 22636843 		.ascii	"\"chCondWaitTimeoutS\"()\000"
 702      6F6E6457 
 702      61697454 
 702      696D656F 
 702      75745322 
 703 008b 00       		.space	1
 704              	.LC7:
 705 008c 6368436F 		.ascii	"chCondWaitTimeoutS(), #1\000"
 705      6E645761 
 705      69745469 
ARM GAS  /tmp/ccFM3XU1.s 			page 14


 705      6D656F75 
 705      74532829 
 706 00a5 000000   		.text
 707              	.Letext0:
 708              		.file 3 "/usr/include/newlib/machine/_default_types.h"
 709              		.file 4 "/usr/include/newlib/stdint.h"
 710              		.file 5 "../../../os/ports/GCC/ARMCMx/chtypes.h"
 711              		.file 6 "../../../os/kernel/include/chlists.h"
 712              		.file 7 "../../../os/kernel/include/chthreads.h"
 713              		.file 8 "../../../os/ports/GCC/ARMCMx/chcore_v7m.h"
 714              		.file 9 "../../../os/kernel/include/chschd.h"
 715              		.file 10 "../../../os/kernel/include/chmtx.h"
 716              		.file 11 "../../../os/kernel/include/chcond.h"
 717              		.file 12 "../../../os/kernel/include/chdebug.h"