ARM GAS  /tmp/ccXu4QZt.s 			page 1


   1              		.syntax unified
   2              		.cpu cortex-m4
   3              		.fpu softvfp
   4              		.eabi_attribute 20, 1
   5              		.eabi_attribute 21, 1
   6              		.eabi_attribute 23, 3
   7              		.eabi_attribute 24, 1
   8              		.eabi_attribute 25, 1
   9              		.eabi_attribute 26, 1
  10              		.eabi_attribute 30, 2
  11              		.eabi_attribute 34, 1
  12              		.eabi_attribute 18, 4
  13              		.thumb
  14              		.file	"chdebug.c"
  15              		.text
  16              	.Ltext0:
  17              		.cfi_sections	.debug_frame
  18              		.section	.text.dbg_check_disable,"ax",%progbits
  19              		.align	2
  20              		.p2align 4,,15
  21              		.global	dbg_check_disable
  22              		.thumb
  23              		.thumb_func
  24              		.type	dbg_check_disable, %function
  25              	dbg_check_disable:
  26              	.LFB7:
  27              		.file 1 "../../../os/kernel/src/chdebug.c"
  28              		.loc 1 81 0
  29              		.cfi_startproc
  30              		@ args = 0, pretend = 0, frame = 0
  31              		@ frame_needed = 0, uses_anonymous_args = 0
  32              		@ link register save eliminated.
  33              		.loc 1 83 0
  34 0000 40F20003 		movw	r3, #:lower16:.LANCHOR0
  35 0004 C0F20003 		movt	r3, #:upper16:.LANCHOR0
  36 0008 1B68     		ldr	r3, [r3]
  37 000a 2BB9     		cbnz	r3, .L2
  38              		.loc 1 83 0 is_stmt 0 discriminator 1
  39 000c 40F20003 		movw	r3, #:lower16:.LANCHOR1
  40 0010 C0F20003 		movt	r3, #:upper16:.LANCHOR1
  41 0014 1B68     		ldr	r3, [r3]
  42 0016 53B1     		cbz	r3, .L1
  43              	.L2:
  44              	.LVL0:
  45              	.LBB28:
  46              	.LBB29:
  47              		.loc 1 273 0 is_stmt 1
  48 0018 40F20003 		movw	r3, #:lower16:.LANCHOR2
  49 001c C0F20003 		movt	r3, #:upper16:.LANCHOR2
  50 0020 40F20002 		movw	r2, #:lower16:.LC0
  51 0024 C0F20002 		movt	r2, #:upper16:.LC0
  52 0028 1A60     		str	r2, [r3]
  53              		.loc 1 274 0
  54 002a FFF7FEBF 		b	port_halt
  55              	.LVL1:
  56              	.L1:
  57 002e 7047     		bx	lr
ARM GAS  /tmp/ccXu4QZt.s 			page 2


  58              	.LBE29:
  59              	.LBE28:
  60              		.cfi_endproc
  61              	.LFE7:
  62              		.size	dbg_check_disable, .-dbg_check_disable
  63              		.section	.text.dbg_check_suspend,"ax",%progbits
  64              		.align	2
  65              		.p2align 4,,15
  66              		.global	dbg_check_suspend
  67              		.thumb
  68              		.thumb_func
  69              		.type	dbg_check_suspend, %function
  70              	dbg_check_suspend:
  71              	.LFB8:
  72              		.loc 1 92 0
  73              		.cfi_startproc
  74              		@ args = 0, pretend = 0, frame = 0
  75              		@ frame_needed = 0, uses_anonymous_args = 0
  76              		@ link register save eliminated.
  77              		.loc 1 94 0
  78 0000 40F20003 		movw	r3, #:lower16:.LANCHOR0
  79 0004 C0F20003 		movt	r3, #:upper16:.LANCHOR0
  80 0008 1B68     		ldr	r3, [r3]
  81 000a 2BB9     		cbnz	r3, .L6
  82              		.loc 1 94 0 is_stmt 0 discriminator 1
  83 000c 40F20003 		movw	r3, #:lower16:.LANCHOR1
  84 0010 C0F20003 		movt	r3, #:upper16:.LANCHOR1
  85 0014 1B68     		ldr	r3, [r3]
  86 0016 53B1     		cbz	r3, .L5
  87              	.L6:
  88              	.LVL2:
  89              	.LBB30:
  90              	.LBB31:
  91              		.loc 1 273 0 is_stmt 1
  92 0018 40F20003 		movw	r3, #:lower16:.LANCHOR2
  93 001c C0F20003 		movt	r3, #:upper16:.LANCHOR2
  94 0020 40F20002 		movw	r2, #:lower16:.LC1
  95 0024 C0F20002 		movt	r2, #:upper16:.LC1
  96 0028 1A60     		str	r2, [r3]
  97              		.loc 1 274 0
  98 002a FFF7FEBF 		b	port_halt
  99              	.LVL3:
 100              	.L5:
 101 002e 7047     		bx	lr
 102              	.LBE31:
 103              	.LBE30:
 104              		.cfi_endproc
 105              	.LFE8:
 106              		.size	dbg_check_suspend, .-dbg_check_suspend
 107              		.section	.text.dbg_check_enable,"ax",%progbits
 108              		.align	2
 109              		.p2align 4,,15
 110              		.global	dbg_check_enable
 111              		.thumb
 112              		.thumb_func
 113              		.type	dbg_check_enable, %function
 114              	dbg_check_enable:
ARM GAS  /tmp/ccXu4QZt.s 			page 3


 115              	.LFB9:
 116              		.loc 1 103 0
 117              		.cfi_startproc
 118              		@ args = 0, pretend = 0, frame = 0
 119              		@ frame_needed = 0, uses_anonymous_args = 0
 120              		@ link register save eliminated.
 121              		.loc 1 105 0
 122 0000 40F20003 		movw	r3, #:lower16:.LANCHOR0
 123 0004 C0F20003 		movt	r3, #:upper16:.LANCHOR0
 124 0008 1B68     		ldr	r3, [r3]
 125 000a 2BB9     		cbnz	r3, .L9
 126              		.loc 1 105 0 is_stmt 0 discriminator 1
 127 000c 40F20003 		movw	r3, #:lower16:.LANCHOR1
 128 0010 C0F20003 		movt	r3, #:upper16:.LANCHOR1
 129 0014 1B68     		ldr	r3, [r3]
 130 0016 53B1     		cbz	r3, .L8
 131              	.L9:
 132              	.LVL4:
 133              	.LBB32:
 134              	.LBB33:
 135              		.loc 1 273 0 is_stmt 1
 136 0018 40F20003 		movw	r3, #:lower16:.LANCHOR2
 137 001c C0F20003 		movt	r3, #:upper16:.LANCHOR2
 138 0020 40F20002 		movw	r2, #:lower16:.LC2
 139 0024 C0F20002 		movt	r2, #:upper16:.LC2
 140 0028 1A60     		str	r2, [r3]
 141              		.loc 1 274 0
 142 002a FFF7FEBF 		b	port_halt
 143              	.LVL5:
 144              	.L8:
 145 002e 7047     		bx	lr
 146              	.LBE33:
 147              	.LBE32:
 148              		.cfi_endproc
 149              	.LFE9:
 150              		.size	dbg_check_enable, .-dbg_check_enable
 151              		.section	.text.dbg_check_lock,"ax",%progbits
 152              		.align	2
 153              		.p2align 4,,15
 154              		.global	dbg_check_lock
 155              		.thumb
 156              		.thumb_func
 157              		.type	dbg_check_lock, %function
 158              	dbg_check_lock:
 159              	.LFB10:
 160              		.loc 1 114 0
 161              		.cfi_startproc
 162              		@ args = 0, pretend = 0, frame = 0
 163              		@ frame_needed = 0, uses_anonymous_args = 0
 164              		.loc 1 116 0
 165 0000 40F20003 		movw	r3, #:lower16:.LANCHOR0
 166 0004 C0F20003 		movt	r3, #:upper16:.LANCHOR0
 167              		.loc 1 114 0
 168 0008 10B5     		push	{r4, lr}
 169              		.cfi_def_cfa_offset 8
 170              		.cfi_offset 4, -8
 171              		.cfi_offset 14, -4
ARM GAS  /tmp/ccXu4QZt.s 			page 4


 172              		.loc 1 116 0
 173 000a 1B68     		ldr	r3, [r3]
 174 000c 40F20004 		movw	r4, #:lower16:.LANCHOR1
 175 0010 C0F20004 		movt	r4, #:upper16:.LANCHOR1
 176 0014 0BB9     		cbnz	r3, .L12
 177              		.loc 1 116 0 is_stmt 0 discriminator 1
 178 0016 2368     		ldr	r3, [r4]
 179 0018 53B1     		cbz	r3, .L13
 180              	.L12:
 181              	.LVL6:
 182              	.LBB34:
 183              	.LBB35:
 184              		.loc 1 273 0 is_stmt 1
 185 001a 40F20003 		movw	r3, #:lower16:.LANCHOR2
 186 001e C0F20003 		movt	r3, #:upper16:.LANCHOR2
 187 0022 40F20002 		movw	r2, #:lower16:.LC3
 188 0026 C0F20002 		movt	r2, #:upper16:.LC3
 189 002a 1A60     		str	r2, [r3]
 190              		.loc 1 274 0
 191 002c FFF7FEFF 		bl	port_halt
 192              	.LVL7:
 193              	.L13:
 194              	.LBE35:
 195              	.LBE34:
 196              		.loc 1 118 0
 197 0030 0123     		movs	r3, #1
 198 0032 2360     		str	r3, [r4]
 199 0034 10BD     		pop	{r4, pc}
 200              		.cfi_endproc
 201              	.LFE10:
 202              		.size	dbg_check_lock, .-dbg_check_lock
 203 0036 00BFAFF3 		.section	.text.dbg_check_unlock,"ax",%progbits
 203      0080AFF3 
 203      0080
 204              		.align	2
 205              		.p2align 4,,15
 206              		.global	dbg_check_unlock
 207              		.thumb
 208              		.thumb_func
 209              		.type	dbg_check_unlock, %function
 210              	dbg_check_unlock:
 211              	.LFB11:
 212              		.loc 1 126 0
 213              		.cfi_startproc
 214              		@ args = 0, pretend = 0, frame = 0
 215              		@ frame_needed = 0, uses_anonymous_args = 0
 216              		.loc 1 128 0
 217 0000 40F20003 		movw	r3, #:lower16:.LANCHOR0
 218 0004 C0F20003 		movt	r3, #:upper16:.LANCHOR0
 219              		.loc 1 126 0
 220 0008 10B5     		push	{r4, lr}
 221              		.cfi_def_cfa_offset 8
 222              		.cfi_offset 4, -8
 223              		.cfi_offset 14, -4
 224              		.loc 1 128 0
 225 000a 1B68     		ldr	r3, [r3]
 226 000c 40F20004 		movw	r4, #:lower16:.LANCHOR1
ARM GAS  /tmp/ccXu4QZt.s 			page 5


 227 0010 C0F20004 		movt	r4, #:upper16:.LANCHOR1
 228 0014 2BB9     		cbnz	r3, .L20
 229              		.loc 1 128 0 is_stmt 0 discriminator 1
 230 0016 2368     		ldr	r3, [r4]
 231 0018 002B     		cmp	r3, #0
 232 001a 02DD     		ble	.L20
 233              		.loc 1 130 0 is_stmt 1
 234 001c 0023     		movs	r3, #0
 235 001e 2360     		str	r3, [r4]
 236 0020 10BD     		pop	{r4, pc}
 237              	.L20:
 238              	.LVL8:
 239              	.LBB36:
 240              	.LBB37:
 241              		.loc 1 273 0
 242 0022 40F20003 		movw	r3, #:lower16:.LANCHOR2
 243 0026 C0F20003 		movt	r3, #:upper16:.LANCHOR2
 244 002a 40F20002 		movw	r2, #:lower16:.LC4
 245 002e C0F20002 		movt	r2, #:upper16:.LC4
 246 0032 1A60     		str	r2, [r3]
 247              		.loc 1 274 0
 248 0034 FFF7FEFF 		bl	port_halt
 249              	.LVL9:
 250              	.LBE37:
 251              	.LBE36:
 252              		.loc 1 130 0
 253 0038 0023     		movs	r3, #0
 254 003a 2360     		str	r3, [r4]
 255 003c 10BD     		pop	{r4, pc}
 256              		.cfi_endproc
 257              	.LFE11:
 258              		.size	dbg_check_unlock, .-dbg_check_unlock
 259 003e 00BF     		.section	.text.dbg_check_lock_from_isr,"ax",%progbits
 260              		.align	2
 261              		.p2align 4,,15
 262              		.global	dbg_check_lock_from_isr
 263              		.thumb
 264              		.thumb_func
 265              		.type	dbg_check_lock_from_isr, %function
 266              	dbg_check_lock_from_isr:
 267              	.LFB12:
 268              		.loc 1 138 0
 269              		.cfi_startproc
 270              		@ args = 0, pretend = 0, frame = 0
 271              		@ frame_needed = 0, uses_anonymous_args = 0
 272              		.loc 1 140 0
 273 0000 40F20003 		movw	r3, #:lower16:.LANCHOR0
 274 0004 C0F20003 		movt	r3, #:upper16:.LANCHOR0
 275              		.loc 1 138 0
 276 0008 10B5     		push	{r4, lr}
 277              		.cfi_def_cfa_offset 8
 278              		.cfi_offset 4, -8
 279              		.cfi_offset 14, -4
 280              		.loc 1 140 0
 281 000a 1B68     		ldr	r3, [r3]
 282 000c 40F20004 		movw	r4, #:lower16:.LANCHOR1
 283 0010 002B     		cmp	r3, #0
ARM GAS  /tmp/ccXu4QZt.s 			page 6


 284 0012 C0F20004 		movt	r4, #:upper16:.LANCHOR1
 285 0016 01DD     		ble	.L25
 286              		.loc 1 140 0 is_stmt 0 discriminator 1
 287 0018 2368     		ldr	r3, [r4]
 288 001a 53B1     		cbz	r3, .L26
 289              	.L25:
 290              	.LVL10:
 291              	.LBB38:
 292              	.LBB39:
 293              		.loc 1 273 0 is_stmt 1
 294 001c 40F20003 		movw	r3, #:lower16:.LANCHOR2
 295 0020 C0F20003 		movt	r3, #:upper16:.LANCHOR2
 296 0024 40F20002 		movw	r2, #:lower16:.LC5
 297 0028 C0F20002 		movt	r2, #:upper16:.LC5
 298 002c 1A60     		str	r2, [r3]
 299              		.loc 1 274 0
 300 002e FFF7FEFF 		bl	port_halt
 301              	.LVL11:
 302              	.L26:
 303              	.LBE39:
 304              	.LBE38:
 305              		.loc 1 142 0
 306 0032 0123     		movs	r3, #1
 307 0034 2360     		str	r3, [r4]
 308 0036 10BD     		pop	{r4, pc}
 309              		.cfi_endproc
 310              	.LFE12:
 311              		.size	dbg_check_lock_from_isr, .-dbg_check_lock_from_isr
 312 0038 AFF30080 		.section	.text.dbg_check_unlock_from_isr,"ax",%progbits
 312      AFF30080 
 313              		.align	2
 314              		.p2align 4,,15
 315              		.global	dbg_check_unlock_from_isr
 316              		.thumb
 317              		.thumb_func
 318              		.type	dbg_check_unlock_from_isr, %function
 319              	dbg_check_unlock_from_isr:
 320              	.LFB13:
 321              		.loc 1 150 0
 322              		.cfi_startproc
 323              		@ args = 0, pretend = 0, frame = 0
 324              		@ frame_needed = 0, uses_anonymous_args = 0
 325              		.loc 1 152 0
 326 0000 40F20003 		movw	r3, #:lower16:.LANCHOR0
 327 0004 C0F20003 		movt	r3, #:upper16:.LANCHOR0
 328              		.loc 1 150 0
 329 0008 10B5     		push	{r4, lr}
 330              		.cfi_def_cfa_offset 8
 331              		.cfi_offset 4, -8
 332              		.cfi_offset 14, -4
 333              		.loc 1 152 0
 334 000a 1B68     		ldr	r3, [r3]
 335 000c 40F20004 		movw	r4, #:lower16:.LANCHOR1
 336 0010 002B     		cmp	r3, #0
 337 0012 C0F20004 		movt	r4, #:upper16:.LANCHOR1
 338 0016 05DD     		ble	.L33
 339              		.loc 1 152 0 is_stmt 0 discriminator 1
ARM GAS  /tmp/ccXu4QZt.s 			page 7


 340 0018 2368     		ldr	r3, [r4]
 341 001a 002B     		cmp	r3, #0
 342 001c 02DD     		ble	.L33
 343              		.loc 1 154 0 is_stmt 1
 344 001e 0023     		movs	r3, #0
 345 0020 2360     		str	r3, [r4]
 346 0022 10BD     		pop	{r4, pc}
 347              	.L33:
 348              	.LVL12:
 349              	.LBB40:
 350              	.LBB41:
 351              		.loc 1 273 0
 352 0024 40F20003 		movw	r3, #:lower16:.LANCHOR2
 353 0028 C0F20003 		movt	r3, #:upper16:.LANCHOR2
 354 002c 40F20002 		movw	r2, #:lower16:.LC6
 355 0030 C0F20002 		movt	r2, #:upper16:.LC6
 356 0034 1A60     		str	r2, [r3]
 357              		.loc 1 274 0
 358 0036 FFF7FEFF 		bl	port_halt
 359              	.LVL13:
 360              	.LBE41:
 361              	.LBE40:
 362              		.loc 1 154 0
 363 003a 0023     		movs	r3, #0
 364 003c 2360     		str	r3, [r4]
 365 003e 10BD     		pop	{r4, pc}
 366              		.cfi_endproc
 367              	.LFE13:
 368              		.size	dbg_check_unlock_from_isr, .-dbg_check_unlock_from_isr
 369              		.section	.text.dbg_check_enter_isr,"ax",%progbits
 370              		.align	2
 371              		.p2align 4,,15
 372              		.global	dbg_check_enter_isr
 373              		.thumb
 374              		.thumb_func
 375              		.type	dbg_check_enter_isr, %function
 376              	dbg_check_enter_isr:
 377              	.LFB14:
 378              		.loc 1 162 0
 379              		.cfi_startproc
 380              		@ args = 0, pretend = 0, frame = 0
 381              		@ frame_needed = 0, uses_anonymous_args = 0
 382 0000 10B5     		push	{r4, lr}
 383              		.cfi_def_cfa_offset 8
 384              		.cfi_offset 4, -8
 385              		.cfi_offset 14, -4
 386              	.LBB42:
 387              		.loc 1 164 0
 388 0002 2023     		movs	r3, #32
 389              	@ 164 "../../../os/kernel/src/chdebug.c" 1
 390 0004 83F31188 		msr     BASEPRI, r3
 391              	@ 0 "" 2
 392              		.thumb
 393              	.LBE42:
 394              		.loc 1 165 0
 395 0008 40F20004 		movw	r4, #:lower16:.LANCHOR0
 396 000c C0F20004 		movt	r4, #:upper16:.LANCHOR0
ARM GAS  /tmp/ccXu4QZt.s 			page 8


 397 0010 2268     		ldr	r2, [r4]
 398 0012 002A     		cmp	r2, #0
 399 0014 05DB     		blt	.L38
 400              		.loc 1 165 0 is_stmt 0 discriminator 1
 401 0016 40F20003 		movw	r3, #:lower16:.LANCHOR1
 402 001a C0F20003 		movt	r3, #:upper16:.LANCHOR1
 403 001e 1B68     		ldr	r3, [r3]
 404 0020 5BB1     		cbz	r3, .L39
 405              	.L38:
 406              	.LVL14:
 407              	.LBB43:
 408              	.LBB44:
 409              		.loc 1 273 0 is_stmt 1
 410 0022 40F20003 		movw	r3, #:lower16:.LANCHOR2
 411 0026 C0F20003 		movt	r3, #:upper16:.LANCHOR2
 412 002a 40F20002 		movw	r2, #:lower16:.LC7
 413 002e C0F20002 		movt	r2, #:upper16:.LC7
 414 0032 1A60     		str	r2, [r3]
 415              		.loc 1 274 0
 416 0034 FFF7FEFF 		bl	port_halt
 417              	.LVL15:
 418 0038 2268     		ldr	r2, [r4]
 419              	.LVL16:
 420              	.L39:
 421              	.LBE44:
 422              	.LBE43:
 423              		.loc 1 167 0
 424 003a 0132     		adds	r2, r2, #1
 425 003c 2260     		str	r2, [r4]
 426              	.LBB45:
 427              		.loc 1 168 0
 428 003e 0023     		movs	r3, #0
 429              	@ 168 "../../../os/kernel/src/chdebug.c" 1
 430 0040 83F31188 		msr     BASEPRI, r3
 431              	@ 0 "" 2
 432              		.thumb
 433 0044 10BD     		pop	{r4, pc}
 434              	.LBE45:
 435              		.cfi_endproc
 436              	.LFE14:
 437              		.size	dbg_check_enter_isr, .-dbg_check_enter_isr
 438 0046 00BFAFF3 		.section	.text.dbg_check_leave_isr,"ax",%progbits
 438      0080AFF3 
 438      0080
 439              		.align	2
 440              		.p2align 4,,15
 441              		.global	dbg_check_leave_isr
 442              		.thumb
 443              		.thumb_func
 444              		.type	dbg_check_leave_isr, %function
 445              	dbg_check_leave_isr:
 446              	.LFB15:
 447              		.loc 1 176 0
 448              		.cfi_startproc
 449              		@ args = 0, pretend = 0, frame = 0
 450              		@ frame_needed = 0, uses_anonymous_args = 0
 451 0000 10B5     		push	{r4, lr}
ARM GAS  /tmp/ccXu4QZt.s 			page 9


 452              		.cfi_def_cfa_offset 8
 453              		.cfi_offset 4, -8
 454              		.cfi_offset 14, -4
 455              	.LBB46:
 456              		.loc 1 178 0
 457 0002 2023     		movs	r3, #32
 458              	@ 178 "../../../os/kernel/src/chdebug.c" 1
 459 0004 83F31188 		msr     BASEPRI, r3
 460              	@ 0 "" 2
 461              		.thumb
 462              	.LBE46:
 463              		.loc 1 179 0
 464 0008 40F20004 		movw	r4, #:lower16:.LANCHOR0
 465 000c C0F20004 		movt	r4, #:upper16:.LANCHOR0
 466 0010 2268     		ldr	r2, [r4]
 467 0012 002A     		cmp	r2, #0
 468 0014 05DD     		ble	.L42
 469              		.loc 1 179 0 is_stmt 0 discriminator 1
 470 0016 40F20003 		movw	r3, #:lower16:.LANCHOR1
 471 001a C0F20003 		movt	r3, #:upper16:.LANCHOR1
 472 001e 1B68     		ldr	r3, [r3]
 473 0020 5BB1     		cbz	r3, .L43
 474              	.L42:
 475              	.LVL17:
 476              	.LBB47:
 477              	.LBB48:
 478              		.loc 1 273 0 is_stmt 1
 479 0022 40F20003 		movw	r3, #:lower16:.LANCHOR2
 480 0026 C0F20003 		movt	r3, #:upper16:.LANCHOR2
 481 002a 40F20002 		movw	r2, #:lower16:.LC8
 482 002e C0F20002 		movt	r2, #:upper16:.LC8
 483 0032 1A60     		str	r2, [r3]
 484              		.loc 1 274 0
 485 0034 FFF7FEFF 		bl	port_halt
 486              	.LVL18:
 487 0038 2268     		ldr	r2, [r4]
 488              	.LVL19:
 489              	.L43:
 490              	.LBE48:
 491              	.LBE47:
 492              		.loc 1 181 0
 493 003a 013A     		subs	r2, r2, #1
 494 003c 2260     		str	r2, [r4]
 495              	.LBB49:
 496              		.loc 1 182 0
 497 003e 0023     		movs	r3, #0
 498              	@ 182 "../../../os/kernel/src/chdebug.c" 1
 499 0040 83F31188 		msr     BASEPRI, r3
 500              	@ 0 "" 2
 501              		.thumb
 502 0044 10BD     		pop	{r4, pc}
 503              	.LBE49:
 504              		.cfi_endproc
 505              	.LFE15:
 506              		.size	dbg_check_leave_isr, .-dbg_check_leave_isr
 507 0046 00BFAFF3 		.section	.text.chDbgCheckClassI,"ax",%progbits
 507      0080AFF3 
ARM GAS  /tmp/ccXu4QZt.s 			page 10


 507      0080
 508              		.align	2
 509              		.p2align 4,,15
 510              		.global	chDbgCheckClassI
 511              		.thumb
 512              		.thumb_func
 513              		.type	chDbgCheckClassI, %function
 514              	chDbgCheckClassI:
 515              	.LFB16:
 516              		.loc 1 193 0
 517              		.cfi_startproc
 518              		@ args = 0, pretend = 0, frame = 0
 519              		@ frame_needed = 0, uses_anonymous_args = 0
 520              		@ link register save eliminated.
 521              		.loc 1 195 0
 522 0000 40F20003 		movw	r3, #:lower16:.LANCHOR0
 523 0004 C0F20003 		movt	r3, #:upper16:.LANCHOR0
 524 0008 1B68     		ldr	r3, [r3]
 525 000a 002B     		cmp	r3, #0
 526 000c 07DB     		blt	.L46
 527              		.loc 1 195 0 is_stmt 0 discriminator 1
 528 000e 40F20003 		movw	r3, #:lower16:.LANCHOR1
 529 0012 C0F20003 		movt	r3, #:upper16:.LANCHOR1
 530 0016 1B68     		ldr	r3, [r3]
 531 0018 002B     		cmp	r3, #0
 532 001a 00DD     		ble	.L46
 533 001c 7047     		bx	lr
 534              	.L46:
 535              	.LVL20:
 536              	.LBB50:
 537              	.LBB51:
 538              		.loc 1 273 0 is_stmt 1
 539 001e 40F20003 		movw	r3, #:lower16:.LANCHOR2
 540 0022 C0F20003 		movt	r3, #:upper16:.LANCHOR2
 541 0026 40F20002 		movw	r2, #:lower16:.LC9
 542 002a C0F20002 		movt	r2, #:upper16:.LC9
 543 002e 1A60     		str	r2, [r3]
 544              		.loc 1 274 0
 545 0030 FFF7FEBF 		b	port_halt
 546              	.LVL21:
 547              	.LBE51:
 548              	.LBE50:
 549              		.cfi_endproc
 550              	.LFE16:
 551              		.size	chDbgCheckClassI, .-chDbgCheckClassI
 552 0034 AFF30080 		.section	.text.chDbgCheckClassS,"ax",%progbits
 552      AFF30080 
 552      AFF30080 
 553              		.align	2
 554              		.p2align 4,,15
 555              		.global	chDbgCheckClassS
 556              		.thumb
 557              		.thumb_func
 558              		.type	chDbgCheckClassS, %function
 559              	chDbgCheckClassS:
 560              	.LFB17:
 561              		.loc 1 207 0
ARM GAS  /tmp/ccXu4QZt.s 			page 11


 562              		.cfi_startproc
 563              		@ args = 0, pretend = 0, frame = 0
 564              		@ frame_needed = 0, uses_anonymous_args = 0
 565              		@ link register save eliminated.
 566              		.loc 1 209 0
 567 0000 40F20003 		movw	r3, #:lower16:.LANCHOR0
 568 0004 C0F20003 		movt	r3, #:upper16:.LANCHOR0
 569 0008 1B68     		ldr	r3, [r3]
 570 000a 3BB9     		cbnz	r3, .L49
 571              		.loc 1 209 0 is_stmt 0 discriminator 1
 572 000c 40F20003 		movw	r3, #:lower16:.LANCHOR1
 573 0010 C0F20003 		movt	r3, #:upper16:.LANCHOR1
 574 0014 1B68     		ldr	r3, [r3]
 575 0016 002B     		cmp	r3, #0
 576 0018 00DD     		ble	.L49
 577 001a 7047     		bx	lr
 578              	.L49:
 579              	.LVL22:
 580              	.LBB52:
 581              	.LBB53:
 582              		.loc 1 273 0 is_stmt 1
 583 001c 40F20003 		movw	r3, #:lower16:.LANCHOR2
 584 0020 C0F20003 		movt	r3, #:upper16:.LANCHOR2
 585 0024 40F20002 		movw	r2, #:lower16:.LC10
 586 0028 C0F20002 		movt	r2, #:upper16:.LC10
 587 002c 1A60     		str	r2, [r3]
 588              		.loc 1 274 0
 589 002e FFF7FEBF 		b	port_halt
 590              	.LVL23:
 591              	.LBE53:
 592              	.LBE52:
 593              		.cfi_endproc
 594              	.LFE17:
 595              		.size	chDbgCheckClassS, .-chDbgCheckClassS
 596 0032 00BFAFF3 		.section	.text._trace_init,"ax",%progbits
 596      0080AFF3 
 596      0080AFF3 
 596      0080
 597              		.align	2
 598              		.p2align 4,,15
 599              		.global	_trace_init
 600              		.thumb
 601              		.thumb_func
 602              		.type	_trace_init, %function
 603              	_trace_init:
 604              	.LFB18:
 605              		.loc 1 229 0
 606              		.cfi_startproc
 607              		@ args = 0, pretend = 0, frame = 0
 608              		@ frame_needed = 0, uses_anonymous_args = 0
 609              		@ link register save eliminated.
 610              		.loc 1 231 0
 611 0000 40F20003 		movw	r3, #:lower16:.LANCHOR3
 612 0004 C0F20003 		movt	r3, #:upper16:.LANCHOR3
 613 0008 1A46     		mov	r2, r3
 614 000a 4021     		movs	r1, #64
 615 000c 42F8081B 		str	r1, [r2], #8
ARM GAS  /tmp/ccXu4QZt.s 			page 12


 616              		.loc 1 232 0
 617 0010 5A60     		str	r2, [r3, #4]
 618 0012 7047     		bx	lr
 619              		.cfi_endproc
 620              	.LFE18:
 621              		.size	_trace_init, .-_trace_init
 622 0014 AFF30080 		.section	.text.dbg_trace,"ax",%progbits
 622      AFF30080 
 622      AFF30080 
 623              		.align	2
 624              		.p2align 4,,15
 625              		.global	dbg_trace
 626              		.thumb
 627              		.thumb_func
 628              		.type	dbg_trace, %function
 629              	dbg_trace:
 630              	.LFB19:
 631              		.loc 1 242 0
 632              		.cfi_startproc
 633              		@ args = 0, pretend = 0, frame = 0
 634              		@ frame_needed = 0, uses_anonymous_args = 0
 635              		@ link register save eliminated.
 636              	.LVL24:
 637 0000 10B4     		push	{r4}
 638              		.cfi_def_cfa_offset 4
 639              		.cfi_offset 4, -4
 640              		.loc 1 244 0
 641 0002 40F20003 		movw	r3, #:lower16:.LANCHOR3
 642 0006 40F20004 		movw	r4, #:lower16:vtlist
 643              		.loc 1 245 0
 644 000a 40F20001 		movw	r1, #:lower16:rlist
 645              		.loc 1 244 0
 646 000e C0F20003 		movt	r3, #:upper16:.LANCHOR3
 647 0012 C0F20004 		movt	r4, #:upper16:vtlist
 648              		.loc 1 245 0
 649 0016 C0F20001 		movt	r1, #:upper16:rlist
 650              		.loc 1 244 0
 651 001a 5A68     		ldr	r2, [r3, #4]
 652 001c E468     		ldr	r4, [r4, #12]
 653              		.loc 1 245 0
 654 001e 8969     		ldr	r1, [r1, #24]
 655              		.loc 1 244 0
 656 0020 1460     		str	r4, [r2]
 657              		.loc 1 245 0
 658 0022 5160     		str	r1, [r2, #4]
 659              		.loc 1 246 0
 660 0024 816A     		ldr	r1, [r0, #40]
 661 0026 9160     		str	r1, [r2, #8]
 662              		.loc 1 247 0
 663 0028 90F82040 		ldrb	r4, [r0, #32]	@ zero_extendqisi2
 664              		.loc 1 248 0
 665 002c 02F11001 		add	r1, r2, #16
 666 0030 03F58160 		add	r0, r3, #1032
 667              	.LVL25:
 668 0034 8142     		cmp	r1, r0
 669              		.loc 1 247 0
 670 0036 1473     		strb	r4, [r2, #12]
ARM GAS  /tmp/ccXu4QZt.s 			page 13


 671              		.loc 1 250 0
 672 0038 2ABF     		itet	cs
 673 003a 03F10802 		addcs	r2, r3, #8
 674              		.loc 1 248 0
 675 003e 5960     		strcc	r1, [r3, #4]
 676              		.loc 1 250 0
 677 0040 5A60     		strcs	r2, [r3, #4]
 678              		.loc 1 251 0
 679 0042 5DF8044B 		ldr	r4, [sp], #4
 680 0046 7047     		bx	lr
 681              		.cfi_endproc
 682              	.LFE19:
 683              		.size	dbg_trace, .-dbg_trace
 684 0048 AFF30080 		.section	.text.chDbgPanic,"ax",%progbits
 684      AFF30080 
 685              		.align	2
 686              		.p2align 4,,15
 687              		.global	chDbgPanic
 688              		.thumb
 689              		.thumb_func
 690              		.type	chDbgPanic, %function
 691              	chDbgPanic:
 692              	.LFB20:
 693              		.loc 1 271 0
 694              		.cfi_startproc
 695              		@ args = 0, pretend = 0, frame = 0
 696              		@ frame_needed = 0, uses_anonymous_args = 0
 697              		@ link register save eliminated.
 698              	.LVL26:
 699              		.loc 1 273 0
 700 0000 40F20003 		movw	r3, #:lower16:.LANCHOR2
 701 0004 C0F20003 		movt	r3, #:upper16:.LANCHOR2
 702 0008 1860     		str	r0, [r3]
 703              		.loc 1 274 0
 704 000a FFF7FEBF 		b	port_halt
 705              	.LVL27:
 706              		.cfi_endproc
 707              	.LFE20:
 708              		.size	chDbgPanic, .-chDbgPanic
 709              		.global	dbg_panic_msg
 710              		.global	dbg_trace_buffer
 711              		.global	dbg_lock_cnt
 712              		.global	dbg_isr_cnt
 713 000e 00BF     		.section	.bss.dbg_isr_cnt,"aw",%nobits
 714              		.align	2
 715              		.set	.LANCHOR0,. + 0
 716              		.type	dbg_isr_cnt, %object
 717              		.size	dbg_isr_cnt, 4
 718              	dbg_isr_cnt:
 719 0000 00000000 		.space	4
 720              		.section	.bss.dbg_trace_buffer,"aw",%nobits
 721              		.align	2
 722              		.set	.LANCHOR3,. + 0
 723              		.type	dbg_trace_buffer, %object
 724              		.size	dbg_trace_buffer, 1032
 725              	dbg_trace_buffer:
 726 0000 00000000 		.space	1032
ARM GAS  /tmp/ccXu4QZt.s 			page 14


 726      00000000 
 726      00000000 
 726      00000000 
 726      00000000 
 727              		.section	.rodata.str1.4,"aMS",%progbits,1
 728              		.align	2
 729              	.LC0:
 730 0000 53562331 		.ascii	"SV#1\000"
 730      00
 731 0005 000000   		.space	3
 732              	.LC1:
 733 0008 53562332 		.ascii	"SV#2\000"
 733      00
 734 000d 000000   		.space	3
 735              	.LC2:
 736 0010 53562333 		.ascii	"SV#3\000"
 736      00
 737 0015 000000   		.space	3
 738              	.LC3:
 739 0018 53562334 		.ascii	"SV#4\000"
 739      00
 740 001d 000000   		.space	3
 741              	.LC4:
 742 0020 53562335 		.ascii	"SV#5\000"
 742      00
 743 0025 000000   		.space	3
 744              	.LC5:
 745 0028 53562336 		.ascii	"SV#6\000"
 745      00
 746 002d 000000   		.space	3
 747              	.LC6:
 748 0030 53562337 		.ascii	"SV#7\000"
 748      00
 749 0035 000000   		.space	3
 750              	.LC7:
 751 0038 53562338 		.ascii	"SV#8\000"
 751      00
 752 003d 000000   		.space	3
 753              	.LC8:
 754 0040 53562339 		.ascii	"SV#9\000"
 754      00
 755 0045 000000   		.space	3
 756              	.LC9:
 757 0048 53562331 		.ascii	"SV#10\000"
 757      3000
 758 004e 0000     		.space	2
 759              	.LC10:
 760 0050 53562331 		.ascii	"SV#11\000"
 760      3100
 761 0056 0000     		.section	.bss.dbg_lock_cnt,"aw",%nobits
 762              		.align	2
 763              		.set	.LANCHOR1,. + 0
 764              		.type	dbg_lock_cnt, %object
 765              		.size	dbg_lock_cnt, 4
 766              	dbg_lock_cnt:
 767 0000 00000000 		.space	4
 768              		.section	.bss.dbg_panic_msg,"aw",%nobits
ARM GAS  /tmp/ccXu4QZt.s 			page 15


 769              		.align	2
 770              		.set	.LANCHOR2,. + 0
 771              		.type	dbg_panic_msg, %object
 772              		.size	dbg_panic_msg, 4
 773              	dbg_panic_msg:
 774 0000 00000000 		.space	4
 775              		.text
 776              	.Letext0:
 777              		.file 2 "/usr/include/newlib/machine/_default_types.h"
 778              		.file 3 "/usr/include/newlib/stdint.h"
 779              		.file 4 "../../../os/ports/GCC/ARMCMx/chtypes.h"
 780              		.file 5 "../../../os/kernel/include/chlists.h"
 781              		.file 6 "../../../os/kernel/include/chthreads.h"
 782              		.file 7 "../../../os/ports/GCC/ARMCMx/chcore_v7m.h"
 783              		.file 8 "../../../os/kernel/include/chvt.h"
 784              		.file 9 "../../../os/kernel/include/chschd.h"
 785              		.file 10 "../../../os/kernel/include/chmtx.h"
 786              		.file 11 "../../../os/kernel/include/chdebug.h"