ARM GAS  /tmp/ccXu4QZt.s 			page 1


   1              		.syntax unified
   2              		.cpu cortex-m4
   3              		.fpu softvfp
   4              		.eabi_attribute 20, 1
   5              		.eabi_attribute 21, 1
   6              		.eabi_attribute 23, 3
   7              		.eabi_attribute 24, 1
   8              		.eabi_attribute 25, 1
   9              		.eabi_attribute 26, 1
  10              		.eabi_attribute 30, 2
  11              		.eabi_attribute 34, 1
  12              		.eabi_attribute 18, 4
  13              		.thumb
  14              		.file	"chdebug.c"
  15              		.text
  16              	.Ltext0:
  17              		.cfi_sections	.debug_frame
  18              		.section	.text.dbg_check_disable,"ax",%progbits
  19              		.align	2
  20              		.p2align 4,,15
  21              		.global	dbg_check_disable
  22              		.thumb
  23              		.thumb_func
  24              		.type	dbg_check_disable, %function
  25              	dbg_check_disable:
  26              	.LFB7:
  27              		.file 1 "../../../os/kernel/src/chdebug.c"
  28              		.loc 1 81 0
  29              		.cfi_startproc
  30              		@ args = 0, pretend = 0, frame = 0
  31              		@ frame_needed = 0, uses_anonymous_args = 0
  32              		@ link register save eliminated.
  33              		.loc 1 83 0
  34 0000 40F20003 		movw	r3, #:lower16:.LANCHOR0
  35 0004 C0F20003 		movt	r3, #:upper16:.LANCHOR0
  36 0008 1B68     		ldr	r3, [r3]
  37 000a 2BB9     		cbnz	r3, .L2
  38              		.loc 1 83 0 is_stmt 0 discriminator 1
  39 000c 40F20003 		movw	r3, #:lower16:.LANCHOR1
  40 0010 C0F20003 		movt	r3, #:upper16:.LANCHOR1
  41 0014 1B68     		ldr	r3, [r3]
  42 0016 53B1     		cbz	r3, .L1
  43              	.L2:
  44              	.LVL0:
  45              	.LBB28:
  46              	.LBB29:
  47              		.loc 1 273 0 is_stmt 1
  48 0018 40F20003 		movw	r3, #:lower16:.LANCHOR2
  49 001c C0F20003 		movt	r3, #:upper16:.LANCHOR2
  50 0020 40F20002 		movw	r2, #:lower16:.LC0
  51 0024 C0F20002 		movt	r2, #:upper16:.LC0
  52 0028 1A60     		str	r2, [r3]
  53              		.loc 1 274 0
  54 002a FFF7FEBF 		b	port_halt
  55              	.LVL1:
  56              	.L1:
  57 002e 7047     		bx	lr
ARM GAS  /tmp/ccXu4QZt.s 			page 2


  58              	.LBE29:
  59              	.LBE28:
  60              		.cfi_endproc
  61              	.LFE7:
  62              		.size	dbg_check_disable, .-dbg_check_disable
  63              		.section	.text.dbg_check_suspend,"ax",%progbits
  64              		.align	2
  65              		.p2align 4,,15
  66              		.global	dbg_check_suspend
  67              		.thumb
  68              		.thumb_func
  69              		.type	dbg_check_suspend, %function
  70              	dbg_check_suspend:
  71              	.LFB8:
  72              		.loc 1 92 0
  73              		.cfi_startproc
  74              		@ args = 0, pretend = 0, frame = 0
  75              		@ frame_needed = 0, uses_anonymous_args = 0
  76              		@ link register save eliminated.
  77              		.loc 1 94 0
  78 0000 40F20003 		movw	r3, #:lower16:.LANCHOR0
  79 0004 C0F20003 		movt	r3, #:upper16:.LANCHOR0
  80 0008 1B68     		ldr	r3, [r3]
  81 000a 2BB9     		cbnz	r3, .L6
  82              		.loc 1 94 0 is_stmt 0 discriminator 1
  83 000c 40F20003 		movw	r3, #:lower16:.LANCHOR1
  84 0010 C0F20003 		movt	r3, #:upper16:.LANCHOR1
  85 0014 1B68     		ldr	r3, [r3]
  86 0016 53B1     		cbz	r3, .L5
  87              	.L6:
  88              	.LVL2:
  89              	.LBB30:
  90              	.LBB31:
  91              		.loc 1 273 0 is_stmt 1
  92 0018 40F20003 		movw	r3, #:lower16:.LANCHOR2
  93 001c C0F20003 		movt	r3, #:upper16:.LANCHOR2
  94 0020 40F20002 		movw	r2, #:lower16:.LC1
  95 0024 C0F20002 		movt	r2, #:upper16:.LC1
  96 0028 1A60     		str	r2, [r3]
  97              		.loc 1 274 0
  98 002a FFF7FEBF 		b	port_halt
  99              	.LVL3:
 100              	.L5:
 101 002e 7047     		bx	lr
 102              	.LBE31:
 103              	.LBE30:
 104              		.cfi_endproc
 105              	.LFE8:
 106              		.size	dbg_check_suspend, .-dbg_check_suspend
 107              		.section	.text.dbg_check_enable,"ax",%progbits
 108              		.align	2
 109              		.p2align 4,,15
 110              		.global	dbg_check_enable
 111              		.thumb
 112              		.thumb_func
 113              		.type	dbg_check_enable, %function
 114              	dbg_check_enable:
ARM GAS  /tmp/ccXu4QZt.s 			page 3


 115              	.LFB9:
 116              		.loc 1 103 0
 117              		.cfi_startproc
 118              		@ args = 0, pretend = 0, frame = 0
 119              		@ frame_needed = 0, uses_anonymous_args = 0
 120              		@ link register save eliminated.
 121              		.loc 1 105 0
 122 0000 40F20003 		movw	r3, #:lower16:.LANCHOR0
 123 0004 C0F20003 		movt	r3, #:upper16:.LANCHOR0
 124 0008 1B68     		ldr	r3, [r3]
 125 000a 2BB9     		cbnz	r3, .L9
 126              		.loc 1 105 0 is_stmt 0 discriminator 1
 127 000c 40F20003 		movw	r3, #:lower16:.LANCHOR1
 128 0010 C0F20003 		movt	r3, #:upper16:.LANCHOR1
 129 0014 1B68     		ldr	r3, [r3]
 130 0016 53B1     		cbz	r3, .L8
 131              	.L9:
 132              	.LVL4:
 133              	.LBB32:
 134              	.LBB33:
 135              		.loc 1 273 0 is_stmt 1
 136 0018 40F20003 		movw	r3, #:lower16:.LANCHOR2
 137 001c C0F20003 		movt	r3, #:upper16:.LANCHOR2
 138 0020 40F20002 		movw	r2, #:lower16:.LC2
 139 0024 C0F20002 		movt	r2, #:upper16:.LC2
 140 0028 1A60     		str	r2, [r3]
 141              		.loc 1 274 0
 142 002a FFF7FEBF 		b	port_halt
 143              	.LVL5:
 144              	.L8:
 145 002e 7047     		bx	lr
 146              	.LBE33:
 147              	.LBE32:
 148              		.cfi_endproc
 149              	.LFE9:
 150              		.size	dbg_check_enable, .-dbg_check_enable
 151              		.section	.text.dbg_check_lock,"ax",%progbits
 152              		.align	2
 153              		.p2align 4,,15
 154              		.global	dbg_check_lock
 155              		.thumb
 156              		.thumb_func
 157              		.type	dbg_check_lock, %function
 158              	dbg_check_lock:
 159              	.LFB10:
 160              		.loc 1 114 0
 161              		.cfi_startproc
 162              		@ args = 0, pretend = 0, frame = 0
 163              		@ frame_needed = 0, uses_anonymous_args = 0
 164              		.loc 1 116 0
 165 0000 40F20003 		movw	r3, #:lower16:.LANCHOR0
 166 0004 C0F20003 		movt	r3, #:upper16:.LANCHOR0
 167              		.loc 1 114 0
 168 0008 10B5     		push	{r4, lr}
 169              		.cfi_def_cfa_offset 8
 170              		.cfi_offset 4, -8
 171              		.cfi_offset 14, -4
ARM GAS  /tmp/ccXu4QZt.s 			page 4


 172              		.loc 1 116 0
 173 000a 1B68     		ldr	r3, [r3]
 174 000c 40F20004 		movw	r4, #:lower16:.LANCHOR1
 175 0010 C0F20004 		movt	r4, #:upper16:.LANCHOR1
 176 0014 0BB9     		cbnz	r3, .L12
 177              		.loc 1 116 0 is_stmt 0 discriminator 1
 178 0016 2368     		ldr	r3, [r4]
 179 0018 53B1     		cbz	r3, .L13
 180              	.L12:
 181              	.LVL6:
 182              	.LBB34:
 183              	.LBB35:
 184              		.loc 1 273 0 is_stmt 1
 185 001a 40F20003 		movw	r3, #:lower16:.LANCHOR2
 186 001e C0F20003 		movt	r3, #:upper16:.LANCHOR2
 187 0022 40F20002 		movw	r2, #:lower16:.LC3
 188 0026 C0F20002 		movt	r2, #:upper16:.LC3
 189 002a 1A60     		str	r2, [r3]
 190              		.loc 1 274 0
 191 002c FFF7FEFF 		bl	port_halt
 192              	.LVL7:
 193              	.L13:
 194              	.LBE35:
 195              	.LBE34:
 196              		.loc 1 118 0
 197 0030 0123     		movs	r3, #1
 198 0032 2360     		str	r3, [r4]
 199 0034 10BD     		pop	{r4, pc}
 200              		.cfi_endproc
 201              	.LFE10:
 202              		.size	dbg_check_lock, .-dbg_check_lock
 203 0036 00BFAFF3 		.section	.text.dbg_check_unlock,"ax",%progbits
 203      0080AFF3 
 203      0080
 204              		.align	2
 205              		.p2align 4,,15
 206              		.global	dbg_check_unlock
 207              		.thumb
 208              		.thumb_func
 209              		.type	dbg_check_unlock, %function
 210              	dbg_check_unlock:
 211              	.LFB11:
 212              		.loc 1 126 0
 213              		.cfi_startproc
 214              		@ args = 0, pretend = 0, frame = 0
 215              		@ frame_needed = 0, uses_anonymous_args = 0
 216              		.loc 1 128 0
 217 0000 40F20003 		movw	r3, #:lower16:.LANCHOR0
 218 0004 C0F20003 		movt	r3, #:upper16:.LANCHOR0
 219              		.loc 1 126 0
 220 0008 10B5     		push	{r4, lr}
 221              		.cfi_def_cfa_offset 8
 222              		.cfi_offset 4, -8
 223              		.cfi_offset 14, -4
 224              		.loc 1 128 0
 225 000a 1B68     		ldr	r3, [r3]
 226 000c 40F20004 		movw	r4, #:lower16:.LANCHOR1
ARM GAS  /tmp/ccXu4QZt.s 			page 5


 227 0010 C0F20004 		movt	r4, #:upper16:.LANCHOR1
 228 0014 2BB9     		cbnz	r3, .L20
 229              		.loc 1 128 0 is_stmt 0 discriminator 1
 230 0016 2368     		ldr	r3, [r4]
 231 0018 002B     		cmp	r3, #0
 232 001a 02DD     		ble	.L20
 233              		.loc 1 130 0 is_stmt 1
 234 001c 0023     		movs	r3, #0
 235 001e 2360     		str	r3, [r4]
 236 0020 10BD     		pop	{r4, pc}
 237              	.L20:
 238              	.LVL8:
 239              	.LBB36:
 240              	.LBB37:
 241              		.loc 1 273 0
 242 0022 40F20003 		movw	r3, #:lower16:.LANCHOR2
 243 0026 C0F20003 		movt	r3, #:upper16:.LANCHOR2
 244 002a 40F20002 		movw	r2, #:lower16:.LC4
 245 002e C0F20002 		movt	r2, #:upper16:.LC4
 246 0032 1A60     		str	r2, [r3]
 247              		.loc 1 274 0
 248 0034 FFF7FEFF 		bl	port_halt
 249              	.LVL9:
 250              	.LBE37:
 251              	.LBE36:
 252              		.loc 1 130 0
 253 0038 0023     		movs	r3, #0
 254 003a 2360     		str	r3, [r4]
 255 003c 10BD     		pop	{r4, pc}
 256              		.cfi_endproc
 257              	.LFE11:
 258              		.size	dbg_check_unlock, .-dbg_check_unlock
 259 003e 00BF     		.section	.text.dbg_check_lock_from_isr,"ax",%progbits
 260              		.align	2
 261              		.p2align 4,,15
 262              		.global	dbg_check_lock_from_isr
 263              		.thumb
 264              		.thumb_func
 265              		.type	dbg_check_lock_from_isr, %function
 266              	dbg_check_lock_from_isr:
 267              	.LFB12:
 268              		.loc 1 138 0
 269              		.cfi_startproc
 270              		@ args = 0, pretend = 0, frame = 0
 271              		@ frame_needed = 0, uses_anonymous_args = 0
 272              		.loc 1 140 0
 273 0000 40F20003 		movw	r3, #:lower16:.LANCHOR0
 274 0004 C0F20003 		movt	r3, #:upper16:.LANCHOR0
 275              		.loc 1 138 0
 276 0008 10B5     		push	{r4, lr}
 277              		.cfi_def_cfa_offset 8
 278              		.cfi_offset 4, -8
 279              		.cfi_offset 14, -4
 280              		.loc 1 140 0
 281 000a 1B68     		ldr	r3, [r3]
 282 000c 40F20004 		movw	r4, #:lower16:.LANCHOR1
 283 0010 002B     		cmp	r3, #0
ARM GAS  /tmp/ccXu4QZt.s 			page 6


 284 0012 C0F20004 		movt	r4, #:upper16:.LANCHOR1
 285 0016 01DD     		ble	.L25
 286              		.loc 1 140 0 is_stmt 0 discriminator 1
 287 0018 2368     		ldr	r3, [r4]
 288 001a 53B1     		cbz	r3, .L26
 289              	.L25:
 290              	.LVL10:
 291              	.LBB38:
 292              	.LBB39:
 293              		.loc 1 273 0 is_stmt 1
 294 001c 40F20003 		movw	r3, #:lower16:.LANCHOR2
 295 0020 C0F20003 		movt	r3, #:upper16:.LANCHOR2
 296 0024 40F20002 		movw	r2, #:lower16:.LC5
 297 0028 C0F20002 		movt	r2, #:upper16:.LC5
 298 002c 1A60     		str	r2, [r3]
 299              		.loc 1 274 0
 300 002e FFF7FEFF 		bl	port_halt
 301              	.LVL11:
 302              	.L26:
 303              	.LBE39:
 304              	.LBE38:
 305              		.loc 1 142 0
 306 0032 0123     		movs	r3, #1
 307 0034 2360     		str	r3, [r4]
 308 0036 10BD     		pop	{r4, pc}
 309              		.cfi_endproc
 310              	.LFE12:
 311              		.size	dbg_check_lock_from_isr, .-dbg_check_lock_from_isr
 312 0038 AFF30080 		.section	.text.dbg_check_unlock_from_isr,"ax",%progbits
 312      AFF30080 
 313              		.align	2
 314              		.p2align 4,,15
 315              		.global	dbg_check_unlock_from_isr
 316              		.thumb
 317              		.thumb_func
 318              		.type	dbg_check_unlock_from_isr, %function
 319              	dbg_check_unlock_from_isr:
 320              	.LFB13:
 321              		.loc 1 150 0
 322              		.cfi_startproc
 323              		@ args = 0, pretend = 0, frame = 0
 324              		@ frame_needed = 0, uses_anonymous_args = 0
 325              		.loc 1 152 0
 326 0000 40F20003 		movw	r3, #:lower16:.LANCHOR0
 327 0004 C0F20003 		movt	r3, #:upper16:.LANCHOR0
 328              		.loc 1 150 0
 329 0008 10B5     		push	{r4, lr}
 330              		.cfi_def_cfa_offset 8
 331              		.cfi_offset 4, -8
 332              		.cfi_offset 14, -4
 333              		.loc 1 152 0
 334 000a 1B68     		ldr	r3, [r3]
 335 000c 40F20004 		movw	r4, #:lower16:.LANCHOR1
 336 0010 002B     		cmp	r3, #0
 337 0012 C0F20004 		movt	r4, #:upper16:.LANCHOR1
 338 0016 05DD     		ble	.L33
 339              		.loc 1 152 0 is_stmt 0 discriminator 1
ARM GAS  /tmp/ccXu4QZt.s 			page 7


 340 0018 2368     		ldr	r3, [r4]
 341 001a 002B     		cmp	r3, #0
 342 001c 02DD     		ble	.L33
 343              		.loc 1 154 0 is_stmt 1
 344 001e 0023     		movs	r3, #0
 345 0020 2360     		str	r3, [r4]
 346 0022 10BD     		pop	{r4, pc}
 347              	.L33:
 348              	.LVL12:
 349              	.LBB40:
 350              	.LBB41:
 351              		.loc 1 273 0
 352 0024 40F20003 		movw	r3, #:lower16:.LANCHOR2
 353 0028 C0F20003 		movt	r3, #:upper16:.LANCHOR2
 354 002c 40F20002 		movw	r2, #:lower16:.LC6
 355 0030 C0F20002 		movt	r2, #:upper16:.LC6
 356 0034 1A60     		str	r2, [r3]
 357              		.loc 1 274 0
 358 0036 FFF7FEFF 		bl	port_halt
 359              	.LVL13:
 360              	.LBE41:
 361              	.LBE40:
 362              		.loc 1 154 0
 363 003a 0023     		movs	r3, #0
 364 003c 2360     		str	r3, [r4]
 365 003e 10BD     		pop	{r4, pc}
 366              		.cfi_endproc
 367              	.LFE13:
 368              		.size	dbg_check_unlock_from_isr, .-dbg_check_unlock_from_isr
 369              		.section	.text.dbg_check_enter_isr,"ax",%progbits
 370              		.align	2
 371              		.p2align 4,,15
 372              		.global	dbg_check_enter_isr
 373              		.thumb
 374              		.thumb_func
 375              		.type	dbg_check_enter_isr, %function
 376              	dbg_check_enter_isr:
 377              	.LFB14:
 378              		.loc 1 162 0
 379              		.cfi_startproc
 380              		@ args = 0, pretend = 0, frame = 0
 381              		@ frame_needed = 0, uses_anonymous_args = 0
 382 0000 10B5     		push	{r4, lr}
 383              		.cfi_def_cfa_offset 8
 384              		.cfi_offset 4, -8
 385              		.cfi_offset 14, -4
 386              	.LBB42:
 387              		.loc 1 164 0
 388 0002 2023     		movs	r3, #32
 389              	@ 164 "../../../os/kernel/src/chdebug.c" 1
 390 0004 83F31188 		msr     BASEPRI, r3
 391              	@ 0 "" 2
 392              		.thumb
 393              	.LBE42:
 394              		.loc 1 165 0
 395 0008 40F20004 		movw	r4, #:lower16:.LANCHOR0
 396 000c C0F20004 		movt	r4, #:upper16:.LANCHOR0
ARM GAS  /tmp/ccXu4QZt.s 			page 8


 397 0010 2268     		ldr	r2, [r4]
 398 0012 002A     		cmp	r2, #0
 399 0014 05DB     		blt	.L38
 400              		.loc 1 165 0 is_stmt 0 discriminator 1
 401 0016 40F20003 		movw	r3, #:lower16:.LANCHOR1
 402 001a C0F20003 		movt	r3, #:upper16:.LANCHOR1
 403 001e 1B68     		ldr	r3, [r3]
 404 0020 5BB1     		cbz	r3, .L39
 405              	.L38:
 406              	.LVL14:
 407              	.LBB43:
 408              	.LBB44:
 409              		.loc 1 273 0 is_stmt 1
 410 0022 40F20003 		movw	r3, #:lower16:.LANCHOR2
 411 0026 C0F20003 		movt	r3, #:upper16:.LANCHOR2
 412 002a 40F20002 		movw	r2, #:lower16:.LC7
 413 002e C0F20002 		movt	r2, #:upper16:.LC7
 414 0032 1A60     		str	r2, [r3]
 415              		.loc 1 274 0
 416 0034 FFF7FEFF 		bl	port_halt
 417              	.LVL15:
 418 0038 2268     		ldr	r2, [r4]
 419              	.LVL16:
 420              	.L39:
 421              	.LBE44:
 422              	.LBE43:
 423              		.loc 1 167 0
 424 003a 0132     		adds	r2, r2, #1
 425 003c 2260     		str	r2, [r4]
 426              	.LBB45:
 427              		.loc 1 168 0
 428 003e 0023     		movs	r3, #0
 429              	@ 168 "../../../os/kernel/src/chdebug.c" 1
 430 0040 83F31188 		msr     BASEPRI, r3
 431              	@ 0 "" 2
 432              		.thumb
 433 0044 10BD     		pop	{r4, pc}
 434              	.LBE45:
 435              		.cfi_endproc
 436              	.LFE14:
 437              		.size	dbg_check_enter_isr, .-dbg_check_enter_isr
 438 0046 00BFAFF3 		.section	.text.dbg_check_leave_isr,"ax",%progbits
 438      0080AFF3 
 438      0080
 439              		.align	2
 440              		.p2align 4,,15
 441              		.global	dbg_check_leave_isr
 442              		.thumb
 443              		.thumb_func
 444              		.type	dbg_check_leave_isr, %function
 445              	dbg_check_leave_isr:
 446              	.LFB15:
 447              		.loc 1 176 0
 448              		.cfi_startproc
 449              		@ args = 0, pretend = 0, frame = 0
 450              		@ frame_needed = 0, uses_anonymous_args = 0
 451 0000 10B5     		push	{r4, lr}
ARM GAS  /tmp/ccXu4QZt.s 			page 9


 452              		.cfi_def_cfa_offset 8
 453              		.cfi_offset 4, -8
 454              		.cfi_offset 14, -4
 455              	.LBB46:
 456              		.loc 1 178 0
 457 0002 2023     		movs	r3, #32
 458              	@ 178 "../../../os/kernel/src/chdebug.c" 1
 459 0004 83F31188 		msr     BASEPRI, r3
 460              	@ 0 "" 2
 461              		.thumb
 462              	.LBE46:
 463              		.loc 1 179 0
 464 0008 40F20004 		movw	r4, #:lower16:.LANCHOR0
 465 000c C0F20004 		movt	r4, #:upper16:.LANCHOR0
 466 0010 2268     		ldr	r2, [r4]
 467 0012 002A     		cmp	r2, #0
 468 0014 05DD     		ble	.L42
 469              		.loc 1 179 0 is_stmt 0 discriminator 1
 470 0016 40F20003 		movw	r3, #:lower16:.LANCHOR1
 471 001a C0F20003 		movt	r3, #:upper16:.LANCHOR1
 472 001e 1B68     		ldr	r3, [r3]
 473 0020 5BB1     		cbz	r3, .L43
 474              	.L42:
 475              	.LVL17:
 476              	.LBB47:
 477              	.LBB48:
 478              		.loc 1 273 0 is_stmt 1
 479 0022 40F20003 		movw	r3, #:lower16:.LANCHOR2
 480 0026 C0F20003 		movt	r3, #:upper16:.LANCHOR2
 481 002a 40F20002 		movw	r2, #:lower16:.LC8
 482 002e C0F20002 		movt	r2, #:upper16:.LC8
 483 0032 1A60     		str	r2, [r3]
 484              		.loc 1 274 0
 485 0034 FFF7FEFF 		bl	port_halt
 486              	.LVL18:
 487 0038 2268     		ldr	r2, [r4]
 488              	.LVL19:
 489              	.L43:
 490              	.LBE48:
 491              	.LBE47:
 492              		.loc 1 181 0
 493 003a 013A     		subs	r2, r2, #1
 494 003c 2260     		str	r2, [r4]
 495              	.LBB49:
 496              		.loc 1 182 0
 497 003e 0023     		movs	r3, #0
 498              	@ 182 "../../../os/kernel/src/chdebug.c" 1
 499 0040 83F31188 		msr     BASEPRI, r3
 500              	@ 0 "" 2
 501              		.thumb
 502 0044 10BD     		pop	{r4, pc}
 503              	.LBE49:
 504              		.cfi_endproc
 505              	.LFE15:
 506              		.size	dbg_check_leave_isr, .-dbg_check_leave_isr
 507 0046 00BFAFF3 		.section	.text.chDbgCheckClassI,"ax",%progbits
 507      0080AFF3 
ARM GAS  /tmp/ccXu4QZt.s 			page 10


 507      0080
 508              		.align	2
 509              		.p2align 4,,15
 510              		.global	chDbgCheckClassI
 511              		.thumb
 512              		.thumb_func
 513              		.type	chDbgCheckClassI, %function
 514              	chDbgCheckClassI:
 515              	.LFB16:
 516              		.loc 1 193 0
 517              		.cfi_startproc
 518              		@ args = 0, pretend = 0, frame = 0
 519              		@ frame_needed = 0, uses_anonymous_args = 0
 520              		@ link register save eliminated.
 521              		.loc 1 195 0
 522 0000 40F20003 		movw	r3, #:lower16:.LANCHOR0
 523 0004 C0F20003 		movt	r3, #:upper16:.LANCHOR0
 524 0008 1B68     		ldr	r3, [r3]
 525 000a 002B     		cmp	r3, #0
 526 000c 07DB     		blt	.L46
 527              		.loc 1 195 0 is_stmt 0 discriminator 1
 528 000e 40F20003 		movw	r3, #:lower16:.LANCHOR1
 529 0012 C0F20003 		movt	r3, #:upper16:.LANCHOR1
 530 0016 1B68     		ldr	r3, [r3]
 531 0018 002B     		cmp	r3, #0
 532 001a 00DD     		ble	.L46
 533 001c 7047     		bx	lr
 534              	.L46:
 535              	.LVL20:
 536              	.LBB50:
 537              	.LBB51:
 538              		.loc 1 273 0 is_stmt 1
 539 001e 40F20003 		movw	r3, #:lower16:.LANCHOR2
 540 0022 C0F20003 		movt	r3, #:upper16:.LANCHOR2
 541 0026 40F20002 		movw	r2, #:lower16:.LC9
 542 002a C0F20002 		movt	r2, #:upper16:.LC9
 543 002e 1A60     		str	r2, [r3]
 544              		.loc 1 274 0
 545 0030 FFF7FEBF 		b	port_halt
 546              	.LVL21:
 547              	.LBE51:
 548              	.LBE50:
 549              		.cfi_endproc
 550              	.LFE16:
 551              		.size	chDbgCheckClassI, .-chDbgCheckClassI
 552 0034 AFF30080 		.section	.text.chDbgCheckClassS,"ax",%progbits
 552      AFF30080 
 552      AFF30080 
 553              		.align	2
 554              		.p2align 4,,15
 555              		.global	chDbgCheckClassS
 556              		.thumb
 557              		.thumb_func
 558              		.type	chDbgCheckClassS, %function
 559              	chDbgCheckClassS:
 560              	.LFB17:
 561              		.loc 1 207 0
ARM GAS  /tmp/ccXu4QZt.s 			page 11


 562              		.cfi_startproc
 563              		@ args = 0, pretend = 0, frame = 0
 564              		@ frame_needed = 0, uses_anonymous_args = 0
 565              		@ link register save eliminated.
 566              		.loc 1 209 0
 567 0000 40F20003 		movw	r3, #:lower16:.LANCHOR0
 568 0004 C0F20003 		movt	r3, #:upper16:.LANCHOR0
 569 0008 1B68     		ldr	r3, [r3]
 570 000a 3BB9     		cbnz	r3, .L49
 571              		.loc 1 209 0 is_stmt 0 discriminator 1
 572 000c 40F20003 		movw	r3, #:lower16:.LANCHOR1
 573 0010 C0F20003 		movt	r3, #:upper16:.LANCHOR1
 574 0014 1B68     		ldr	r3, [r3]
 575 0016 002B     		cmp	r3, #0
 576 0018 00DD     		ble	.L49
 577 001a 7047     		bx	lr
 578              	.L49:
 579              	.LVL22:
 580              	.LBB52:
 581              	.LBB53:
 582              		.loc 1 273 0 is_stmt 1
 583 001c 40F20003 		movw	r3, #:lower16:.LANCHOR2
 584 0020 C0F20003 		movt	r3, #:upper16:.LANCHOR2
 585 0024 40F20002 		movw	r2, #:lower16:.LC10
 586 0028 C0F20002 		movt	r2, #:upper16:.LC10
 587 002c 1A60     		str	r2, [r3]
 588              		.loc 1 274 0
 589 002e FFF7FEBF 		b	port_halt
 590              	.LVL23:
 591              	.LBE53:
 592              	.LBE52:
 593              		.cfi_endproc
 594              	.LFE17:
 595              		.size	chDbgCheckClassS, .-chDbgCheckClassS
 596 0032 00BFAFF3 		.section	.text._trace_init,"ax",%progbits
 596      0080AFF3 
 596      0080AFF3 
 596      0080
 597              		.align	2
 598              		.p2align 4,,15
 599              		.global	_trace_init
 600              		.thumb
 601              		.thumb_func
 602              		.type	_trace_init, %function
 603              	_trace_init:
 604              	.LFB18:
 605              		.loc 1 229 0
 606              		.cfi_startproc
 607              		@ args = 0, pretend = 0, frame = 0
 608              		@ frame_needed = 0, uses_anonymous_args = 0
 609              		@ link register save eliminated.
 610              		.loc 1 231 0
 611 0000 40F20003 		movw	r3, #:lower16:.LANCHOR3
 612 0004 C0F20003 		movt	r3, #:upper16:.LANCHOR3
 613 0008 1A46     		mov	r2, r3
 614 000a 4021     		movs	r1, #64
 615 000c 42F8081B 		str	r1, [r2], #8
ARM GAS  /tmp/ccXu4QZt.s 			page 12


 616              		.loc 1 232 0
 617 0010 5A60     		str	r2, [r3, #4]
 618 0012 7047     		bx	lr
 619              		.cfi_endproc
 620              	.LFE18:
 621              		.size	_trace_init, .-_trace_init
 622 0014 AFF30080 		.section	.text.dbg_trace,"ax",%progbits
 622      AFF30080 
 622      AFF30080 
 623              		.align	2
 624              		.p2align 4,,15
 625              		.global	dbg_trace
 626              		.thumb
 627              		.thumb_func
 628              		.type	dbg_trace, %function
 629              	dbg_trace:
 630              	.LFB19:
 631              		.loc 1 242 0
 632              		.cfi_startproc
 633              		@ args = 0, pretend = 0, frame = 0
 634              		@ frame_needed = 0, uses_anonymous_args = 0
 635              		@ link register save eliminated.
 636              	.LVL24:
 637 0000 10B4     		push	{r4}
 638              		.cfi_def_cfa_offset 4
 639              		.cfi_offset 4, -4
 640              		.loc 1 244 0
 641 0002 40F20003 		movw	r3, #:lower16:.LANCHOR3
 642 0006 40F20004 		movw	r4, #:lower16:vtlist
 643              		.loc 1 245 0
 644 000a 40F20001 		movw	r1, #:lower16:rlist
 645              		.loc 1 244 0
 646 000e C0F20003 		movt	r3, #:upper16:.LANCHOR3
 647 0012 C0F20004 		movt	r4, #:upper16:vtlist
 648              		.loc 1 245 0
 649 0016 C0F20001 		movt	r1, #:upper16:rlist
 650              		.loc 1 244 0
 651 001a 5A68     		ldr	r2, [r3, #4]
 652 001c E468     		ldr	r4, [r4, #12]
 653              		.loc 1 245 0
 654 001e 8969     		ldr	r1, [r1, #24]
 655              		.loc 1 244 0
 656 0020 1460     		str	r4, [r2]
 657              		.loc 1 245 0
 658 0022 5160     		str	r1, [r2, #4]
 659              		.loc 1 246 0
 660 0024 816A     		ldr	r1, [r0, #40]
 661 0026 9160     		str	r1, [r2, #8]
 662              		.loc 1 247 0
 663 0028 90F82040 		ldrb	r4, [r0, #32]	@ zero_extendqisi2
 664              		.loc 1 248 0
 665 002c 02F11001 		add	r1, r2, #16
 666 0030 03F58160 		add	r0, r3, #1032
 667              	.LVL25:
 668 0034 8142     		cmp	r1, r0
 669              		.loc 1 247 0
 670 0036 1473     		strb	r4, [r2, #12]
ARM GAS  /tmp/ccXu4QZt.s 			page 13


 671              		.loc 1 250 0
 672 0038 2ABF     		itet	cs
 673 003a 03F10802 		addcs	r2, r3, #8
 674              		.loc 1 248 0
 675 003e 5960     		strcc	r1, [r3, #4]
 676              		.loc 1 250 0
 677 0040 5A60     		strcs	r2, [r3, #4]
 678              		.loc 1 251 0
 679 0042 5DF8044B 		ldr	r4, [sp], #4
 680 0046 7047     		bx	lr
 681              		.cfi_endproc
 682              	.LFE19:
 683              		.size	dbg_trace, .-dbg_trace
 684 0048 AFF30080 		.section	.text.chDbgPanic,"ax",%progbits
 684      AFF30080 
 685              		.align	2
 686              		.p2align 4,,15
 687              		.global	chDbgPanic
 688              		.thumb
 689              		.thumb_func
 690              		.type	chDbgPanic, %function
 691              	chDbgPanic:
 692              	.LFB20:
 693              		.loc 1 271 0
 694              		.cfi_startproc
 695              		@ args = 0, pretend = 0, frame = 0
 696              		@ frame_needed = 0, uses_anonymous_args = 0
 697              		@ link register save eliminated.
 698              	.LVL26:
 699              		.loc 1 273 0
 700 0000 40F20003 		movw	r3, #:lower16:.LANCHOR2
 701 0004 C0F20003 		movt	r3, #:upper16:.LANCHOR2
 702 0008 1860     		str	r0, [r3]
 703              		.loc 1 274 0
 704 000a FFF7FEBF 		b	port_halt
 705              	.LVL27:
 706              		.cfi_endproc
 707              	.LFE20:
 708              		.size	chDbgPanic, .-chDbgPanic
 709              		.global	dbg_panic_msg
 710              		.global	dbg_trace_buffer
 711              		.global	dbg_lock_cnt
 712              		.global	dbg_isr_cnt
 713 000e 00BF     		.section	.bss.dbg_isr_cnt,"aw",%nobits
 714              		.align	2
 715              		.set	.LANCHOR0,. + 0
 716              		.type	dbg_isr_cnt, %object
 717              		.size	dbg_isr_cnt, 4
 718              	dbg_isr_cnt:
 719 0000 00000000 		.space	4
 720              		.section	.bss.dbg_trace_buffer,"aw",%nobits
 721              		.align	2
 722              		.set	.LANCHOR3,. + 0
 723              		.type	dbg_trace_buffer, %object
 724              		.size	dbg_trace_buffer, 1032
 725              	dbg_trace_buffer:
 726 0000 00000000 		.space	1032
ARM GAS  /tmp/ccXu4QZt.s 			page 14


 726      00000000 
 726      00000000 
 726      00000000 
 726      00000000 
 727              		.section	.rodata.str1.4,"aMS",%progbits,1
 728              		.align	2
 729              	.LC0:
 730 0000 53562331 		.ascii	"SV#1\000"
 730      00
 731 0005 000000   		.space	3
 732              	.LC1:
 733 0008 53562332 		.ascii	"SV#2\000"
 733      00
 734 000d 000000   		.space	3
 735              	.LC2:
 736 0010 53562333 		.ascii	"SV#3\000"
 736      00
 737 0015 000000   		.space	3
 738              	.LC3:
 739 0018 53562334 		.ascii	"SV#4\000"
 739      00
 740 001d 000000   		.space	3
 741              	.LC4:
 742 0020 53562335 		.ascii	"SV#5\000"
 742      00
 743 0025 000000   		.space	3
 744              	.LC5:
 745 0028 53562336 		.ascii	"SV#6\000"
 745      00
 746 002d 000000   		.space	3
 747              	.LC6:
 748 0030 53562337 		.ascii	"SV#7\000"
 748      00
 749 0035 000000   		.space	3
 750              	.LC7:
 751 0038 53562338 		.ascii	"SV#8\000"
 751      00
 752 003d 000000   		.space	3
 753              	.LC8:
 754 0040 53562339 		.ascii	"SV#9\000"
 754      00
 755 0045 000000   		.space	3
 756              	.LC9:
 757 0048 53562331 		.ascii	"SV#10\000"
 757      3000
 758 004e 0000     		.space	2
 759              	.LC10:
 760 0050 53562331 		.ascii	"SV#11\000"
 760      3100
 761 0056 0000     		.section	.bss.dbg_lock_cnt,"aw",%nobits
 762              		.align	2
 763              		.set	.LANCHOR1,. + 0
 764              		.type	dbg_lock_cnt, %object
 765              		.size	dbg_lock_cnt, 4
 766              	dbg_lock_cnt:
 767 0000 00000000 		.space	4
 768              		.section	.bss.dbg_panic_msg,"aw",%nobits
ARM GAS  /tmp/ccXu4QZt.s 			page 15


 769              		.align	2
 770              		.set	.LANCHOR2,. + 0
 771              		.type	dbg_panic_msg, %object
 772              		.size	dbg_panic_msg, 4
 773              	dbg_panic_msg:
 774 0000 00000000 		.space	4
 775              		.text
 776              	.Letext0:
 777              		.file 2 "/usr/include/newlib/machine/_default_types.h"
 778              		.file 3 "/usr/include/newlib/stdint.h"
 779              		.file 4 "../../../os/ports/GCC/ARMCMx/chtypes.h"
 780              		.file 5 "../../../os/kernel/include/chlists.h"
 781              		.file 6 "../../../os/kernel/include/chthreads.h"
 782              		.file 7 "../../../os/ports/GCC/ARMCMx/chcore_v7m.h"
 783              		.file 8 "../../../os/kernel/include/chvt.h"
 784              		.file 9 "../../../os/kernel/include/chschd.h"
 785              		.file 10 "../../../os/kernel/include/chmtx.h"
 786              		.file 11 "../../../os/kernel/include/chdebug.h"
 787              		.section	.debug_info,"",%progbits
 788              	.Ldebug_info0:
 789 0000 48090000 		.4byte	0x948
 790 0004 0400     		.2byte	0x4
 791 0006 00000000 		.4byte	.Ldebug_abbrev0
 792 000a 04       		.byte	0x4
 793 000b 01       		.uleb128 0x1
 794 000c 32000000 		.4byte	.LASF107
 795 0010 01       		.byte	0x1
 796 0011 56020000 		.4byte	.LASF108
 797 0015 20030000 		.4byte	.LASF109
 798 0019 00000000 		.4byte	.Ldebug_ranges0+0
 799 001d 00000000 		.4byte	0
 800 0021 00000000 		.4byte	.Ldebug_line0
 801 0025 02       		.uleb128 0x2
 802 0026 04       		.byte	0x4
 803 0027 05       		.byte	0x5
 804 0028 696E7400 		.ascii	"int\000"
 805 002c 03       		.uleb128 0x3
 806 002d 04       		.byte	0x4
 807 002e 07       		.byte	0x7
 808 002f BC010000 		.4byte	.LASF0
 809 0033 03       		.uleb128 0x3
 810 0034 01       		.byte	0x1
 811 0035 06       		.byte	0x6
 812 0036 1F010000 		.4byte	.LASF1
 813 003a 04       		.uleb128 0x4
 814 003b 21000000 		.4byte	.LASF5
 815 003f 02       		.byte	0x2
 816 0040 1C       		.byte	0x1c
 817 0041 45000000 		.4byte	0x45
 818 0045 03       		.uleb128 0x3
 819 0046 01       		.byte	0x1
 820 0047 08       		.byte	0x8
 821 0048 D6030000 		.4byte	.LASF2
 822 004c 03       		.uleb128 0x3
 823 004d 02       		.byte	0x2
 824 004e 05       		.byte	0x5
 825 004f FC030000 		.4byte	.LASF3
ARM GAS  /tmp/ccXu4QZt.s 			page 16


 826 0053 03       		.uleb128 0x3
 827 0054 02       		.byte	0x2
 828 0055 07       		.byte	0x7
 829 0056 10020000 		.4byte	.LASF4
 830 005a 04       		.uleb128 0x4
 831 005b 86040000 		.4byte	.LASF6
 832 005f 02       		.byte	0x2
 833 0060 37       		.byte	0x37
 834 0061 65000000 		.4byte	0x65
 835 0065 03       		.uleb128 0x3
 836 0066 04       		.byte	0x4
 837 0067 05       		.byte	0x5
 838 0068 5F010000 		.4byte	.LASF7
 839 006c 04       		.uleb128 0x4
 840 006d 87010000 		.4byte	.LASF8
 841 0071 02       		.byte	0x2
 842 0072 38       		.byte	0x38
 843 0073 77000000 		.4byte	0x77
 844 0077 03       		.uleb128 0x3
 845 0078 04       		.byte	0x4
 846 0079 07       		.byte	0x7
 847 007a DB010000 		.4byte	.LASF9
 848 007e 03       		.uleb128 0x3
 849 007f 08       		.byte	0x8
 850 0080 05       		.byte	0x5
 851 0081 11010000 		.4byte	.LASF10
 852 0085 04       		.uleb128 0x4
 853 0086 8B030000 		.4byte	.LASF11
 854 008a 02       		.byte	0x2
 855 008b 4E       		.byte	0x4e
 856 008c 90000000 		.4byte	0x90
 857 0090 03       		.uleb128 0x3
 858 0091 08       		.byte	0x8
 859 0092 07       		.byte	0x7
 860 0093 CF000000 		.4byte	.LASF12
 861 0097 04       		.uleb128 0x4
 862 0098 0D050000 		.4byte	.LASF13
 863 009c 03       		.byte	0x3
 864 009d 2A       		.byte	0x2a
 865 009e 3A000000 		.4byte	0x3a
 866 00a2 04       		.uleb128 0x4
 867 00a3 CE030000 		.4byte	.LASF14
 868 00a7 03       		.byte	0x3
 869 00a8 41       		.byte	0x41
 870 00a9 5A000000 		.4byte	0x5a
 871 00ad 04       		.uleb128 0x4
 872 00ae 47040000 		.4byte	.LASF15
 873 00b2 03       		.byte	0x3
 874 00b3 42       		.byte	0x42
 875 00b4 6C000000 		.4byte	0x6c
 876 00b8 04       		.uleb128 0x4
 877 00b9 18000000 		.4byte	.LASF16
 878 00bd 03       		.byte	0x3
 879 00be 4E       		.byte	0x4e
 880 00bf 85000000 		.4byte	0x85
 881 00c3 03       		.uleb128 0x3
 882 00c4 01       		.byte	0x1
ARM GAS  /tmp/ccXu4QZt.s 			page 17


 883 00c5 02       		.byte	0x2
 884 00c6 C8030000 		.4byte	.LASF17
 885 00ca 04       		.uleb128 0x4
 886 00cb 4E020000 		.4byte	.LASF18
 887 00cf 04       		.byte	0x4
 888 00d0 2C       		.byte	0x2c
 889 00d1 97000000 		.4byte	0x97
 890 00d5 04       		.uleb128 0x4
 891 00d6 68010000 		.4byte	.LASF19
 892 00da 04       		.byte	0x4
 893 00db 2D       		.byte	0x2d
 894 00dc 97000000 		.4byte	0x97
 895 00e0 04       		.uleb128 0x4
 896 00e1 A7030000 		.4byte	.LASF20
 897 00e5 04       		.byte	0x4
 898 00e6 2E       		.byte	0x2e
 899 00e7 97000000 		.4byte	0x97
 900 00eb 04       		.uleb128 0x4
 901 00ec 55010000 		.4byte	.LASF21
 902 00f0 04       		.byte	0x4
 903 00f1 2F       		.byte	0x2f
 904 00f2 97000000 		.4byte	0x97
 905 00f6 04       		.uleb128 0x4
 906 00f7 C0030000 		.4byte	.LASF22
 907 00fb 04       		.byte	0x4
 908 00fc 30       		.byte	0x30
 909 00fd AD000000 		.4byte	0xad
 910 0101 04       		.uleb128 0x4
 911 0102 2F020000 		.4byte	.LASF23
 912 0106 04       		.byte	0x4
 913 0107 31       		.byte	0x31
 914 0108 A2000000 		.4byte	0xa2
 915 010c 04       		.uleb128 0x4
 916 010d A0020000 		.4byte	.LASF24
 917 0111 04       		.byte	0x4
 918 0112 33       		.byte	0x33
 919 0113 AD000000 		.4byte	0xad
 920 0117 04       		.uleb128 0x4
 921 0118 71040000 		.4byte	.LASF25
 922 011c 04       		.byte	0x4
 923 011d 35       		.byte	0x35
 924 011e AD000000 		.4byte	0xad
 925 0122 04       		.uleb128 0x4
 926 0123 AB010000 		.4byte	.LASF26
 927 0127 04       		.byte	0x4
 928 0128 36       		.byte	0x36
 929 0129 A2000000 		.4byte	0xa2
 930 012d 04       		.uleb128 0x4
 931 012e 35040000 		.4byte	.LASF27
 932 0132 05       		.byte	0x5
 933 0133 2A       		.byte	0x2a
 934 0134 38010000 		.4byte	0x138
 935 0138 05       		.uleb128 0x5
 936 0139 35040000 		.4byte	.LASF27
 937 013d 4C       		.byte	0x4c
 938 013e 06       		.byte	0x6
 939 013f 5E       		.byte	0x5e
ARM GAS  /tmp/ccXu4QZt.s 			page 18


 940 0140 41020000 		.4byte	0x241
 941 0144 06       		.uleb128 0x6
 942 0145 26040000 		.4byte	.LASF28
 943 0149 06       		.byte	0x6
 944 014a 5F       		.byte	0x5f
 945 014b 62020000 		.4byte	0x262
 946 014f 00       		.byte	0
 947 0150 06       		.uleb128 0x6
 948 0151 B9030000 		.4byte	.LASF29
 949 0155 06       		.byte	0x6
 950 0156 61       		.byte	0x61
 951 0157 62020000 		.4byte	0x262
 952 015b 04       		.byte	0x4
 953 015c 06       		.uleb128 0x6
 954 015d 0A010000 		.4byte	.LASF30
 955 0161 06       		.byte	0x6
 956 0162 63       		.byte	0x63
 957 0163 F6000000 		.4byte	0xf6
 958 0167 08       		.byte	0x8
 959 0168 06       		.uleb128 0x6
 960 0169 71050000 		.4byte	.LASF31
 961 016d 06       		.byte	0x6
 962 016e 64       		.byte	0x64
 963 016f 27030000 		.4byte	0x327
 964 0173 0C       		.byte	0xc
 965 0174 06       		.uleb128 0x6
 966 0175 77010000 		.4byte	.LASF32
 967 0179 06       		.byte	0x6
 968 017a 66       		.byte	0x66
 969 017b 62020000 		.4byte	0x262
 970 017f 10       		.byte	0x10
 971 0180 06       		.uleb128 0x6
 972 0181 05030000 		.4byte	.LASF33
 973 0185 06       		.byte	0x6
 974 0186 67       		.byte	0x67
 975 0187 62020000 		.4byte	0x262
 976 018b 14       		.byte	0x14
 977 018c 06       		.uleb128 0x6
 978 018d 34050000 		.4byte	.LASF34
 979 0191 06       		.byte	0x6
 980 0192 6E       		.byte	0x6e
 981 0193 E1040000 		.4byte	0x4e1
 982 0197 18       		.byte	0x18
 983 0198 06       		.uleb128 0x6
 984 0199 B1010000 		.4byte	.LASF35
 985 019d 06       		.byte	0x6
 986 019e 74       		.byte	0x74
 987 019f F3040000 		.4byte	0x4f3
 988 01a3 1C       		.byte	0x1c
 989 01a4 06       		.uleb128 0x6
 990 01a5 06040000 		.4byte	.LASF36
 991 01a9 06       		.byte	0x6
 992 01aa 79       		.byte	0x79
 993 01ab D5000000 		.4byte	0xd5
 994 01af 20       		.byte	0x20
 995 01b0 06       		.uleb128 0x6
 996 01b1 2D040000 		.4byte	.LASF37
ARM GAS  /tmp/ccXu4QZt.s 			page 19


 997 01b5 06       		.byte	0x6
 998 01b6 7D       		.byte	0x7d
 999 01b7 CA000000 		.4byte	0xca
 1000 01bb 21       		.byte	0x21
 1001 01bc 06       		.uleb128 0x6
 1002 01bd E2040000 		.4byte	.LASF38
 1003 01c1 06       		.byte	0x6
 1004 01c2 82       		.byte	0x82
 1005 01c3 E0000000 		.4byte	0xe0
 1006 01c7 22       		.byte	0x22
 1007 01c8 06       		.uleb128 0x6
 1008 01c9 0E040000 		.4byte	.LASF39
 1009 01cd 06       		.byte	0x6
 1010 01ce 88       		.byte	0x88
 1011 01cf EB000000 		.4byte	0xeb
 1012 01d3 23       		.byte	0x23
 1013 01d4 06       		.uleb128 0x6
 1014 01d5 9D040000 		.4byte	.LASF40
 1015 01d9 06       		.byte	0x6
 1016 01da 8F       		.byte	0x8f
 1017 01db FE030000 		.4byte	0x3fe
 1018 01df 24       		.byte	0x24
 1019 01e0 07       		.uleb128 0x7
 1020 01e1 705F7500 		.ascii	"p_u\000"
 1021 01e5 06       		.byte	0x6
 1022 01e6 B4       		.byte	0xb4
 1023 01e7 AC040000 		.4byte	0x4ac
 1024 01eb 28       		.byte	0x28
 1025 01ec 06       		.uleb128 0x6
 1026 01ed 77050000 		.4byte	.LASF41
 1027 01f1 06       		.byte	0x6
 1028 01f2 B9       		.byte	0xb9
 1029 01f3 88020000 		.4byte	0x288
 1030 01f7 2C       		.byte	0x2c
 1031 01f8 06       		.uleb128 0x6
 1032 01f9 BF040000 		.4byte	.LASF42
 1033 01fd 06       		.byte	0x6
 1034 01fe BF       		.byte	0xbf
 1035 01ff 68020000 		.4byte	0x268
 1036 0203 30       		.byte	0x30
 1037 0204 06       		.uleb128 0x6
 1038 0205 00000000 		.4byte	.LASF43
 1039 0209 06       		.byte	0x6
 1040 020a C3       		.byte	0xc3
 1041 020b 01010000 		.4byte	0x101
 1042 020f 38       		.byte	0x38
 1043 0210 06       		.uleb128 0x6
 1044 0211 3C040000 		.4byte	.LASF44
 1045 0215 06       		.byte	0x6
 1046 0216 C9       		.byte	0xc9
 1047 0217 0C010000 		.4byte	0x10c
 1048 021b 3C       		.byte	0x3c
 1049 021c 06       		.uleb128 0x6
 1050 021d F2030000 		.4byte	.LASF45
 1051 0221 06       		.byte	0x6
 1052 0222 D0       		.byte	0xd0
 1053 0223 F9040000 		.4byte	0x4f9
ARM GAS  /tmp/ccXu4QZt.s 			page 20


 1054 0227 40       		.byte	0x40
 1055 0228 06       		.uleb128 0x6
 1056 0229 7B040000 		.4byte	.LASF46
 1057 022d 06       		.byte	0x6
 1058 022e D4       		.byte	0xd4
 1059 022f F6000000 		.4byte	0xf6
 1060 0233 44       		.byte	0x44
 1061 0234 06       		.uleb128 0x6
 1062 0235 45010000 		.4byte	.LASF47
 1063 0239 06       		.byte	0x6
 1064 023a DA       		.byte	0xda
 1065 023b 9E020000 		.4byte	0x29e
 1066 023f 48       		.byte	0x48
 1067 0240 00       		.byte	0
 1068 0241 08       		.uleb128 0x8
 1069 0242 08       		.byte	0x8
 1070 0243 05       		.byte	0x5
 1071 0244 61       		.byte	0x61
 1072 0245 62020000 		.4byte	0x262
 1073 0249 06       		.uleb128 0x6
 1074 024a 26040000 		.4byte	.LASF28
 1075 024e 05       		.byte	0x5
 1076 024f 62       		.byte	0x62
 1077 0250 62020000 		.4byte	0x262
 1078 0254 00       		.byte	0
 1079 0255 06       		.uleb128 0x6
 1080 0256 B9030000 		.4byte	.LASF29
 1081 025a 05       		.byte	0x5
 1082 025b 64       		.byte	0x64
 1083 025c 62020000 		.4byte	0x262
 1084 0260 04       		.byte	0x4
 1085 0261 00       		.byte	0
 1086 0262 09       		.uleb128 0x9
 1087 0263 04       		.byte	0x4
 1088 0264 2D010000 		.4byte	0x12d
 1089 0268 04       		.uleb128 0x4
 1090 0269 13030000 		.4byte	.LASF48
 1091 026d 05       		.byte	0x5
 1092 026e 66       		.byte	0x66
 1093 026f 41020000 		.4byte	0x241
 1094 0273 08       		.uleb128 0x8
 1095 0274 04       		.byte	0x4
 1096 0275 05       		.byte	0x5
 1097 0276 6B       		.byte	0x6b
 1098 0277 88020000 		.4byte	0x288
 1099 027b 06       		.uleb128 0x6
 1100 027c 26040000 		.4byte	.LASF28
 1101 0280 05       		.byte	0x5
 1102 0281 6D       		.byte	0x6d
 1103 0282 62020000 		.4byte	0x262
 1104 0286 00       		.byte	0
 1105 0287 00       		.byte	0
 1106 0288 04       		.uleb128 0x4
 1107 0289 94020000 		.4byte	.LASF49
 1108 028d 05       		.byte	0x5
 1109 028e 70       		.byte	0x70
 1110 028f 73020000 		.4byte	0x273
ARM GAS  /tmp/ccXu4QZt.s 			page 21


 1111 0293 04       		.uleb128 0x4
 1112 0294 92010000 		.4byte	.LASF50
 1113 0298 07       		.byte	0x7
 1114 0299 E5       		.byte	0xe5
 1115 029a 9E020000 		.4byte	0x29e
 1116 029e 0A       		.uleb128 0xa
 1117 029f 04       		.byte	0x4
 1118 02a0 04       		.uleb128 0x4
 1119 02a1 B2020000 		.4byte	.LASF51
 1120 02a5 07       		.byte	0x7
 1121 02a6 EB       		.byte	0xeb
 1122 02a7 B8000000 		.4byte	0xb8
 1123 02ab 0B       		.uleb128 0xb
 1124 02ac B8040000 		.4byte	.LASF52
 1125 02b0 24       		.byte	0x24
 1126 02b1 07       		.byte	0x7
 1127 02b2 0C01     		.2byte	0x10c
 1128 02b4 27030000 		.4byte	0x327
 1129 02b8 0C       		.uleb128 0xc
 1130 02b9 723400   		.ascii	"r4\000"
 1131 02bc 07       		.byte	0x7
 1132 02bd 1F01     		.2byte	0x11f
 1133 02bf 93020000 		.4byte	0x293
 1134 02c3 00       		.byte	0
 1135 02c4 0C       		.uleb128 0xc
 1136 02c5 723500   		.ascii	"r5\000"
 1137 02c8 07       		.byte	0x7
 1138 02c9 2001     		.2byte	0x120
 1139 02cb 93020000 		.4byte	0x293
 1140 02cf 04       		.byte	0x4
 1141 02d0 0C       		.uleb128 0xc
 1142 02d1 723600   		.ascii	"r6\000"
 1143 02d4 07       		.byte	0x7
 1144 02d5 2101     		.2byte	0x121
 1145 02d7 93020000 		.4byte	0x293
 1146 02db 08       		.byte	0x8
 1147 02dc 0C       		.uleb128 0xc
 1148 02dd 723700   		.ascii	"r7\000"
 1149 02e0 07       		.byte	0x7
 1150 02e1 2201     		.2byte	0x122
 1151 02e3 93020000 		.4byte	0x293
 1152 02e7 0C       		.byte	0xc
 1153 02e8 0C       		.uleb128 0xc
 1154 02e9 723800   		.ascii	"r8\000"
 1155 02ec 07       		.byte	0x7
 1156 02ed 2301     		.2byte	0x123
 1157 02ef 93020000 		.4byte	0x293
 1158 02f3 10       		.byte	0x10
 1159 02f4 0C       		.uleb128 0xc
 1160 02f5 723900   		.ascii	"r9\000"
 1161 02f8 07       		.byte	0x7
 1162 02f9 2401     		.2byte	0x124
 1163 02fb 93020000 		.4byte	0x293
 1164 02ff 14       		.byte	0x14
 1165 0300 0C       		.uleb128 0xc
 1166 0301 72313000 		.ascii	"r10\000"
 1167 0305 07       		.byte	0x7
ARM GAS  /tmp/ccXu4QZt.s 			page 22


 1168 0306 2501     		.2byte	0x125
 1169 0308 93020000 		.4byte	0x293
 1170 030c 18       		.byte	0x18
 1171 030d 0C       		.uleb128 0xc
 1172 030e 72313100 		.ascii	"r11\000"
 1173 0312 07       		.byte	0x7
 1174 0313 2601     		.2byte	0x126
 1175 0315 93020000 		.4byte	0x293
 1176 0319 1C       		.byte	0x1c
 1177 031a 0C       		.uleb128 0xc
 1178 031b 6C7200   		.ascii	"lr\000"
 1179 031e 07       		.byte	0x7
 1180 031f 2701     		.2byte	0x127
 1181 0321 93020000 		.4byte	0x293
 1182 0325 20       		.byte	0x20
 1183 0326 00       		.byte	0
 1184 0327 0B       		.uleb128 0xb
 1185 0328 08020000 		.4byte	.LASF53
 1186 032c 04       		.byte	0x4
 1187 032d 07       		.byte	0x7
 1188 032e 3101     		.2byte	0x131
 1189 0330 42030000 		.4byte	0x342
 1190 0334 0C       		.uleb128 0xc
 1191 0335 72313300 		.ascii	"r13\000"
 1192 0339 07       		.byte	0x7
 1193 033a 3201     		.2byte	0x132
 1194 033c 42030000 		.4byte	0x342
 1195 0340 00       		.byte	0
 1196 0341 00       		.byte	0
 1197 0342 09       		.uleb128 0x9
 1198 0343 04       		.byte	0x4
 1199 0344 AB020000 		.4byte	0x2ab
 1200 0348 03       		.uleb128 0x3
 1201 0349 04       		.byte	0x4
 1202 034a 07       		.byte	0x7
 1203 034b CC020000 		.4byte	.LASF54
 1204 034f 04       		.uleb128 0x4
 1205 0350 ED010000 		.4byte	.LASF55
 1206 0354 08       		.byte	0x8
 1207 0355 58       		.byte	0x58
 1208 0356 5A030000 		.4byte	0x35a
 1209 035a 09       		.uleb128 0x9
 1210 035b 04       		.byte	0x4
 1211 035c 60030000 		.4byte	0x360
 1212 0360 0D       		.uleb128 0xd
 1213 0361 6B030000 		.4byte	0x36b
 1214 0365 0E       		.uleb128 0xe
 1215 0366 9E020000 		.4byte	0x29e
 1216 036a 00       		.byte	0
 1217 036b 04       		.uleb128 0x4
 1218 036c 58040000 		.4byte	.LASF56
 1219 0370 08       		.byte	0x8
 1220 0371 5D       		.byte	0x5d
 1221 0372 76030000 		.4byte	0x376
 1222 0376 05       		.uleb128 0x5
 1223 0377 58040000 		.4byte	.LASF56
 1224 037b 14       		.byte	0x14
ARM GAS  /tmp/ccXu4QZt.s 			page 23


 1225 037c 08       		.byte	0x8
 1226 037d 64       		.byte	0x64
 1227 037e BF030000 		.4byte	0x3bf
 1228 0382 06       		.uleb128 0x6
 1229 0383 C9010000 		.4byte	.LASF57
 1230 0387 08       		.byte	0x8
 1231 0388 65       		.byte	0x65
 1232 0389 BF030000 		.4byte	0x3bf
 1233 038d 00       		.byte	0
 1234 038e 06       		.uleb128 0x6
 1235 038f 9B010000 		.4byte	.LASF58
 1236 0393 08       		.byte	0x8
 1237 0394 67       		.byte	0x67
 1238 0395 BF030000 		.4byte	0x3bf
 1239 0399 04       		.byte	0x4
 1240 039a 06       		.uleb128 0x6
 1241 039b BD020000 		.4byte	.LASF59
 1242 039f 08       		.byte	0x8
 1243 03a0 69       		.byte	0x69
 1244 03a1 17010000 		.4byte	0x117
 1245 03a5 08       		.byte	0x8
 1246 03a6 06       		.uleb128 0x6
 1247 03a7 DF020000 		.4byte	.LASF60
 1248 03ab 08       		.byte	0x8
 1249 03ac 6A       		.byte	0x6a
 1250 03ad 4F030000 		.4byte	0x34f
 1251 03b1 0C       		.byte	0xc
 1252 03b2 06       		.uleb128 0x6
 1253 03b3 DB040000 		.4byte	.LASF61
 1254 03b7 08       		.byte	0x8
 1255 03b8 6C       		.byte	0x6c
 1256 03b9 9E020000 		.4byte	0x29e
 1257 03bd 10       		.byte	0x10
 1258 03be 00       		.byte	0
 1259 03bf 09       		.uleb128 0x9
 1260 03c0 04       		.byte	0x4
 1261 03c1 6B030000 		.4byte	0x36b
 1262 03c5 08       		.uleb128 0x8
 1263 03c6 10       		.byte	0x10
 1264 03c7 08       		.byte	0x8
 1265 03c8 76       		.byte	0x76
 1266 03c9 FE030000 		.4byte	0x3fe
 1267 03cd 06       		.uleb128 0x6
 1268 03ce C9010000 		.4byte	.LASF57
 1269 03d2 08       		.byte	0x8
 1270 03d3 77       		.byte	0x77
 1271 03d4 BF030000 		.4byte	0x3bf
 1272 03d8 00       		.byte	0
 1273 03d9 06       		.uleb128 0x6
 1274 03da 9B010000 		.4byte	.LASF58
 1275 03de 08       		.byte	0x8
 1276 03df 79       		.byte	0x79
 1277 03e0 BF030000 		.4byte	0x3bf
 1278 03e4 04       		.byte	0x4
 1279 03e5 06       		.uleb128 0x6
 1280 03e6 BD020000 		.4byte	.LASF59
 1281 03ea 08       		.byte	0x8
ARM GAS  /tmp/ccXu4QZt.s 			page 24


 1282 03eb 7B       		.byte	0x7b
 1283 03ec 17010000 		.4byte	0x117
 1284 03f0 08       		.byte	0x8
 1285 03f1 06       		.uleb128 0x6
 1286 03f2 3B050000 		.4byte	.LASF62
 1287 03f6 08       		.byte	0x8
 1288 03f7 7C       		.byte	0x7c
 1289 03f8 FE030000 		.4byte	0x3fe
 1290 03fc 0C       		.byte	0xc
 1291 03fd 00       		.byte	0
 1292 03fe 0F       		.uleb128 0xf
 1293 03ff 17010000 		.4byte	0x117
 1294 0403 04       		.uleb128 0x4
 1295 0404 46050000 		.4byte	.LASF63
 1296 0408 08       		.byte	0x8
 1297 0409 7D       		.byte	0x7d
 1298 040a C5030000 		.4byte	0x3c5
 1299 040e 08       		.uleb128 0x8
 1300 040f 1C       		.byte	0x1c
 1301 0410 09       		.byte	0x9
 1302 0411 5E       		.byte	0x5e
 1303 0412 5F040000 		.4byte	0x45f
 1304 0416 06       		.uleb128 0x6
 1305 0417 50040000 		.4byte	.LASF64
 1306 041b 09       		.byte	0x9
 1307 041c 5F       		.byte	0x5f
 1308 041d 68020000 		.4byte	0x268
 1309 0421 00       		.byte	0
 1310 0422 06       		.uleb128 0x6
 1311 0423 18040000 		.4byte	.LASF65
 1312 0427 09       		.byte	0x9
 1313 0428 60       		.byte	0x60
 1314 0429 F6000000 		.4byte	0xf6
 1315 042d 08       		.byte	0x8
 1316 042e 06       		.uleb128 0x6
 1317 042f 0D030000 		.4byte	.LASF66
 1318 0433 09       		.byte	0x9
 1319 0434 62       		.byte	0x62
 1320 0435 27030000 		.4byte	0x327
 1321 0439 0C       		.byte	0xc
 1322 043a 06       		.uleb128 0x6
 1323 043b 35020000 		.4byte	.LASF67
 1324 043f 09       		.byte	0x9
 1325 0440 65       		.byte	0x65
 1326 0441 62020000 		.4byte	0x262
 1327 0445 10       		.byte	0x10
 1328 0446 06       		.uleb128 0x6
 1329 0447 72030000 		.4byte	.LASF68
 1330 044b 09       		.byte	0x9
 1331 044c 66       		.byte	0x66
 1332 044d 62020000 		.4byte	0x262
 1333 0451 14       		.byte	0x14
 1334 0452 06       		.uleb128 0x6
 1335 0453 68030000 		.4byte	.LASF69
 1336 0457 09       		.byte	0x9
 1337 0458 69       		.byte	0x69
 1338 0459 62020000 		.4byte	0x262
ARM GAS  /tmp/ccXu4QZt.s 			page 25


 1339 045d 18       		.byte	0x18
 1340 045e 00       		.byte	0
 1341 045f 04       		.uleb128 0x4
 1342 0460 E9040000 		.4byte	.LASF70
 1343 0464 09       		.byte	0x9
 1344 0465 6B       		.byte	0x6b
 1345 0466 0E040000 		.4byte	0x40e
 1346 046a 05       		.uleb128 0x5
 1347 046b AC020000 		.4byte	.LASF71
 1348 046f 10       		.byte	0x10
 1349 0470 0A       		.byte	0xa
 1350 0471 2C       		.byte	0x2c
 1351 0472 9B040000 		.4byte	0x49b
 1352 0476 06       		.uleb128 0x6
 1353 0477 4D010000 		.4byte	.LASF72
 1354 047b 0A       		.byte	0xa
 1355 047c 2D       		.byte	0x2d
 1356 047d 68020000 		.4byte	0x268
 1357 0481 00       		.byte	0
 1358 0482 06       		.uleb128 0x6
 1359 0483 5F050000 		.4byte	.LASF73
 1360 0487 0A       		.byte	0xa
 1361 0488 2F       		.byte	0x2f
 1362 0489 62020000 		.4byte	0x262
 1363 048d 08       		.byte	0x8
 1364 048e 06       		.uleb128 0x6
 1365 048f 6A040000 		.4byte	.LASF74
 1366 0493 0A       		.byte	0xa
 1367 0494 31       		.byte	0x31
 1368 0495 9B040000 		.4byte	0x49b
 1369 0499 0C       		.byte	0xc
 1370 049a 00       		.byte	0
 1371 049b 09       		.uleb128 0x9
 1372 049c 04       		.byte	0x4
 1373 049d 6A040000 		.4byte	0x46a
 1374 04a1 04       		.uleb128 0x4
 1375 04a2 AC020000 		.4byte	.LASF71
 1376 04a6 0A       		.byte	0xa
 1377 04a7 33       		.byte	0x33
 1378 04a8 6A040000 		.4byte	0x46a
 1379 04ac 10       		.uleb128 0x10
 1380 04ad 04       		.byte	0x4
 1381 04ae 06       		.byte	0x6
 1382 04af 96       		.byte	0x96
 1383 04b0 E1040000 		.4byte	0x4e1
 1384 04b4 11       		.uleb128 0x11
 1385 04b5 11000000 		.4byte	.LASF75
 1386 04b9 06       		.byte	0x6
 1387 04ba 9D       		.byte	0x9d
 1388 04bb 01010000 		.4byte	0x101
 1389 04bf 11       		.uleb128 0x11
 1390 04c0 01010000 		.4byte	.LASF76
 1391 04c4 06       		.byte	0x6
 1392 04c5 A4       		.byte	0xa4
 1393 04c6 01010000 		.4byte	0x101
 1394 04ca 11       		.uleb128 0x11
 1395 04cb 2D050000 		.4byte	.LASF77
ARM GAS  /tmp/ccXu4QZt.s 			page 26


 1396 04cf 06       		.byte	0x6
 1397 04d0 AB       		.byte	0xab
 1398 04d1 9E020000 		.4byte	0x29e
 1399 04d5 11       		.uleb128 0x11
 1400 04d6 1F040000 		.4byte	.LASF78
 1401 04da 06       		.byte	0x6
 1402 04db B2       		.byte	0xb2
 1403 04dc 0C010000 		.4byte	0x10c
 1404 04e0 00       		.byte	0
 1405 04e1 09       		.uleb128 0x9
 1406 04e2 04       		.byte	0x4
 1407 04e3 E7040000 		.4byte	0x4e7
 1408 04e7 12       		.uleb128 0x12
 1409 04e8 EC040000 		.4byte	0x4ec
 1410 04ec 03       		.uleb128 0x3
 1411 04ed 01       		.byte	0x1
 1412 04ee 08       		.byte	0x8
 1413 04ef 65040000 		.4byte	.LASF79
 1414 04f3 09       		.uleb128 0x9
 1415 04f4 04       		.byte	0x4
 1416 04f5 A0020000 		.4byte	0x2a0
 1417 04f9 09       		.uleb128 0x9
 1418 04fa 04       		.byte	0x4
 1419 04fb A1040000 		.4byte	0x4a1
 1420 04ff 08       		.uleb128 0x8
 1421 0500 10       		.byte	0x10
 1422 0501 0B       		.byte	0xb
 1423 0502 71       		.byte	0x71
 1424 0503 38050000 		.4byte	0x538
 1425 0507 06       		.uleb128 0x6
 1426 0508 A3010000 		.4byte	.LASF80
 1427 050c 0B       		.byte	0xb
 1428 050d 72       		.byte	0x72
 1429 050e 17010000 		.4byte	0x117
 1430 0512 00       		.byte	0
 1431 0513 06       		.uleb128 0x6
 1432 0514 71010000 		.4byte	.LASF81
 1433 0518 0B       		.byte	0xb
 1434 0519 73       		.byte	0x73
 1435 051a 62020000 		.4byte	0x262
 1436 051e 04       		.byte	0x4
 1437 051f 06       		.uleb128 0x6
 1438 0520 67050000 		.4byte	.LASF82
 1439 0524 0B       		.byte	0xb
 1440 0525 74       		.byte	0x74
 1441 0526 9E020000 		.4byte	0x29e
 1442 052a 08       		.byte	0x8
 1443 052b 06       		.uleb128 0x6
 1444 052c F8000000 		.4byte	.LASF83
 1445 0530 0B       		.byte	0xb
 1446 0531 75       		.byte	0x75
 1447 0532 97000000 		.4byte	0x97
 1448 0536 0C       		.byte	0xc
 1449 0537 00       		.byte	0
 1450 0538 04       		.uleb128 0x4
 1451 0539 F6020000 		.4byte	.LASF84
 1452 053d 0B       		.byte	0xb
ARM GAS  /tmp/ccXu4QZt.s 			page 27


 1453 053e 76       		.byte	0x76
 1454 053f FF040000 		.4byte	0x4ff
 1455 0543 13       		.uleb128 0x13
 1456 0544 0804     		.2byte	0x408
 1457 0546 0B       		.byte	0xb
 1458 0547 7B       		.byte	0x7b
 1459 0548 71050000 		.4byte	0x571
 1460 054c 06       		.uleb128 0x6
 1461 054d 7F010000 		.4byte	.LASF85
 1462 0551 0B       		.byte	0xb
 1463 0552 7C       		.byte	0x7c
 1464 0553 2C000000 		.4byte	0x2c
 1465 0557 00       		.byte	0
 1466 0558 06       		.uleb128 0x6
 1467 0559 C5020000 		.4byte	.LASF86
 1468 055d 0B       		.byte	0xb
 1469 055e 7D       		.byte	0x7d
 1470 055f 71050000 		.4byte	0x571
 1471 0563 04       		.byte	0x4
 1472 0564 06       		.uleb128 0x6
 1473 0565 AF030000 		.4byte	.LASF87
 1474 0569 0B       		.byte	0xb
 1475 056a 7F       		.byte	0x7f
 1476 056b 77050000 		.4byte	0x577
 1477 056f 08       		.byte	0x8
 1478 0570 00       		.byte	0
 1479 0571 09       		.uleb128 0x9
 1480 0572 04       		.byte	0x4
 1481 0573 38050000 		.4byte	0x538
 1482 0577 14       		.uleb128 0x14
 1483 0578 38050000 		.4byte	0x538
 1484 057c 87050000 		.4byte	0x587
 1485 0580 15       		.uleb128 0x15
 1486 0581 48030000 		.4byte	0x348
 1487 0585 3F       		.byte	0x3f
 1488 0586 00       		.byte	0
 1489 0587 04       		.uleb128 0x4
 1490 0588 E6000000 		.4byte	.LASF88
 1491 058c 0B       		.byte	0xb
 1492 058d 80       		.byte	0x80
 1493 058e 43050000 		.4byte	0x543
 1494 0592 16       		.uleb128 0x16
 1495 0593 06000000 		.4byte	.LASF110
 1496 0597 01       		.byte	0x1
 1497 0598 0F01     		.2byte	0x10f
 1498 059a 01       		.byte	0x1
 1499 059b AC050000 		.4byte	0x5ac
 1500 059f 17       		.uleb128 0x17
 1501 05a0 6D736700 		.ascii	"msg\000"
 1502 05a4 01       		.byte	0x1
 1503 05a5 0F01     		.2byte	0x10f
 1504 05a7 E1040000 		.4byte	0x4e1
 1505 05ab 00       		.byte	0
 1506 05ac 18       		.uleb128 0x18
 1507 05ad 4D050000 		.4byte	.LASF89
 1508 05b1 01       		.byte	0x1
 1509 05b2 51       		.byte	0x51
ARM GAS  /tmp/ccXu4QZt.s 			page 28


 1510 05b3 00000000 		.4byte	.LFB7
 1511 05b7 30000000 		.4byte	.LFE7-.LFB7
 1512 05bb 01       		.uleb128 0x1
 1513 05bc 9C       		.byte	0x9c
 1514 05bd E4050000 		.4byte	0x5e4
 1515 05c1 19       		.uleb128 0x19
 1516 05c2 92050000 		.4byte	0x592
 1517 05c6 18000000 		.4byte	.LBB28
 1518 05ca 18000000 		.4byte	.LBE28-.LBB28
 1519 05ce 01       		.byte	0x1
 1520 05cf 54       		.byte	0x54
 1521 05d0 1A       		.uleb128 0x1a
 1522 05d1 9F050000 		.4byte	0x59f
 1523 05d5 00000000 		.4byte	.LLST0
 1524 05d9 1B       		.uleb128 0x1b
 1525 05da 2E000000 		.4byte	.LVL1
 1526 05de 43090000 		.4byte	0x943
 1527 05e2 00       		.byte	0
 1528 05e3 00       		.byte	0
 1529 05e4 18       		.uleb128 0x18
 1530 05e5 F6010000 		.4byte	.LASF90
 1531 05e9 01       		.byte	0x1
 1532 05ea 5C       		.byte	0x5c
 1533 05eb 00000000 		.4byte	.LFB8
 1534 05ef 30000000 		.4byte	.LFE8-.LFB8
 1535 05f3 01       		.uleb128 0x1
 1536 05f4 9C       		.byte	0x9c
 1537 05f5 1C060000 		.4byte	0x61c
 1538 05f9 19       		.uleb128 0x19
 1539 05fa 92050000 		.4byte	0x592
 1540 05fe 18000000 		.4byte	.LBB30
 1541 0602 18000000 		.4byte	.LBE30-.LBB30
 1542 0606 01       		.byte	0x1
 1543 0607 5F       		.byte	0x5f
 1544 0608 1A       		.uleb128 0x1a
 1545 0609 9F050000 		.4byte	0x59f
 1546 060d 18000000 		.4byte	.LLST1
 1547 0611 1B       		.uleb128 0x1b
 1548 0612 2E000000 		.4byte	.LVL3
 1549 0616 43090000 		.4byte	0x943
 1550 061a 00       		.byte	0
 1551 061b 00       		.byte	0
 1552 061c 18       		.uleb128 0x18
 1553 061d CA040000 		.4byte	.LASF91
 1554 0621 01       		.byte	0x1
 1555 0622 67       		.byte	0x67
 1556 0623 00000000 		.4byte	.LFB9
 1557 0627 30000000 		.4byte	.LFE9-.LFB9
 1558 062b 01       		.uleb128 0x1
 1559 062c 9C       		.byte	0x9c
 1560 062d 54060000 		.4byte	0x654
 1561 0631 19       		.uleb128 0x19
 1562 0632 92050000 		.4byte	0x592
 1563 0636 18000000 		.4byte	.LBB32
 1564 063a 18000000 		.4byte	.LBE32-.LBB32
 1565 063e 01       		.byte	0x1
 1566 063f 6A       		.byte	0x6a
ARM GAS  /tmp/ccXu4QZt.s 			page 29


 1567 0640 1A       		.uleb128 0x1a
 1568 0641 9F050000 		.4byte	0x59f
 1569 0645 30000000 		.4byte	.LLST2
 1570 0649 1B       		.uleb128 0x1b
 1571 064a 2E000000 		.4byte	.LVL5
 1572 064e 43090000 		.4byte	0x943
 1573 0652 00       		.byte	0
 1574 0653 00       		.byte	0
 1575 0654 18       		.uleb128 0x18
 1576 0655 E7020000 		.4byte	.LASF92
 1577 0659 01       		.byte	0x1
 1578 065a 72       		.byte	0x72
 1579 065b 00000000 		.4byte	.LFB10
 1580 065f 36000000 		.4byte	.LFE10-.LFB10
 1581 0663 01       		.uleb128 0x1
 1582 0664 9C       		.byte	0x9c
 1583 0665 8C060000 		.4byte	0x68c
 1584 0669 19       		.uleb128 0x19
 1585 066a 92050000 		.4byte	0x592
 1586 066e 1A000000 		.4byte	.LBB34
 1587 0672 16000000 		.4byte	.LBE34-.LBB34
 1588 0676 01       		.byte	0x1
 1589 0677 75       		.byte	0x75
 1590 0678 1A       		.uleb128 0x1a
 1591 0679 9F050000 		.4byte	0x59f
 1592 067d 48000000 		.4byte	.LLST3
 1593 0681 1C       		.uleb128 0x1c
 1594 0682 30000000 		.4byte	.LVL7
 1595 0686 43090000 		.4byte	0x943
 1596 068a 00       		.byte	0
 1597 068b 00       		.byte	0
 1598 068c 18       		.uleb128 0x18
 1599 068d 7A030000 		.4byte	.LASF93
 1600 0691 01       		.byte	0x1
 1601 0692 7E       		.byte	0x7e
 1602 0693 00000000 		.4byte	.LFB11
 1603 0697 3E000000 		.4byte	.LFE11-.LFB11
 1604 069b 01       		.uleb128 0x1
 1605 069c 9C       		.byte	0x9c
 1606 069d C7060000 		.4byte	0x6c7
 1607 06a1 19       		.uleb128 0x19
 1608 06a2 92050000 		.4byte	0x592
 1609 06a6 22000000 		.4byte	.LBB36
 1610 06aa 16000000 		.4byte	.LBE36-.LBB36
 1611 06ae 01       		.byte	0x1
 1612 06af 81       		.byte	0x81
 1613 06b0 1D       		.uleb128 0x1d
 1614 06b1 9F050000 		.4byte	0x59f
 1615 06b5 06       		.uleb128 0x6
 1616 06b6 03       		.byte	0x3
 1617 06b7 20000000 		.4byte	.LC4
 1618 06bb 9F       		.byte	0x9f
 1619 06bc 1C       		.uleb128 0x1c
 1620 06bd 38000000 		.4byte	.LVL9
 1621 06c1 43090000 		.4byte	0x943
 1622 06c5 00       		.byte	0
 1623 06c6 00       		.byte	0
ARM GAS  /tmp/ccXu4QZt.s 			page 30


 1624 06c7 18       		.uleb128 0x18
 1625 06c8 15050000 		.4byte	.LASF94
 1626 06cc 01       		.byte	0x1
 1627 06cd 8A       		.byte	0x8a
 1628 06ce 00000000 		.4byte	.LFB12
 1629 06d2 38000000 		.4byte	.LFE12-.LFB12
 1630 06d6 01       		.uleb128 0x1
 1631 06d7 9C       		.byte	0x9c
 1632 06d8 FF060000 		.4byte	0x6ff
 1633 06dc 19       		.uleb128 0x19
 1634 06dd 92050000 		.4byte	0x592
 1635 06e1 1C000000 		.4byte	.LBB38
 1636 06e5 16000000 		.4byte	.LBE38-.LBB38
 1637 06e9 01       		.byte	0x1
 1638 06ea 8D       		.byte	0x8d
 1639 06eb 1A       		.uleb128 0x1a
 1640 06ec 9F050000 		.4byte	0x59f
 1641 06f0 60000000 		.4byte	.LLST4
 1642 06f4 1C       		.uleb128 0x1c
 1643 06f5 32000000 		.4byte	.LVL11
 1644 06f9 43090000 		.4byte	0x943
 1645 06fd 00       		.byte	0
 1646 06fe 00       		.byte	0
 1647 06ff 18       		.uleb128 0x18
 1648 0700 2B010000 		.4byte	.LASF95
 1649 0704 01       		.byte	0x1
 1650 0705 96       		.byte	0x96
 1651 0706 00000000 		.4byte	.LFB13
 1652 070a 40000000 		.4byte	.LFE13-.LFB13
 1653 070e 01       		.uleb128 0x1
 1654 070f 9C       		.byte	0x9c
 1655 0710 3A070000 		.4byte	0x73a
 1656 0714 19       		.uleb128 0x19
 1657 0715 92050000 		.4byte	0x592
 1658 0719 24000000 		.4byte	.LBB40
 1659 071d 16000000 		.4byte	.LBE40-.LBB40
 1660 0721 01       		.byte	0x1
 1661 0722 99       		.byte	0x99
 1662 0723 1D       		.uleb128 0x1d
 1663 0724 9F050000 		.4byte	0x59f
 1664 0728 06       		.uleb128 0x6
 1665 0729 03       		.byte	0x3
 1666 072a 30000000 		.4byte	.LC6
 1667 072e 9F       		.byte	0x9f
 1668 072f 1C       		.uleb128 0x1c
 1669 0730 3A000000 		.4byte	.LVL13
 1670 0734 43090000 		.4byte	0x943
 1671 0738 00       		.byte	0
 1672 0739 00       		.byte	0
 1673 073a 18       		.uleb128 0x18
 1674 073b F3040000 		.4byte	.LASF96
 1675 073f 01       		.byte	0x1
 1676 0740 A2       		.byte	0xa2
 1677 0741 00000000 		.4byte	.LFB14
 1678 0745 46000000 		.4byte	.LFE14-.LFB14
 1679 0749 01       		.uleb128 0x1
 1680 074a 9C       		.byte	0x9c
ARM GAS  /tmp/ccXu4QZt.s 			page 31


 1681 074b A8070000 		.4byte	0x7a8
 1682 074f 1E       		.uleb128 0x1e
 1683 0750 02000000 		.4byte	.LBB42
 1684 0754 06000000 		.4byte	.LBE42-.LBB42
 1685 0758 6A070000 		.4byte	0x76a
 1686 075c 1F       		.uleb128 0x1f
 1687 075d 746D7000 		.ascii	"tmp\000"
 1688 0761 01       		.byte	0x1
 1689 0762 A4       		.byte	0xa4
 1690 0763 AD000000 		.4byte	0xad
 1691 0767 01       		.uleb128 0x1
 1692 0768 53       		.byte	0x53
 1693 0769 00       		.byte	0
 1694 076a 20       		.uleb128 0x20
 1695 076b 92050000 		.4byte	0x592
 1696 076f 22000000 		.4byte	.LBB43
 1697 0773 18000000 		.4byte	.LBE43-.LBB43
 1698 0777 01       		.byte	0x1
 1699 0778 A6       		.byte	0xa6
 1700 0779 90070000 		.4byte	0x790
 1701 077d 1A       		.uleb128 0x1a
 1702 077e 9F050000 		.4byte	0x59f
 1703 0782 78000000 		.4byte	.LLST5
 1704 0786 1C       		.uleb128 0x1c
 1705 0787 38000000 		.4byte	.LVL15
 1706 078b 43090000 		.4byte	0x943
 1707 078f 00       		.byte	0
 1708 0790 21       		.uleb128 0x21
 1709 0791 3E000000 		.4byte	.LBB45
 1710 0795 08000000 		.4byte	.LBE45-.LBB45
 1711 0799 1F       		.uleb128 0x1f
 1712 079a 746D7000 		.ascii	"tmp\000"
 1713 079e 01       		.byte	0x1
 1714 079f A8       		.byte	0xa8
 1715 07a0 AD000000 		.4byte	0xad
 1716 07a4 01       		.uleb128 0x1
 1717 07a5 53       		.byte	0x53
 1718 07a6 00       		.byte	0
 1719 07a7 00       		.byte	0
 1720 07a8 18       		.uleb128 0x18
 1721 07a9 A4040000 		.4byte	.LASF97
 1722 07ad 01       		.byte	0x1
 1723 07ae B0       		.byte	0xb0
 1724 07af 00000000 		.4byte	.LFB15
 1725 07b3 46000000 		.4byte	.LFE15-.LFB15
 1726 07b7 01       		.uleb128 0x1
 1727 07b8 9C       		.byte	0x9c
 1728 07b9 16080000 		.4byte	0x816
 1729 07bd 1E       		.uleb128 0x1e
 1730 07be 02000000 		.4byte	.LBB46
 1731 07c2 06000000 		.4byte	.LBE46-.LBB46
 1732 07c6 D8070000 		.4byte	0x7d8
 1733 07ca 1F       		.uleb128 0x1f
 1734 07cb 746D7000 		.ascii	"tmp\000"
 1735 07cf 01       		.byte	0x1
 1736 07d0 B2       		.byte	0xb2
 1737 07d1 AD000000 		.4byte	0xad
ARM GAS  /tmp/ccXu4QZt.s 			page 32


 1738 07d5 01       		.uleb128 0x1
 1739 07d6 53       		.byte	0x53
 1740 07d7 00       		.byte	0
 1741 07d8 20       		.uleb128 0x20
 1742 07d9 92050000 		.4byte	0x592
 1743 07dd 22000000 		.4byte	.LBB47
 1744 07e1 18000000 		.4byte	.LBE47-.LBB47
 1745 07e5 01       		.byte	0x1
 1746 07e6 B4       		.byte	0xb4
 1747 07e7 FE070000 		.4byte	0x7fe
 1748 07eb 1A       		.uleb128 0x1a
 1749 07ec 9F050000 		.4byte	0x59f
 1750 07f0 90000000 		.4byte	.LLST6
 1751 07f4 1C       		.uleb128 0x1c
 1752 07f5 38000000 		.4byte	.LVL18
 1753 07f9 43090000 		.4byte	0x943
 1754 07fd 00       		.byte	0
 1755 07fe 21       		.uleb128 0x21
 1756 07ff 3E000000 		.4byte	.LBB49
 1757 0803 08000000 		.4byte	.LBE49-.LBB49
 1758 0807 1F       		.uleb128 0x1f
 1759 0808 746D7000 		.ascii	"tmp\000"
 1760 080c 01       		.byte	0x1
 1761 080d B6       		.byte	0xb6
 1762 080e AD000000 		.4byte	0xad
 1763 0812 01       		.uleb128 0x1
 1764 0813 53       		.byte	0x53
 1765 0814 00       		.byte	0
 1766 0815 00       		.byte	0
 1767 0816 18       		.uleb128 0x18
 1768 0817 3D020000 		.4byte	.LASF98
 1769 081b 01       		.byte	0x1
 1770 081c C1       		.byte	0xc1
 1771 081d 00000000 		.4byte	.LFB16
 1772 0821 34000000 		.4byte	.LFE16-.LFB16
 1773 0825 01       		.uleb128 0x1
 1774 0826 9C       		.byte	0x9c
 1775 0827 51080000 		.4byte	0x851
 1776 082b 19       		.uleb128 0x19
 1777 082c 92050000 		.4byte	0x592
 1778 0830 1E000000 		.4byte	.LBB50
 1779 0834 16000000 		.4byte	.LBE50-.LBB50
 1780 0838 01       		.byte	0x1
 1781 0839 C4       		.byte	0xc4
 1782 083a 1D       		.uleb128 0x1d
 1783 083b 9F050000 		.4byte	0x59f
 1784 083f 06       		.uleb128 0x6
 1785 0840 03       		.byte	0x3
 1786 0841 48000000 		.4byte	.LC9
 1787 0845 9F       		.byte	0x9f
 1788 0846 1B       		.uleb128 0x1b
 1789 0847 34000000 		.4byte	.LVL21
 1790 084b 43090000 		.4byte	0x943
 1791 084f 00       		.byte	0
 1792 0850 00       		.byte	0
 1793 0851 18       		.uleb128 0x18
 1794 0852 83020000 		.4byte	.LASF99
ARM GAS  /tmp/ccXu4QZt.s 			page 33


 1795 0856 01       		.byte	0x1
 1796 0857 CF       		.byte	0xcf
 1797 0858 00000000 		.4byte	.LFB17
 1798 085c 32000000 		.4byte	.LFE17-.LFB17
 1799 0860 01       		.uleb128 0x1
 1800 0861 9C       		.byte	0x9c
 1801 0862 8C080000 		.4byte	0x88c
 1802 0866 19       		.uleb128 0x19
 1803 0867 92050000 		.4byte	0x592
 1804 086b 1C000000 		.4byte	.LBB52
 1805 086f 16000000 		.4byte	.LBE52-.LBB52
 1806 0873 01       		.byte	0x1
 1807 0874 D2       		.byte	0xd2
 1808 0875 1D       		.uleb128 0x1d
 1809 0876 9F050000 		.4byte	0x59f
 1810 087a 06       		.uleb128 0x6
 1811 087b 03       		.byte	0x3
 1812 087c 50000000 		.4byte	.LC10
 1813 0880 9F       		.byte	0x9f
 1814 0881 1B       		.uleb128 0x1b
 1815 0882 32000000 		.4byte	.LVL23
 1816 0886 43090000 		.4byte	0x943
 1817 088a 00       		.byte	0
 1818 088b 00       		.byte	0
 1819 088c 22       		.uleb128 0x22
 1820 088d 23020000 		.4byte	.LASF111
 1821 0891 01       		.byte	0x1
 1822 0892 E5       		.byte	0xe5
 1823 0893 00000000 		.4byte	.LFB18
 1824 0897 14000000 		.4byte	.LFE18-.LFB18
 1825 089b 01       		.uleb128 0x1
 1826 089c 9C       		.byte	0x9c
 1827 089d 18       		.uleb128 0x18
 1828 089e D1010000 		.4byte	.LASF100
 1829 08a2 01       		.byte	0x1
 1830 08a3 F2       		.byte	0xf2
 1831 08a4 00000000 		.4byte	.LFB19
 1832 08a8 48000000 		.4byte	.LFE19-.LFB19
 1833 08ac 01       		.uleb128 0x1
 1834 08ad 9C       		.byte	0x9c
 1835 08ae C2080000 		.4byte	0x8c2
 1836 08b2 23       		.uleb128 0x23
 1837 08b3 6F747000 		.ascii	"otp\000"
 1838 08b7 01       		.byte	0x1
 1839 08b8 F2       		.byte	0xf2
 1840 08b9 62020000 		.4byte	0x262
 1841 08bd A8000000 		.4byte	.LLST7
 1842 08c1 00       		.byte	0
 1843 08c2 24       		.uleb128 0x24
 1844 08c3 92050000 		.4byte	0x592
 1845 08c7 00000000 		.4byte	.LFB20
 1846 08cb 0E000000 		.4byte	.LFE20-.LFB20
 1847 08cf 01       		.uleb128 0x1
 1848 08d0 9C       		.byte	0x9c
 1849 08d1 E8080000 		.4byte	0x8e8
 1850 08d5 1A       		.uleb128 0x1a
 1851 08d6 9F050000 		.4byte	0x59f
ARM GAS  /tmp/ccXu4QZt.s 			page 34


 1852 08da C9000000 		.4byte	.LLST8
 1853 08de 1B       		.uleb128 0x1b
 1854 08df 0E000000 		.4byte	.LVL27
 1855 08e3 43090000 		.4byte	0x943
 1856 08e7 00       		.byte	0
 1857 08e8 25       		.uleb128 0x25
 1858 08e9 2B000000 		.4byte	.LASF101
 1859 08ed 08       		.byte	0x8
 1860 08ee F5       		.byte	0xf5
 1861 08ef 03040000 		.4byte	0x403
 1862 08f3 25       		.uleb128 0x25
 1863 08f4 07050000 		.4byte	.LASF102
 1864 08f8 09       		.byte	0x9
 1865 08f9 6F       		.byte	0x6f
 1866 08fa 5F040000 		.4byte	0x45f
 1867 08fe 26       		.uleb128 0x26
 1868 08ff 96030000 		.4byte	.LASF103
 1869 0903 01       		.byte	0x1
 1870 0904 DF       		.byte	0xdf
 1871 0905 87050000 		.4byte	0x587
 1872 0909 05       		.uleb128 0x5
 1873 090a 03       		.byte	0x3
 1874 090b 00000000 		.4byte	dbg_trace_buffer
 1875 090f 26       		.uleb128 0x26
 1876 0910 77020000 		.4byte	.LASF104
 1877 0914 01       		.byte	0x1
 1878 0915 45       		.byte	0x45
 1879 0916 22010000 		.4byte	0x122
 1880 091a 05       		.uleb128 0x5
 1881 091b 03       		.byte	0x3
 1882 091c 00000000 		.4byte	dbg_isr_cnt
 1883 0920 26       		.uleb128 0x26
 1884 0921 90040000 		.4byte	.LASF105
 1885 0925 01       		.byte	0x1
 1886 0926 4A       		.byte	0x4a
 1887 0927 22010000 		.4byte	0x122
 1888 092b 05       		.uleb128 0x5
 1889 092c 03       		.byte	0x3
 1890 092d 00000000 		.4byte	dbg_lock_cnt
 1891 0931 27       		.uleb128 0x27
 1892 0932 E4030000 		.4byte	.LASF106
 1893 0936 01       		.byte	0x1
 1894 0937 0801     		.2byte	0x108
 1895 0939 E1040000 		.4byte	0x4e1
 1896 093d 05       		.uleb128 0x5
 1897 093e 03       		.byte	0x3
 1898 093f 00000000 		.4byte	dbg_panic_msg
 1899 0943 28       		.uleb128 0x28
 1900 0944 D5020000 		.4byte	.LASF112
 1901 0948 07       		.byte	0x7
 1902 0949 0102     		.2byte	0x201
 1903 094b 00       		.byte	0
 1904              		.section	.debug_abbrev,"",%progbits
 1905              	.Ldebug_abbrev0:
 1906 0000 01       		.uleb128 0x1
 1907 0001 11       		.uleb128 0x11
 1908 0002 01       		.byte	0x1
ARM GAS  /tmp/ccXu4QZt.s 			page 35


 1909 0003 25       		.uleb128 0x25
 1910 0004 0E       		.uleb128 0xe
 1911 0005 13       		.uleb128 0x13
 1912 0006 0B       		.uleb128 0xb
 1913 0007 03       		.uleb128 0x3
 1914 0008 0E       		.uleb128 0xe
 1915 0009 1B       		.uleb128 0x1b
 1916 000a 0E       		.uleb128 0xe
 1917 000b 55       		.uleb128 0x55
 1918 000c 17       		.uleb128 0x17
 1919 000d 11       		.uleb128 0x11
 1920 000e 01       		.uleb128 0x1
 1921 000f 10       		.uleb128 0x10
 1922 0010 17       		.uleb128 0x17
 1923 0011 00       		.byte	0
 1924 0012 00       		.byte	0
 1925 0013 02       		.uleb128 0x2
 1926 0014 24       		.uleb128 0x24
 1927 0015 00       		.byte	0
 1928 0016 0B       		.uleb128 0xb
 1929 0017 0B       		.uleb128 0xb
 1930 0018 3E       		.uleb128 0x3e
 1931 0019 0B       		.uleb128 0xb
 1932 001a 03       		.uleb128 0x3
 1933 001b 08       		.uleb128 0x8
 1934 001c 00       		.byte	0
 1935 001d 00       		.byte	0
 1936 001e 03       		.uleb128 0x3
 1937 001f 24       		.uleb128 0x24
 1938 0020 00       		.byte	0
 1939 0021 0B       		.uleb128 0xb
 1940 0022 0B       		.uleb128 0xb
 1941 0023 3E       		.uleb128 0x3e
 1942 0024 0B       		.uleb128 0xb
 1943 0025 03       		.uleb128 0x3
 1944 0026 0E       		.uleb128 0xe
 1945 0027 00       		.byte	0
 1946 0028 00       		.byte	0
 1947 0029 04       		.uleb128 0x4
 1948 002a 16       		.uleb128 0x16
 1949 002b 00       		.byte	0
 1950 002c 03       		.uleb128 0x3
 1951 002d 0E       		.uleb128 0xe
 1952 002e 3A       		.uleb128 0x3a
 1953 002f 0B       		.uleb128 0xb
 1954 0030 3B       		.uleb128 0x3b
 1955 0031 0B       		.uleb128 0xb
 1956 0032 49       		.uleb128 0x49
 1957 0033 13       		.uleb128 0x13
 1958 0034 00       		.byte	0
 1959 0035 00       		.byte	0
 1960 0036 05       		.uleb128 0x5
 1961 0037 13       		.uleb128 0x13
 1962 0038 01       		.byte	0x1
 1963 0039 03       		.uleb128 0x3
 1964 003a 0E       		.uleb128 0xe
 1965 003b 0B       		.uleb128 0xb
ARM GAS  /tmp/ccXu4QZt.s 			page 36


 1966 003c 0B       		.uleb128 0xb
 1967 003d 3A       		.uleb128 0x3a
 1968 003e 0B       		.uleb128 0xb
 1969 003f 3B       		.uleb128 0x3b
 1970 0040 0B       		.uleb128 0xb
 1971 0041 01       		.uleb128 0x1
 1972 0042 13       		.uleb128 0x13
 1973 0043 00       		.byte	0
 1974 0044 00       		.byte	0
 1975 0045 06       		.uleb128 0x6
 1976 0046 0D       		.uleb128 0xd
 1977 0047 00       		.byte	0
 1978 0048 03       		.uleb128 0x3
 1979 0049 0E       		.uleb128 0xe
 1980 004a 3A       		.uleb128 0x3a
 1981 004b 0B       		.uleb128 0xb
 1982 004c 3B       		.uleb128 0x3b
 1983 004d 0B       		.uleb128 0xb
 1984 004e 49       		.uleb128 0x49
 1985 004f 13       		.uleb128 0x13
 1986 0050 38       		.uleb128 0x38
 1987 0051 0B       		.uleb128 0xb
 1988 0052 00       		.byte	0
 1989 0053 00       		.byte	0
 1990 0054 07       		.uleb128 0x7
 1991 0055 0D       		.uleb128 0xd
 1992 0056 00       		.byte	0
 1993 0057 03       		.uleb128 0x3
 1994 0058 08       		.uleb128 0x8
 1995 0059 3A       		.uleb128 0x3a
 1996 005a 0B       		.uleb128 0xb
 1997 005b 3B       		.uleb128 0x3b
 1998 005c 0B       		.uleb128 0xb
 1999 005d 49       		.uleb128 0x49
 2000 005e 13       		.uleb128 0x13
 2001 005f 38       		.uleb128 0x38
 2002 0060 0B       		.uleb128 0xb
 2003 0061 00       		.byte	0
 2004 0062 00       		.byte	0
 2005 0063 08       		.uleb128 0x8
 2006 0064 13       		.uleb128 0x13
 2007 0065 01       		.byte	0x1
 2008 0066 0B       		.uleb128 0xb
 2009 0067 0B       		.uleb128 0xb
 2010 0068 3A       		.uleb128 0x3a
 2011 0069 0B       		.uleb128 0xb
 2012 006a 3B       		.uleb128 0x3b
 2013 006b 0B       		.uleb128 0xb
 2014 006c 01       		.uleb128 0x1
 2015 006d 13       		.uleb128 0x13
 2016 006e 00       		.byte	0
 2017 006f 00       		.byte	0
 2018 0070 09       		.uleb128 0x9
 2019 0071 0F       		.uleb128 0xf
 2020 0072 00       		.byte	0
 2021 0073 0B       		.uleb128 0xb
 2022 0074 0B       		.uleb128 0xb
ARM GAS  /tmp/ccXu4QZt.s 			page 37


 2023 0075 49       		.uleb128 0x49
 2024 0076 13       		.uleb128 0x13
 2025 0077 00       		.byte	0
 2026 0078 00       		.byte	0
 2027 0079 0A       		.uleb128 0xa
 2028 007a 0F       		.uleb128 0xf
 2029 007b 00       		.byte	0
 2030 007c 0B       		.uleb128 0xb
 2031 007d 0B       		.uleb128 0xb
 2032 007e 00       		.byte	0
 2033 007f 00       		.byte	0
 2034 0080 0B       		.uleb128 0xb
 2035 0081 13       		.uleb128 0x13
 2036 0082 01       		.byte	0x1
 2037 0083 03       		.uleb128 0x3
 2038 0084 0E       		.uleb128 0xe
 2039 0085 0B       		.uleb128 0xb
 2040 0086 0B       		.uleb128 0xb
 2041 0087 3A       		.uleb128 0x3a
 2042 0088 0B       		.uleb128 0xb
 2043 0089 3B       		.uleb128 0x3b
 2044 008a 05       		.uleb128 0x5
 2045 008b 01       		.uleb128 0x1
 2046 008c 13       		.uleb128 0x13
 2047 008d 00       		.byte	0
 2048 008e 00       		.byte	0
 2049 008f 0C       		.uleb128 0xc
 2050 0090 0D       		.uleb128 0xd
 2051 0091 00       		.byte	0
 2052 0092 03       		.uleb128 0x3
 2053 0093 08       		.uleb128 0x8
 2054 0094 3A       		.uleb128 0x3a
 2055 0095 0B       		.uleb128 0xb
 2056 0096 3B       		.uleb128 0x3b
 2057 0097 05       		.uleb128 0x5
 2058 0098 49       		.uleb128 0x49
 2059 0099 13       		.uleb128 0x13
 2060 009a 38       		.uleb128 0x38
 2061 009b 0B       		.uleb128 0xb
 2062 009c 00       		.byte	0
 2063 009d 00       		.byte	0
 2064 009e 0D       		.uleb128 0xd
 2065 009f 15       		.uleb128 0x15
 2066 00a0 01       		.byte	0x1
 2067 00a1 27       		.uleb128 0x27
 2068 00a2 19       		.uleb128 0x19
 2069 00a3 01       		.uleb128 0x1
 2070 00a4 13       		.uleb128 0x13
 2071 00a5 00       		.byte	0
 2072 00a6 00       		.byte	0
 2073 00a7 0E       		.uleb128 0xe
 2074 00a8 05       		.uleb128 0x5
 2075 00a9 00       		.byte	0
 2076 00aa 49       		.uleb128 0x49
 2077 00ab 13       		.uleb128 0x13
 2078 00ac 00       		.byte	0
 2079 00ad 00       		.byte	0
ARM GAS  /tmp/ccXu4QZt.s 			page 38


 2080 00ae 0F       		.uleb128 0xf
 2081 00af 35       		.uleb128 0x35
 2082 00b0 00       		.byte	0
 2083 00b1 49       		.uleb128 0x49
 2084 00b2 13       		.uleb128 0x13
 2085 00b3 00       		.byte	0
 2086 00b4 00       		.byte	0
 2087 00b5 10       		.uleb128 0x10
 2088 00b6 17       		.uleb128 0x17
 2089 00b7 01       		.byte	0x1
 2090 00b8 0B       		.uleb128 0xb
 2091 00b9 0B       		.uleb128 0xb
 2092 00ba 3A       		.uleb128 0x3a
 2093 00bb 0B       		.uleb128 0xb
 2094 00bc 3B       		.uleb128 0x3b
 2095 00bd 0B       		.uleb128 0xb
 2096 00be 01       		.uleb128 0x1
 2097 00bf 13       		.uleb128 0x13
 2098 00c0 00       		.byte	0
 2099 00c1 00       		.byte	0
 2100 00c2 11       		.uleb128 0x11
 2101 00c3 0D       		.uleb128 0xd
 2102 00c4 00       		.byte	0
 2103 00c5 03       		.uleb128 0x3
 2104 00c6 0E       		.uleb128 0xe
 2105 00c7 3A       		.uleb128 0x3a
 2106 00c8 0B       		.uleb128 0xb
 2107 00c9 3B       		.uleb128 0x3b
 2108 00ca 0B       		.uleb128 0xb
 2109 00cb 49       		.uleb128 0x49
 2110 00cc 13       		.uleb128 0x13
 2111 00cd 00       		.byte	0
 2112 00ce 00       		.byte	0
 2113 00cf 12       		.uleb128 0x12
 2114 00d0 26       		.uleb128 0x26
 2115 00d1 00       		.byte	0
 2116 00d2 49       		.uleb128 0x49
 2117 00d3 13       		.uleb128 0x13
 2118 00d4 00       		.byte	0
 2119 00d5 00       		.byte	0
 2120 00d6 13       		.uleb128 0x13
 2121 00d7 13       		.uleb128 0x13
 2122 00d8 01       		.byte	0x1
 2123 00d9 0B       		.uleb128 0xb
 2124 00da 05       		.uleb128 0x5
 2125 00db 3A       		.uleb128 0x3a
 2126 00dc 0B       		.uleb128 0xb
 2127 00dd 3B       		.uleb128 0x3b
 2128 00de 0B       		.uleb128 0xb
 2129 00df 01       		.uleb128 0x1
 2130 00e0 13       		.uleb128 0x13
 2131 00e1 00       		.byte	0
 2132 00e2 00       		.byte	0
 2133 00e3 14       		.uleb128 0x14
 2134 00e4 01       		.uleb128 0x1
 2135 00e5 01       		.byte	0x1
 2136 00e6 49       		.uleb128 0x49
ARM GAS  /tmp/ccXu4QZt.s 			page 39


 2137 00e7 13       		.uleb128 0x13
 2138 00e8 01       		.uleb128 0x1
 2139 00e9 13       		.uleb128 0x13
 2140 00ea 00       		.byte	0
 2141 00eb 00       		.byte	0
 2142 00ec 15       		.uleb128 0x15
 2143 00ed 21       		.uleb128 0x21
 2144 00ee 00       		.byte	0
 2145 00ef 49       		.uleb128 0x49
 2146 00f0 13       		.uleb128 0x13
 2147 00f1 2F       		.uleb128 0x2f
 2148 00f2 0B       		.uleb128 0xb
 2149 00f3 00       		.byte	0
 2150 00f4 00       		.byte	0
 2151 00f5 16       		.uleb128 0x16
 2152 00f6 2E       		.uleb128 0x2e
 2153 00f7 01       		.byte	0x1
 2154 00f8 3F       		.uleb128 0x3f
 2155 00f9 19       		.uleb128 0x19
 2156 00fa 03       		.uleb128 0x3
 2157 00fb 0E       		.uleb128 0xe
 2158 00fc 3A       		.uleb128 0x3a
 2159 00fd 0B       		.uleb128 0xb
 2160 00fe 3B       		.uleb128 0x3b
 2161 00ff 05       		.uleb128 0x5
 2162 0100 27       		.uleb128 0x27
 2163 0101 19       		.uleb128 0x19
 2164 0102 20       		.uleb128 0x20
 2165 0103 0B       		.uleb128 0xb
 2166 0104 01       		.uleb128 0x1
 2167 0105 13       		.uleb128 0x13
 2168 0106 00       		.byte	0
 2169 0107 00       		.byte	0
 2170 0108 17       		.uleb128 0x17
 2171 0109 05       		.uleb128 0x5
 2172 010a 00       		.byte	0
 2173 010b 03       		.uleb128 0x3
 2174 010c 08       		.uleb128 0x8
 2175 010d 3A       		.uleb128 0x3a
 2176 010e 0B       		.uleb128 0xb
 2177 010f 3B       		.uleb128 0x3b
 2178 0110 05       		.uleb128 0x5
 2179 0111 49       		.uleb128 0x49
 2180 0112 13       		.uleb128 0x13
 2181 0113 00       		.byte	0
 2182 0114 00       		.byte	0
 2183 0115 18       		.uleb128 0x18
 2184 0116 2E       		.uleb128 0x2e
 2185 0117 01       		.byte	0x1
 2186 0118 3F       		.uleb128 0x3f
 2187 0119 19       		.uleb128 0x19
 2188 011a 03       		.uleb128 0x3
 2189 011b 0E       		.uleb128 0xe
 2190 011c 3A       		.uleb128 0x3a
 2191 011d 0B       		.uleb128 0xb
 2192 011e 3B       		.uleb128 0x3b
 2193 011f 0B       		.uleb128 0xb
ARM GAS  /tmp/ccXu4QZt.s 			page 40


 2194 0120 27       		.uleb128 0x27
 2195 0121 19       		.uleb128 0x19
 2196 0122 11       		.uleb128 0x11
 2197 0123 01       		.uleb128 0x1
 2198 0124 12       		.uleb128 0x12
 2199 0125 06       		.uleb128 0x6
 2200 0126 40       		.uleb128 0x40
 2201 0127 18       		.uleb128 0x18
 2202 0128 9742     		.uleb128 0x2117
 2203 012a 19       		.uleb128 0x19
 2204 012b 01       		.uleb128 0x1
 2205 012c 13       		.uleb128 0x13
 2206 012d 00       		.byte	0
 2207 012e 00       		.byte	0
 2208 012f 19       		.uleb128 0x19
 2209 0130 1D       		.uleb128 0x1d
 2210 0131 01       		.byte	0x1
 2211 0132 31       		.uleb128 0x31
 2212 0133 13       		.uleb128 0x13
 2213 0134 11       		.uleb128 0x11
 2214 0135 01       		.uleb128 0x1
 2215 0136 12       		.uleb128 0x12
 2216 0137 06       		.uleb128 0x6
 2217 0138 58       		.uleb128 0x58
 2218 0139 0B       		.uleb128 0xb
 2219 013a 59       		.uleb128 0x59
 2220 013b 0B       		.uleb128 0xb
 2221 013c 00       		.byte	0
 2222 013d 00       		.byte	0
 2223 013e 1A       		.uleb128 0x1a
 2224 013f 05       		.uleb128 0x5
 2225 0140 00       		.byte	0
 2226 0141 31       		.uleb128 0x31
 2227 0142 13       		.uleb128 0x13
 2228 0143 02       		.uleb128 0x2
 2229 0144 17       		.uleb128 0x17
 2230 0145 00       		.byte	0
 2231 0146 00       		.byte	0
 2232 0147 1B       		.uleb128 0x1b
 2233 0148 898201   		.uleb128 0x4109
 2234 014b 00       		.byte	0
 2235 014c 11       		.uleb128 0x11
 2236 014d 01       		.uleb128 0x1
 2237 014e 9542     		.uleb128 0x2115
 2238 0150 19       		.uleb128 0x19
 2239 0151 31       		.uleb128 0x31
 2240 0152 13       		.uleb128 0x13
 2241 0153 00       		.byte	0
 2242 0154 00       		.byte	0
 2243 0155 1C       		.uleb128 0x1c
 2244 0156 898201   		.uleb128 0x4109
 2245 0159 00       		.byte	0
 2246 015a 11       		.uleb128 0x11
 2247 015b 01       		.uleb128 0x1
 2248 015c 31       		.uleb128 0x31
 2249 015d 13       		.uleb128 0x13
 2250 015e 00       		.byte	0
ARM GAS  /tmp/ccXu4QZt.s 			page 41


 2251 015f 00       		.byte	0
 2252 0160 1D       		.uleb128 0x1d
 2253 0161 05       		.uleb128 0x5
 2254 0162 00       		.byte	0
 2255 0163 31       		.uleb128 0x31
 2256 0164 13       		.uleb128 0x13
 2257 0165 02       		.uleb128 0x2
 2258 0166 18       		.uleb128 0x18
 2259 0167 00       		.byte	0
 2260 0168 00       		.byte	0
 2261 0169 1E       		.uleb128 0x1e
 2262 016a 0B       		.uleb128 0xb
 2263 016b 01       		.byte	0x1
 2264 016c 11       		.uleb128 0x11
 2265 016d 01       		.uleb128 0x1
 2266 016e 12       		.uleb128 0x12
 2267 016f 06       		.uleb128 0x6
 2268 0170 01       		.uleb128 0x1
 2269 0171 13       		.uleb128 0x13
 2270 0172 00       		.byte	0
 2271 0173 00       		.byte	0
 2272 0174 1F       		.uleb128 0x1f
 2273 0175 34       		.uleb128 0x34
 2274 0176 00       		.byte	0
 2275 0177 03       		.uleb128 0x3
 2276 0178 08       		.uleb128 0x8
 2277 0179 3A       		.uleb128 0x3a
 2278 017a 0B       		.uleb128 0xb
 2279 017b 3B       		.uleb128 0x3b
 2280 017c 0B       		.uleb128 0xb
 2281 017d 49       		.uleb128 0x49
 2282 017e 13       		.uleb128 0x13
 2283 017f 02       		.uleb128 0x2
 2284 0180 18       		.uleb128 0x18
 2285 0181 00       		.byte	0
 2286 0182 00       		.byte	0
 2287 0183 20       		.uleb128 0x20
 2288 0184 1D       		.uleb128 0x1d
 2289 0185 01       		.byte	0x1
 2290 0186 31       		.uleb128 0x31
 2291 0187 13       		.uleb128 0x13
 2292 0188 11       		.uleb128 0x11
 2293 0189 01       		.uleb128 0x1
 2294 018a 12       		.uleb128 0x12
 2295 018b 06       		.uleb128 0x6
 2296 018c 58       		.uleb128 0x58
 2297 018d 0B       		.uleb128 0xb
 2298 018e 59       		.uleb128 0x59
 2299 018f 0B       		.uleb128 0xb
 2300 0190 01       		.uleb128 0x1
 2301 0191 13       		.uleb128 0x13
 2302 0192 00       		.byte	0
 2303 0193 00       		.byte	0
 2304 0194 21       		.uleb128 0x21
 2305 0195 0B       		.uleb128 0xb
 2306 0196 01       		.byte	0x1
 2307 0197 11       		.uleb128 0x11
ARM GAS  /tmp/ccXu4QZt.s 			page 42


 2308 0198 01       		.uleb128 0x1
 2309 0199 12       		.uleb128 0x12
 2310 019a 06       		.uleb128 0x6
 2311 019b 00       		.byte	0
 2312 019c 00       		.byte	0
 2313 019d 22       		.uleb128 0x22
 2314 019e 2E       		.uleb128 0x2e
 2315 019f 00       		.byte	0
 2316 01a0 3F       		.uleb128 0x3f
 2317 01a1 19       		.uleb128 0x19
 2318 01a2 03       		.uleb128 0x3
 2319 01a3 0E       		.uleb128 0xe
 2320 01a4 3A       		.uleb128 0x3a
 2321 01a5 0B       		.uleb128 0xb
 2322 01a6 3B       		.uleb128 0x3b
 2323 01a7 0B       		.uleb128 0xb
 2324 01a8 27       		.uleb128 0x27
 2325 01a9 19       		.uleb128 0x19
 2326 01aa 11       		.uleb128 0x11
 2327 01ab 01       		.uleb128 0x1
 2328 01ac 12       		.uleb128 0x12
 2329 01ad 06       		.uleb128 0x6
 2330 01ae 40       		.uleb128 0x40
 2331 01af 18       		.uleb128 0x18
 2332 01b0 9742     		.uleb128 0x2117
 2333 01b2 19       		.uleb128 0x19
 2334 01b3 00       		.byte	0
 2335 01b4 00       		.byte	0
 2336 01b5 23       		.uleb128 0x23
 2337 01b6 05       		.uleb128 0x5
 2338 01b7 00       		.byte	0
 2339 01b8 03       		.uleb128 0x3
 2340 01b9 08       		.uleb128 0x8
 2341 01ba 3A       		.uleb128 0x3a
 2342 01bb 0B       		.uleb128 0xb
 2343 01bc 3B       		.uleb128 0x3b
 2344 01bd 0B       		.uleb128 0xb
 2345 01be 49       		.uleb128 0x49
 2346 01bf 13       		.uleb128 0x13
 2347 01c0 02       		.uleb128 0x2
 2348 01c1 17       		.uleb128 0x17
 2349 01c2 00       		.byte	0
 2350 01c3 00       		.byte	0
 2351 01c4 24       		.uleb128 0x24
 2352 01c5 2E       		.uleb128 0x2e
 2353 01c6 01       		.byte	0x1
 2354 01c7 31       		.uleb128 0x31
 2355 01c8 13       		.uleb128 0x13
 2356 01c9 11       		.uleb128 0x11
 2357 01ca 01       		.uleb128 0x1
 2358 01cb 12       		.uleb128 0x12
 2359 01cc 06       		.uleb128 0x6
 2360 01cd 40       		.uleb128 0x40
 2361 01ce 18       		.uleb128 0x18
 2362 01cf 9742     		.uleb128 0x2117
 2363 01d1 19       		.uleb128 0x19
 2364 01d2 01       		.uleb128 0x1
ARM GAS  /tmp/ccXu4QZt.s 			page 43


 2365 01d3 13       		.uleb128 0x13
 2366 01d4 00       		.byte	0
 2367 01d5 00       		.byte	0
 2368 01d6 25       		.uleb128 0x25
 2369 01d7 34       		.uleb128 0x34
 2370 01d8 00       		.byte	0
 2371 01d9 03       		.uleb128 0x3
 2372 01da 0E       		.uleb128 0xe
 2373 01db 3A       		.uleb128 0x3a
 2374 01dc 0B       		.uleb128 0xb
 2375 01dd 3B       		.uleb128 0x3b
 2376 01de 0B       		.uleb128 0xb
 2377 01df 49       		.uleb128 0x49
 2378 01e0 13       		.uleb128 0x13
 2379 01e1 3F       		.uleb128 0x3f
 2380 01e2 19       		.uleb128 0x19
 2381 01e3 3C       		.uleb128 0x3c
 2382 01e4 19       		.uleb128 0x19
 2383 01e5 00       		.byte	0
 2384 01e6 00       		.byte	0
 2385 01e7 26       		.uleb128 0x26
 2386 01e8 34       		.uleb128 0x34
 2387 01e9 00       		.byte	0
 2388 01ea 03       		.uleb128 0x3
 2389 01eb 0E       		.uleb128 0xe
 2390 01ec 3A       		.uleb128 0x3a
 2391 01ed 0B       		.uleb128 0xb
 2392 01ee 3B       		.uleb128 0x3b
 2393 01ef 0B       		.uleb128 0xb
 2394 01f0 49       		.uleb128 0x49
 2395 01f1 13       		.uleb128 0x13
 2396 01f2 3F       		.uleb128 0x3f
 2397 01f3 19       		.uleb128 0x19
 2398 01f4 02       		.uleb128 0x2
 2399 01f5 18       		.uleb128 0x18
 2400 01f6 00       		.byte	0
 2401 01f7 00       		.byte	0
 2402 01f8 27       		.uleb128 0x27
 2403 01f9 34       		.uleb128 0x34
 2404 01fa 00       		.byte	0
 2405 01fb 03       		.uleb128 0x3
 2406 01fc 0E       		.uleb128 0xe
 2407 01fd 3A       		.uleb128 0x3a
 2408 01fe 0B       		.uleb128 0xb
 2409 01ff 3B       		.uleb128 0x3b
 2410 0200 05       		.uleb128 0x5
 2411 0201 49       		.uleb128 0x49
 2412 0202 13       		.uleb128 0x13
 2413 0203 3F       		.uleb128 0x3f
 2414 0204 19       		.uleb128 0x19
 2415 0205 02       		.uleb128 0x2
 2416 0206 18       		.uleb128 0x18
 2417 0207 00       		.byte	0
 2418 0208 00       		.byte	0
 2419 0209 28       		.uleb128 0x28
 2420 020a 2E       		.uleb128 0x2e
 2421 020b 00       		.byte	0
ARM GAS  /tmp/ccXu4QZt.s 			page 44


 2422 020c 3F       		.uleb128 0x3f
 2423 020d 19       		.uleb128 0x19
 2424 020e 03       		.uleb128 0x3
 2425 020f 0E       		.uleb128 0xe
 2426 0210 3A       		.uleb128 0x3a
 2427 0211 0B       		.uleb128 0xb
 2428 0212 3B       		.uleb128 0x3b
 2429 0213 05       		.uleb128 0x5
 2430 0214 27       		.uleb128 0x27
 2431 0215 19       		.uleb128 0x19
 2432 0216 3C       		.uleb128 0x3c
 2433 0217 19       		.uleb128 0x19
 2434 0218 00       		.byte	0
 2435 0219 00       		.byte	0
 2436 021a 00       		.byte	0
 2437              		.section	.debug_loc,"",%progbits
 2438              	.Ldebug_loc0:
 2439              	.LLST0:
 2440 0000 18000000 		.4byte	.LVL0
 2441 0004 2E000000 		.4byte	.LVL1
 2442 0008 0600     		.2byte	0x6
 2443 000a 03       		.byte	0x3
 2444 000b 00000000 		.4byte	.LC0
 2445 000f 9F       		.byte	0x9f
 2446 0010 00000000 		.4byte	0
 2447 0014 00000000 		.4byte	0
 2448              	.LLST1:
 2449 0018 18000000 		.4byte	.LVL2
 2450 001c 2E000000 		.4byte	.LVL3
 2451 0020 0600     		.2byte	0x6
 2452 0022 03       		.byte	0x3
 2453 0023 08000000 		.4byte	.LC1
 2454 0027 9F       		.byte	0x9f
 2455 0028 00000000 		.4byte	0
 2456 002c 00000000 		.4byte	0
 2457              	.LLST2:
 2458 0030 18000000 		.4byte	.LVL4
 2459 0034 2E000000 		.4byte	.LVL5
 2460 0038 0600     		.2byte	0x6
 2461 003a 03       		.byte	0x3
 2462 003b 10000000 		.4byte	.LC2
 2463 003f 9F       		.byte	0x9f
 2464 0040 00000000 		.4byte	0
 2465 0044 00000000 		.4byte	0
 2466              	.LLST3:
 2467 0048 1A000000 		.4byte	.LVL6
 2468 004c 30000000 		.4byte	.LVL7
 2469 0050 0600     		.2byte	0x6
 2470 0052 03       		.byte	0x3
 2471 0053 18000000 		.4byte	.LC3
 2472 0057 9F       		.byte	0x9f
 2473 0058 00000000 		.4byte	0
 2474 005c 00000000 		.4byte	0
 2475              	.LLST4:
 2476 0060 1C000000 		.4byte	.LVL10
 2477 0064 32000000 		.4byte	.LVL11
 2478 0068 0600     		.2byte	0x6
ARM GAS  /tmp/ccXu4QZt.s 			page 45


 2479 006a 03       		.byte	0x3
 2480 006b 28000000 		.4byte	.LC5
 2481 006f 9F       		.byte	0x9f
 2482 0070 00000000 		.4byte	0
 2483 0074 00000000 		.4byte	0
 2484              	.LLST5:
 2485 0078 22000000 		.4byte	.LVL14
 2486 007c 3A000000 		.4byte	.LVL16
 2487 0080 0600     		.2byte	0x6
 2488 0082 03       		.byte	0x3
 2489 0083 38000000 		.4byte	.LC7
 2490 0087 9F       		.byte	0x9f
 2491 0088 00000000 		.4byte	0
 2492 008c 00000000 		.4byte	0
 2493              	.LLST6:
 2494 0090 22000000 		.4byte	.LVL17
 2495 0094 3A000000 		.4byte	.LVL19
 2496 0098 0600     		.2byte	0x6
 2497 009a 03       		.byte	0x3
 2498 009b 40000000 		.4byte	.LC8
 2499 009f 9F       		.byte	0x9f
 2500 00a0 00000000 		.4byte	0
 2501 00a4 00000000 		.4byte	0
 2502              	.LLST7:
 2503 00a8 00000000 		.4byte	.LVL24
 2504 00ac 34000000 		.4byte	.LVL25
 2505 00b0 0100     		.2byte	0x1
 2506 00b2 50       		.byte	0x50
 2507 00b3 34000000 		.4byte	.LVL25
 2508 00b7 48000000 		.4byte	.LFE19
 2509 00bb 0400     		.2byte	0x4
 2510 00bd F3       		.byte	0xf3
 2511 00be 01       		.uleb128 0x1
 2512 00bf 50       		.byte	0x50
 2513 00c0 9F       		.byte	0x9f
 2514 00c1 00000000 		.4byte	0
 2515 00c5 00000000 		.4byte	0
 2516              	.LLST8:
 2517 00c9 00000000 		.4byte	.LVL26
 2518 00cd 0D000000 		.4byte	.LVL27-1
 2519 00d1 0100     		.2byte	0x1
 2520 00d3 50       		.byte	0x50
 2521 00d4 0D000000 		.4byte	.LVL27-1
 2522 00d8 0E000000 		.4byte	.LFE20
 2523 00dc 0400     		.2byte	0x4
 2524 00de F3       		.byte	0xf3
 2525 00df 01       		.uleb128 0x1
 2526 00e0 50       		.byte	0x50
 2527 00e1 9F       		.byte	0x9f
 2528 00e2 00000000 		.4byte	0
 2529 00e6 00000000 		.4byte	0
 2530              		.section	.debug_aranges,"",%progbits
 2531 0000 84000000 		.4byte	0x84
 2532 0004 0200     		.2byte	0x2
 2533 0006 00000000 		.4byte	.Ldebug_info0
 2534 000a 04       		.byte	0x4
 2535 000b 00       		.byte	0
ARM GAS  /tmp/ccXu4QZt.s 			page 46


 2536 000c 0000     		.2byte	0
 2537 000e 0000     		.2byte	0
 2538 0010 00000000 		.4byte	.LFB7
 2539 0014 30000000 		.4byte	.LFE7-.LFB7
 2540 0018 00000000 		.4byte	.LFB8
 2541 001c 30000000 		.4byte	.LFE8-.LFB8
 2542 0020 00000000 		.4byte	.LFB9
 2543 0024 30000000 		.4byte	.LFE9-.LFB9
 2544 0028 00000000 		.4byte	.LFB10
 2545 002c 36000000 		.4byte	.LFE10-.LFB10
 2546 0030 00000000 		.4byte	.LFB11
 2547 0034 3E000000 		.4byte	.LFE11-.LFB11
 2548 0038 00000000 		.4byte	.LFB12
 2549 003c 38000000 		.4byte	.LFE12-.LFB12
 2550 0040 00000000 		.4byte	.LFB13
 2551 0044 40000000 		.4byte	.LFE13-.LFB13
 2552 0048 00000000 		.4byte	.LFB14
 2553 004c 46000000 		.4byte	.LFE14-.LFB14
 2554 0050 00000000 		.4byte	.LFB15
 2555 0054 46000000 		.4byte	.LFE15-.LFB15
 2556 0058 00000000 		.4byte	.LFB16
 2557 005c 34000000 		.4byte	.LFE16-.LFB16
 2558 0060 00000000 		.4byte	.LFB17
 2559 0064 32000000 		.4byte	.LFE17-.LFB17
 2560 0068 00000000 		.4byte	.LFB18
 2561 006c 14000000 		.4byte	.LFE18-.LFB18
 2562 0070 00000000 		.4byte	.LFB19
 2563 0074 48000000 		.4byte	.LFE19-.LFB19
 2564 0078 00000000 		.4byte	.LFB20
 2565 007c 0E000000 		.4byte	.LFE20-.LFB20
 2566 0080 00000000 		.4byte	0
 2567 0084 00000000 		.4byte	0
 2568              		.section	.debug_ranges,"",%progbits
 2569              	.Ldebug_ranges0:
 2570 0000 00000000 		.4byte	.LFB7
 2571 0004 30000000 		.4byte	.LFE7
 2572 0008 00000000 		.4byte	.LFB8
 2573 000c 30000000 		.4byte	.LFE8
 2574 0010 00000000 		.4byte	.LFB9
 2575 0014 30000000 		.4byte	.LFE9
 2576 0018 00000000 		.4byte	.LFB10
 2577 001c 36000000 		.4byte	.LFE10
 2578 0020 00000000 		.4byte	.LFB11
 2579 0024 3E000000 		.4byte	.LFE11
 2580 0028 00000000 		.4byte	.LFB12
 2581 002c 38000000 		.4byte	.LFE12
 2582 0030 00000000 		.4byte	.LFB13
 2583 0034 40000000 		.4byte	.LFE13
 2584 0038 00000000 		.4byte	.LFB14
 2585 003c 46000000 		.4byte	.LFE14
 2586 0040 00000000 		.4byte	.LFB15
 2587 0044 46000000 		.4byte	.LFE15
 2588 0048 00000000 		.4byte	.LFB16
 2589 004c 34000000 		.4byte	.LFE16
 2590 0050 00000000 		.4byte	.LFB17
 2591 0054 32000000 		.4byte	.LFE17
 2592 0058 00000000 		.4byte	.LFB18
ARM GAS  /tmp/ccXu4QZt.s 			page 47


 2593 005c 14000000 		.4byte	.LFE18
 2594 0060 00000000 		.4byte	.LFB19
 2595 0064 48000000 		.4byte	.LFE19
 2596 0068 00000000 		.4byte	.LFB20
 2597 006c 0E000000 		.4byte	.LFE20
 2598 0070 00000000 		.4byte	0
 2599 0074 00000000 		.4byte	0
 2600              		.section	.debug_line,"",%progbits
 2601              	.Ldebug_line0:
 2602 0000 D5020000 		.section	.debug_str,"MS",%progbits,1
 2602      02002601 
 2602      00000201 
 2602      FB0E0D00 
 2602      01010101 
 2603              	.LASF43:
 2604 0000 705F6D73 		.ascii	"p_msg\000"
 2604      6700
 2605              	.LASF110:
 2606 0006 63684462 		.ascii	"chDbgPanic\000"
 2606      6750616E 
 2606      696300
 2607              	.LASF75:
 2608 0011 7264796D 		.ascii	"rdymsg\000"
 2608      736700
 2609              	.LASF16:
 2610 0018 75696E74 		.ascii	"uint64_t\000"
 2610      36345F74 
 2610      00
 2611              	.LASF5:
 2612 0021 5F5F7569 		.ascii	"__uint8_t\000"
 2612      6E74385F 
 2612      7400
 2613              	.LASF101:
 2614 002b 76746C69 		.ascii	"vtlist\000"
 2614      737400
 2615              	.LASF107:
 2616 0032 474E5520 		.ascii	"GNU C 4.8.2 -mcpu=cortex-m4 -mno-thumb-interwork -m"
 2616      4320342E 
 2616      382E3220 
 2616      2D6D6370 
 2616      753D636F 
 2617 0065 7468756D 		.ascii	"thumb -ggdb -O2 -fomit-frame-pointer -falign-functi"
 2617      62202D67 
 2617      67646220 
 2617      2D4F3220 
 2617      2D666F6D 
 2618 0098 6F6E733D 		.ascii	"ons=16 -ffunction-sections -fdata-sections -fno-com"
 2618      3136202D 
 2618      6666756E 
 2618      6374696F 
 2618      6E2D7365 
 2619 00cb 6D6F6E00 		.ascii	"mon\000"
 2620              	.LASF12:
 2621 00cf 6C6F6E67 		.ascii	"long long unsigned int\000"
 2621      206C6F6E 
 2621      6720756E 
 2621      7369676E 
ARM GAS  /tmp/ccXu4QZt.s 			page 48


 2621      65642069 
 2622              	.LASF88:
 2623 00e6 63685F74 		.ascii	"ch_trace_buffer_t\000"
 2623      72616365 
 2623      5F627566 
 2623      6665725F 
 2623      7400
 2624              	.LASF83:
 2625 00f8 73655F73 		.ascii	"se_state\000"
 2625      74617465 
 2625      00
 2626              	.LASF76:
 2627 0101 65786974 		.ascii	"exitcode\000"
 2627      636F6465 
 2627      00
 2628              	.LASF30:
 2629 010a 705F7072 		.ascii	"p_prio\000"
 2629      696F00
 2630              	.LASF10:
 2631 0111 6C6F6E67 		.ascii	"long long int\000"
 2631      206C6F6E 
 2631      6720696E 
 2631      7400
 2632              	.LASF1:
 2633 011f 7369676E 		.ascii	"signed char\000"
 2633      65642063 
 2633      68617200 
 2634              	.LASF95:
 2635 012b 6462675F 		.ascii	"dbg_check_unlock_from_isr\000"
 2635      63686563 
 2635      6B5F756E 
 2635      6C6F636B 
 2635      5F66726F 
 2636              	.LASF47:
 2637 0145 705F6D70 		.ascii	"p_mpool\000"
 2637      6F6F6C00 
 2638              	.LASF72:
 2639 014d 6D5F7175 		.ascii	"m_queue\000"
 2639      65756500 
 2640              	.LASF21:
 2641 0155 74736C69 		.ascii	"tslices_t\000"
 2641      6365735F 
 2641      7400
 2642              	.LASF7:
 2643 015f 6C6F6E67 		.ascii	"long int\000"
 2643      20696E74 
 2643      00
 2644              	.LASF19:
 2645 0168 74737461 		.ascii	"tstate_t\000"
 2645      74655F74 
 2645      00
 2646              	.LASF81:
 2647 0171 73655F74 		.ascii	"se_tp\000"
 2647      7000
 2648              	.LASF32:
 2649 0177 705F6E65 		.ascii	"p_newer\000"
 2649      77657200 
ARM GAS  /tmp/ccXu4QZt.s 			page 49


 2650              	.LASF85:
 2651 017f 74625F73 		.ascii	"tb_size\000"
 2651      697A6500 
 2652              	.LASF8:
 2653 0187 5F5F7569 		.ascii	"__uint32_t\000"
 2653      6E743332 
 2653      5F7400
 2654              	.LASF50:
 2655 0192 72656761 		.ascii	"regarm_t\000"
 2655      726D5F74 
 2655      00
 2656              	.LASF58:
 2657 019b 76745F70 		.ascii	"vt_prev\000"
 2657      72657600 
 2658              	.LASF80:
 2659 01a3 73655F74 		.ascii	"se_time\000"
 2659      696D6500 
 2660              	.LASF26:
 2661 01ab 636E745F 		.ascii	"cnt_t\000"
 2661      7400
 2662              	.LASF35:
 2663 01b1 705F7374 		.ascii	"p_stklimit\000"
 2663      6B6C696D 
 2663      697400
 2664              	.LASF0:
 2665 01bc 756E7369 		.ascii	"unsigned int\000"
 2665      676E6564 
 2665      20696E74 
 2665      00
 2666              	.LASF57:
 2667 01c9 76745F6E 		.ascii	"vt_next\000"
 2667      65787400 
 2668              	.LASF100:
 2669 01d1 6462675F 		.ascii	"dbg_trace\000"
 2669      74726163 
 2669      6500
 2670              	.LASF9:
 2671 01db 6C6F6E67 		.ascii	"long unsigned int\000"
 2671      20756E73 
 2671      69676E65 
 2671      6420696E 
 2671      7400
 2672              	.LASF55:
 2673 01ed 76746675 		.ascii	"vtfunc_t\000"
 2673      6E635F74 
 2673      00
 2674              	.LASF90:
 2675 01f6 6462675F 		.ascii	"dbg_check_suspend\000"
 2675      63686563 
 2675      6B5F7375 
 2675      7370656E 
 2675      6400
 2676              	.LASF53:
 2677 0208 636F6E74 		.ascii	"context\000"
 2677      65787400 
 2678              	.LASF4:
 2679 0210 73686F72 		.ascii	"short unsigned int\000"
ARM GAS  /tmp/ccXu4QZt.s 			page 50


 2679      7420756E 
 2679      7369676E 
 2679      65642069 
 2679      6E7400
 2680              	.LASF111:
 2681 0223 5F747261 		.ascii	"_trace_init\000"
 2681      63655F69 
 2681      6E697400 
 2682              	.LASF23:
 2683 022f 6D73675F 		.ascii	"msg_t\000"
 2683      7400
 2684              	.LASF67:
 2685 0235 725F6E65 		.ascii	"r_newer\000"
 2685      77657200 
 2686              	.LASF98:
 2687 023d 63684462 		.ascii	"chDbgCheckClassI\000"
 2687      67436865 
 2687      636B436C 
 2687      61737349 
 2687      00
 2688              	.LASF18:
 2689 024e 746D6F64 		.ascii	"tmode_t\000"
 2689      655F7400 
 2690              	.LASF108:
 2691 0256 2E2E2F2E 		.ascii	"../../../os/kernel/src/chdebug.c\000"
 2691      2E2F2E2E 
 2691      2F6F732F 
 2691      6B65726E 
 2691      656C2F73 
 2692              	.LASF104:
 2693 0277 6462675F 		.ascii	"dbg_isr_cnt\000"
 2693      6973725F 
 2693      636E7400 
 2694              	.LASF99:
 2695 0283 63684462 		.ascii	"chDbgCheckClassS\000"
 2695      67436865 
 2695      636B436C 
 2695      61737353 
 2695      00
 2696              	.LASF49:
 2697 0294 54687265 		.ascii	"ThreadsList\000"
 2697      6164734C 
 2697      69737400 
 2698              	.LASF24:
 2699 02a0 6576656E 		.ascii	"eventmask_t\000"
 2699      746D6173 
 2699      6B5F7400 
 2700              	.LASF71:
 2701 02ac 4D757465 		.ascii	"Mutex\000"
 2701      7800
 2702              	.LASF51:
 2703 02b2 73746B61 		.ascii	"stkalign_t\000"
 2703      6C69676E 
 2703      5F7400
 2704              	.LASF59:
 2705 02bd 76745F74 		.ascii	"vt_time\000"
 2705      696D6500 
ARM GAS  /tmp/ccXu4QZt.s 			page 51


 2706              	.LASF86:
 2707 02c5 74625F70 		.ascii	"tb_ptr\000"
 2707      747200
 2708              	.LASF54:
 2709 02cc 73697A65 		.ascii	"sizetype\000"
 2709      74797065 
 2709      00
 2710              	.LASF112:
 2711 02d5 706F7274 		.ascii	"port_halt\000"
 2711      5F68616C 
 2711      7400
 2712              	.LASF60:
 2713 02df 76745F66 		.ascii	"vt_func\000"
 2713      756E6300 
 2714              	.LASF92:
 2715 02e7 6462675F 		.ascii	"dbg_check_lock\000"
 2715      63686563 
 2715      6B5F6C6F 
 2715      636B00
 2716              	.LASF84:
 2717 02f6 63685F73 		.ascii	"ch_swc_event_t\000"
 2717      77635F65 
 2717      76656E74 
 2717      5F7400
 2718              	.LASF33:
 2719 0305 705F6F6C 		.ascii	"p_older\000"
 2719      64657200 
 2720              	.LASF66:
 2721 030d 725F6374 		.ascii	"r_ctx\000"
 2721      7800
 2722              	.LASF48:
 2723 0313 54687265 		.ascii	"ThreadsQueue\000"
 2723      61647351 
 2723      75657565 
 2723      00
 2724              	.LASF109:
 2725 0320 2F686F6D 		.ascii	"/home/mo/ARMProjects/ChibiOS_Sample/ChibiOS_2.6.5/t"
 2725      652F6D6F 
 2725      2F41524D 
 2725      50726F6A 
 2725      65637473 
 2726 0353 65737468 		.ascii	"esthal/STM32F4xx/ADC\000"
 2726      616C2F53 
 2726      544D3332 
 2726      46347878 
 2726      2F414443 
 2727              	.LASF69:
 2728 0368 725F6375 		.ascii	"r_current\000"
 2728      7272656E 
 2728      7400
 2729              	.LASF68:
 2730 0372 725F6F6C 		.ascii	"r_older\000"
 2730      64657200 
 2731              	.LASF93:
 2732 037a 6462675F 		.ascii	"dbg_check_unlock\000"
 2732      63686563 
 2732      6B5F756E 
ARM GAS  /tmp/ccXu4QZt.s 			page 52


 2732      6C6F636B 
 2732      00
 2733              	.LASF11:
 2734 038b 5F5F7569 		.ascii	"__uint64_t\000"
 2734      6E743634 
 2734      5F7400
 2735              	.LASF103:
 2736 0396 6462675F 		.ascii	"dbg_trace_buffer\000"
 2736      74726163 
 2736      655F6275 
 2736      66666572 
 2736      00
 2737              	.LASF20:
 2738 03a7 74726566 		.ascii	"trefs_t\000"
 2738      735F7400 
 2739              	.LASF87:
 2740 03af 74625F62 		.ascii	"tb_buffer\000"
 2740      75666665 
 2740      7200
 2741              	.LASF29:
 2742 03b9 705F7072 		.ascii	"p_prev\000"
 2742      657600
 2743              	.LASF22:
 2744 03c0 74707269 		.ascii	"tprio_t\000"
 2744      6F5F7400 
 2745              	.LASF17:
 2746 03c8 5F426F6F 		.ascii	"_Bool\000"
 2746      6C00
 2747              	.LASF14:
 2748 03ce 696E7433 		.ascii	"int32_t\000"
 2748      325F7400 
 2749              	.LASF2:
 2750 03d6 756E7369 		.ascii	"unsigned char\000"
 2750      676E6564 
 2750      20636861 
 2750      7200
 2751              	.LASF106:
 2752 03e4 6462675F 		.ascii	"dbg_panic_msg\000"
 2752      70616E69 
 2752      635F6D73 
 2752      6700
 2753              	.LASF45:
 2754 03f2 705F6D74 		.ascii	"p_mtxlist\000"
 2754      786C6973 
 2754      7400
 2755              	.LASF3:
 2756 03fc 73686F72 		.ascii	"short int\000"
 2756      7420696E 
 2756      7400
 2757              	.LASF36:
 2758 0406 705F7374 		.ascii	"p_state\000"
 2758      61746500 
 2759              	.LASF39:
 2760 040e 705F7072 		.ascii	"p_preempt\000"
 2760      65656D70 
 2760      7400
 2761              	.LASF65:
ARM GAS  /tmp/ccXu4QZt.s 			page 53


 2762 0418 725F7072 		.ascii	"r_prio\000"
 2762      696F00
 2763              	.LASF78:
 2764 041f 65776D61 		.ascii	"ewmask\000"
 2764      736B00
 2765              	.LASF28:
 2766 0426 705F6E65 		.ascii	"p_next\000"
 2766      787400
 2767              	.LASF37:
 2768 042d 705F666C 		.ascii	"p_flags\000"
 2768      61677300 
 2769              	.LASF27:
 2770 0435 54687265 		.ascii	"Thread\000"
 2770      616400
 2771              	.LASF44:
 2772 043c 705F6570 		.ascii	"p_epending\000"
 2772      656E6469 
 2772      6E6700
 2773              	.LASF15:
 2774 0447 75696E74 		.ascii	"uint32_t\000"
 2774      33325F74 
 2774      00
 2775              	.LASF64:
 2776 0450 725F7175 		.ascii	"r_queue\000"
 2776      65756500 
 2777              	.LASF56:
 2778 0458 56697274 		.ascii	"VirtualTimer\000"
 2778      75616C54 
 2778      696D6572 
 2778      00
 2779              	.LASF79:
 2780 0465 63686172 		.ascii	"char\000"
 2780      00
 2781              	.LASF74:
 2782 046a 6D5F6E65 		.ascii	"m_next\000"
 2782      787400
 2783              	.LASF25:
 2784 0471 73797374 		.ascii	"systime_t\000"
 2784      696D655F 
 2784      7400
 2785              	.LASF46:
 2786 047b 705F7265 		.ascii	"p_realprio\000"
 2786      616C7072 
 2786      696F00
 2787              	.LASF6:
 2788 0486 5F5F696E 		.ascii	"__int32_t\000"
 2788      7433325F 
 2788      7400
 2789              	.LASF105:
 2790 0490 6462675F 		.ascii	"dbg_lock_cnt\000"
 2790      6C6F636B 
 2790      5F636E74 
 2790      00
 2791              	.LASF40:
 2792 049d 705F7469 		.ascii	"p_time\000"
 2792      6D6500
 2793              	.LASF97:
ARM GAS  /tmp/ccXu4QZt.s 			page 54


 2794 04a4 6462675F 		.ascii	"dbg_check_leave_isr\000"
 2794      63686563 
 2794      6B5F6C65 
 2794      6176655F 
 2794      69737200 
 2795              	.LASF52:
 2796 04b8 696E7463 		.ascii	"intctx\000"
 2796      747800
 2797              	.LASF42:
 2798 04bf 705F6D73 		.ascii	"p_msgqueue\000"
 2798      67717565 
 2798      756500
 2799              	.LASF91:
 2800 04ca 6462675F 		.ascii	"dbg_check_enable\000"
 2800      63686563 
 2800      6B5F656E 
 2800      61626C65 
 2800      00
 2801              	.LASF61:
 2802 04db 76745F70 		.ascii	"vt_par\000"
 2802      617200
 2803              	.LASF38:
 2804 04e2 705F7265 		.ascii	"p_refs\000"
 2804      667300
 2805              	.LASF70:
 2806 04e9 52656164 		.ascii	"ReadyList\000"
 2806      794C6973 
 2806      7400
 2807              	.LASF96:
 2808 04f3 6462675F 		.ascii	"dbg_check_enter_isr\000"
 2808      63686563 
 2808      6B5F656E 
 2808      7465725F 
 2808      69737200 
 2809              	.LASF102:
 2810 0507 726C6973 		.ascii	"rlist\000"
 2810      7400
 2811              	.LASF13:
 2812 050d 75696E74 		.ascii	"uint8_t\000"
 2812      385F7400 
 2813              	.LASF94:
 2814 0515 6462675F 		.ascii	"dbg_check_lock_from_isr\000"
 2814      63686563 
 2814      6B5F6C6F 
 2814      636B5F66 
 2814      726F6D5F 
 2815              	.LASF77:
 2816 052d 77746F62 		.ascii	"wtobjp\000"
 2816      6A7000
 2817              	.LASF34:
 2818 0534 705F6E61 		.ascii	"p_name\000"
 2818      6D6500
 2819              	.LASF62:
 2820 053b 76745F73 		.ascii	"vt_systime\000"
 2820      79737469 
 2820      6D6500
 2821              	.LASF63:
ARM GAS  /tmp/ccXu4QZt.s 			page 55


 2822 0546 56544C69 		.ascii	"VTList\000"
 2822      737400
 2823              	.LASF89:
 2824 054d 6462675F 		.ascii	"dbg_check_disable\000"
 2824      63686563 
 2824      6B5F6469 
 2824      7361626C 
 2824      6500
 2825              	.LASF73:
 2826 055f 6D5F6F77 		.ascii	"m_owner\000"
 2826      6E657200 
 2827              	.LASF82:
 2828 0567 73655F77 		.ascii	"se_wtobjp\000"
 2828      746F626A 
 2828      7000
 2829              	.LASF31:
 2830 0571 705F6374 		.ascii	"p_ctx\000"
 2830      7800
 2831              	.LASF41:
 2832 0577 705F7761 		.ascii	"p_waiting\000"
 2832      6974696E 
 2832      6700
 2833              		.ident	"GCC: (4.8.2-14ubuntu1+6) 4.8.2"
ARM GAS  /tmp/ccXu4QZt.s 			page 56


DEFINED SYMBOLS
                            *ABS*:0000000000000000 chdebug.c
     /tmp/ccXu4QZt.s:19     .text.dbg_check_disable:0000000000000000 $t
     /tmp/ccXu4QZt.s:25     .text.dbg_check_disable:0000000000000000 dbg_check_disable
     /tmp/ccXu4QZt.s:715    .bss.dbg_isr_cnt:0000000000000000 .LANCHOR0
     /tmp/ccXu4QZt.s:763    .bss.dbg_lock_cnt:0000000000000000 .LANCHOR1
     /tmp/ccXu4QZt.s:770    .bss.dbg_panic_msg:0000000000000000 .LANCHOR2
     /tmp/ccXu4QZt.s:729    .rodata.str1.4:0000000000000000 .LC0
     /tmp/ccXu4QZt.s:64     .text.dbg_check_suspend:0000000000000000 $t
     /tmp/ccXu4QZt.s:70     .text.dbg_check_suspend:0000000000000000 dbg_check_suspend
     /tmp/ccXu4QZt.s:732    .rodata.str1.4:0000000000000008 .LC1
     /tmp/ccXu4QZt.s:108    .text.dbg_check_enable:0000000000000000 $t
     /tmp/ccXu4QZt.s:114    .text.dbg_check_enable:0000000000000000 dbg_check_enable
     /tmp/ccXu4QZt.s:735    .rodata.str1.4:0000000000000010 .LC2
     /tmp/ccXu4QZt.s:152    .text.dbg_check_lock:0000000000000000 $t
     /tmp/ccXu4QZt.s:158    .text.dbg_check_lock:0000000000000000 dbg_check_lock
     /tmp/ccXu4QZt.s:738    .rodata.str1.4:0000000000000018 .LC3
     /tmp/ccXu4QZt.s:204    .text.dbg_check_unlock:0000000000000000 $t
     /tmp/ccXu4QZt.s:210    .text.dbg_check_unlock:0000000000000000 dbg_check_unlock
     /tmp/ccXu4QZt.s:741    .rodata.str1.4:0000000000000020 .LC4
     /tmp/ccXu4QZt.s:260    .text.dbg_check_lock_from_isr:0000000000000000 $t
     /tmp/ccXu4QZt.s:266    .text.dbg_check_lock_from_isr:0000000000000000 dbg_check_lock_from_isr
     /tmp/ccXu4QZt.s:744    .rodata.str1.4:0000000000000028 .LC5
     /tmp/ccXu4QZt.s:313    .text.dbg_check_unlock_from_isr:0000000000000000 $t
     /tmp/ccXu4QZt.s:319    .text.dbg_check_unlock_from_isr:0000000000000000 dbg_check_unlock_from_isr
     /tmp/ccXu4QZt.s:747    .rodata.str1.4:0000000000000030 .LC6
     /tmp/ccXu4QZt.s:370    .text.dbg_check_enter_isr:0000000000000000 $t
     /tmp/ccXu4QZt.s:376    .text.dbg_check_enter_isr:0000000000000000 dbg_check_enter_isr
     /tmp/ccXu4QZt.s:750    .rodata.str1.4:0000000000000038 .LC7
     /tmp/ccXu4QZt.s:439    .text.dbg_check_leave_isr:0000000000000000 $t
     /tmp/ccXu4QZt.s:445    .text.dbg_check_leave_isr:0000000000000000 dbg_check_leave_isr
     /tmp/ccXu4QZt.s:753    .rodata.str1.4:0000000000000040 .LC8
     /tmp/ccXu4QZt.s:508    .text.chDbgCheckClassI:0000000000000000 $t
     /tmp/ccXu4QZt.s:514    .text.chDbgCheckClassI:0000000000000000 chDbgCheckClassI
     /tmp/ccXu4QZt.s:756    .rodata.str1.4:0000000000000048 .LC9
     /tmp/ccXu4QZt.s:553    .text.chDbgCheckClassS:0000000000000000 $t
     /tmp/ccXu4QZt.s:559    .text.chDbgCheckClassS:0000000000000000 chDbgCheckClassS
     /tmp/ccXu4QZt.s:759    .rodata.str1.4:0000000000000050 .LC10
     /tmp/ccXu4QZt.s:597    .text._trace_init:0000000000000000 $t
     /tmp/ccXu4QZt.s:603    .text._trace_init:0000000000000000 _trace_init
     /tmp/ccXu4QZt.s:722    .bss.dbg_trace_buffer:0000000000000000 .LANCHOR3
     /tmp/ccXu4QZt.s:623    .text.dbg_trace:0000000000000000 $t
     /tmp/ccXu4QZt.s:629    .text.dbg_trace:0000000000000000 dbg_trace
     /tmp/ccXu4QZt.s:685    .text.chDbgPanic:0000000000000000 $t
     /tmp/ccXu4QZt.s:691    .text.chDbgPanic:0000000000000000 chDbgPanic
     /tmp/ccXu4QZt.s:773    .bss.dbg_panic_msg:0000000000000000 dbg_panic_msg
     /tmp/ccXu4QZt.s:725    .bss.dbg_trace_buffer:0000000000000000 dbg_trace_buffer
     /tmp/ccXu4QZt.s:766    .bss.dbg_lock_cnt:0000000000000000 dbg_lock_cnt
     /tmp/ccXu4QZt.s:718    .bss.dbg_isr_cnt:0000000000000000 dbg_isr_cnt
     /tmp/ccXu4QZt.s:714    .bss.dbg_isr_cnt:0000000000000000 $d
     /tmp/ccXu4QZt.s:721    .bss.dbg_trace_buffer:0000000000000000 $d
     /tmp/ccXu4QZt.s:728    .rodata.str1.4:0000000000000000 $d
     /tmp/ccXu4QZt.s:762    .bss.dbg_lock_cnt:0000000000000000 $d
     /tmp/ccXu4QZt.s:769    .bss.dbg_panic_msg:0000000000000000 $d
                     .debug_frame:0000000000000010 $d

UNDEFINED SYMBOLS
ARM GAS  /tmp/ccXu4QZt.s 			page 57


port_halt
vtlist
rlist
