ARM GAS  /tmp/ccsFBhnG.s 			page 1


   1              		.syntax unified
   2              		.cpu cortex-m4
   3              		.fpu softvfp
   4              		.eabi_attribute 20, 1
   5              		.eabi_attribute 21, 1
   6              		.eabi_attribute 23, 3
   7              		.eabi_attribute 24, 1
   8              		.eabi_attribute 25, 1
   9              		.eabi_attribute 26, 1
  10              		.eabi_attribute 30, 2
  11              		.eabi_attribute 34, 1
  12              		.eabi_attribute 18, 4
  13              		.thumb
  14              		.file	"chdynamic.c"
  15              		.text
  16              	.Ltext0:
  17              		.cfi_sections	.debug_frame
  18              		.section	.text.chThdAddRef,"ax",%progbits
  19              		.align	2
  20              		.p2align 4,,15
  21              		.global	chThdAddRef
  22              		.thumb
  23              		.thumb_func
  24              		.type	chThdAddRef, %function
  25              	chThdAddRef:
  26              	.LFB7:
  27              		.file 1 "../../../os/kernel/src/chdynamic.c"
  28              		.loc 1 52 0
  29              		.cfi_startproc
  30              		@ args = 0, pretend = 0, frame = 0
  31              		@ frame_needed = 0, uses_anonymous_args = 0
  32              	.LVL0:
  33 0000 10B5     		push	{r4, lr}
  34              		.cfi_def_cfa_offset 8
  35              		.cfi_offset 4, -8
  36              		.cfi_offset 14, -4
  37              	.LBB2:
  38              		.loc 1 54 0
  39 0002 2023     		movs	r3, #32
  40              	.LBE2:
  41              		.loc 1 52 0
  42 0004 0446     		mov	r4, r0
  43              	.LBB3:
  44              		.loc 1 54 0
  45              	@ 54 "../../../os/kernel/src/chdynamic.c" 1
  46 0006 83F31188 		msr     BASEPRI, r3
  47              	@ 0 "" 2
  48              		.thumb
  49              	.LBE3:
  50 000a FFF7FEFF 		bl	dbg_check_lock
  51              	.LVL1:
  52              		.loc 1 55 0
  53 000e 94F82230 		ldrb	r3, [r4, #34]	@ zero_extendqisi2
  54 0012 FF2B     		cmp	r3, #255
  55 0014 09D0     		beq	.L5
  56              	.L2:
  57              		.loc 1 56 0
ARM GAS  /tmp/ccsFBhnG.s 			page 2


  58 0016 0133     		adds	r3, r3, #1
  59 0018 84F82230 		strb	r3, [r4, #34]
  60              		.loc 1 57 0
  61 001c FFF7FEFF 		bl	dbg_check_unlock
  62              	.LVL2:
  63              	.LBB4:
  64 0020 0023     		movs	r3, #0
  65              	@ 57 "../../../os/kernel/src/chdynamic.c" 1
  66 0022 83F31188 		msr     BASEPRI, r3
  67              	@ 0 "" 2
  68              		.thumb
  69              	.LBE4:
  70              		.loc 1 59 0
  71 0026 2046     		mov	r0, r4
  72 0028 10BD     		pop	{r4, pc}
  73              	.LVL3:
  74              	.L5:
  75              		.loc 1 55 0 discriminator 1
  76 002a 40F20000 		movw	r0, #:lower16:.LC0
  77 002e C0F20000 		movt	r0, #:upper16:.LC0
  78 0032 FFF7FEFF 		bl	chDbgPanic
  79              	.LVL4:
  80 0036 94F82230 		ldrb	r3, [r4, #34]	@ zero_extendqisi2
  81 003a ECE7     		b	.L2
  82              		.cfi_endproc
  83              	.LFE7:
  84              		.size	chThdAddRef, .-chThdAddRef
  85 003c AFF30080 		.section	.text.chThdRelease,"ax",%progbits
  86              		.align	2
  87              		.p2align 4,,15
  88              		.global	chThdRelease
  89              		.thumb
  90              		.thumb_func
  91              		.type	chThdRelease, %function
  92              	chThdRelease:
  93              	.LFB8:
  94              		.loc 1 74 0
  95              		.cfi_startproc
  96              		@ args = 0, pretend = 0, frame = 0
  97              		@ frame_needed = 0, uses_anonymous_args = 0
  98              	.LVL5:
  99 0000 38B5     		push	{r3, r4, r5, lr}
 100              		.cfi_def_cfa_offset 16
 101              		.cfi_offset 3, -16
 102              		.cfi_offset 4, -12
 103              		.cfi_offset 5, -8
 104              		.cfi_offset 14, -4
 105              		.loc 1 74 0
 106 0002 0446     		mov	r4, r0
 107              	.LBB5:
 108              		.loc 1 77 0
 109 0004 2023     		movs	r3, #32
 110              	@ 77 "../../../os/kernel/src/chdynamic.c" 1
 111 0006 83F31188 		msr     BASEPRI, r3
 112              	@ 0 "" 2
 113              		.thumb
 114              	.LBE5:
ARM GAS  /tmp/ccsFBhnG.s 			page 3


 115 000a FFF7FEFF 		bl	dbg_check_lock
 116              	.LVL6:
 117              		.loc 1 78 0
 118 000e 94F82250 		ldrb	r5, [r4, #34]	@ zero_extendqisi2
 119 0012 BDB1     		cbz	r5, .L12
 120              	.L7:
 121              		.loc 1 79 0
 122 0014 013D     		subs	r5, r5, #1
 123 0016 EDB2     		uxtb	r5, r5
 124 0018 84F82250 		strb	r5, [r4, #34]
 125              	.LVL7:
 126              		.loc 1 80 0
 127 001c FFF7FEFF 		bl	dbg_check_unlock
 128              	.LVL8:
 129              	.LBB6:
 130 0020 0023     		movs	r3, #0
 131              	@ 80 "../../../os/kernel/src/chdynamic.c" 1
 132 0022 83F31188 		msr     BASEPRI, r3
 133              	@ 0 "" 2
 134              		.thumb
 135              	.LBE6:
 136              		.loc 1 85 0
 137 0026 1DB9     		cbnz	r5, .L6
 138              		.loc 1 85 0 is_stmt 0 discriminator 1
 139 0028 94F82030 		ldrb	r3, [r4, #32]	@ zero_extendqisi2
 140 002c 0E2B     		cmp	r3, #14
 141 002e 00D0     		beq	.L13
 142              	.L6:
 143 0030 38BD     		pop	{r3, r4, r5, pc}
 144              	.LVL9:
 145              	.L13:
 146              		.loc 1 86 0 is_stmt 1
 147 0032 94F82130 		ldrb	r3, [r4, #33]	@ zero_extendqisi2
 148 0036 03F00303 		and	r3, r3, #3
 149 003a 012B     		cmp	r3, #1
 150 003c 0BD0     		beq	.L9
 151 003e 022B     		cmp	r3, #2
 152 0040 13D0     		beq	.L10
 153 0042 38BD     		pop	{r3, r4, r5, pc}
 154              	.LVL10:
 155              	.L12:
 156              		.loc 1 78 0 discriminator 1
 157 0044 40F20000 		movw	r0, #:lower16:.LC1
 158 0048 C0F20000 		movt	r0, #:upper16:.LC1
 159 004c FFF7FEFF 		bl	chDbgPanic
 160              	.LVL11:
 161 0050 94F82250 		ldrb	r5, [r4, #34]	@ zero_extendqisi2
 162 0054 DEE7     		b	.L7
 163              	.LVL12:
 164              	.L9:
 165              		.loc 1 90 0
 166 0056 2269     		ldr	r2, [r4, #16]
 167 0058 6369     		ldr	r3, [r4, #20]
 168 005a 1A61     		str	r2, [r3, #16]
 169 005c 2269     		ldr	r2, [r4, #16]
 170              		.loc 1 92 0
 171 005e 2046     		mov	r0, r4
ARM GAS  /tmp/ccsFBhnG.s 			page 4


 172              		.loc 1 90 0
 173 0060 5361     		str	r3, [r2, #20]
 174              		.loc 1 105 0
 175 0062 BDE83840 		pop	{r3, r4, r5, lr}
 176              	.LVL13:
 177              		.loc 1 92 0
 178 0066 FFF7FEBF 		b	chHeapFree
 179              	.LVL14:
 180              	.L10:
 181              		.loc 1 98 0
 182 006a 2269     		ldr	r2, [r4, #16]
 183 006c 6369     		ldr	r3, [r4, #20]
 184              		.loc 1 100 0
 185 006e A06C     		ldr	r0, [r4, #72]
 186              		.loc 1 98 0
 187 0070 1A61     		str	r2, [r3, #16]
 188 0072 2269     		ldr	r2, [r4, #16]
 189              		.loc 1 100 0
 190 0074 2146     		mov	r1, r4
 191              		.loc 1 98 0
 192 0076 5361     		str	r3, [r2, #20]
 193              		.loc 1 105 0
 194 0078 BDE83840 		pop	{r3, r4, r5, lr}
 195              	.LVL15:
 196              		.loc 1 100 0
 197 007c FFF7FEBF 		b	chPoolFree
 198              	.LVL16:
 199              		.cfi_endproc
 200              	.LFE8:
 201              		.size	chThdRelease, .-chThdRelease
 202              		.section	.text.chThdCreateFromHeap,"ax",%progbits
 203              		.align	2
 204              		.p2align 4,,15
 205              		.global	chThdCreateFromHeap
 206              		.thumb
 207              		.thumb_func
 208              		.type	chThdCreateFromHeap, %function
 209              	chThdCreateFromHeap:
 210              	.LFB9:
 211              		.loc 1 131 0
 212              		.cfi_startproc
 213              		@ args = 4, pretend = 0, frame = 0
 214              		@ frame_needed = 0, uses_anonymous_args = 0
 215              	.LVL17:
 216 0000 2DE9F041 		push	{r4, r5, r6, r7, r8, lr}
 217              		.cfi_def_cfa_offset 24
 218              		.cfi_offset 4, -24
 219              		.cfi_offset 5, -20
 220              		.cfi_offset 6, -16
 221              		.cfi_offset 7, -12
 222              		.cfi_offset 8, -8
 223              		.cfi_offset 14, -4
 224 0004 82B0     		sub	sp, sp, #8
 225              		.cfi_def_cfa_offset 32
 226              		.loc 1 131 0
 227 0006 9046     		mov	r8, r2
 228 0008 1F46     		mov	r7, r3
ARM GAS  /tmp/ccsFBhnG.s 			page 5


 229 000a 0D46     		mov	r5, r1
 230              		.loc 1 135 0
 231 000c FFF7FEFF 		bl	chHeapAlloc
 232              	.LVL18:
 233              		.loc 1 136 0
 234 0010 0446     		mov	r4, r0
 235 0012 20B3     		cbz	r0, .L15
 236              		.loc 1 140 0
 237 0014 00F14C06 		add	r6, r0, #76
 238 0018 3146     		mov	r1, r6
 239 001a FF22     		movs	r2, #255
 240 001c FFF7FEFF 		bl	_thread_memfill
 241              	.LVL19:
 242              		.loc 1 143 0
 243 0020 3046     		mov	r0, r6
 244 0022 6119     		adds	r1, r4, r5
 245 0024 5522     		movs	r2, #85
 246 0026 FFF7FEFF 		bl	_thread_memfill
 247              	.LVL20:
 248              	.LBB7:
 249              		.loc 1 148 0
 250 002a 2023     		movs	r3, #32
 251              	@ 148 "../../../os/kernel/src/chdynamic.c" 1
 252 002c 83F31188 		msr     BASEPRI, r3
 253              	@ 0 "" 2
 254              		.thumb
 255              	.LBE7:
 256 0030 FFF7FEFF 		bl	dbg_check_lock
 257              	.LVL21:
 258              		.loc 1 149 0
 259 0034 089B     		ldr	r3, [sp, #32]
 260 0036 4246     		mov	r2, r8
 261 0038 0093     		str	r3, [sp]
 262 003a 2946     		mov	r1, r5
 263 003c 3B46     		mov	r3, r7
 264 003e 2046     		mov	r0, r4
 265 0040 FFF7FEFF 		bl	chThdCreateI
 266              	.LVL22:
 267              		.loc 1 150 0
 268 0044 0123     		movs	r3, #1
 269 0046 80F82130 		strb	r3, [r0, #33]
 270              		.loc 1 151 0
 271 004a 0021     		movs	r1, #0
 272              		.loc 1 149 0
 273 004c 0446     		mov	r4, r0
 274              	.LVL23:
 275              		.loc 1 151 0
 276 004e FFF7FEFF 		bl	chSchWakeupS
 277              	.LVL24:
 278              		.loc 1 152 0
 279 0052 FFF7FEFF 		bl	dbg_check_unlock
 280              	.LVL25:
 281              	.LBB8:
 282 0056 0023     		movs	r3, #0
 283              	@ 152 "../../../os/kernel/src/chdynamic.c" 1
 284 0058 83F31188 		msr     BASEPRI, r3
 285              	@ 0 "" 2
ARM GAS  /tmp/ccsFBhnG.s 			page 6


 286              		.thumb
 287              	.LBE8:
 288              		.loc 1 153 0
 289 005c 2046     		mov	r0, r4
 290              	.LVL26:
 291              	.L15:
 292              		.loc 1 154 0
 293 005e 02B0     		add	sp, sp, #8
 294              		@ sp needed
 295 0060 BDE8F081 		pop	{r4, r5, r6, r7, r8, pc}
 296              		.cfi_endproc
 297              	.LFE9:
 298              		.size	chThdCreateFromHeap, .-chThdCreateFromHeap
 299 0064 AFF30080 		.section	.text.chThdCreateFromMemoryPool,"ax",%progbits
 299      AFF30080 
 299      AFF30080 
 300              		.align	2
 301              		.p2align 4,,15
 302              		.global	chThdCreateFromMemoryPool
 303              		.thumb
 304              		.thumb_func
 305              		.type	chThdCreateFromMemoryPool, %function
 306              	chThdCreateFromMemoryPool:
 307              	.LFB10:
 308              		.loc 1 180 0
 309              		.cfi_startproc
 310              		@ args = 0, pretend = 0, frame = 0
 311              		@ frame_needed = 0, uses_anonymous_args = 0
 312              	.LVL27:
 313 0000 2DE9F043 		push	{r4, r5, r6, r7, r8, r9, lr}
 314              		.cfi_def_cfa_offset 28
 315              		.cfi_offset 4, -28
 316              		.cfi_offset 5, -24
 317              		.cfi_offset 6, -20
 318              		.cfi_offset 7, -16
 319              		.cfi_offset 8, -12
 320              		.cfi_offset 9, -8
 321              		.cfi_offset 14, -4
 322              		.loc 1 184 0
 323 0004 0446     		mov	r4, r0
 324              		.loc 1 180 0
 325 0006 83B0     		sub	sp, sp, #12
 326              		.cfi_def_cfa_offset 40
 327              		.loc 1 180 0
 328 0008 8846     		mov	r8, r1
 329 000a 1746     		mov	r7, r2
 330 000c 9946     		mov	r9, r3
 331              		.loc 1 184 0
 332 000e 70B3     		cbz	r0, .L21
 333              	.LVL28:
 334              	.L18:
 335              		.loc 1 186 0
 336 0010 2046     		mov	r0, r4
 337 0012 FFF7FEFF 		bl	chPoolAlloc
 338              	.LVL29:
 339              		.loc 1 187 0
 340 0016 0546     		mov	r5, r0
ARM GAS  /tmp/ccsFBhnG.s 			page 7


 341 0018 30B3     		cbz	r0, .L19
 342              		.loc 1 191 0
 343 001a 00F14C06 		add	r6, r0, #76
 344 001e 3146     		mov	r1, r6
 345 0020 FF22     		movs	r2, #255
 346 0022 FFF7FEFF 		bl	_thread_memfill
 347              	.LVL30:
 348              		.loc 1 194 0
 349 0026 6168     		ldr	r1, [r4, #4]
 350 0028 3046     		mov	r0, r6
 351 002a 2944     		add	r1, r1, r5
 352 002c 5522     		movs	r2, #85
 353 002e FFF7FEFF 		bl	_thread_memfill
 354              	.LVL31:
 355              	.LBB9:
 356              		.loc 1 199 0
 357 0032 2023     		movs	r3, #32
 358              	@ 199 "../../../os/kernel/src/chdynamic.c" 1
 359 0034 83F31188 		msr     BASEPRI, r3
 360              	@ 0 "" 2
 361              		.thumb
 362              	.LBE9:
 363 0038 FFF7FEFF 		bl	dbg_check_lock
 364              	.LVL32:
 365              		.loc 1 200 0
 366 003c 6168     		ldr	r1, [r4, #4]
 367 003e CDF80090 		str	r9, [sp]
 368 0042 4246     		mov	r2, r8
 369 0044 3B46     		mov	r3, r7
 370 0046 2846     		mov	r0, r5
 371 0048 FFF7FEFF 		bl	chThdCreateI
 372              	.LVL33:
 373              		.loc 1 201 0
 374 004c 0223     		movs	r3, #2
 375 004e 80F82130 		strb	r3, [r0, #33]
 376              		.loc 1 202 0
 377 0052 8464     		str	r4, [r0, #72]
 378              		.loc 1 203 0
 379 0054 0021     		movs	r1, #0
 380              		.loc 1 200 0
 381 0056 0546     		mov	r5, r0
 382              	.LVL34:
 383              		.loc 1 203 0
 384 0058 FFF7FEFF 		bl	chSchWakeupS
 385              	.LVL35:
 386              		.loc 1 204 0
 387 005c FFF7FEFF 		bl	dbg_check_unlock
 388              	.LVL36:
 389              	.LBB10:
 390 0060 0023     		movs	r3, #0
 391              	@ 204 "../../../os/kernel/src/chdynamic.c" 1
 392 0062 83F31188 		msr     BASEPRI, r3
 393              	@ 0 "" 2
 394              		.thumb
 395              	.LBE10:
 396              		.loc 1 205 0
 397 0066 2846     		mov	r0, r5
ARM GAS  /tmp/ccsFBhnG.s 			page 8


 398              	.LVL37:
 399              	.L19:
 400              		.loc 1 206 0
 401 0068 03B0     		add	sp, sp, #12
 402              		@ sp needed
 403 006a BDE8F083 		pop	{r4, r5, r6, r7, r8, r9, pc}
 404              	.LVL38:
 405              	.L21:
 406              		.loc 1 184 0 discriminator 1
 407 006e 40F20000 		movw	r0, #:lower16:.LC2
 408              	.LVL39:
 409 0072 C0F20000 		movt	r0, #:upper16:.LC2
 410 0076 FFF7FEFF 		bl	chDbgPanic
 411              	.LVL40:
 412 007a C9E7     		b	.L18
 413              		.cfi_endproc
 414              	.LFE10:
 415              		.size	chThdCreateFromMemoryPool, .-chThdCreateFromMemoryPool
 416 007c AFF30080 		.section	.rodata.str1.4,"aMS",%progbits,1
 417              		.align	2
 418              	.LC0:
 419 0000 63685468 		.ascii	"chThdAddRef(), #1\000"
 419      64416464 
 419      52656628 
 419      292C2023 
 419      3100
 420 0012 0000     		.space	2
 421              	.LC1:
 422 0014 63685468 		.ascii	"chThdRelease(), #1\000"
 422      6452656C 
 422      65617365 
 422      28292C20 
 422      233100
 423 0027 00       		.space	1
 424              	.LC2:
 425 0028 22636854 		.ascii	"\"chThdCreateFromMemoryPool\"()\000"
 425      68644372 
 425      65617465 
 425      46726F6D 
 425      4D656D6F 
 426 0046 0000     		.text
 427              	.Letext0:
 428              		.file 2 "/usr/lib/gcc/arm-none-eabi/4.8.2/include/stddef.h"
 429              		.file 3 "/usr/include/newlib/machine/_default_types.h"
 430              		.file 4 "/usr/include/newlib/stdint.h"
 431              		.file 5 "../../../os/ports/GCC/ARMCMx/chtypes.h"
 432              		.file 6 "../../../os/kernel/include/chlists.h"
 433              		.file 7 "../../../os/kernel/include/chthreads.h"
 434              		.file 8 "../../../os/ports/GCC/ARMCMx/chcore_v7m.h"
 435              		.file 9 "../../../os/kernel/include/chmtx.h"
 436              		.file 10 "../../../os/kernel/include/chmemcore.h"
 437              		.file 11 "../../../os/kernel/include/chheap.h"
 438              		.file 12 "../../../os/kernel/include/chmempools.h"
 439              		.file 13 "../../../os/kernel/include/chdebug.h"
 440              		.file 14 "../../../os/kernel/include/chschd.h"