ARM GAS  /tmp/ccsFBhnG.s 			page 1


   1              		.syntax unified
   2              		.cpu cortex-m4
   3              		.fpu softvfp
   4              		.eabi_attribute 20, 1
   5              		.eabi_attribute 21, 1
   6              		.eabi_attribute 23, 3
   7              		.eabi_attribute 24, 1
   8              		.eabi_attribute 25, 1
   9              		.eabi_attribute 26, 1
  10              		.eabi_attribute 30, 2
  11              		.eabi_attribute 34, 1
  12              		.eabi_attribute 18, 4
  13              		.thumb
  14              		.file	"chdynamic.c"
  15              		.text
  16              	.Ltext0:
  17              		.cfi_sections	.debug_frame
  18              		.section	.text.chThdAddRef,"ax",%progbits
  19              		.align	2
  20              		.p2align 4,,15
  21              		.global	chThdAddRef
  22              		.thumb
  23              		.thumb_func
  24              		.type	chThdAddRef, %function
  25              	chThdAddRef:
  26              	.LFB7:
  27              		.file 1 "../../../os/kernel/src/chdynamic.c"
  28              		.loc 1 52 0
  29              		.cfi_startproc
  30              		@ args = 0, pretend = 0, frame = 0
  31              		@ frame_needed = 0, uses_anonymous_args = 0
  32              	.LVL0:
  33 0000 10B5     		push	{r4, lr}
  34              		.cfi_def_cfa_offset 8
  35              		.cfi_offset 4, -8
  36              		.cfi_offset 14, -4
  37              	.LBB2:
  38              		.loc 1 54 0
  39 0002 2023     		movs	r3, #32
  40              	.LBE2:
  41              		.loc 1 52 0
  42 0004 0446     		mov	r4, r0
  43              	.LBB3:
  44              		.loc 1 54 0
  45              	@ 54 "../../../os/kernel/src/chdynamic.c" 1
  46 0006 83F31188 		msr     BASEPRI, r3
  47              	@ 0 "" 2
  48              		.thumb
  49              	.LBE3:
  50 000a FFF7FEFF 		bl	dbg_check_lock
  51              	.LVL1:
  52              		.loc 1 55 0
  53 000e 94F82230 		ldrb	r3, [r4, #34]	@ zero_extendqisi2
  54 0012 FF2B     		cmp	r3, #255
  55 0014 09D0     		beq	.L5
  56              	.L2:
  57              		.loc 1 56 0
ARM GAS  /tmp/ccsFBhnG.s 			page 2


  58 0016 0133     		adds	r3, r3, #1
  59 0018 84F82230 		strb	r3, [r4, #34]
  60              		.loc 1 57 0
  61 001c FFF7FEFF 		bl	dbg_check_unlock
  62              	.LVL2:
  63              	.LBB4:
  64 0020 0023     		movs	r3, #0
  65              	@ 57 "../../../os/kernel/src/chdynamic.c" 1
  66 0022 83F31188 		msr     BASEPRI, r3
  67              	@ 0 "" 2
  68              		.thumb
  69              	.LBE4:
  70              		.loc 1 59 0
  71 0026 2046     		mov	r0, r4
  72 0028 10BD     		pop	{r4, pc}
  73              	.LVL3:
  74              	.L5:
  75              		.loc 1 55 0 discriminator 1
  76 002a 40F20000 		movw	r0, #:lower16:.LC0
  77 002e C0F20000 		movt	r0, #:upper16:.LC0
  78 0032 FFF7FEFF 		bl	chDbgPanic
  79              	.LVL4:
  80 0036 94F82230 		ldrb	r3, [r4, #34]	@ zero_extendqisi2
  81 003a ECE7     		b	.L2
  82              		.cfi_endproc
  83              	.LFE7:
  84              		.size	chThdAddRef, .-chThdAddRef
  85 003c AFF30080 		.section	.text.chThdRelease,"ax",%progbits
  86              		.align	2
  87              		.p2align 4,,15
  88              		.global	chThdRelease
  89              		.thumb
  90              		.thumb_func
  91              		.type	chThdRelease, %function
  92              	chThdRelease:
  93              	.LFB8:
  94              		.loc 1 74 0
  95              		.cfi_startproc
  96              		@ args = 0, pretend = 0, frame = 0
  97              		@ frame_needed = 0, uses_anonymous_args = 0
  98              	.LVL5:
  99 0000 38B5     		push	{r3, r4, r5, lr}
 100              		.cfi_def_cfa_offset 16
 101              		.cfi_offset 3, -16
 102              		.cfi_offset 4, -12
 103              		.cfi_offset 5, -8
 104              		.cfi_offset 14, -4
 105              		.loc 1 74 0
 106 0002 0446     		mov	r4, r0
 107              	.LBB5:
 108              		.loc 1 77 0
 109 0004 2023     		movs	r3, #32
 110              	@ 77 "../../../os/kernel/src/chdynamic.c" 1
 111 0006 83F31188 		msr     BASEPRI, r3
 112              	@ 0 "" 2
 113              		.thumb
 114              	.LBE5:
ARM GAS  /tmp/ccsFBhnG.s 			page 3


 115 000a FFF7FEFF 		bl	dbg_check_lock
 116              	.LVL6:
 117              		.loc 1 78 0
 118 000e 94F82250 		ldrb	r5, [r4, #34]	@ zero_extendqisi2
 119 0012 BDB1     		cbz	r5, .L12
 120              	.L7:
 121              		.loc 1 79 0
 122 0014 013D     		subs	r5, r5, #1
 123 0016 EDB2     		uxtb	r5, r5
 124 0018 84F82250 		strb	r5, [r4, #34]
 125              	.LVL7:
 126              		.loc 1 80 0
 127 001c FFF7FEFF 		bl	dbg_check_unlock
 128              	.LVL8:
 129              	.LBB6:
 130 0020 0023     		movs	r3, #0
 131              	@ 80 "../../../os/kernel/src/chdynamic.c" 1
 132 0022 83F31188 		msr     BASEPRI, r3
 133              	@ 0 "" 2
 134              		.thumb
 135              	.LBE6:
 136              		.loc 1 85 0
 137 0026 1DB9     		cbnz	r5, .L6
 138              		.loc 1 85 0 is_stmt 0 discriminator 1
 139 0028 94F82030 		ldrb	r3, [r4, #32]	@ zero_extendqisi2
 140 002c 0E2B     		cmp	r3, #14
 141 002e 00D0     		beq	.L13
 142              	.L6:
 143 0030 38BD     		pop	{r3, r4, r5, pc}
 144              	.LVL9:
 145              	.L13:
 146              		.loc 1 86 0 is_stmt 1
 147 0032 94F82130 		ldrb	r3, [r4, #33]	@ zero_extendqisi2
 148 0036 03F00303 		and	r3, r3, #3
 149 003a 012B     		cmp	r3, #1
 150 003c 0BD0     		beq	.L9
 151 003e 022B     		cmp	r3, #2
 152 0040 13D0     		beq	.L10
 153 0042 38BD     		pop	{r3, r4, r5, pc}
 154              	.LVL10:
 155              	.L12:
 156              		.loc 1 78 0 discriminator 1
 157 0044 40F20000 		movw	r0, #:lower16:.LC1
 158 0048 C0F20000 		movt	r0, #:upper16:.LC1
 159 004c FFF7FEFF 		bl	chDbgPanic
 160              	.LVL11:
 161 0050 94F82250 		ldrb	r5, [r4, #34]	@ zero_extendqisi2
 162 0054 DEE7     		b	.L7
 163              	.LVL12:
 164              	.L9:
 165              		.loc 1 90 0
 166 0056 2269     		ldr	r2, [r4, #16]
 167 0058 6369     		ldr	r3, [r4, #20]
 168 005a 1A61     		str	r2, [r3, #16]
 169 005c 2269     		ldr	r2, [r4, #16]
 170              		.loc 1 92 0
 171 005e 2046     		mov	r0, r4
ARM GAS  /tmp/ccsFBhnG.s 			page 4


 172              		.loc 1 90 0
 173 0060 5361     		str	r3, [r2, #20]
 174              		.loc 1 105 0
 175 0062 BDE83840 		pop	{r3, r4, r5, lr}
 176              	.LVL13:
 177              		.loc 1 92 0
 178 0066 FFF7FEBF 		b	chHeapFree
 179              	.LVL14:
 180              	.L10:
 181              		.loc 1 98 0
 182 006a 2269     		ldr	r2, [r4, #16]
 183 006c 6369     		ldr	r3, [r4, #20]
 184              		.loc 1 100 0
 185 006e A06C     		ldr	r0, [r4, #72]
 186              		.loc 1 98 0
 187 0070 1A61     		str	r2, [r3, #16]
 188 0072 2269     		ldr	r2, [r4, #16]
 189              		.loc 1 100 0
 190 0074 2146     		mov	r1, r4
 191              		.loc 1 98 0
 192 0076 5361     		str	r3, [r2, #20]
 193              		.loc 1 105 0
 194 0078 BDE83840 		pop	{r3, r4, r5, lr}
 195              	.LVL15:
 196              		.loc 1 100 0
 197 007c FFF7FEBF 		b	chPoolFree
 198              	.LVL16:
 199              		.cfi_endproc
 200              	.LFE8:
 201              		.size	chThdRelease, .-chThdRelease
 202              		.section	.text.chThdCreateFromHeap,"ax",%progbits
 203              		.align	2
 204              		.p2align 4,,15
 205              		.global	chThdCreateFromHeap
 206              		.thumb
 207              		.thumb_func
 208              		.type	chThdCreateFromHeap, %function
 209              	chThdCreateFromHeap:
 210              	.LFB9:
 211              		.loc 1 131 0
 212              		.cfi_startproc
 213              		@ args = 4, pretend = 0, frame = 0
 214              		@ frame_needed = 0, uses_anonymous_args = 0
 215              	.LVL17:
 216 0000 2DE9F041 		push	{r4, r5, r6, r7, r8, lr}
 217              		.cfi_def_cfa_offset 24
 218              		.cfi_offset 4, -24
 219              		.cfi_offset 5, -20
 220              		.cfi_offset 6, -16
 221              		.cfi_offset 7, -12
 222              		.cfi_offset 8, -8
 223              		.cfi_offset 14, -4
 224 0004 82B0     		sub	sp, sp, #8
 225              		.cfi_def_cfa_offset 32
 226              		.loc 1 131 0
 227 0006 9046     		mov	r8, r2
 228 0008 1F46     		mov	r7, r3
ARM GAS  /tmp/ccsFBhnG.s 			page 5


 229 000a 0D46     		mov	r5, r1
 230              		.loc 1 135 0
 231 000c FFF7FEFF 		bl	chHeapAlloc
 232              	.LVL18:
 233              		.loc 1 136 0
 234 0010 0446     		mov	r4, r0
 235 0012 20B3     		cbz	r0, .L15
 236              		.loc 1 140 0
 237 0014 00F14C06 		add	r6, r0, #76
 238 0018 3146     		mov	r1, r6
 239 001a FF22     		movs	r2, #255
 240 001c FFF7FEFF 		bl	_thread_memfill
 241              	.LVL19:
 242              		.loc 1 143 0
 243 0020 3046     		mov	r0, r6
 244 0022 6119     		adds	r1, r4, r5
 245 0024 5522     		movs	r2, #85
 246 0026 FFF7FEFF 		bl	_thread_memfill
 247              	.LVL20:
 248              	.LBB7:
 249              		.loc 1 148 0
 250 002a 2023     		movs	r3, #32
 251              	@ 148 "../../../os/kernel/src/chdynamic.c" 1
 252 002c 83F31188 		msr     BASEPRI, r3
 253              	@ 0 "" 2
 254              		.thumb
 255              	.LBE7:
 256 0030 FFF7FEFF 		bl	dbg_check_lock
 257              	.LVL21:
 258              		.loc 1 149 0
 259 0034 089B     		ldr	r3, [sp, #32]
 260 0036 4246     		mov	r2, r8
 261 0038 0093     		str	r3, [sp]
 262 003a 2946     		mov	r1, r5
 263 003c 3B46     		mov	r3, r7
 264 003e 2046     		mov	r0, r4
 265 0040 FFF7FEFF 		bl	chThdCreateI
 266              	.LVL22:
 267              		.loc 1 150 0
 268 0044 0123     		movs	r3, #1
 269 0046 80F82130 		strb	r3, [r0, #33]
 270              		.loc 1 151 0
 271 004a 0021     		movs	r1, #0
 272              		.loc 1 149 0
 273 004c 0446     		mov	r4, r0
 274              	.LVL23:
 275              		.loc 1 151 0
 276 004e FFF7FEFF 		bl	chSchWakeupS
 277              	.LVL24:
 278              		.loc 1 152 0
 279 0052 FFF7FEFF 		bl	dbg_check_unlock
 280              	.LVL25:
 281              	.LBB8:
 282 0056 0023     		movs	r3, #0
 283              	@ 152 "../../../os/kernel/src/chdynamic.c" 1
 284 0058 83F31188 		msr     BASEPRI, r3
 285              	@ 0 "" 2
ARM GAS  /tmp/ccsFBhnG.s 			page 6


 286              		.thumb
 287              	.LBE8:
 288              		.loc 1 153 0
 289 005c 2046     		mov	r0, r4
 290              	.LVL26:
 291              	.L15:
 292              		.loc 1 154 0
 293 005e 02B0     		add	sp, sp, #8
 294              		@ sp needed
 295 0060 BDE8F081 		pop	{r4, r5, r6, r7, r8, pc}
 296              		.cfi_endproc
 297              	.LFE9:
 298              		.size	chThdCreateFromHeap, .-chThdCreateFromHeap
 299 0064 AFF30080 		.section	.text.chThdCreateFromMemoryPool,"ax",%progbits
 299      AFF30080 
 299      AFF30080 
 300              		.align	2
 301              		.p2align 4,,15
 302              		.global	chThdCreateFromMemoryPool
 303              		.thumb
 304              		.thumb_func
 305              		.type	chThdCreateFromMemoryPool, %function
 306              	chThdCreateFromMemoryPool:
 307              	.LFB10:
 308              		.loc 1 180 0
 309              		.cfi_startproc
 310              		@ args = 0, pretend = 0, frame = 0
 311              		@ frame_needed = 0, uses_anonymous_args = 0
 312              	.LVL27:
 313 0000 2DE9F043 		push	{r4, r5, r6, r7, r8, r9, lr}
 314              		.cfi_def_cfa_offset 28
 315              		.cfi_offset 4, -28
 316              		.cfi_offset 5, -24
 317              		.cfi_offset 6, -20
 318              		.cfi_offset 7, -16
 319              		.cfi_offset 8, -12
 320              		.cfi_offset 9, -8
 321              		.cfi_offset 14, -4
 322              		.loc 1 184 0
 323 0004 0446     		mov	r4, r0
 324              		.loc 1 180 0
 325 0006 83B0     		sub	sp, sp, #12
 326              		.cfi_def_cfa_offset 40
 327              		.loc 1 180 0
 328 0008 8846     		mov	r8, r1
 329 000a 1746     		mov	r7, r2
 330 000c 9946     		mov	r9, r3
 331              		.loc 1 184 0
 332 000e 70B3     		cbz	r0, .L21
 333              	.LVL28:
 334              	.L18:
 335              		.loc 1 186 0
 336 0010 2046     		mov	r0, r4
 337 0012 FFF7FEFF 		bl	chPoolAlloc
 338              	.LVL29:
 339              		.loc 1 187 0
 340 0016 0546     		mov	r5, r0
ARM GAS  /tmp/ccsFBhnG.s 			page 7


 341 0018 30B3     		cbz	r0, .L19
 342              		.loc 1 191 0
 343 001a 00F14C06 		add	r6, r0, #76
 344 001e 3146     		mov	r1, r6
 345 0020 FF22     		movs	r2, #255
 346 0022 FFF7FEFF 		bl	_thread_memfill
 347              	.LVL30:
 348              		.loc 1 194 0
 349 0026 6168     		ldr	r1, [r4, #4]
 350 0028 3046     		mov	r0, r6
 351 002a 2944     		add	r1, r1, r5
 352 002c 5522     		movs	r2, #85
 353 002e FFF7FEFF 		bl	_thread_memfill
 354              	.LVL31:
 355              	.LBB9:
 356              		.loc 1 199 0
 357 0032 2023     		movs	r3, #32
 358              	@ 199 "../../../os/kernel/src/chdynamic.c" 1
 359 0034 83F31188 		msr     BASEPRI, r3
 360              	@ 0 "" 2
 361              		.thumb
 362              	.LBE9:
 363 0038 FFF7FEFF 		bl	dbg_check_lock
 364              	.LVL32:
 365              		.loc 1 200 0
 366 003c 6168     		ldr	r1, [r4, #4]
 367 003e CDF80090 		str	r9, [sp]
 368 0042 4246     		mov	r2, r8
 369 0044 3B46     		mov	r3, r7
 370 0046 2846     		mov	r0, r5
 371 0048 FFF7FEFF 		bl	chThdCreateI
 372              	.LVL33:
 373              		.loc 1 201 0
 374 004c 0223     		movs	r3, #2
 375 004e 80F82130 		strb	r3, [r0, #33]
 376              		.loc 1 202 0
 377 0052 8464     		str	r4, [r0, #72]
 378              		.loc 1 203 0
 379 0054 0021     		movs	r1, #0
 380              		.loc 1 200 0
 381 0056 0546     		mov	r5, r0
 382              	.LVL34:
 383              		.loc 1 203 0
 384 0058 FFF7FEFF 		bl	chSchWakeupS
 385              	.LVL35:
 386              		.loc 1 204 0
 387 005c FFF7FEFF 		bl	dbg_check_unlock
 388              	.LVL36:
 389              	.LBB10:
 390 0060 0023     		movs	r3, #0
 391              	@ 204 "../../../os/kernel/src/chdynamic.c" 1
 392 0062 83F31188 		msr     BASEPRI, r3
 393              	@ 0 "" 2
 394              		.thumb
 395              	.LBE10:
 396              		.loc 1 205 0
 397 0066 2846     		mov	r0, r5
ARM GAS  /tmp/ccsFBhnG.s 			page 8


 398              	.LVL37:
 399              	.L19:
 400              		.loc 1 206 0
 401 0068 03B0     		add	sp, sp, #12
 402              		@ sp needed
 403 006a BDE8F083 		pop	{r4, r5, r6, r7, r8, r9, pc}
 404              	.LVL38:
 405              	.L21:
 406              		.loc 1 184 0 discriminator 1
 407 006e 40F20000 		movw	r0, #:lower16:.LC2
 408              	.LVL39:
 409 0072 C0F20000 		movt	r0, #:upper16:.LC2
 410 0076 FFF7FEFF 		bl	chDbgPanic
 411              	.LVL40:
 412 007a C9E7     		b	.L18
 413              		.cfi_endproc
 414              	.LFE10:
 415              		.size	chThdCreateFromMemoryPool, .-chThdCreateFromMemoryPool
 416 007c AFF30080 		.section	.rodata.str1.4,"aMS",%progbits,1
 417              		.align	2
 418              	.LC0:
 419 0000 63685468 		.ascii	"chThdAddRef(), #1\000"
 419      64416464 
 419      52656628 
 419      292C2023 
 419      3100
 420 0012 0000     		.space	2
 421              	.LC1:
 422 0014 63685468 		.ascii	"chThdRelease(), #1\000"
 422      6452656C 
 422      65617365 
 422      28292C20 
 422      233100
 423 0027 00       		.space	1
 424              	.LC2:
 425 0028 22636854 		.ascii	"\"chThdCreateFromMemoryPool\"()\000"
 425      68644372 
 425      65617465 
 425      46726F6D 
 425      4D656D6F 
 426 0046 0000     		.text
 427              	.Letext0:
 428              		.file 2 "/usr/lib/gcc/arm-none-eabi/4.8.2/include/stddef.h"
 429              		.file 3 "/usr/include/newlib/machine/_default_types.h"
 430              		.file 4 "/usr/include/newlib/stdint.h"
 431              		.file 5 "../../../os/ports/GCC/ARMCMx/chtypes.h"
 432              		.file 6 "../../../os/kernel/include/chlists.h"
 433              		.file 7 "../../../os/kernel/include/chthreads.h"
 434              		.file 8 "../../../os/ports/GCC/ARMCMx/chcore_v7m.h"
 435              		.file 9 "../../../os/kernel/include/chmtx.h"
 436              		.file 10 "../../../os/kernel/include/chmemcore.h"
 437              		.file 11 "../../../os/kernel/include/chheap.h"
 438              		.file 12 "../../../os/kernel/include/chmempools.h"
 439              		.file 13 "../../../os/kernel/include/chdebug.h"
 440              		.file 14 "../../../os/kernel/include/chschd.h"
 441              		.section	.debug_info,"",%progbits
 442              	.Ldebug_info0:
ARM GAS  /tmp/ccsFBhnG.s 			page 9


 443 0000 FB090000 		.4byte	0x9fb
 444 0004 0400     		.2byte	0x4
 445 0006 00000000 		.4byte	.Ldebug_abbrev0
 446 000a 04       		.byte	0x4
 447 000b 01       		.uleb128 0x1
 448 000c 47000000 		.4byte	.LASF97
 449 0010 01       		.byte	0x1
 450 0011 4B040000 		.4byte	.LASF98
 451 0015 9B020000 		.4byte	.LASF99
 452 0019 18000000 		.4byte	.Ldebug_ranges0+0x18
 453 001d 00000000 		.4byte	0
 454 0021 00000000 		.4byte	.Ldebug_line0
 455 0025 02       		.uleb128 0x2
 456 0026 04       		.byte	0x4
 457 0027 05       		.byte	0x5
 458 0028 696E7400 		.ascii	"int\000"
 459 002c 03       		.uleb128 0x3
 460 002d 0E000000 		.4byte	.LASF2
 461 0031 02       		.byte	0x2
 462 0032 D4       		.byte	0xd4
 463 0033 37000000 		.4byte	0x37
 464 0037 04       		.uleb128 0x4
 465 0038 04       		.byte	0x4
 466 0039 07       		.byte	0x7
 467 003a FB010000 		.4byte	.LASF0
 468 003e 04       		.uleb128 0x4
 469 003f 01       		.byte	0x1
 470 0040 06       		.byte	0x6
 471 0041 36010000 		.4byte	.LASF1
 472 0045 03       		.uleb128 0x3
 473 0046 25000000 		.4byte	.LASF3
 474 004a 03       		.byte	0x3
 475 004b 1C       		.byte	0x1c
 476 004c 50000000 		.4byte	0x50
 477 0050 04       		.uleb128 0x4
 478 0051 01       		.byte	0x1
 479 0052 08       		.byte	0x8
 480 0053 50030000 		.4byte	.LASF4
 481 0057 04       		.uleb128 0x4
 482 0058 02       		.byte	0x2
 483 0059 05       		.byte	0x5
 484 005a 73030000 		.4byte	.LASF5
 485 005e 04       		.uleb128 0x4
 486 005f 02       		.byte	0x2
 487 0060 07       		.byte	0x7
 488 0061 27020000 		.4byte	.LASF6
 489 0065 03       		.uleb128 0x3
 490 0066 1B040000 		.4byte	.LASF7
 491 006a 03       		.byte	0x3
 492 006b 37       		.byte	0x37
 493 006c 70000000 		.4byte	0x70
 494 0070 04       		.uleb128 0x4
 495 0071 04       		.byte	0x4
 496 0072 05       		.byte	0x5
 497 0073 7A010000 		.4byte	.LASF8
 498 0077 03       		.uleb128 0x3
 499 0078 CA010000 		.4byte	.LASF9
ARM GAS  /tmp/ccsFBhnG.s 			page 10


 500 007c 03       		.byte	0x3
 501 007d 38       		.byte	0x38
 502 007e 82000000 		.4byte	0x82
 503 0082 04       		.uleb128 0x4
 504 0083 04       		.byte	0x4
 505 0084 07       		.byte	0x7
 506 0085 08020000 		.4byte	.LASF10
 507 0089 04       		.uleb128 0x4
 508 008a 08       		.byte	0x8
 509 008b 05       		.byte	0x5
 510 008c 28010000 		.4byte	.LASF11
 511 0090 03       		.uleb128 0x3
 512 0091 13030000 		.4byte	.LASF12
 513 0095 03       		.byte	0x3
 514 0096 4E       		.byte	0x4e
 515 0097 9B000000 		.4byte	0x9b
 516 009b 04       		.uleb128 0x4
 517 009c 08       		.byte	0x8
 518 009d 07       		.byte	0x7
 519 009e E4000000 		.4byte	.LASF13
 520 00a2 03       		.uleb128 0x3
 521 00a3 81040000 		.4byte	.LASF14
 522 00a7 04       		.byte	0x4
 523 00a8 2A       		.byte	0x2a
 524 00a9 45000000 		.4byte	0x45
 525 00ad 03       		.uleb128 0x3
 526 00ae 48030000 		.4byte	.LASF15
 527 00b2 04       		.byte	0x4
 528 00b3 41       		.byte	0x41
 529 00b4 65000000 		.4byte	0x65
 530 00b8 03       		.uleb128 0x3
 531 00b9 EC030000 		.4byte	.LASF16
 532 00bd 04       		.byte	0x4
 533 00be 42       		.byte	0x42
 534 00bf 77000000 		.4byte	0x77
 535 00c3 03       		.uleb128 0x3
 536 00c4 1C000000 		.4byte	.LASF17
 537 00c8 04       		.byte	0x4
 538 00c9 4E       		.byte	0x4e
 539 00ca 90000000 		.4byte	0x90
 540 00ce 04       		.uleb128 0x4
 541 00cf 01       		.byte	0x1
 542 00d0 02       		.byte	0x2
 543 00d1 42030000 		.4byte	.LASF18
 544 00d5 03       		.uleb128 0x3
 545 00d6 40020000 		.4byte	.LASF19
 546 00da 05       		.byte	0x5
 547 00db 2C       		.byte	0x2c
 548 00dc A2000000 		.4byte	0xa2
 549 00e0 03       		.uleb128 0x3
 550 00e1 97010000 		.4byte	.LASF20
 551 00e5 05       		.byte	0x5
 552 00e6 2D       		.byte	0x2d
 553 00e7 A2000000 		.4byte	0xa2
 554 00eb 03       		.uleb128 0x3
 555 00ec 26030000 		.4byte	.LASF21
 556 00f0 05       		.byte	0x5
ARM GAS  /tmp/ccsFBhnG.s 			page 11


 557 00f1 2E       		.byte	0x2e
 558 00f2 A2000000 		.4byte	0xa2
 559 00f6 03       		.uleb128 0x3
 560 00f7 63010000 		.4byte	.LASF22
 561 00fb 05       		.byte	0x5
 562 00fc 2F       		.byte	0x2f
 563 00fd A2000000 		.4byte	0xa2
 564 0101 03       		.uleb128 0x3
 565 0102 3A030000 		.4byte	.LASF23
 566 0106 05       		.byte	0x5
 567 0107 30       		.byte	0x30
 568 0108 B8000000 		.4byte	0xb8
 569 010c 03       		.uleb128 0x3
 570 010d 3A020000 		.4byte	.LASF24
 571 0111 05       		.byte	0x5
 572 0112 31       		.byte	0x31
 573 0113 AD000000 		.4byte	0xad
 574 0117 03       		.uleb128 0x3
 575 0118 54020000 		.4byte	.LASF25
 576 011c 05       		.byte	0x5
 577 011d 33       		.byte	0x33
 578 011e B8000000 		.4byte	0xb8
 579 0122 03       		.uleb128 0x3
 580 0123 06040000 		.4byte	.LASF26
 581 0127 05       		.byte	0x5
 582 0128 35       		.byte	0x35
 583 0129 B8000000 		.4byte	0xb8
 584 012d 03       		.uleb128 0x3
 585 012e CE030000 		.4byte	.LASF27
 586 0132 06       		.byte	0x6
 587 0133 2A       		.byte	0x2a
 588 0134 38010000 		.4byte	0x138
 589 0138 05       		.uleb128 0x5
 590 0139 CE030000 		.4byte	.LASF27
 591 013d 4C       		.byte	0x4c
 592 013e 07       		.byte	0x7
 593 013f 5E       		.byte	0x5e
 594 0140 41020000 		.4byte	0x241
 595 0144 06       		.uleb128 0x6
 596 0145 A2030000 		.4byte	.LASF28
 597 0149 07       		.byte	0x7
 598 014a 5F       		.byte	0x5f
 599 014b 62020000 		.4byte	0x262
 600 014f 00       		.byte	0
 601 0150 06       		.uleb128 0x6
 602 0151 33030000 		.4byte	.LASF29
 603 0155 07       		.byte	0x7
 604 0156 61       		.byte	0x61
 605 0157 62020000 		.4byte	0x262
 606 015b 04       		.byte	0x4
 607 015c 06       		.uleb128 0x6
 608 015d 21010000 		.4byte	.LASF30
 609 0161 07       		.byte	0x7
 610 0162 63       		.byte	0x63
 611 0163 01010000 		.4byte	0x101
 612 0167 08       		.byte	0x8
 613 0168 06       		.uleb128 0x6
ARM GAS  /tmp/ccsFBhnG.s 			page 12


 614 0169 C5040000 		.4byte	.LASF31
 615 016d 07       		.byte	0x7
 616 016e 64       		.byte	0x64
 617 016f 27030000 		.4byte	0x327
 618 0173 0C       		.byte	0xc
 619 0174 06       		.uleb128 0x6
 620 0175 A8010000 		.4byte	.LASF32
 621 0179 07       		.byte	0x7
 622 017a 66       		.byte	0x66
 623 017b 62020000 		.4byte	0x262
 624 017f 10       		.byte	0x10
 625 0180 06       		.uleb128 0x6
 626 0181 86020000 		.4byte	.LASF33
 627 0185 07       		.byte	0x7
 628 0186 67       		.byte	0x67
 629 0187 62020000 		.4byte	0x262
 630 018b 14       		.byte	0x14
 631 018c 06       		.uleb128 0x6
 632 018d A7040000 		.4byte	.LASF34
 633 0191 07       		.byte	0x7
 634 0192 6E       		.byte	0x6e
 635 0193 E9040000 		.4byte	0x4e9
 636 0197 18       		.byte	0x18
 637 0198 06       		.uleb128 0x6
 638 0199 F0010000 		.4byte	.LASF35
 639 019d 07       		.byte	0x7
 640 019e 74       		.byte	0x74
 641 019f FB040000 		.4byte	0x4fb
 642 01a3 1C       		.byte	0x1c
 643 01a4 06       		.uleb128 0x6
 644 01a5 7D030000 		.4byte	.LASF36
 645 01a9 07       		.byte	0x7
 646 01aa 79       		.byte	0x79
 647 01ab E0000000 		.4byte	0xe0
 648 01af 20       		.byte	0x20
 649 01b0 06       		.uleb128 0x6
 650 01b1 A9030000 		.4byte	.LASF37
 651 01b5 07       		.byte	0x7
 652 01b6 7D       		.byte	0x7d
 653 01b7 D5000000 		.4byte	0xd5
 654 01bb 21       		.byte	0x21
 655 01bc 06       		.uleb128 0x6
 656 01bd 7A040000 		.4byte	.LASF38
 657 01c1 07       		.byte	0x7
 658 01c2 82       		.byte	0x82
 659 01c3 EB000000 		.4byte	0xeb
 660 01c7 22       		.byte	0x22
 661 01c8 06       		.uleb128 0x6
 662 01c9 85030000 		.4byte	.LASF39
 663 01cd 07       		.byte	0x7
 664 01ce 88       		.byte	0x88
 665 01cf F6000000 		.4byte	0xf6
 666 01d3 23       		.byte	0x23
 667 01d4 06       		.uleb128 0x6
 668 01d5 25040000 		.4byte	.LASF40
 669 01d9 07       		.byte	0x7
 670 01da 8F       		.byte	0x8f
ARM GAS  /tmp/ccsFBhnG.s 			page 13


 671 01db 4F030000 		.4byte	0x34f
 672 01df 24       		.byte	0x24
 673 01e0 07       		.uleb128 0x7
 674 01e1 705F7500 		.ascii	"p_u\000"
 675 01e5 07       		.byte	0x7
 676 01e6 B4       		.byte	0xb4
 677 01e7 B4040000 		.4byte	0x4b4
 678 01eb 28       		.byte	0x28
 679 01ec 06       		.uleb128 0x6
 680 01ed CB040000 		.4byte	.LASF41
 681 01f1 07       		.byte	0x7
 682 01f2 B9       		.byte	0xb9
 683 01f3 88020000 		.4byte	0x288
 684 01f7 2C       		.byte	0x2c
 685 01f8 06       		.uleb128 0x6
 686 01f9 33040000 		.4byte	.LASF42
 687 01fd 07       		.byte	0x7
 688 01fe BF       		.byte	0xbf
 689 01ff 68020000 		.4byte	0x268
 690 0203 30       		.byte	0x30
 691 0204 06       		.uleb128 0x6
 692 0205 08000000 		.4byte	.LASF43
 693 0209 07       		.byte	0x7
 694 020a C3       		.byte	0xc3
 695 020b 0C010000 		.4byte	0x10c
 696 020f 38       		.byte	0x38
 697 0210 06       		.uleb128 0x6
 698 0211 E1030000 		.4byte	.LASF44
 699 0215 07       		.byte	0x7
 700 0216 C9       		.byte	0xc9
 701 0217 17010000 		.4byte	0x117
 702 021b 3C       		.byte	0x3c
 703 021c 06       		.uleb128 0x6
 704 021d 69030000 		.4byte	.LASF45
 705 0221 07       		.byte	0x7
 706 0222 D0       		.byte	0xd0
 707 0223 01050000 		.4byte	0x501
 708 0227 40       		.byte	0x40
 709 0228 06       		.uleb128 0x6
 710 0229 10040000 		.4byte	.LASF46
 711 022d 07       		.byte	0x7
 712 022e D4       		.byte	0xd4
 713 022f 01010000 		.4byte	0x101
 714 0233 44       		.byte	0x44
 715 0234 06       		.uleb128 0x6
 716 0235 48010000 		.4byte	.LASF47
 717 0239 07       		.byte	0x7
 718 023a DA       		.byte	0xda
 719 023b 9E020000 		.4byte	0x29e
 720 023f 48       		.byte	0x48
 721 0240 00       		.byte	0
 722 0241 08       		.uleb128 0x8
 723 0242 08       		.byte	0x8
 724 0243 06       		.byte	0x6
 725 0244 61       		.byte	0x61
 726 0245 62020000 		.4byte	0x262
 727 0249 06       		.uleb128 0x6
ARM GAS  /tmp/ccsFBhnG.s 			page 14


 728 024a A2030000 		.4byte	.LASF28
 729 024e 06       		.byte	0x6
 730 024f 62       		.byte	0x62
 731 0250 62020000 		.4byte	0x262
 732 0254 00       		.byte	0
 733 0255 06       		.uleb128 0x6
 734 0256 33030000 		.4byte	.LASF29
 735 025a 06       		.byte	0x6
 736 025b 64       		.byte	0x64
 737 025c 62020000 		.4byte	0x262
 738 0260 04       		.byte	0x4
 739 0261 00       		.byte	0
 740 0262 09       		.uleb128 0x9
 741 0263 04       		.byte	0x4
 742 0264 2D010000 		.4byte	0x12d
 743 0268 03       		.uleb128 0x3
 744 0269 8E020000 		.4byte	.LASF48
 745 026d 06       		.byte	0x6
 746 026e 66       		.byte	0x66
 747 026f 41020000 		.4byte	0x241
 748 0273 08       		.uleb128 0x8
 749 0274 04       		.byte	0x4
 750 0275 06       		.byte	0x6
 751 0276 6B       		.byte	0x6b
 752 0277 88020000 		.4byte	0x288
 753 027b 06       		.uleb128 0x6
 754 027c A2030000 		.4byte	.LASF28
 755 0280 06       		.byte	0x6
 756 0281 6D       		.byte	0x6d
 757 0282 62020000 		.4byte	0x262
 758 0286 00       		.byte	0
 759 0287 00       		.byte	0
 760 0288 03       		.uleb128 0x3
 761 0289 48020000 		.4byte	.LASF49
 762 028d 06       		.byte	0x6
 763 028e 70       		.byte	0x70
 764 028f 73020000 		.4byte	0x273
 765 0293 03       		.uleb128 0x3
 766 0294 E1010000 		.4byte	.LASF50
 767 0298 08       		.byte	0x8
 768 0299 E5       		.byte	0xe5
 769 029a 9E020000 		.4byte	0x29e
 770 029e 0A       		.uleb128 0xa
 771 029f 04       		.byte	0x4
 772 02a0 03       		.uleb128 0x3
 773 02a1 72020000 		.4byte	.LASF51
 774 02a5 08       		.byte	0x8
 775 02a6 EB       		.byte	0xeb
 776 02a7 C3000000 		.4byte	0xc3
 777 02ab 0B       		.uleb128 0xb
 778 02ac 2C040000 		.4byte	.LASF52
 779 02b0 24       		.byte	0x24
 780 02b1 08       		.byte	0x8
 781 02b2 0C01     		.2byte	0x10c
 782 02b4 27030000 		.4byte	0x327
 783 02b8 0C       		.uleb128 0xc
 784 02b9 723400   		.ascii	"r4\000"
ARM GAS  /tmp/ccsFBhnG.s 			page 15


 785 02bc 08       		.byte	0x8
 786 02bd 1F01     		.2byte	0x11f
 787 02bf 93020000 		.4byte	0x293
 788 02c3 00       		.byte	0
 789 02c4 0C       		.uleb128 0xc
 790 02c5 723500   		.ascii	"r5\000"
 791 02c8 08       		.byte	0x8
 792 02c9 2001     		.2byte	0x120
 793 02cb 93020000 		.4byte	0x293
 794 02cf 04       		.byte	0x4
 795 02d0 0C       		.uleb128 0xc
 796 02d1 723600   		.ascii	"r6\000"
 797 02d4 08       		.byte	0x8
 798 02d5 2101     		.2byte	0x121
 799 02d7 93020000 		.4byte	0x293
 800 02db 08       		.byte	0x8
 801 02dc 0C       		.uleb128 0xc
 802 02dd 723700   		.ascii	"r7\000"
 803 02e0 08       		.byte	0x8
 804 02e1 2201     		.2byte	0x122
 805 02e3 93020000 		.4byte	0x293
 806 02e7 0C       		.byte	0xc
 807 02e8 0C       		.uleb128 0xc
 808 02e9 723800   		.ascii	"r8\000"
 809 02ec 08       		.byte	0x8
 810 02ed 2301     		.2byte	0x123
 811 02ef 93020000 		.4byte	0x293
 812 02f3 10       		.byte	0x10
 813 02f4 0C       		.uleb128 0xc
 814 02f5 723900   		.ascii	"r9\000"
 815 02f8 08       		.byte	0x8
 816 02f9 2401     		.2byte	0x124
 817 02fb 93020000 		.4byte	0x293
 818 02ff 14       		.byte	0x14
 819 0300 0C       		.uleb128 0xc
 820 0301 72313000 		.ascii	"r10\000"
 821 0305 08       		.byte	0x8
 822 0306 2501     		.2byte	0x125
 823 0308 93020000 		.4byte	0x293
 824 030c 18       		.byte	0x18
 825 030d 0C       		.uleb128 0xc
 826 030e 72313100 		.ascii	"r11\000"
 827 0312 08       		.byte	0x8
 828 0313 2601     		.2byte	0x126
 829 0315 93020000 		.4byte	0x293
 830 0319 1C       		.byte	0x1c
 831 031a 0C       		.uleb128 0xc
 832 031b 6C7200   		.ascii	"lr\000"
 833 031e 08       		.byte	0x8
 834 031f 2701     		.2byte	0x127
 835 0321 93020000 		.4byte	0x293
 836 0325 20       		.byte	0x20
 837 0326 00       		.byte	0
 838 0327 0B       		.uleb128 0xb
 839 0328 1A020000 		.4byte	.LASF53
 840 032c 04       		.byte	0x4
 841 032d 08       		.byte	0x8
ARM GAS  /tmp/ccsFBhnG.s 			page 16


 842 032e 3101     		.2byte	0x131
 843 0330 42030000 		.4byte	0x342
 844 0334 0C       		.uleb128 0xc
 845 0335 72313300 		.ascii	"r13\000"
 846 0339 08       		.byte	0x8
 847 033a 3201     		.2byte	0x132
 848 033c 42030000 		.4byte	0x342
 849 0340 00       		.byte	0
 850 0341 00       		.byte	0
 851 0342 09       		.uleb128 0x9
 852 0343 04       		.byte	0x4
 853 0344 AB020000 		.4byte	0x2ab
 854 0348 04       		.uleb128 0x4
 855 0349 04       		.byte	0x4
 856 034a 07       		.byte	0x7
 857 034b 7D020000 		.4byte	.LASF54
 858 034f 0D       		.uleb128 0xd
 859 0350 22010000 		.4byte	0x122
 860 0354 05       		.uleb128 0x5
 861 0355 60020000 		.4byte	.LASF55
 862 0359 10       		.byte	0x10
 863 035a 09       		.byte	0x9
 864 035b 2C       		.byte	0x2c
 865 035c 85030000 		.4byte	0x385
 866 0360 06       		.uleb128 0x6
 867 0361 50010000 		.4byte	.LASF56
 868 0365 09       		.byte	0x9
 869 0366 2D       		.byte	0x2d
 870 0367 68020000 		.4byte	0x268
 871 036b 00       		.byte	0
 872 036c 06       		.uleb128 0x6
 873 036d BD040000 		.4byte	.LASF57
 874 0371 09       		.byte	0x9
 875 0372 2F       		.byte	0x2f
 876 0373 62020000 		.4byte	0x262
 877 0377 08       		.byte	0x8
 878 0378 06       		.uleb128 0x6
 879 0379 FF030000 		.4byte	.LASF58
 880 037d 09       		.byte	0x9
 881 037e 31       		.byte	0x31
 882 037f 85030000 		.4byte	0x385
 883 0383 0C       		.byte	0xc
 884 0384 00       		.byte	0
 885 0385 09       		.uleb128 0x9
 886 0386 04       		.byte	0x4
 887 0387 54030000 		.4byte	0x354
 888 038b 03       		.uleb128 0x3
 889 038c 60020000 		.4byte	.LASF55
 890 0390 09       		.byte	0x9
 891 0391 33       		.byte	0x33
 892 0392 54030000 		.4byte	0x354
 893 0396 03       		.uleb128 0x3
 894 0397 3A000000 		.4byte	.LASF59
 895 039b 0A       		.byte	0xa
 896 039c 2C       		.byte	0x2c
 897 039d A1030000 		.4byte	0x3a1
 898 03a1 09       		.uleb128 0x9
ARM GAS  /tmp/ccsFBhnG.s 			page 17


 899 03a2 04       		.byte	0x4
 900 03a3 A7030000 		.4byte	0x3a7
 901 03a7 0E       		.uleb128 0xe
 902 03a8 9E020000 		.4byte	0x29e
 903 03ac B6030000 		.4byte	0x3b6
 904 03b0 0F       		.uleb128 0xf
 905 03b1 2C000000 		.4byte	0x2c
 906 03b5 00       		.byte	0
 907 03b6 03       		.uleb128 0x3
 908 03b7 08030000 		.4byte	.LASF60
 909 03bb 0B       		.byte	0xb
 910 03bc 34       		.byte	0x34
 911 03bd C1030000 		.4byte	0x3c1
 912 03c1 05       		.uleb128 0x5
 913 03c2 D5040000 		.4byte	.LASF61
 914 03c6 20       		.byte	0x20
 915 03c7 0B       		.byte	0xb
 916 03c8 47       		.byte	0x47
 917 03c9 F2030000 		.4byte	0x3f2
 918 03cd 06       		.uleb128 0x6
 919 03ce 5E030000 		.4byte	.LASF62
 920 03d2 0B       		.byte	0xb
 921 03d3 48       		.byte	0x48
 922 03d4 96030000 		.4byte	0x396
 923 03d8 00       		.byte	0
 924 03d9 06       		.uleb128 0x6
 925 03da 04010000 		.4byte	.LASF63
 926 03de 0B       		.byte	0xb
 927 03df 4A       		.byte	0x4a
 928 03e0 11040000 		.4byte	0x411
 929 03e4 08       		.byte	0x8
 930 03e5 06       		.uleb128 0x6
 931 03e6 42010000 		.4byte	.LASF64
 932 03ea 0B       		.byte	0xb
 933 03eb 4C       		.byte	0x4c
 934 03ec 8B030000 		.4byte	0x38b
 935 03f0 10       		.byte	0x10
 936 03f1 00       		.byte	0
 937 03f2 10       		.uleb128 0x10
 938 03f3 04       		.byte	0x4
 939 03f4 0B       		.byte	0xb
 940 03f5 3C       		.byte	0x3c
 941 03f6 11040000 		.4byte	0x411
 942 03fa 11       		.uleb128 0x11
 943 03fb 1C010000 		.4byte	.LASF65
 944 03ff 0B       		.byte	0xb
 945 0400 3D       		.byte	0x3d
 946 0401 32040000 		.4byte	0x432
 947 0405 11       		.uleb128 0x11
 948 0406 F5030000 		.4byte	.LASF66
 949 040a 0B       		.byte	0xb
 950 040b 3E       		.byte	0x3e
 951 040c 38040000 		.4byte	0x438
 952 0410 00       		.byte	0
 953 0411 12       		.uleb128 0x12
 954 0412 8F030000 		.4byte	.LASF100
 955 0416 08       		.byte	0x8
ARM GAS  /tmp/ccsFBhnG.s 			page 18


 956 0417 0B       		.byte	0xb
 957 0418 39       		.byte	0x39
 958 0419 32040000 		.4byte	0x432
 959 041d 11       		.uleb128 0x11
 960 041e EA010000 		.4byte	.LASF67
 961 0422 0B       		.byte	0xb
 962 0423 3A       		.byte	0x3a
 963 0424 A0020000 		.4byte	0x2a0
 964 0428 13       		.uleb128 0x13
 965 0429 6800     		.ascii	"h\000"
 966 042b 0B       		.byte	0xb
 967 042c 41       		.byte	0x41
 968 042d 3E040000 		.4byte	0x43e
 969 0431 00       		.byte	0
 970 0432 09       		.uleb128 0x9
 971 0433 04       		.byte	0x4
 972 0434 11040000 		.4byte	0x411
 973 0438 09       		.uleb128 0x9
 974 0439 04       		.byte	0x4
 975 043a B6030000 		.4byte	0x3b6
 976 043e 08       		.uleb128 0x8
 977 043f 08       		.byte	0x8
 978 0440 0B       		.byte	0xb
 979 0441 3B       		.byte	0x3b
 980 0442 5D040000 		.4byte	0x45d
 981 0446 07       		.uleb128 0x7
 982 0447 7500     		.ascii	"u\000"
 983 0449 0B       		.byte	0xb
 984 044a 3F       		.byte	0x3f
 985 044b F2030000 		.4byte	0x3f2
 986 044f 00       		.byte	0
 987 0450 06       		.uleb128 0x6
 988 0451 22020000 		.4byte	.LASF68
 989 0455 0B       		.byte	0xb
 990 0456 40       		.byte	0x40
 991 0457 2C000000 		.4byte	0x2c
 992 045b 04       		.byte	0x4
 993 045c 00       		.byte	0
 994 045d 05       		.uleb128 0x5
 995 045e 6E040000 		.4byte	.LASF69
 996 0462 04       		.byte	0x4
 997 0463 0C       		.byte	0xc
 998 0464 2C       		.byte	0x2c
 999 0465 76040000 		.4byte	0x476
 1000 0469 06       		.uleb128 0x6
 1001 046a 1E030000 		.4byte	.LASF70
 1002 046e 0C       		.byte	0xc
 1003 046f 2D       		.byte	0x2d
 1004 0470 76040000 		.4byte	0x476
 1005 0474 00       		.byte	0
 1006 0475 00       		.byte	0
 1007 0476 09       		.uleb128 0x9
 1008 0477 04       		.byte	0x4
 1009 0478 5D040000 		.4byte	0x45d
 1010 047c 08       		.uleb128 0x8
 1011 047d 0C       		.byte	0xc
 1012 047e 0C       		.byte	0xc
ARM GAS  /tmp/ccsFBhnG.s 			page 19


 1013 047f 34       		.byte	0x34
 1014 0480 A9040000 		.4byte	0x4a9
 1015 0484 06       		.uleb128 0x6
 1016 0485 A0010000 		.4byte	.LASF71
 1017 0489 0C       		.byte	0xc
 1018 048a 35       		.byte	0x35
 1019 048b 76040000 		.4byte	0x476
 1020 048f 00       		.byte	0
 1021 0490 06       		.uleb128 0x6
 1022 0491 AE040000 		.4byte	.LASF72
 1023 0495 0C       		.byte	0xc
 1024 0496 36       		.byte	0x36
 1025 0497 2C000000 		.4byte	0x2c
 1026 049b 04       		.byte	0x4
 1027 049c 06       		.uleb128 0x6
 1028 049d D5010000 		.4byte	.LASF73
 1029 04a1 0C       		.byte	0xc
 1030 04a2 38       		.byte	0x38
 1031 04a3 96030000 		.4byte	0x396
 1032 04a7 08       		.byte	0x8
 1033 04a8 00       		.byte	0
 1034 04a9 03       		.uleb128 0x3
 1035 04aa 2F000000 		.4byte	.LASF74
 1036 04ae 0C       		.byte	0xc
 1037 04af 3A       		.byte	0x3a
 1038 04b0 7C040000 		.4byte	0x47c
 1039 04b4 10       		.uleb128 0x10
 1040 04b5 04       		.byte	0x4
 1041 04b6 07       		.byte	0x7
 1042 04b7 96       		.byte	0x96
 1043 04b8 E9040000 		.4byte	0x4e9
 1044 04bc 11       		.uleb128 0x11
 1045 04bd 15000000 		.4byte	.LASF75
 1046 04c1 07       		.byte	0x7
 1047 04c2 9D       		.byte	0x9d
 1048 04c3 0C010000 		.4byte	0x10c
 1049 04c7 11       		.uleb128 0x11
 1050 04c8 FB000000 		.4byte	.LASF76
 1051 04cc 07       		.byte	0x7
 1052 04cd A4       		.byte	0xa4
 1053 04ce 0C010000 		.4byte	0x10c
 1054 04d2 11       		.uleb128 0x11
 1055 04d3 A0040000 		.4byte	.LASF77
 1056 04d7 07       		.byte	0x7
 1057 04d8 AB       		.byte	0xab
 1058 04d9 9E020000 		.4byte	0x29e
 1059 04dd 11       		.uleb128 0x11
 1060 04de 9B030000 		.4byte	.LASF78
 1061 04e2 07       		.byte	0x7
 1062 04e3 B2       		.byte	0xb2
 1063 04e4 17010000 		.4byte	0x117
 1064 04e8 00       		.byte	0
 1065 04e9 09       		.uleb128 0x9
 1066 04ea 04       		.byte	0x4
 1067 04eb EF040000 		.4byte	0x4ef
 1068 04ef 14       		.uleb128 0x14
 1069 04f0 F4040000 		.4byte	0x4f4
ARM GAS  /tmp/ccsFBhnG.s 			page 20


 1070 04f4 04       		.uleb128 0x4
 1071 04f5 01       		.byte	0x1
 1072 04f6 08       		.byte	0x8
 1073 04f7 FA030000 		.4byte	.LASF79
 1074 04fb 09       		.uleb128 0x9
 1075 04fc 04       		.byte	0x4
 1076 04fd A0020000 		.4byte	0x2a0
 1077 0501 09       		.uleb128 0x9
 1078 0502 04       		.byte	0x4
 1079 0503 8B030000 		.4byte	0x38b
 1080 0507 03       		.uleb128 0x3
 1081 0508 00000000 		.4byte	.LASF80
 1082 050c 07       		.byte	0x7
 1083 050d E5       		.byte	0xe5
 1084 050e 12050000 		.4byte	0x512
 1085 0512 09       		.uleb128 0x9
 1086 0513 04       		.byte	0x4
 1087 0514 18050000 		.4byte	0x518
 1088 0518 0E       		.uleb128 0xe
 1089 0519 0C010000 		.4byte	0x10c
 1090 051d 27050000 		.4byte	0x527
 1091 0521 0F       		.uleb128 0xf
 1092 0522 9E020000 		.4byte	0x29e
 1093 0526 00       		.byte	0
 1094 0527 09       		.uleb128 0x9
 1095 0528 04       		.byte	0x4
 1096 0529 A2000000 		.4byte	0xa2
 1097 052d 15       		.uleb128 0x15
 1098 052e 66020000 		.4byte	.LASF82
 1099 0532 01       		.byte	0x1
 1100 0533 34       		.byte	0x34
 1101 0534 62020000 		.4byte	0x262
 1102 0538 00000000 		.4byte	.LFB7
 1103 053c 3C000000 		.4byte	.LFE7-.LFB7
 1104 0540 01       		.uleb128 0x1
 1105 0541 9C       		.byte	0x9c
 1106 0542 AC050000 		.4byte	0x5ac
 1107 0546 16       		.uleb128 0x16
 1108 0547 747000   		.ascii	"tp\000"
 1109 054a 01       		.byte	0x1
 1110 054b 34       		.byte	0x34
 1111 054c 62020000 		.4byte	0x262
 1112 0550 00000000 		.4byte	.LLST0
 1113 0554 17       		.uleb128 0x17
 1114 0555 00000000 		.4byte	.Ldebug_ranges0+0
 1115 0559 6B050000 		.4byte	0x56b
 1116 055d 18       		.uleb128 0x18
 1117 055e 746D7000 		.ascii	"tmp\000"
 1118 0562 01       		.byte	0x1
 1119 0563 36       		.byte	0x36
 1120 0564 B8000000 		.4byte	0xb8
 1121 0568 01       		.uleb128 0x1
 1122 0569 53       		.byte	0x53
 1123 056a 00       		.byte	0
 1124 056b 19       		.uleb128 0x19
 1125 056c 20000000 		.4byte	.LBB4
 1126 0570 06000000 		.4byte	.LBE4-.LBB4
ARM GAS  /tmp/ccsFBhnG.s 			page 21


 1127 0574 86050000 		.4byte	0x586
 1128 0578 18       		.uleb128 0x18
 1129 0579 746D7000 		.ascii	"tmp\000"
 1130 057d 01       		.byte	0x1
 1131 057e 39       		.byte	0x39
 1132 057f B8000000 		.4byte	0xb8
 1133 0583 01       		.uleb128 0x1
 1134 0584 53       		.byte	0x53
 1135 0585 00       		.byte	0
 1136 0586 1A       		.uleb128 0x1a
 1137 0587 0E000000 		.4byte	.LVL1
 1138 058b 31090000 		.4byte	0x931
 1139 058f 1A       		.uleb128 0x1a
 1140 0590 20000000 		.4byte	.LVL2
 1141 0594 38090000 		.4byte	0x938
 1142 0598 1B       		.uleb128 0x1b
 1143 0599 36000000 		.4byte	.LVL4
 1144 059d 3F090000 		.4byte	0x93f
 1145 05a1 1C       		.uleb128 0x1c
 1146 05a2 01       		.uleb128 0x1
 1147 05a3 50       		.byte	0x50
 1148 05a4 05       		.uleb128 0x5
 1149 05a5 03       		.byte	0x3
 1150 05a6 00000000 		.4byte	.LC0
 1151 05aa 00       		.byte	0
 1152 05ab 00       		.byte	0
 1153 05ac 1D       		.uleb128 0x1d
 1154 05ad C1030000 		.4byte	.LASF101
 1155 05b1 01       		.byte	0x1
 1156 05b2 4A       		.byte	0x4a
 1157 05b3 00000000 		.4byte	.LFB8
 1158 05b7 80000000 		.4byte	.LFE8-.LFB8
 1159 05bb 01       		.uleb128 0x1
 1160 05bc 9C       		.byte	0x9c
 1161 05bd 64060000 		.4byte	0x664
 1162 05c1 16       		.uleb128 0x16
 1163 05c2 747000   		.ascii	"tp\000"
 1164 05c5 01       		.byte	0x1
 1165 05c6 4A       		.byte	0x4a
 1166 05c7 62020000 		.4byte	0x262
 1167 05cb 1E000000 		.4byte	.LLST1
 1168 05cf 1E       		.uleb128 0x1e
 1169 05d0 2E030000 		.4byte	.LASF81
 1170 05d4 01       		.byte	0x1
 1171 05d5 4B       		.byte	0x4b
 1172 05d6 EB000000 		.4byte	0xeb
 1173 05da 79000000 		.4byte	.LLST2
 1174 05de 19       		.uleb128 0x19
 1175 05df 04000000 		.4byte	.LBB5
 1176 05e3 06000000 		.4byte	.LBE5-.LBB5
 1177 05e7 F9050000 		.4byte	0x5f9
 1178 05eb 18       		.uleb128 0x18
 1179 05ec 746D7000 		.ascii	"tmp\000"
 1180 05f0 01       		.byte	0x1
 1181 05f1 4D       		.byte	0x4d
 1182 05f2 B8000000 		.4byte	0xb8
 1183 05f6 01       		.uleb128 0x1
ARM GAS  /tmp/ccsFBhnG.s 			page 22


 1184 05f7 53       		.byte	0x53
 1185 05f8 00       		.byte	0
 1186 05f9 19       		.uleb128 0x19
 1187 05fa 20000000 		.4byte	.LBB6
 1188 05fe 06000000 		.4byte	.LBE6-.LBB6
 1189 0602 14060000 		.4byte	0x614
 1190 0606 18       		.uleb128 0x18
 1191 0607 746D7000 		.ascii	"tmp\000"
 1192 060b 01       		.byte	0x1
 1193 060c 50       		.byte	0x50
 1194 060d B8000000 		.4byte	0xb8
 1195 0611 01       		.uleb128 0x1
 1196 0612 53       		.byte	0x53
 1197 0613 00       		.byte	0
 1198 0614 1A       		.uleb128 0x1a
 1199 0615 0E000000 		.4byte	.LVL6
 1200 0619 31090000 		.4byte	0x931
 1201 061d 1A       		.uleb128 0x1a
 1202 061e 20000000 		.4byte	.LVL8
 1203 0622 38090000 		.4byte	0x938
 1204 0626 1F       		.uleb128 0x1f
 1205 0627 50000000 		.4byte	.LVL11
 1206 062b 3F090000 		.4byte	0x93f
 1207 062f 3D060000 		.4byte	0x63d
 1208 0633 1C       		.uleb128 0x1c
 1209 0634 01       		.uleb128 0x1
 1210 0635 50       		.byte	0x50
 1211 0636 05       		.uleb128 0x5
 1212 0637 03       		.byte	0x3
 1213 0638 14000000 		.4byte	.LC1
 1214 063c 00       		.byte	0
 1215 063d 20       		.uleb128 0x20
 1216 063e 6A000000 		.4byte	.LVL14
 1217 0642 50090000 		.4byte	0x950
 1218 0646 52060000 		.4byte	0x652
 1219 064a 1C       		.uleb128 0x1c
 1220 064b 01       		.uleb128 0x1
 1221 064c 50       		.byte	0x50
 1222 064d 03       		.uleb128 0x3
 1223 064e F3       		.byte	0xf3
 1224 064f 01       		.uleb128 0x1
 1225 0650 50       		.byte	0x50
 1226 0651 00       		.byte	0
 1227 0652 21       		.uleb128 0x21
 1228 0653 80000000 		.4byte	.LVL16
 1229 0657 61090000 		.4byte	0x961
 1230 065b 1C       		.uleb128 0x1c
 1231 065c 01       		.uleb128 0x1
 1232 065d 51       		.byte	0x51
 1233 065e 03       		.uleb128 0x3
 1234 065f F3       		.byte	0xf3
 1235 0660 01       		.uleb128 0x1
 1236 0661 50       		.byte	0x50
 1237 0662 00       		.byte	0
 1238 0663 00       		.byte	0
 1239 0664 15       		.uleb128 0x15
 1240 0665 83010000 		.4byte	.LASF83
ARM GAS  /tmp/ccsFBhnG.s 			page 23


 1241 0669 01       		.byte	0x1
 1242 066a 82       		.byte	0x82
 1243 066b 62020000 		.4byte	0x262
 1244 066f 00000000 		.4byte	.LFB9
 1245 0673 64000000 		.4byte	.LFE9-.LFB9
 1246 0677 01       		.uleb128 0x1
 1247 0678 9C       		.byte	0x9c
 1248 0679 D1070000 		.4byte	0x7d1
 1249 067d 22       		.uleb128 0x22
 1250 067e 16010000 		.4byte	.LASF84
 1251 0682 01       		.byte	0x1
 1252 0683 82       		.byte	0x82
 1253 0684 38040000 		.4byte	0x438
 1254 0688 A2000000 		.4byte	.LLST3
 1255 068c 22       		.uleb128 0x22
 1256 068d 22020000 		.4byte	.LASF68
 1257 0691 01       		.byte	0x1
 1258 0692 82       		.byte	0x82
 1259 0693 2C000000 		.4byte	0x2c
 1260 0697 C3000000 		.4byte	.LLST4
 1261 069b 22       		.uleb128 0x22
 1262 069c E3020000 		.4byte	.LASF85
 1263 06a0 01       		.byte	0x1
 1264 06a1 83       		.byte	0x83
 1265 06a2 01010000 		.4byte	0x101
 1266 06a6 E1000000 		.4byte	.LLST5
 1267 06aa 16       		.uleb128 0x16
 1268 06ab 706600   		.ascii	"pf\000"
 1269 06ae 01       		.byte	0x1
 1270 06af 83       		.byte	0x83
 1271 06b0 07050000 		.4byte	0x507
 1272 06b4 FF000000 		.4byte	.LLST6
 1273 06b8 23       		.uleb128 0x23
 1274 06b9 61726700 		.ascii	"arg\000"
 1275 06bd 01       		.byte	0x1
 1276 06be 83       		.byte	0x83
 1277 06bf 9E020000 		.4byte	0x29e
 1278 06c3 02       		.uleb128 0x2
 1279 06c4 91       		.byte	0x91
 1280 06c5 00       		.sleb128 0
 1281 06c6 24       		.uleb128 0x24
 1282 06c7 77737000 		.ascii	"wsp\000"
 1283 06cb 01       		.byte	0x1
 1284 06cc 84       		.byte	0x84
 1285 06cd 9E020000 		.4byte	0x29e
 1286 06d1 1D010000 		.4byte	.LLST7
 1287 06d5 24       		.uleb128 0x24
 1288 06d6 747000   		.ascii	"tp\000"
 1289 06d9 01       		.byte	0x1
 1290 06da 85       		.byte	0x85
 1291 06db 62020000 		.4byte	0x262
 1292 06df 49010000 		.4byte	.LLST8
 1293 06e3 19       		.uleb128 0x19
 1294 06e4 2A000000 		.4byte	.LBB7
 1295 06e8 06000000 		.4byte	.LBE7-.LBB7
 1296 06ec FE060000 		.4byte	0x6fe
 1297 06f0 18       		.uleb128 0x18
ARM GAS  /tmp/ccsFBhnG.s 			page 24


 1298 06f1 746D7000 		.ascii	"tmp\000"
 1299 06f5 01       		.byte	0x1
 1300 06f6 94       		.byte	0x94
 1301 06f7 B8000000 		.4byte	0xb8
 1302 06fb 01       		.uleb128 0x1
 1303 06fc 53       		.byte	0x53
 1304 06fd 00       		.byte	0
 1305 06fe 19       		.uleb128 0x19
 1306 06ff 56000000 		.4byte	.LBB8
 1307 0703 06000000 		.4byte	.LBE8-.LBB8
 1308 0707 19070000 		.4byte	0x719
 1309 070b 18       		.uleb128 0x18
 1310 070c 746D7000 		.ascii	"tmp\000"
 1311 0710 01       		.byte	0x1
 1312 0711 98       		.byte	0x98
 1313 0712 B8000000 		.4byte	0xb8
 1314 0716 01       		.uleb128 0x1
 1315 0717 53       		.byte	0x53
 1316 0718 00       		.byte	0
 1317 0719 1F       		.uleb128 0x1f
 1318 071a 10000000 		.4byte	.LVL18
 1319 071e 77090000 		.4byte	0x977
 1320 0722 34070000 		.4byte	0x734
 1321 0726 1C       		.uleb128 0x1c
 1322 0727 01       		.uleb128 0x1
 1323 0728 51       		.byte	0x51
 1324 0729 02       		.uleb128 0x2
 1325 072a 75       		.byte	0x75
 1326 072b 00       		.sleb128 0
 1327 072c 1C       		.uleb128 0x1c
 1328 072d 01       		.uleb128 0x1
 1329 072e 50       		.byte	0x50
 1330 072f 03       		.uleb128 0x3
 1331 0730 F3       		.byte	0xf3
 1332 0731 01       		.uleb128 0x1
 1333 0732 50       		.byte	0x50
 1334 0733 00       		.byte	0
 1335 0734 1F       		.uleb128 0x1f
 1336 0735 20000000 		.4byte	.LVL19
 1337 0739 91090000 		.4byte	0x991
 1338 073d 54070000 		.4byte	0x754
 1339 0741 1C       		.uleb128 0x1c
 1340 0742 01       		.uleb128 0x1
 1341 0743 52       		.byte	0x52
 1342 0744 02       		.uleb128 0x2
 1343 0745 09       		.byte	0x9
 1344 0746 FF       		.byte	0xff
 1345 0747 1C       		.uleb128 0x1c
 1346 0748 01       		.uleb128 0x1
 1347 0749 51       		.byte	0x51
 1348 074a 02       		.uleb128 0x2
 1349 074b 76       		.byte	0x76
 1350 074c 00       		.sleb128 0
 1351 074d 1C       		.uleb128 0x1c
 1352 074e 01       		.uleb128 0x1
 1353 074f 50       		.byte	0x50
 1354 0750 02       		.uleb128 0x2
ARM GAS  /tmp/ccsFBhnG.s 			page 25


 1355 0751 74       		.byte	0x74
 1356 0752 00       		.sleb128 0
 1357 0753 00       		.byte	0
 1358 0754 1F       		.uleb128 0x1f
 1359 0755 2A000000 		.4byte	.LVL20
 1360 0759 91090000 		.4byte	0x991
 1361 075d 77070000 		.4byte	0x777
 1362 0761 1C       		.uleb128 0x1c
 1363 0762 01       		.uleb128 0x1
 1364 0763 52       		.byte	0x52
 1365 0764 02       		.uleb128 0x2
 1366 0765 08       		.byte	0x8
 1367 0766 55       		.byte	0x55
 1368 0767 1C       		.uleb128 0x1c
 1369 0768 01       		.uleb128 0x1
 1370 0769 51       		.byte	0x51
 1371 076a 05       		.uleb128 0x5
 1372 076b 74       		.byte	0x74
 1373 076c 00       		.sleb128 0
 1374 076d 75       		.byte	0x75
 1375 076e 00       		.sleb128 0
 1376 076f 22       		.byte	0x22
 1377 0770 1C       		.uleb128 0x1c
 1378 0771 01       		.uleb128 0x1
 1379 0772 50       		.byte	0x50
 1380 0773 02       		.uleb128 0x2
 1381 0774 76       		.byte	0x76
 1382 0775 00       		.sleb128 0
 1383 0776 00       		.byte	0
 1384 0777 1A       		.uleb128 0x1a
 1385 0778 34000000 		.4byte	.LVL21
 1386 077c 31090000 		.4byte	0x931
 1387 0780 1F       		.uleb128 0x1f
 1388 0781 44000000 		.4byte	.LVL22
 1389 0785 AD090000 		.4byte	0x9ad
 1390 0789 AE070000 		.4byte	0x7ae
 1391 078d 1C       		.uleb128 0x1c
 1392 078e 01       		.uleb128 0x1
 1393 078f 53       		.byte	0x53
 1394 0790 02       		.uleb128 0x2
 1395 0791 77       		.byte	0x77
 1396 0792 00       		.sleb128 0
 1397 0793 1C       		.uleb128 0x1c
 1398 0794 01       		.uleb128 0x1
 1399 0795 52       		.byte	0x52
 1400 0796 02       		.uleb128 0x2
 1401 0797 78       		.byte	0x78
 1402 0798 00       		.sleb128 0
 1403 0799 1C       		.uleb128 0x1c
 1404 079a 01       		.uleb128 0x1
 1405 079b 51       		.byte	0x51
 1406 079c 02       		.uleb128 0x2
 1407 079d 75       		.byte	0x75
 1408 079e 00       		.sleb128 0
 1409 079f 1C       		.uleb128 0x1c
 1410 07a0 01       		.uleb128 0x1
 1411 07a1 50       		.byte	0x50
ARM GAS  /tmp/ccsFBhnG.s 			page 26


 1412 07a2 02       		.uleb128 0x2
 1413 07a3 74       		.byte	0x74
 1414 07a4 00       		.sleb128 0
 1415 07a5 1C       		.uleb128 0x1c
 1416 07a6 02       		.uleb128 0x2
 1417 07a7 7D       		.byte	0x7d
 1418 07a8 00       		.sleb128 0
 1419 07a9 03       		.uleb128 0x3
 1420 07aa 91       		.byte	0x91
 1421 07ab 00       		.sleb128 0
 1422 07ac 06       		.byte	0x6
 1423 07ad 00       		.byte	0
 1424 07ae 1F       		.uleb128 0x1f
 1425 07af 52000000 		.4byte	.LVL24
 1426 07b3 D7090000 		.4byte	0x9d7
 1427 07b7 C7070000 		.4byte	0x7c7
 1428 07bb 1C       		.uleb128 0x1c
 1429 07bc 01       		.uleb128 0x1
 1430 07bd 51       		.byte	0x51
 1431 07be 01       		.uleb128 0x1
 1432 07bf 30       		.byte	0x30
 1433 07c0 1C       		.uleb128 0x1c
 1434 07c1 01       		.uleb128 0x1
 1435 07c2 50       		.byte	0x50
 1436 07c3 02       		.uleb128 0x2
 1437 07c4 74       		.byte	0x74
 1438 07c5 00       		.sleb128 0
 1439 07c6 00       		.byte	0
 1440 07c7 1A       		.uleb128 0x1a
 1441 07c8 56000000 		.4byte	.LVL25
 1442 07cc 38090000 		.4byte	0x938
 1443 07d0 00       		.byte	0
 1444 07d1 15       		.uleb128 0x15
 1445 07d2 B0010000 		.4byte	.LASF86
 1446 07d6 01       		.byte	0x1
 1447 07d7 B3       		.byte	0xb3
 1448 07d8 62020000 		.4byte	0x262
 1449 07dc 00000000 		.4byte	.LFB10
 1450 07e0 7C000000 		.4byte	.LFE10-.LFB10
 1451 07e4 01       		.uleb128 0x1
 1452 07e5 9C       		.byte	0x9c
 1453 07e6 2B090000 		.4byte	0x92b
 1454 07ea 16       		.uleb128 0x16
 1455 07eb 6D7000   		.ascii	"mp\000"
 1456 07ee 01       		.byte	0x1
 1457 07ef B3       		.byte	0xb3
 1458 07f0 2B090000 		.4byte	0x92b
 1459 07f4 67010000 		.4byte	.LLST9
 1460 07f8 22       		.uleb128 0x22
 1461 07f9 E3020000 		.4byte	.LASF85
 1462 07fd 01       		.byte	0x1
 1463 07fe B3       		.byte	0xb3
 1464 07ff 01010000 		.4byte	0x101
 1465 0803 9B010000 		.4byte	.LLST10
 1466 0807 16       		.uleb128 0x16
 1467 0808 706600   		.ascii	"pf\000"
 1468 080b 01       		.byte	0x1
ARM GAS  /tmp/ccsFBhnG.s 			page 27


 1469 080c B4       		.byte	0xb4
 1470 080d 07050000 		.4byte	0x507
 1471 0811 CF010000 		.4byte	.LLST11
 1472 0815 16       		.uleb128 0x16
 1473 0816 61726700 		.ascii	"arg\000"
 1474 081a 01       		.byte	0x1
 1475 081b B4       		.byte	0xb4
 1476 081c 9E020000 		.4byte	0x29e
 1477 0820 03020000 		.4byte	.LLST12
 1478 0824 24       		.uleb128 0x24
 1479 0825 77737000 		.ascii	"wsp\000"
 1480 0829 01       		.byte	0x1
 1481 082a B5       		.byte	0xb5
 1482 082b 9E020000 		.4byte	0x29e
 1483 082f 37020000 		.4byte	.LLST13
 1484 0833 24       		.uleb128 0x24
 1485 0834 747000   		.ascii	"tp\000"
 1486 0837 01       		.byte	0x1
 1487 0838 B6       		.byte	0xb6
 1488 0839 62020000 		.4byte	0x262
 1489 083d 63020000 		.4byte	.LLST14
 1490 0841 19       		.uleb128 0x19
 1491 0842 32000000 		.4byte	.LBB9
 1492 0846 06000000 		.4byte	.LBE9-.LBB9
 1493 084a 5C080000 		.4byte	0x85c
 1494 084e 18       		.uleb128 0x18
 1495 084f 746D7000 		.ascii	"tmp\000"
 1496 0853 01       		.byte	0x1
 1497 0854 C7       		.byte	0xc7
 1498 0855 B8000000 		.4byte	0xb8
 1499 0859 01       		.uleb128 0x1
 1500 085a 53       		.byte	0x53
 1501 085b 00       		.byte	0
 1502 085c 19       		.uleb128 0x19
 1503 085d 60000000 		.4byte	.LBB10
 1504 0861 06000000 		.4byte	.LBE10-.LBB10
 1505 0865 77080000 		.4byte	0x877
 1506 0869 18       		.uleb128 0x18
 1507 086a 746D7000 		.ascii	"tmp\000"
 1508 086e 01       		.byte	0x1
 1509 086f CC       		.byte	0xcc
 1510 0870 B8000000 		.4byte	0xb8
 1511 0874 01       		.uleb128 0x1
 1512 0875 53       		.byte	0x53
 1513 0876 00       		.byte	0
 1514 0877 1F       		.uleb128 0x1f
 1515 0878 16000000 		.4byte	.LVL29
 1516 087c ED090000 		.4byte	0x9ed
 1517 0880 8B080000 		.4byte	0x88b
 1518 0884 1C       		.uleb128 0x1c
 1519 0885 01       		.uleb128 0x1
 1520 0886 50       		.byte	0x50
 1521 0887 02       		.uleb128 0x2
 1522 0888 74       		.byte	0x74
 1523 0889 00       		.sleb128 0
 1524 088a 00       		.byte	0
 1525 088b 1F       		.uleb128 0x1f
ARM GAS  /tmp/ccsFBhnG.s 			page 28


 1526 088c 26000000 		.4byte	.LVL30
 1527 0890 91090000 		.4byte	0x991
 1528 0894 AB080000 		.4byte	0x8ab
 1529 0898 1C       		.uleb128 0x1c
 1530 0899 01       		.uleb128 0x1
 1531 089a 52       		.byte	0x52
 1532 089b 02       		.uleb128 0x2
 1533 089c 09       		.byte	0x9
 1534 089d FF       		.byte	0xff
 1535 089e 1C       		.uleb128 0x1c
 1536 089f 01       		.uleb128 0x1
 1537 08a0 51       		.byte	0x51
 1538 08a1 02       		.uleb128 0x2
 1539 08a2 76       		.byte	0x76
 1540 08a3 00       		.sleb128 0
 1541 08a4 1C       		.uleb128 0x1c
 1542 08a5 01       		.uleb128 0x1
 1543 08a6 50       		.byte	0x50
 1544 08a7 02       		.uleb128 0x2
 1545 08a8 75       		.byte	0x75
 1546 08a9 00       		.sleb128 0
 1547 08aa 00       		.byte	0
 1548 08ab 1F       		.uleb128 0x1f
 1549 08ac 32000000 		.4byte	.LVL31
 1550 08b0 91090000 		.4byte	0x991
 1551 08b4 C5080000 		.4byte	0x8c5
 1552 08b8 1C       		.uleb128 0x1c
 1553 08b9 01       		.uleb128 0x1
 1554 08ba 52       		.byte	0x52
 1555 08bb 02       		.uleb128 0x2
 1556 08bc 08       		.byte	0x8
 1557 08bd 55       		.byte	0x55
 1558 08be 1C       		.uleb128 0x1c
 1559 08bf 01       		.uleb128 0x1
 1560 08c0 50       		.byte	0x50
 1561 08c1 02       		.uleb128 0x2
 1562 08c2 76       		.byte	0x76
 1563 08c3 00       		.sleb128 0
 1564 08c4 00       		.byte	0
 1565 08c5 1A       		.uleb128 0x1a
 1566 08c6 3C000000 		.4byte	.LVL32
 1567 08ca 31090000 		.4byte	0x931
 1568 08ce 1F       		.uleb128 0x1f
 1569 08cf 4C000000 		.4byte	.LVL33
 1570 08d3 AD090000 		.4byte	0x9ad
 1571 08d7 F5080000 		.4byte	0x8f5
 1572 08db 1C       		.uleb128 0x1c
 1573 08dc 01       		.uleb128 0x1
 1574 08dd 53       		.byte	0x53
 1575 08de 02       		.uleb128 0x2
 1576 08df 77       		.byte	0x77
 1577 08e0 00       		.sleb128 0
 1578 08e1 1C       		.uleb128 0x1c
 1579 08e2 01       		.uleb128 0x1
 1580 08e3 52       		.byte	0x52
 1581 08e4 02       		.uleb128 0x2
 1582 08e5 78       		.byte	0x78
ARM GAS  /tmp/ccsFBhnG.s 			page 29


 1583 08e6 00       		.sleb128 0
 1584 08e7 1C       		.uleb128 0x1c
 1585 08e8 01       		.uleb128 0x1
 1586 08e9 50       		.byte	0x50
 1587 08ea 02       		.uleb128 0x2
 1588 08eb 75       		.byte	0x75
 1589 08ec 00       		.sleb128 0
 1590 08ed 1C       		.uleb128 0x1c
 1591 08ee 02       		.uleb128 0x2
 1592 08ef 7D       		.byte	0x7d
 1593 08f0 00       		.sleb128 0
 1594 08f1 02       		.uleb128 0x2
 1595 08f2 79       		.byte	0x79
 1596 08f3 00       		.sleb128 0
 1597 08f4 00       		.byte	0
 1598 08f5 1F       		.uleb128 0x1f
 1599 08f6 5C000000 		.4byte	.LVL35
 1600 08fa D7090000 		.4byte	0x9d7
 1601 08fe 0E090000 		.4byte	0x90e
 1602 0902 1C       		.uleb128 0x1c
 1603 0903 01       		.uleb128 0x1
 1604 0904 51       		.byte	0x51
 1605 0905 01       		.uleb128 0x1
 1606 0906 30       		.byte	0x30
 1607 0907 1C       		.uleb128 0x1c
 1608 0908 01       		.uleb128 0x1
 1609 0909 50       		.byte	0x50
 1610 090a 02       		.uleb128 0x2
 1611 090b 75       		.byte	0x75
 1612 090c 00       		.sleb128 0
 1613 090d 00       		.byte	0
 1614 090e 1A       		.uleb128 0x1a
 1615 090f 60000000 		.4byte	.LVL36
 1616 0913 38090000 		.4byte	0x938
 1617 0917 1B       		.uleb128 0x1b
 1618 0918 7A000000 		.4byte	.LVL40
 1619 091c 3F090000 		.4byte	0x93f
 1620 0920 1C       		.uleb128 0x1c
 1621 0921 01       		.uleb128 0x1
 1622 0922 50       		.byte	0x50
 1623 0923 05       		.uleb128 0x5
 1624 0924 03       		.byte	0x3
 1625 0925 28000000 		.4byte	.LC2
 1626 0929 00       		.byte	0
 1627 092a 00       		.byte	0
 1628 092b 09       		.uleb128 0x9
 1629 092c 04       		.byte	0x4
 1630 092d A9040000 		.4byte	0x4a9
 1631 0931 25       		.uleb128 0x25
 1632 0932 E8020000 		.4byte	.LASF87
 1633 0936 0D       		.byte	0xd
 1634 0937 E7       		.byte	0xe7
 1635 0938 25       		.uleb128 0x25
 1636 0939 F7020000 		.4byte	.LASF88
 1637 093d 0D       		.byte	0xd
 1638 093e E8       		.byte	0xe8
 1639 093f 26       		.uleb128 0x26
ARM GAS  /tmp/ccsFBhnG.s 			page 30


 1640 0940 0B010000 		.4byte	.LASF89
 1641 0944 0D       		.byte	0xd
 1642 0945 F6       		.byte	0xf6
 1643 0946 50090000 		.4byte	0x950
 1644 094a 0F       		.uleb128 0xf
 1645 094b E9040000 		.4byte	0x4e9
 1646 094f 00       		.byte	0
 1647 0950 26       		.uleb128 0x26
 1648 0951 58010000 		.4byte	.LASF90
 1649 0955 0B       		.byte	0xb
 1650 0956 5A       		.byte	0x5a
 1651 0957 61090000 		.4byte	0x961
 1652 095b 0F       		.uleb128 0xf
 1653 095c 9E020000 		.4byte	0x29e
 1654 0960 00       		.byte	0
 1655 0961 26       		.uleb128 0x26
 1656 0962 95040000 		.4byte	.LASF91
 1657 0966 0C       		.byte	0xc
 1658 0967 84       		.byte	0x84
 1659 0968 77090000 		.4byte	0x977
 1660 096c 0F       		.uleb128 0xf
 1661 096d 2B090000 		.4byte	0x92b
 1662 0971 0F       		.uleb128 0xf
 1663 0972 9E020000 		.4byte	0x29e
 1664 0976 00       		.byte	0
 1665 0977 27       		.uleb128 0x27
 1666 0978 D5030000 		.4byte	.LASF93
 1667 097c 0B       		.byte	0xb
 1668 097d 59       		.byte	0x59
 1669 097e 9E020000 		.4byte	0x29e
 1670 0982 91090000 		.4byte	0x991
 1671 0986 0F       		.uleb128 0xf
 1672 0987 38040000 		.4byte	0x438
 1673 098b 0F       		.uleb128 0xf
 1674 098c 2C000000 		.4byte	0x2c
 1675 0990 00       		.byte	0
 1676 0991 28       		.uleb128 0x28
 1677 0992 B1030000 		.4byte	.LASF92
 1678 0996 07       		.byte	0x7
 1679 0997 6C01     		.2byte	0x16c
 1680 0999 AD090000 		.4byte	0x9ad
 1681 099d 0F       		.uleb128 0xf
 1682 099e 27050000 		.4byte	0x527
 1683 09a2 0F       		.uleb128 0xf
 1684 09a3 27050000 		.4byte	0x527
 1685 09a7 0F       		.uleb128 0xf
 1686 09a8 A2000000 		.4byte	0xa2
 1687 09ac 00       		.byte	0
 1688 09ad 29       		.uleb128 0x29
 1689 09ae 6D010000 		.4byte	.LASF94
 1690 09b2 07       		.byte	0x7
 1691 09b3 6E01     		.2byte	0x16e
 1692 09b5 62020000 		.4byte	0x262
 1693 09b9 D7090000 		.4byte	0x9d7
 1694 09bd 0F       		.uleb128 0xf
 1695 09be 9E020000 		.4byte	0x29e
 1696 09c2 0F       		.uleb128 0xf
ARM GAS  /tmp/ccsFBhnG.s 			page 31


 1697 09c3 2C000000 		.4byte	0x2c
 1698 09c7 0F       		.uleb128 0xf
 1699 09c8 01010000 		.4byte	0x101
 1700 09cc 0F       		.uleb128 0xf
 1701 09cd 07050000 		.4byte	0x507
 1702 09d1 0F       		.uleb128 0xf
 1703 09d2 9E020000 		.4byte	0x29e
 1704 09d6 00       		.byte	0
 1705 09d7 26       		.uleb128 0x26
 1706 09d8 3E040000 		.4byte	.LASF95
 1707 09dc 0E       		.byte	0xe
 1708 09dd 99       		.byte	0x99
 1709 09de ED090000 		.4byte	0x9ed
 1710 09e2 0F       		.uleb128 0xf
 1711 09e3 62020000 		.4byte	0x262
 1712 09e7 0F       		.uleb128 0xf
 1713 09e8 0C010000 		.4byte	0x10c
 1714 09ec 00       		.byte	0
 1715 09ed 2A       		.uleb128 0x2a
 1716 09ee 89040000 		.4byte	.LASF96
 1717 09f2 0C       		.byte	0xc
 1718 09f3 82       		.byte	0x82
 1719 09f4 9E020000 		.4byte	0x29e
 1720 09f8 0F       		.uleb128 0xf
 1721 09f9 2B090000 		.4byte	0x92b
 1722 09fd 00       		.byte	0
 1723 09fe 00       		.byte	0
 1724              		.section	.debug_abbrev,"",%progbits
 1725              	.Ldebug_abbrev0:
 1726 0000 01       		.uleb128 0x1
 1727 0001 11       		.uleb128 0x11
 1728 0002 01       		.byte	0x1
 1729 0003 25       		.uleb128 0x25
 1730 0004 0E       		.uleb128 0xe
 1731 0005 13       		.uleb128 0x13
 1732 0006 0B       		.uleb128 0xb
 1733 0007 03       		.uleb128 0x3
 1734 0008 0E       		.uleb128 0xe
 1735 0009 1B       		.uleb128 0x1b
 1736 000a 0E       		.uleb128 0xe
 1737 000b 55       		.uleb128 0x55
 1738 000c 17       		.uleb128 0x17
 1739 000d 11       		.uleb128 0x11
 1740 000e 01       		.uleb128 0x1
 1741 000f 10       		.uleb128 0x10
 1742 0010 17       		.uleb128 0x17
 1743 0011 00       		.byte	0
 1744 0012 00       		.byte	0
 1745 0013 02       		.uleb128 0x2
 1746 0014 24       		.uleb128 0x24
 1747 0015 00       		.byte	0
 1748 0016 0B       		.uleb128 0xb
 1749 0017 0B       		.uleb128 0xb
 1750 0018 3E       		.uleb128 0x3e
 1751 0019 0B       		.uleb128 0xb
 1752 001a 03       		.uleb128 0x3
 1753 001b 08       		.uleb128 0x8
ARM GAS  /tmp/ccsFBhnG.s 			page 32


 1754 001c 00       		.byte	0
 1755 001d 00       		.byte	0
 1756 001e 03       		.uleb128 0x3
 1757 001f 16       		.uleb128 0x16
 1758 0020 00       		.byte	0
 1759 0021 03       		.uleb128 0x3
 1760 0022 0E       		.uleb128 0xe
 1761 0023 3A       		.uleb128 0x3a
 1762 0024 0B       		.uleb128 0xb
 1763 0025 3B       		.uleb128 0x3b
 1764 0026 0B       		.uleb128 0xb
 1765 0027 49       		.uleb128 0x49
 1766 0028 13       		.uleb128 0x13
 1767 0029 00       		.byte	0
 1768 002a 00       		.byte	0
 1769 002b 04       		.uleb128 0x4
 1770 002c 24       		.uleb128 0x24
 1771 002d 00       		.byte	0
 1772 002e 0B       		.uleb128 0xb
 1773 002f 0B       		.uleb128 0xb
 1774 0030 3E       		.uleb128 0x3e
 1775 0031 0B       		.uleb128 0xb
 1776 0032 03       		.uleb128 0x3
 1777 0033 0E       		.uleb128 0xe
 1778 0034 00       		.byte	0
 1779 0035 00       		.byte	0
 1780 0036 05       		.uleb128 0x5
 1781 0037 13       		.uleb128 0x13
 1782 0038 01       		.byte	0x1
 1783 0039 03       		.uleb128 0x3
 1784 003a 0E       		.uleb128 0xe
 1785 003b 0B       		.uleb128 0xb
 1786 003c 0B       		.uleb128 0xb
 1787 003d 3A       		.uleb128 0x3a
 1788 003e 0B       		.uleb128 0xb
 1789 003f 3B       		.uleb128 0x3b
 1790 0040 0B       		.uleb128 0xb
 1791 0041 01       		.uleb128 0x1
 1792 0042 13       		.uleb128 0x13
 1793 0043 00       		.byte	0
 1794 0044 00       		.byte	0
 1795 0045 06       		.uleb128 0x6
 1796 0046 0D       		.uleb128 0xd
 1797 0047 00       		.byte	0
 1798 0048 03       		.uleb128 0x3
 1799 0049 0E       		.uleb128 0xe
 1800 004a 3A       		.uleb128 0x3a
 1801 004b 0B       		.uleb128 0xb
 1802 004c 3B       		.uleb128 0x3b
 1803 004d 0B       		.uleb128 0xb
 1804 004e 49       		.uleb128 0x49
 1805 004f 13       		.uleb128 0x13
 1806 0050 38       		.uleb128 0x38
 1807 0051 0B       		.uleb128 0xb
 1808 0052 00       		.byte	0
 1809 0053 00       		.byte	0
 1810 0054 07       		.uleb128 0x7
ARM GAS  /tmp/ccsFBhnG.s 			page 33


 1811 0055 0D       		.uleb128 0xd
 1812 0056 00       		.byte	0
 1813 0057 03       		.uleb128 0x3
 1814 0058 08       		.uleb128 0x8
 1815 0059 3A       		.uleb128 0x3a
 1816 005a 0B       		.uleb128 0xb
 1817 005b 3B       		.uleb128 0x3b
 1818 005c 0B       		.uleb128 0xb
 1819 005d 49       		.uleb128 0x49
 1820 005e 13       		.uleb128 0x13
 1821 005f 38       		.uleb128 0x38
 1822 0060 0B       		.uleb128 0xb
 1823 0061 00       		.byte	0
 1824 0062 00       		.byte	0
 1825 0063 08       		.uleb128 0x8
 1826 0064 13       		.uleb128 0x13
 1827 0065 01       		.byte	0x1
 1828 0066 0B       		.uleb128 0xb
 1829 0067 0B       		.uleb128 0xb
 1830 0068 3A       		.uleb128 0x3a
 1831 0069 0B       		.uleb128 0xb
 1832 006a 3B       		.uleb128 0x3b
 1833 006b 0B       		.uleb128 0xb
 1834 006c 01       		.uleb128 0x1
 1835 006d 13       		.uleb128 0x13
 1836 006e 00       		.byte	0
 1837 006f 00       		.byte	0
 1838 0070 09       		.uleb128 0x9
 1839 0071 0F       		.uleb128 0xf
 1840 0072 00       		.byte	0
 1841 0073 0B       		.uleb128 0xb
 1842 0074 0B       		.uleb128 0xb
 1843 0075 49       		.uleb128 0x49
 1844 0076 13       		.uleb128 0x13
 1845 0077 00       		.byte	0
 1846 0078 00       		.byte	0
 1847 0079 0A       		.uleb128 0xa
 1848 007a 0F       		.uleb128 0xf
 1849 007b 00       		.byte	0
 1850 007c 0B       		.uleb128 0xb
 1851 007d 0B       		.uleb128 0xb
 1852 007e 00       		.byte	0
 1853 007f 00       		.byte	0
 1854 0080 0B       		.uleb128 0xb
 1855 0081 13       		.uleb128 0x13
 1856 0082 01       		.byte	0x1
 1857 0083 03       		.uleb128 0x3
 1858 0084 0E       		.uleb128 0xe
 1859 0085 0B       		.uleb128 0xb
 1860 0086 0B       		.uleb128 0xb
 1861 0087 3A       		.uleb128 0x3a
 1862 0088 0B       		.uleb128 0xb
 1863 0089 3B       		.uleb128 0x3b
 1864 008a 05       		.uleb128 0x5
 1865 008b 01       		.uleb128 0x1
 1866 008c 13       		.uleb128 0x13
 1867 008d 00       		.byte	0
ARM GAS  /tmp/ccsFBhnG.s 			page 34


 1868 008e 00       		.byte	0
 1869 008f 0C       		.uleb128 0xc
 1870 0090 0D       		.uleb128 0xd
 1871 0091 00       		.byte	0
 1872 0092 03       		.uleb128 0x3
 1873 0093 08       		.uleb128 0x8
 1874 0094 3A       		.uleb128 0x3a
 1875 0095 0B       		.uleb128 0xb
 1876 0096 3B       		.uleb128 0x3b
 1877 0097 05       		.uleb128 0x5
 1878 0098 49       		.uleb128 0x49
 1879 0099 13       		.uleb128 0x13
 1880 009a 38       		.uleb128 0x38
 1881 009b 0B       		.uleb128 0xb
 1882 009c 00       		.byte	0
 1883 009d 00       		.byte	0
 1884 009e 0D       		.uleb128 0xd
 1885 009f 35       		.uleb128 0x35
 1886 00a0 00       		.byte	0
 1887 00a1 49       		.uleb128 0x49
 1888 00a2 13       		.uleb128 0x13
 1889 00a3 00       		.byte	0
 1890 00a4 00       		.byte	0
 1891 00a5 0E       		.uleb128 0xe
 1892 00a6 15       		.uleb128 0x15
 1893 00a7 01       		.byte	0x1
 1894 00a8 27       		.uleb128 0x27
 1895 00a9 19       		.uleb128 0x19
 1896 00aa 49       		.uleb128 0x49
 1897 00ab 13       		.uleb128 0x13
 1898 00ac 01       		.uleb128 0x1
 1899 00ad 13       		.uleb128 0x13
 1900 00ae 00       		.byte	0
 1901 00af 00       		.byte	0
 1902 00b0 0F       		.uleb128 0xf
 1903 00b1 05       		.uleb128 0x5
 1904 00b2 00       		.byte	0
 1905 00b3 49       		.uleb128 0x49
 1906 00b4 13       		.uleb128 0x13
 1907 00b5 00       		.byte	0
 1908 00b6 00       		.byte	0
 1909 00b7 10       		.uleb128 0x10
 1910 00b8 17       		.uleb128 0x17
 1911 00b9 01       		.byte	0x1
 1912 00ba 0B       		.uleb128 0xb
 1913 00bb 0B       		.uleb128 0xb
 1914 00bc 3A       		.uleb128 0x3a
 1915 00bd 0B       		.uleb128 0xb
 1916 00be 3B       		.uleb128 0x3b
 1917 00bf 0B       		.uleb128 0xb
 1918 00c0 01       		.uleb128 0x1
 1919 00c1 13       		.uleb128 0x13
 1920 00c2 00       		.byte	0
 1921 00c3 00       		.byte	0
 1922 00c4 11       		.uleb128 0x11
 1923 00c5 0D       		.uleb128 0xd
 1924 00c6 00       		.byte	0
ARM GAS  /tmp/ccsFBhnG.s 			page 35


 1925 00c7 03       		.uleb128 0x3
 1926 00c8 0E       		.uleb128 0xe
 1927 00c9 3A       		.uleb128 0x3a
 1928 00ca 0B       		.uleb128 0xb
 1929 00cb 3B       		.uleb128 0x3b
 1930 00cc 0B       		.uleb128 0xb
 1931 00cd 49       		.uleb128 0x49
 1932 00ce 13       		.uleb128 0x13
 1933 00cf 00       		.byte	0
 1934 00d0 00       		.byte	0
 1935 00d1 12       		.uleb128 0x12
 1936 00d2 17       		.uleb128 0x17
 1937 00d3 01       		.byte	0x1
 1938 00d4 03       		.uleb128 0x3
 1939 00d5 0E       		.uleb128 0xe
 1940 00d6 0B       		.uleb128 0xb
 1941 00d7 0B       		.uleb128 0xb
 1942 00d8 3A       		.uleb128 0x3a
 1943 00d9 0B       		.uleb128 0xb
 1944 00da 3B       		.uleb128 0x3b
 1945 00db 0B       		.uleb128 0xb
 1946 00dc 01       		.uleb128 0x1
 1947 00dd 13       		.uleb128 0x13
 1948 00de 00       		.byte	0
 1949 00df 00       		.byte	0
 1950 00e0 13       		.uleb128 0x13
 1951 00e1 0D       		.uleb128 0xd
 1952 00e2 00       		.byte	0
 1953 00e3 03       		.uleb128 0x3
 1954 00e4 08       		.uleb128 0x8
 1955 00e5 3A       		.uleb128 0x3a
 1956 00e6 0B       		.uleb128 0xb
 1957 00e7 3B       		.uleb128 0x3b
 1958 00e8 0B       		.uleb128 0xb
 1959 00e9 49       		.uleb128 0x49
 1960 00ea 13       		.uleb128 0x13
 1961 00eb 00       		.byte	0
 1962 00ec 00       		.byte	0
 1963 00ed 14       		.uleb128 0x14
 1964 00ee 26       		.uleb128 0x26
 1965 00ef 00       		.byte	0
 1966 00f0 49       		.uleb128 0x49
 1967 00f1 13       		.uleb128 0x13
 1968 00f2 00       		.byte	0
 1969 00f3 00       		.byte	0
 1970 00f4 15       		.uleb128 0x15
 1971 00f5 2E       		.uleb128 0x2e
 1972 00f6 01       		.byte	0x1
 1973 00f7 3F       		.uleb128 0x3f
 1974 00f8 19       		.uleb128 0x19
 1975 00f9 03       		.uleb128 0x3
 1976 00fa 0E       		.uleb128 0xe
 1977 00fb 3A       		.uleb128 0x3a
 1978 00fc 0B       		.uleb128 0xb
 1979 00fd 3B       		.uleb128 0x3b
 1980 00fe 0B       		.uleb128 0xb
 1981 00ff 27       		.uleb128 0x27
ARM GAS  /tmp/ccsFBhnG.s 			page 36


 1982 0100 19       		.uleb128 0x19
 1983 0101 49       		.uleb128 0x49
 1984 0102 13       		.uleb128 0x13
 1985 0103 11       		.uleb128 0x11
 1986 0104 01       		.uleb128 0x1
 1987 0105 12       		.uleb128 0x12
 1988 0106 06       		.uleb128 0x6
 1989 0107 40       		.uleb128 0x40
 1990 0108 18       		.uleb128 0x18
 1991 0109 9742     		.uleb128 0x2117
 1992 010b 19       		.uleb128 0x19
 1993 010c 01       		.uleb128 0x1
 1994 010d 13       		.uleb128 0x13
 1995 010e 00       		.byte	0
 1996 010f 00       		.byte	0
 1997 0110 16       		.uleb128 0x16
 1998 0111 05       		.uleb128 0x5
 1999 0112 00       		.byte	0
 2000 0113 03       		.uleb128 0x3
 2001 0114 08       		.uleb128 0x8
 2002 0115 3A       		.uleb128 0x3a
 2003 0116 0B       		.uleb128 0xb
 2004 0117 3B       		.uleb128 0x3b
 2005 0118 0B       		.uleb128 0xb
 2006 0119 49       		.uleb128 0x49
 2007 011a 13       		.uleb128 0x13
 2008 011b 02       		.uleb128 0x2
 2009 011c 17       		.uleb128 0x17
 2010 011d 00       		.byte	0
 2011 011e 00       		.byte	0
 2012 011f 17       		.uleb128 0x17
 2013 0120 0B       		.uleb128 0xb
 2014 0121 01       		.byte	0x1
 2015 0122 55       		.uleb128 0x55
 2016 0123 17       		.uleb128 0x17
 2017 0124 01       		.uleb128 0x1
 2018 0125 13       		.uleb128 0x13
 2019 0126 00       		.byte	0
 2020 0127 00       		.byte	0
 2021 0128 18       		.uleb128 0x18
 2022 0129 34       		.uleb128 0x34
 2023 012a 00       		.byte	0
 2024 012b 03       		.uleb128 0x3
 2025 012c 08       		.uleb128 0x8
 2026 012d 3A       		.uleb128 0x3a
 2027 012e 0B       		.uleb128 0xb
 2028 012f 3B       		.uleb128 0x3b
 2029 0130 0B       		.uleb128 0xb
 2030 0131 49       		.uleb128 0x49
 2031 0132 13       		.uleb128 0x13
 2032 0133 02       		.uleb128 0x2
 2033 0134 18       		.uleb128 0x18
 2034 0135 00       		.byte	0
 2035 0136 00       		.byte	0
 2036 0137 19       		.uleb128 0x19
 2037 0138 0B       		.uleb128 0xb
 2038 0139 01       		.byte	0x1
ARM GAS  /tmp/ccsFBhnG.s 			page 37


 2039 013a 11       		.uleb128 0x11
 2040 013b 01       		.uleb128 0x1
 2041 013c 12       		.uleb128 0x12
 2042 013d 06       		.uleb128 0x6
 2043 013e 01       		.uleb128 0x1
 2044 013f 13       		.uleb128 0x13
 2045 0140 00       		.byte	0
 2046 0141 00       		.byte	0
 2047 0142 1A       		.uleb128 0x1a
 2048 0143 898201   		.uleb128 0x4109
 2049 0146 00       		.byte	0
 2050 0147 11       		.uleb128 0x11
 2051 0148 01       		.uleb128 0x1
 2052 0149 31       		.uleb128 0x31
 2053 014a 13       		.uleb128 0x13
 2054 014b 00       		.byte	0
 2055 014c 00       		.byte	0
 2056 014d 1B       		.uleb128 0x1b
 2057 014e 898201   		.uleb128 0x4109
 2058 0151 01       		.byte	0x1
 2059 0152 11       		.uleb128 0x11
 2060 0153 01       		.uleb128 0x1
 2061 0154 31       		.uleb128 0x31
 2062 0155 13       		.uleb128 0x13
 2063 0156 00       		.byte	0
 2064 0157 00       		.byte	0
 2065 0158 1C       		.uleb128 0x1c
 2066 0159 8A8201   		.uleb128 0x410a
 2067 015c 00       		.byte	0
 2068 015d 02       		.uleb128 0x2
 2069 015e 18       		.uleb128 0x18
 2070 015f 9142     		.uleb128 0x2111
 2071 0161 18       		.uleb128 0x18
 2072 0162 00       		.byte	0
 2073 0163 00       		.byte	0
 2074 0164 1D       		.uleb128 0x1d
 2075 0165 2E       		.uleb128 0x2e
 2076 0166 01       		.byte	0x1
 2077 0167 3F       		.uleb128 0x3f
 2078 0168 19       		.uleb128 0x19
 2079 0169 03       		.uleb128 0x3
 2080 016a 0E       		.uleb128 0xe
 2081 016b 3A       		.uleb128 0x3a
 2082 016c 0B       		.uleb128 0xb
 2083 016d 3B       		.uleb128 0x3b
 2084 016e 0B       		.uleb128 0xb
 2085 016f 27       		.uleb128 0x27
 2086 0170 19       		.uleb128 0x19
 2087 0171 11       		.uleb128 0x11
 2088 0172 01       		.uleb128 0x1
 2089 0173 12       		.uleb128 0x12
 2090 0174 06       		.uleb128 0x6
 2091 0175 40       		.uleb128 0x40
 2092 0176 18       		.uleb128 0x18
 2093 0177 9742     		.uleb128 0x2117
 2094 0179 19       		.uleb128 0x19
 2095 017a 01       		.uleb128 0x1
ARM GAS  /tmp/ccsFBhnG.s 			page 38


 2096 017b 13       		.uleb128 0x13
 2097 017c 00       		.byte	0
 2098 017d 00       		.byte	0
 2099 017e 1E       		.uleb128 0x1e
 2100 017f 34       		.uleb128 0x34
 2101 0180 00       		.byte	0
 2102 0181 03       		.uleb128 0x3
 2103 0182 0E       		.uleb128 0xe
 2104 0183 3A       		.uleb128 0x3a
 2105 0184 0B       		.uleb128 0xb
 2106 0185 3B       		.uleb128 0x3b
 2107 0186 0B       		.uleb128 0xb
 2108 0187 49       		.uleb128 0x49
 2109 0188 13       		.uleb128 0x13
 2110 0189 02       		.uleb128 0x2
 2111 018a 17       		.uleb128 0x17
 2112 018b 00       		.byte	0
 2113 018c 00       		.byte	0
 2114 018d 1F       		.uleb128 0x1f
 2115 018e 898201   		.uleb128 0x4109
 2116 0191 01       		.byte	0x1
 2117 0192 11       		.uleb128 0x11
 2118 0193 01       		.uleb128 0x1
 2119 0194 31       		.uleb128 0x31
 2120 0195 13       		.uleb128 0x13
 2121 0196 01       		.uleb128 0x1
 2122 0197 13       		.uleb128 0x13
 2123 0198 00       		.byte	0
 2124 0199 00       		.byte	0
 2125 019a 20       		.uleb128 0x20
 2126 019b 898201   		.uleb128 0x4109
 2127 019e 01       		.byte	0x1
 2128 019f 11       		.uleb128 0x11
 2129 01a0 01       		.uleb128 0x1
 2130 01a1 9542     		.uleb128 0x2115
 2131 01a3 19       		.uleb128 0x19
 2132 01a4 31       		.uleb128 0x31
 2133 01a5 13       		.uleb128 0x13
 2134 01a6 01       		.uleb128 0x1
 2135 01a7 13       		.uleb128 0x13
 2136 01a8 00       		.byte	0
 2137 01a9 00       		.byte	0
 2138 01aa 21       		.uleb128 0x21
 2139 01ab 898201   		.uleb128 0x4109
 2140 01ae 01       		.byte	0x1
 2141 01af 11       		.uleb128 0x11
 2142 01b0 01       		.uleb128 0x1
 2143 01b1 9542     		.uleb128 0x2115
 2144 01b3 19       		.uleb128 0x19
 2145 01b4 31       		.uleb128 0x31
 2146 01b5 13       		.uleb128 0x13
 2147 01b6 00       		.byte	0
 2148 01b7 00       		.byte	0
 2149 01b8 22       		.uleb128 0x22
 2150 01b9 05       		.uleb128 0x5
 2151 01ba 00       		.byte	0
 2152 01bb 03       		.uleb128 0x3
ARM GAS  /tmp/ccsFBhnG.s 			page 39


 2153 01bc 0E       		.uleb128 0xe
 2154 01bd 3A       		.uleb128 0x3a
 2155 01be 0B       		.uleb128 0xb
 2156 01bf 3B       		.uleb128 0x3b
 2157 01c0 0B       		.uleb128 0xb
 2158 01c1 49       		.uleb128 0x49
 2159 01c2 13       		.uleb128 0x13
 2160 01c3 02       		.uleb128 0x2
 2161 01c4 17       		.uleb128 0x17
 2162 01c5 00       		.byte	0
 2163 01c6 00       		.byte	0
 2164 01c7 23       		.uleb128 0x23
 2165 01c8 05       		.uleb128 0x5
 2166 01c9 00       		.byte	0
 2167 01ca 03       		.uleb128 0x3
 2168 01cb 08       		.uleb128 0x8
 2169 01cc 3A       		.uleb128 0x3a
 2170 01cd 0B       		.uleb128 0xb
 2171 01ce 3B       		.uleb128 0x3b
 2172 01cf 0B       		.uleb128 0xb
 2173 01d0 49       		.uleb128 0x49
 2174 01d1 13       		.uleb128 0x13
 2175 01d2 02       		.uleb128 0x2
 2176 01d3 18       		.uleb128 0x18
 2177 01d4 00       		.byte	0
 2178 01d5 00       		.byte	0
 2179 01d6 24       		.uleb128 0x24
 2180 01d7 34       		.uleb128 0x34
 2181 01d8 00       		.byte	0
 2182 01d9 03       		.uleb128 0x3
 2183 01da 08       		.uleb128 0x8
 2184 01db 3A       		.uleb128 0x3a
 2185 01dc 0B       		.uleb128 0xb
 2186 01dd 3B       		.uleb128 0x3b
 2187 01de 0B       		.uleb128 0xb
 2188 01df 49       		.uleb128 0x49
 2189 01e0 13       		.uleb128 0x13
 2190 01e1 02       		.uleb128 0x2
 2191 01e2 17       		.uleb128 0x17
 2192 01e3 00       		.byte	0
 2193 01e4 00       		.byte	0
 2194 01e5 25       		.uleb128 0x25
 2195 01e6 2E       		.uleb128 0x2e
 2196 01e7 00       		.byte	0
 2197 01e8 3F       		.uleb128 0x3f
 2198 01e9 19       		.uleb128 0x19
 2199 01ea 03       		.uleb128 0x3
 2200 01eb 0E       		.uleb128 0xe
 2201 01ec 3A       		.uleb128 0x3a
 2202 01ed 0B       		.uleb128 0xb
 2203 01ee 3B       		.uleb128 0x3b
 2204 01ef 0B       		.uleb128 0xb
 2205 01f0 27       		.uleb128 0x27
 2206 01f1 19       		.uleb128 0x19
 2207 01f2 3C       		.uleb128 0x3c
 2208 01f3 19       		.uleb128 0x19
 2209 01f4 00       		.byte	0
ARM GAS  /tmp/ccsFBhnG.s 			page 40


 2210 01f5 00       		.byte	0
 2211 01f6 26       		.uleb128 0x26
 2212 01f7 2E       		.uleb128 0x2e
 2213 01f8 01       		.byte	0x1
 2214 01f9 3F       		.uleb128 0x3f
 2215 01fa 19       		.uleb128 0x19
 2216 01fb 03       		.uleb128 0x3
 2217 01fc 0E       		.uleb128 0xe
 2218 01fd 3A       		.uleb128 0x3a
 2219 01fe 0B       		.uleb128 0xb
 2220 01ff 3B       		.uleb128 0x3b
 2221 0200 0B       		.uleb128 0xb
 2222 0201 27       		.uleb128 0x27
 2223 0202 19       		.uleb128 0x19
 2224 0203 3C       		.uleb128 0x3c
 2225 0204 19       		.uleb128 0x19
 2226 0205 01       		.uleb128 0x1
 2227 0206 13       		.uleb128 0x13
 2228 0207 00       		.byte	0
 2229 0208 00       		.byte	0
 2230 0209 27       		.uleb128 0x27
 2231 020a 2E       		.uleb128 0x2e
 2232 020b 01       		.byte	0x1
 2233 020c 3F       		.uleb128 0x3f
 2234 020d 19       		.uleb128 0x19
 2235 020e 03       		.uleb128 0x3
 2236 020f 0E       		.uleb128 0xe
 2237 0210 3A       		.uleb128 0x3a
 2238 0211 0B       		.uleb128 0xb
 2239 0212 3B       		.uleb128 0x3b
 2240 0213 0B       		.uleb128 0xb
 2241 0214 27       		.uleb128 0x27
 2242 0215 19       		.uleb128 0x19
 2243 0216 49       		.uleb128 0x49
 2244 0217 13       		.uleb128 0x13
 2245 0218 3C       		.uleb128 0x3c
 2246 0219 19       		.uleb128 0x19
 2247 021a 01       		.uleb128 0x1
 2248 021b 13       		.uleb128 0x13
 2249 021c 00       		.byte	0
 2250 021d 00       		.byte	0
 2251 021e 28       		.uleb128 0x28
 2252 021f 2E       		.uleb128 0x2e
 2253 0220 01       		.byte	0x1
 2254 0221 3F       		.uleb128 0x3f
 2255 0222 19       		.uleb128 0x19
 2256 0223 03       		.uleb128 0x3
 2257 0224 0E       		.uleb128 0xe
 2258 0225 3A       		.uleb128 0x3a
 2259 0226 0B       		.uleb128 0xb
 2260 0227 3B       		.uleb128 0x3b
 2261 0228 05       		.uleb128 0x5
 2262 0229 27       		.uleb128 0x27
 2263 022a 19       		.uleb128 0x19
 2264 022b 3C       		.uleb128 0x3c
 2265 022c 19       		.uleb128 0x19
 2266 022d 01       		.uleb128 0x1
ARM GAS  /tmp/ccsFBhnG.s 			page 41


 2267 022e 13       		.uleb128 0x13
 2268 022f 00       		.byte	0
 2269 0230 00       		.byte	0
 2270 0231 29       		.uleb128 0x29
 2271 0232 2E       		.uleb128 0x2e
 2272 0233 01       		.byte	0x1
 2273 0234 3F       		.uleb128 0x3f
 2274 0235 19       		.uleb128 0x19
 2275 0236 03       		.uleb128 0x3
 2276 0237 0E       		.uleb128 0xe
 2277 0238 3A       		.uleb128 0x3a
 2278 0239 0B       		.uleb128 0xb
 2279 023a 3B       		.uleb128 0x3b
 2280 023b 05       		.uleb128 0x5
 2281 023c 27       		.uleb128 0x27
 2282 023d 19       		.uleb128 0x19
 2283 023e 49       		.uleb128 0x49
 2284 023f 13       		.uleb128 0x13
 2285 0240 3C       		.uleb128 0x3c
 2286 0241 19       		.uleb128 0x19
 2287 0242 01       		.uleb128 0x1
 2288 0243 13       		.uleb128 0x13
 2289 0244 00       		.byte	0
 2290 0245 00       		.byte	0
 2291 0246 2A       		.uleb128 0x2a
 2292 0247 2E       		.uleb128 0x2e
 2293 0248 01       		.byte	0x1
 2294 0249 3F       		.uleb128 0x3f
 2295 024a 19       		.uleb128 0x19
 2296 024b 03       		.uleb128 0x3
 2297 024c 0E       		.uleb128 0xe
 2298 024d 3A       		.uleb128 0x3a
 2299 024e 0B       		.uleb128 0xb
 2300 024f 3B       		.uleb128 0x3b
 2301 0250 0B       		.uleb128 0xb
 2302 0251 27       		.uleb128 0x27
 2303 0252 19       		.uleb128 0x19
 2304 0253 49       		.uleb128 0x49
 2305 0254 13       		.uleb128 0x13
 2306 0255 3C       		.uleb128 0x3c
 2307 0256 19       		.uleb128 0x19
 2308 0257 00       		.byte	0
 2309 0258 00       		.byte	0
 2310 0259 00       		.byte	0
 2311              		.section	.debug_loc,"",%progbits
 2312              	.Ldebug_loc0:
 2313              	.LLST0:
 2314 0000 00000000 		.4byte	.LVL0
 2315 0004 0D000000 		.4byte	.LVL1-1
 2316 0008 0100     		.2byte	0x1
 2317 000a 50       		.byte	0x50
 2318 000b 0D000000 		.4byte	.LVL1-1
 2319 000f 3C000000 		.4byte	.LFE7
 2320 0013 0100     		.2byte	0x1
 2321 0015 54       		.byte	0x54
 2322 0016 00000000 		.4byte	0
 2323 001a 00000000 		.4byte	0
ARM GAS  /tmp/ccsFBhnG.s 			page 42


 2324              	.LLST1:
 2325 001e 00000000 		.4byte	.LVL5
 2326 0022 0D000000 		.4byte	.LVL6-1
 2327 0026 0100     		.2byte	0x1
 2328 0028 50       		.byte	0x50
 2329 0029 0D000000 		.4byte	.LVL6-1
 2330 002d 66000000 		.4byte	.LVL13
 2331 0031 0100     		.2byte	0x1
 2332 0033 54       		.byte	0x54
 2333 0034 66000000 		.4byte	.LVL13
 2334 0038 69000000 		.4byte	.LVL14-1
 2335 003c 0100     		.2byte	0x1
 2336 003e 50       		.byte	0x50
 2337 003f 69000000 		.4byte	.LVL14-1
 2338 0043 6A000000 		.4byte	.LVL14
 2339 0047 0400     		.2byte	0x4
 2340 0049 F3       		.byte	0xf3
 2341 004a 01       		.uleb128 0x1
 2342 004b 50       		.byte	0x50
 2343 004c 9F       		.byte	0x9f
 2344 004d 6A000000 		.4byte	.LVL14
 2345 0051 7C000000 		.4byte	.LVL15
 2346 0055 0100     		.2byte	0x1
 2347 0057 54       		.byte	0x54
 2348 0058 7C000000 		.4byte	.LVL15
 2349 005c 7F000000 		.4byte	.LVL16-1
 2350 0060 0100     		.2byte	0x1
 2351 0062 51       		.byte	0x51
 2352 0063 7F000000 		.4byte	.LVL16-1
 2353 0067 80000000 		.4byte	.LFE8
 2354 006b 0400     		.2byte	0x4
 2355 006d F3       		.byte	0xf3
 2356 006e 01       		.uleb128 0x1
 2357 006f 50       		.byte	0x50
 2358 0070 9F       		.byte	0x9f
 2359 0071 00000000 		.4byte	0
 2360 0075 00000000 		.4byte	0
 2361              	.LLST2:
 2362 0079 1C000000 		.4byte	.LVL7
 2363 007d 44000000 		.4byte	.LVL10
 2364 0081 0100     		.2byte	0x1
 2365 0083 55       		.byte	0x55
 2366 0084 56000000 		.4byte	.LVL12
 2367 0088 66000000 		.4byte	.LVL13
 2368 008c 0100     		.2byte	0x1
 2369 008e 55       		.byte	0x55
 2370 008f 6A000000 		.4byte	.LVL14
 2371 0093 7C000000 		.4byte	.LVL15
 2372 0097 0100     		.2byte	0x1
 2373 0099 55       		.byte	0x55
 2374 009a 00000000 		.4byte	0
 2375 009e 00000000 		.4byte	0
 2376              	.LLST3:
 2377 00a2 00000000 		.4byte	.LVL17
 2378 00a6 0F000000 		.4byte	.LVL18-1
 2379 00aa 0100     		.2byte	0x1
 2380 00ac 50       		.byte	0x50
ARM GAS  /tmp/ccsFBhnG.s 			page 43


 2381 00ad 0F000000 		.4byte	.LVL18-1
 2382 00b1 64000000 		.4byte	.LFE9
 2383 00b5 0400     		.2byte	0x4
 2384 00b7 F3       		.byte	0xf3
 2385 00b8 01       		.uleb128 0x1
 2386 00b9 50       		.byte	0x50
 2387 00ba 9F       		.byte	0x9f
 2388 00bb 00000000 		.4byte	0
 2389 00bf 00000000 		.4byte	0
 2390              	.LLST4:
 2391 00c3 00000000 		.4byte	.LVL17
 2392 00c7 0F000000 		.4byte	.LVL18-1
 2393 00cb 0100     		.2byte	0x1
 2394 00cd 51       		.byte	0x51
 2395 00ce 0F000000 		.4byte	.LVL18-1
 2396 00d2 64000000 		.4byte	.LFE9
 2397 00d6 0100     		.2byte	0x1
 2398 00d8 55       		.byte	0x55
 2399 00d9 00000000 		.4byte	0
 2400 00dd 00000000 		.4byte	0
 2401              	.LLST5:
 2402 00e1 00000000 		.4byte	.LVL17
 2403 00e5 0F000000 		.4byte	.LVL18-1
 2404 00e9 0100     		.2byte	0x1
 2405 00eb 52       		.byte	0x52
 2406 00ec 0F000000 		.4byte	.LVL18-1
 2407 00f0 64000000 		.4byte	.LFE9
 2408 00f4 0100     		.2byte	0x1
 2409 00f6 58       		.byte	0x58
 2410 00f7 00000000 		.4byte	0
 2411 00fb 00000000 		.4byte	0
 2412              	.LLST6:
 2413 00ff 00000000 		.4byte	.LVL17
 2414 0103 0F000000 		.4byte	.LVL18-1
 2415 0107 0100     		.2byte	0x1
 2416 0109 53       		.byte	0x53
 2417 010a 0F000000 		.4byte	.LVL18-1
 2418 010e 64000000 		.4byte	.LFE9
 2419 0112 0100     		.2byte	0x1
 2420 0114 57       		.byte	0x57
 2421 0115 00000000 		.4byte	0
 2422 0119 00000000 		.4byte	0
 2423              	.LLST7:
 2424 011d 10000000 		.4byte	.LVL18
 2425 0121 1F000000 		.4byte	.LVL19-1
 2426 0125 0100     		.2byte	0x1
 2427 0127 50       		.byte	0x50
 2428 0128 1F000000 		.4byte	.LVL19-1
 2429 012c 4E000000 		.4byte	.LVL23
 2430 0130 0100     		.2byte	0x1
 2431 0132 54       		.byte	0x54
 2432 0133 4E000000 		.4byte	.LVL23
 2433 0137 5E000000 		.4byte	.LVL26
 2434 013b 0400     		.2byte	0x4
 2435 013d 76       		.byte	0x76
 2436 013e B47F     		.sleb128 -76
 2437 0140 9F       		.byte	0x9f
ARM GAS  /tmp/ccsFBhnG.s 			page 44


 2438 0141 00000000 		.4byte	0
 2439 0145 00000000 		.4byte	0
 2440              	.LLST8:
 2441 0149 4E000000 		.4byte	.LVL23
 2442 014d 51000000 		.4byte	.LVL24-1
 2443 0151 0100     		.2byte	0x1
 2444 0153 50       		.byte	0x50
 2445 0154 51000000 		.4byte	.LVL24-1
 2446 0158 5E000000 		.4byte	.LVL26
 2447 015c 0100     		.2byte	0x1
 2448 015e 54       		.byte	0x54
 2449 015f 00000000 		.4byte	0
 2450 0163 00000000 		.4byte	0
 2451              	.LLST9:
 2452 0167 00000000 		.4byte	.LVL27
 2453 016b 10000000 		.4byte	.LVL28
 2454 016f 0100     		.2byte	0x1
 2455 0171 50       		.byte	0x50
 2456 0172 10000000 		.4byte	.LVL28
 2457 0176 6E000000 		.4byte	.LVL38
 2458 017a 0100     		.2byte	0x1
 2459 017c 54       		.byte	0x54
 2460 017d 6E000000 		.4byte	.LVL38
 2461 0181 72000000 		.4byte	.LVL39
 2462 0185 0100     		.2byte	0x1
 2463 0187 50       		.byte	0x50
 2464 0188 72000000 		.4byte	.LVL39
 2465 018c 7C000000 		.4byte	.LFE10
 2466 0190 0100     		.2byte	0x1
 2467 0192 54       		.byte	0x54
 2468 0193 00000000 		.4byte	0
 2469 0197 00000000 		.4byte	0
 2470              	.LLST10:
 2471 019b 00000000 		.4byte	.LVL27
 2472 019f 10000000 		.4byte	.LVL28
 2473 01a3 0100     		.2byte	0x1
 2474 01a5 51       		.byte	0x51
 2475 01a6 10000000 		.4byte	.LVL28
 2476 01aa 6E000000 		.4byte	.LVL38
 2477 01ae 0100     		.2byte	0x1
 2478 01b0 58       		.byte	0x58
 2479 01b1 6E000000 		.4byte	.LVL38
 2480 01b5 79000000 		.4byte	.LVL40-1
 2481 01b9 0100     		.2byte	0x1
 2482 01bb 51       		.byte	0x51
 2483 01bc 79000000 		.4byte	.LVL40-1
 2484 01c0 7C000000 		.4byte	.LFE10
 2485 01c4 0100     		.2byte	0x1
 2486 01c6 58       		.byte	0x58
 2487 01c7 00000000 		.4byte	0
 2488 01cb 00000000 		.4byte	0
 2489              	.LLST11:
 2490 01cf 00000000 		.4byte	.LVL27
 2491 01d3 10000000 		.4byte	.LVL28
 2492 01d7 0100     		.2byte	0x1
 2493 01d9 52       		.byte	0x52
 2494 01da 10000000 		.4byte	.LVL28
ARM GAS  /tmp/ccsFBhnG.s 			page 45


 2495 01de 6E000000 		.4byte	.LVL38
 2496 01e2 0100     		.2byte	0x1
 2497 01e4 57       		.byte	0x57
 2498 01e5 6E000000 		.4byte	.LVL38
 2499 01e9 79000000 		.4byte	.LVL40-1
 2500 01ed 0100     		.2byte	0x1
 2501 01ef 52       		.byte	0x52
 2502 01f0 79000000 		.4byte	.LVL40-1
 2503 01f4 7C000000 		.4byte	.LFE10
 2504 01f8 0100     		.2byte	0x1
 2505 01fa 57       		.byte	0x57
 2506 01fb 00000000 		.4byte	0
 2507 01ff 00000000 		.4byte	0
 2508              	.LLST12:
 2509 0203 00000000 		.4byte	.LVL27
 2510 0207 10000000 		.4byte	.LVL28
 2511 020b 0100     		.2byte	0x1
 2512 020d 53       		.byte	0x53
 2513 020e 10000000 		.4byte	.LVL28
 2514 0212 6E000000 		.4byte	.LVL38
 2515 0216 0100     		.2byte	0x1
 2516 0218 59       		.byte	0x59
 2517 0219 6E000000 		.4byte	.LVL38
 2518 021d 79000000 		.4byte	.LVL40-1
 2519 0221 0100     		.2byte	0x1
 2520 0223 53       		.byte	0x53
 2521 0224 79000000 		.4byte	.LVL40-1
 2522 0228 7C000000 		.4byte	.LFE10
 2523 022c 0100     		.2byte	0x1
 2524 022e 59       		.byte	0x59
 2525 022f 00000000 		.4byte	0
 2526 0233 00000000 		.4byte	0
 2527              	.LLST13:
 2528 0237 16000000 		.4byte	.LVL29
 2529 023b 25000000 		.4byte	.LVL30-1
 2530 023f 0100     		.2byte	0x1
 2531 0241 50       		.byte	0x50
 2532 0242 25000000 		.4byte	.LVL30-1
 2533 0246 58000000 		.4byte	.LVL34
 2534 024a 0100     		.2byte	0x1
 2535 024c 55       		.byte	0x55
 2536 024d 58000000 		.4byte	.LVL34
 2537 0251 68000000 		.4byte	.LVL37
 2538 0255 0400     		.2byte	0x4
 2539 0257 76       		.byte	0x76
 2540 0258 B47F     		.sleb128 -76
 2541 025a 9F       		.byte	0x9f
 2542 025b 00000000 		.4byte	0
 2543 025f 00000000 		.4byte	0
 2544              	.LLST14:
 2545 0263 58000000 		.4byte	.LVL34
 2546 0267 5B000000 		.4byte	.LVL35-1
 2547 026b 0100     		.2byte	0x1
 2548 026d 50       		.byte	0x50
 2549 026e 5B000000 		.4byte	.LVL35-1
 2550 0272 68000000 		.4byte	.LVL37
 2551 0276 0100     		.2byte	0x1
ARM GAS  /tmp/ccsFBhnG.s 			page 46


 2552 0278 55       		.byte	0x55
 2553 0279 00000000 		.4byte	0
 2554 027d 00000000 		.4byte	0
 2555              		.section	.debug_aranges,"",%progbits
 2556 0000 34000000 		.4byte	0x34
 2557 0004 0200     		.2byte	0x2
 2558 0006 00000000 		.4byte	.Ldebug_info0
 2559 000a 04       		.byte	0x4
 2560 000b 00       		.byte	0
 2561 000c 0000     		.2byte	0
 2562 000e 0000     		.2byte	0
 2563 0010 00000000 		.4byte	.LFB7
 2564 0014 3C000000 		.4byte	.LFE7-.LFB7
 2565 0018 00000000 		.4byte	.LFB8
 2566 001c 80000000 		.4byte	.LFE8-.LFB8
 2567 0020 00000000 		.4byte	.LFB9
 2568 0024 64000000 		.4byte	.LFE9-.LFB9
 2569 0028 00000000 		.4byte	.LFB10
 2570 002c 7C000000 		.4byte	.LFE10-.LFB10
 2571 0030 00000000 		.4byte	0
 2572 0034 00000000 		.4byte	0
 2573              		.section	.debug_ranges,"",%progbits
 2574              	.Ldebug_ranges0:
 2575 0000 02000000 		.4byte	.LBB2
 2576 0004 04000000 		.4byte	.LBE2
 2577 0008 06000000 		.4byte	.LBB3
 2578 000c 0A000000 		.4byte	.LBE3
 2579 0010 00000000 		.4byte	0
 2580 0014 00000000 		.4byte	0
 2581 0018 00000000 		.4byte	.LFB7
 2582 001c 3C000000 		.4byte	.LFE7
 2583 0020 00000000 		.4byte	.LFB8
 2584 0024 80000000 		.4byte	.LFE8
 2585 0028 00000000 		.4byte	.LFB9
 2586 002c 64000000 		.4byte	.LFE9
 2587 0030 00000000 		.4byte	.LFB10
 2588 0034 7C000000 		.4byte	.LFE10
 2589 0038 00000000 		.4byte	0
 2590 003c 00000000 		.4byte	0
 2591              		.section	.debug_line,"",%progbits
 2592              	.Ldebug_line0:
 2593 0000 1D020000 		.section	.debug_str,"MS",%progbits,1
 2593      02007E01 
 2593      00000201 
 2593      FB0E0D00 
 2593      01010101 
 2594              	.LASF80:
 2595 0000 7466756E 		.ascii	"tfunc_t\000"
 2595      635F7400 
 2596              	.LASF43:
 2597 0008 705F6D73 		.ascii	"p_msg\000"
 2597      6700
 2598              	.LASF2:
 2599 000e 73697A65 		.ascii	"size_t\000"
 2599      5F7400
 2600              	.LASF75:
 2601 0015 7264796D 		.ascii	"rdymsg\000"
ARM GAS  /tmp/ccsFBhnG.s 			page 47


 2601      736700
 2602              	.LASF17:
 2603 001c 75696E74 		.ascii	"uint64_t\000"
 2603      36345F74 
 2603      00
 2604              	.LASF3:
 2605 0025 5F5F7569 		.ascii	"__uint8_t\000"
 2605      6E74385F 
 2605      7400
 2606              	.LASF74:
 2607 002f 4D656D6F 		.ascii	"MemoryPool\000"
 2607      7279506F 
 2607      6F6C00
 2608              	.LASF59:
 2609 003a 6D656D67 		.ascii	"memgetfunc_t\000"
 2609      65746675 
 2609      6E635F74 
 2609      00
 2610              	.LASF97:
 2611 0047 474E5520 		.ascii	"GNU C 4.8.2 -mcpu=cortex-m4 -mno-thumb-interwork -m"
 2611      4320342E 
 2611      382E3220 
 2611      2D6D6370 
 2611      753D636F 
 2612 007a 7468756D 		.ascii	"thumb -ggdb -O2 -fomit-frame-pointer -falign-functi"
 2612      62202D67 
 2612      67646220 
 2612      2D4F3220 
 2612      2D666F6D 
 2613 00ad 6F6E733D 		.ascii	"ons=16 -ffunction-sections -fdata-sections -fno-com"
 2613      3136202D 
 2613      6666756E 
 2613      6374696F 
 2613      6E2D7365 
 2614 00e0 6D6F6E00 		.ascii	"mon\000"
 2615              	.LASF13:
 2616 00e4 6C6F6E67 		.ascii	"long long unsigned int\000"
 2616      206C6F6E 
 2616      6720756E 
 2616      7369676E 
 2616      65642069 
 2617              	.LASF76:
 2618 00fb 65786974 		.ascii	"exitcode\000"
 2618      636F6465 
 2618      00
 2619              	.LASF63:
 2620 0104 685F6672 		.ascii	"h_free\000"
 2620      656500
 2621              	.LASF89:
 2622 010b 63684462 		.ascii	"chDbgPanic\000"
 2622      6750616E 
 2622      696300
 2623              	.LASF84:
 2624 0116 68656170 		.ascii	"heapp\000"
 2624      7000
 2625              	.LASF65:
 2626 011c 6E657874 		.ascii	"next\000"
ARM GAS  /tmp/ccsFBhnG.s 			page 48


 2626      00
 2627              	.LASF30:
 2628 0121 705F7072 		.ascii	"p_prio\000"
 2628      696F00
 2629              	.LASF11:
 2630 0128 6C6F6E67 		.ascii	"long long int\000"
 2630      206C6F6E 
 2630      6720696E 
 2630      7400
 2631              	.LASF1:
 2632 0136 7369676E 		.ascii	"signed char\000"
 2632      65642063 
 2632      68617200 
 2633              	.LASF64:
 2634 0142 685F6D74 		.ascii	"h_mtx\000"
 2634      7800
 2635              	.LASF47:
 2636 0148 705F6D70 		.ascii	"p_mpool\000"
 2636      6F6F6C00 
 2637              	.LASF56:
 2638 0150 6D5F7175 		.ascii	"m_queue\000"
 2638      65756500 
 2639              	.LASF90:
 2640 0158 63684865 		.ascii	"chHeapFree\000"
 2640      61704672 
 2640      656500
 2641              	.LASF22:
 2642 0163 74736C69 		.ascii	"tslices_t\000"
 2642      6365735F 
 2642      7400
 2643              	.LASF94:
 2644 016d 63685468 		.ascii	"chThdCreateI\000"
 2644      64437265 
 2644      61746549 
 2644      00
 2645              	.LASF8:
 2646 017a 6C6F6E67 		.ascii	"long int\000"
 2646      20696E74 
 2646      00
 2647              	.LASF83:
 2648 0183 63685468 		.ascii	"chThdCreateFromHeap\000"
 2648      64437265 
 2648      61746546 
 2648      726F6D48 
 2648      65617000 
 2649              	.LASF20:
 2650 0197 74737461 		.ascii	"tstate_t\000"
 2650      74655F74 
 2650      00
 2651              	.LASF71:
 2652 01a0 6D705F6E 		.ascii	"mp_next\000"
 2652      65787400 
 2653              	.LASF32:
 2654 01a8 705F6E65 		.ascii	"p_newer\000"
 2654      77657200 
 2655              	.LASF86:
 2656 01b0 63685468 		.ascii	"chThdCreateFromMemoryPool\000"
ARM GAS  /tmp/ccsFBhnG.s 			page 49


 2656      64437265 
 2656      61746546 
 2656      726F6D4D 
 2656      656D6F72 
 2657              	.LASF9:
 2658 01ca 5F5F7569 		.ascii	"__uint32_t\000"
 2658      6E743332 
 2658      5F7400
 2659              	.LASF73:
 2660 01d5 6D705F70 		.ascii	"mp_provider\000"
 2660      726F7669 
 2660      64657200 
 2661              	.LASF50:
 2662 01e1 72656761 		.ascii	"regarm_t\000"
 2662      726D5F74 
 2662      00
 2663              	.LASF67:
 2664 01ea 616C6967 		.ascii	"align\000"
 2664      6E00
 2665              	.LASF35:
 2666 01f0 705F7374 		.ascii	"p_stklimit\000"
 2666      6B6C696D 
 2666      697400
 2667              	.LASF0:
 2668 01fb 756E7369 		.ascii	"unsigned int\000"
 2668      676E6564 
 2668      20696E74 
 2668      00
 2669              	.LASF10:
 2670 0208 6C6F6E67 		.ascii	"long unsigned int\000"
 2670      20756E73 
 2670      69676E65 
 2670      6420696E 
 2670      7400
 2671              	.LASF53:
 2672 021a 636F6E74 		.ascii	"context\000"
 2672      65787400 
 2673              	.LASF68:
 2674 0222 73697A65 		.ascii	"size\000"
 2674      00
 2675              	.LASF6:
 2676 0227 73686F72 		.ascii	"short unsigned int\000"
 2676      7420756E 
 2676      7369676E 
 2676      65642069 
 2676      6E7400
 2677              	.LASF24:
 2678 023a 6D73675F 		.ascii	"msg_t\000"
 2678      7400
 2679              	.LASF19:
 2680 0240 746D6F64 		.ascii	"tmode_t\000"
 2680      655F7400 
 2681              	.LASF49:
 2682 0248 54687265 		.ascii	"ThreadsList\000"
 2682      6164734C 
 2682      69737400 
 2683              	.LASF25:
ARM GAS  /tmp/ccsFBhnG.s 			page 50


 2684 0254 6576656E 		.ascii	"eventmask_t\000"
 2684      746D6173 
 2684      6B5F7400 
 2685              	.LASF55:
 2686 0260 4D757465 		.ascii	"Mutex\000"
 2686      7800
 2687              	.LASF82:
 2688 0266 63685468 		.ascii	"chThdAddRef\000"
 2688      64416464 
 2688      52656600 
 2689              	.LASF51:
 2690 0272 73746B61 		.ascii	"stkalign_t\000"
 2690      6C69676E 
 2690      5F7400
 2691              	.LASF54:
 2692 027d 73697A65 		.ascii	"sizetype\000"
 2692      74797065 
 2692      00
 2693              	.LASF33:
 2694 0286 705F6F6C 		.ascii	"p_older\000"
 2694      64657200 
 2695              	.LASF48:
 2696 028e 54687265 		.ascii	"ThreadsQueue\000"
 2696      61647351 
 2696      75657565 
 2696      00
 2697              	.LASF99:
 2698 029b 2F686F6D 		.ascii	"/home/mo/ARMProjects/ChibiOS_Sample/ChibiOS_2.6.5/t"
 2698      652F6D6F 
 2698      2F41524D 
 2698      50726F6A 
 2698      65637473 
 2699 02ce 65737468 		.ascii	"esthal/STM32F4xx/ADC\000"
 2699      616C2F53 
 2699      544D3332 
 2699      46347878 
 2699      2F414443 
 2700              	.LASF85:
 2701 02e3 7072696F 		.ascii	"prio\000"
 2701      00
 2702              	.LASF87:
 2703 02e8 6462675F 		.ascii	"dbg_check_lock\000"
 2703      63686563 
 2703      6B5F6C6F 
 2703      636B00
 2704              	.LASF88:
 2705 02f7 6462675F 		.ascii	"dbg_check_unlock\000"
 2705      63686563 
 2705      6B5F756E 
 2705      6C6F636B 
 2705      00
 2706              	.LASF60:
 2707 0308 4D656D6F 		.ascii	"MemoryHeap\000"
 2707      72794865 
 2707      617000
 2708              	.LASF12:
 2709 0313 5F5F7569 		.ascii	"__uint64_t\000"
ARM GAS  /tmp/ccsFBhnG.s 			page 51


 2709      6E743634 
 2709      5F7400
 2710              	.LASF70:
 2711 031e 70685F6E 		.ascii	"ph_next\000"
 2711      65787400 
 2712              	.LASF21:
 2713 0326 74726566 		.ascii	"trefs_t\000"
 2713      735F7400 
 2714              	.LASF81:
 2715 032e 72656673 		.ascii	"refs\000"
 2715      00
 2716              	.LASF29:
 2717 0333 705F7072 		.ascii	"p_prev\000"
 2717      657600
 2718              	.LASF23:
 2719 033a 74707269 		.ascii	"tprio_t\000"
 2719      6F5F7400 
 2720              	.LASF18:
 2721 0342 5F426F6F 		.ascii	"_Bool\000"
 2721      6C00
 2722              	.LASF15:
 2723 0348 696E7433 		.ascii	"int32_t\000"
 2723      325F7400 
 2724              	.LASF4:
 2725 0350 756E7369 		.ascii	"unsigned char\000"
 2725      676E6564 
 2725      20636861 
 2725      7200
 2726              	.LASF62:
 2727 035e 685F7072 		.ascii	"h_provider\000"
 2727      6F766964 
 2727      657200
 2728              	.LASF45:
 2729 0369 705F6D74 		.ascii	"p_mtxlist\000"
 2729      786C6973 
 2729      7400
 2730              	.LASF5:
 2731 0373 73686F72 		.ascii	"short int\000"
 2731      7420696E 
 2731      7400
 2732              	.LASF36:
 2733 037d 705F7374 		.ascii	"p_state\000"
 2733      61746500 
 2734              	.LASF39:
 2735 0385 705F7072 		.ascii	"p_preempt\000"
 2735      65656D70 
 2735      7400
 2736              	.LASF100:
 2737 038f 68656170 		.ascii	"heap_header\000"
 2737      5F686561 
 2737      64657200 
 2738              	.LASF78:
 2739 039b 65776D61 		.ascii	"ewmask\000"
 2739      736B00
 2740              	.LASF28:
 2741 03a2 705F6E65 		.ascii	"p_next\000"
 2741      787400
ARM GAS  /tmp/ccsFBhnG.s 			page 52


 2742              	.LASF37:
 2743 03a9 705F666C 		.ascii	"p_flags\000"
 2743      61677300 
 2744              	.LASF92:
 2745 03b1 5F746872 		.ascii	"_thread_memfill\000"
 2745      6561645F 
 2745      6D656D66 
 2745      696C6C00 
 2746              	.LASF101:
 2747 03c1 63685468 		.ascii	"chThdRelease\000"
 2747      6452656C 
 2747      65617365 
 2747      00
 2748              	.LASF27:
 2749 03ce 54687265 		.ascii	"Thread\000"
 2749      616400
 2750              	.LASF93:
 2751 03d5 63684865 		.ascii	"chHeapAlloc\000"
 2751      6170416C 
 2751      6C6F6300 
 2752              	.LASF44:
 2753 03e1 705F6570 		.ascii	"p_epending\000"
 2753      656E6469 
 2753      6E6700
 2754              	.LASF16:
 2755 03ec 75696E74 		.ascii	"uint32_t\000"
 2755      33325F74 
 2755      00
 2756              	.LASF66:
 2757 03f5 68656170 		.ascii	"heap\000"
 2757      00
 2758              	.LASF79:
 2759 03fa 63686172 		.ascii	"char\000"
 2759      00
 2760              	.LASF58:
 2761 03ff 6D5F6E65 		.ascii	"m_next\000"
 2761      787400
 2762              	.LASF26:
 2763 0406 73797374 		.ascii	"systime_t\000"
 2763      696D655F 
 2763      7400
 2764              	.LASF46:
 2765 0410 705F7265 		.ascii	"p_realprio\000"
 2765      616C7072 
 2765      696F00
 2766              	.LASF7:
 2767 041b 5F5F696E 		.ascii	"__int32_t\000"
 2767      7433325F 
 2767      7400
 2768              	.LASF40:
 2769 0425 705F7469 		.ascii	"p_time\000"
 2769      6D6500
 2770              	.LASF52:
 2771 042c 696E7463 		.ascii	"intctx\000"
 2771      747800
 2772              	.LASF42:
 2773 0433 705F6D73 		.ascii	"p_msgqueue\000"
ARM GAS  /tmp/ccsFBhnG.s 			page 53


 2773      67717565 
 2773      756500
 2774              	.LASF95:
 2775 043e 63685363 		.ascii	"chSchWakeupS\000"
 2775      6857616B 
 2775      65757053 
 2775      00
 2776              	.LASF98:
 2777 044b 2E2E2F2E 		.ascii	"../../../os/kernel/src/chdynamic.c\000"
 2777      2E2F2E2E 
 2777      2F6F732F 
 2777      6B65726E 
 2777      656C2F73 
 2778              	.LASF69:
 2779 046e 706F6F6C 		.ascii	"pool_header\000"
 2779      5F686561 
 2779      64657200 
 2780              	.LASF38:
 2781 047a 705F7265 		.ascii	"p_refs\000"
 2781      667300
 2782              	.LASF14:
 2783 0481 75696E74 		.ascii	"uint8_t\000"
 2783      385F7400 
 2784              	.LASF96:
 2785 0489 6368506F 		.ascii	"chPoolAlloc\000"
 2785      6F6C416C 
 2785      6C6F6300 
 2786              	.LASF91:
 2787 0495 6368506F 		.ascii	"chPoolFree\000"
 2787      6F6C4672 
 2787      656500
 2788              	.LASF77:
 2789 04a0 77746F62 		.ascii	"wtobjp\000"
 2789      6A7000
 2790              	.LASF34:
 2791 04a7 705F6E61 		.ascii	"p_name\000"
 2791      6D6500
 2792              	.LASF72:
 2793 04ae 6D705F6F 		.ascii	"mp_object_size\000"
 2793      626A6563 
 2793      745F7369 
 2793      7A6500
 2794              	.LASF57:
 2795 04bd 6D5F6F77 		.ascii	"m_owner\000"
 2795      6E657200 
 2796              	.LASF31:
 2797 04c5 705F6374 		.ascii	"p_ctx\000"
 2797      7800
 2798              	.LASF41:
 2799 04cb 705F7761 		.ascii	"p_waiting\000"
 2799      6974696E 
 2799      6700
 2800              	.LASF61:
 2801 04d5 6D656D6F 		.ascii	"memory_heap\000"
 2801      72795F68 
 2801      65617000 
 2802              		.ident	"GCC: (4.8.2-14ubuntu1+6) 4.8.2"
ARM GAS  /tmp/ccsFBhnG.s 			page 54


ARM GAS  /tmp/ccsFBhnG.s 			page 55


DEFINED SYMBOLS
                            *ABS*:0000000000000000 chdynamic.c
     /tmp/ccsFBhnG.s:19     .text.chThdAddRef:0000000000000000 $t
     /tmp/ccsFBhnG.s:25     .text.chThdAddRef:0000000000000000 chThdAddRef
     /tmp/ccsFBhnG.s:418    .rodata.str1.4:0000000000000000 .LC0
     /tmp/ccsFBhnG.s:86     .text.chThdRelease:0000000000000000 $t
     /tmp/ccsFBhnG.s:92     .text.chThdRelease:0000000000000000 chThdRelease
     /tmp/ccsFBhnG.s:421    .rodata.str1.4:0000000000000014 .LC1
     /tmp/ccsFBhnG.s:203    .text.chThdCreateFromHeap:0000000000000000 $t
     /tmp/ccsFBhnG.s:209    .text.chThdCreateFromHeap:0000000000000000 chThdCreateFromHeap
     /tmp/ccsFBhnG.s:300    .text.chThdCreateFromMemoryPool:0000000000000000 $t
     /tmp/ccsFBhnG.s:306    .text.chThdCreateFromMemoryPool:0000000000000000 chThdCreateFromMemoryPool
     /tmp/ccsFBhnG.s:424    .rodata.str1.4:0000000000000028 .LC2
     /tmp/ccsFBhnG.s:417    .rodata.str1.4:0000000000000000 $d
                     .debug_frame:0000000000000010 $d

UNDEFINED SYMBOLS
dbg_check_lock
dbg_check_unlock
chDbgPanic
chHeapFree
chPoolFree
chHeapAlloc
_thread_memfill
chThdCreateI
chSchWakeupS
chPoolAlloc
