ARM GAS  /tmp/ccc7VhL9.s 			page 1


   1              		.syntax unified
   2              		.cpu cortex-m4
   3              		.fpu softvfp
   4              		.eabi_attribute 20, 1
   5              		.eabi_attribute 21, 1
   6              		.eabi_attribute 23, 3
   7              		.eabi_attribute 24, 1
   8              		.eabi_attribute 25, 1
   9              		.eabi_attribute 26, 1
  10              		.eabi_attribute 30, 2
  11              		.eabi_attribute 34, 1
  12              		.eabi_attribute 18, 4
  13              		.thumb
  14              		.file	"chevents.c"
  15              		.text
  16              	.Ltext0:
  17              		.cfi_sections	.debug_frame
  18              		.section	.text.chEvtRegisterMask,"ax",%progbits
  19              		.align	2
  20              		.p2align 4,,15
  21              		.global	chEvtRegisterMask
  22              		.thumb
  23              		.thumb_func
  24              		.type	chEvtRegisterMask, %function
  25              	chEvtRegisterMask:
  26              	.LFB7:
  27              		.file 1 "../../../os/kernel/src/chevents.c"
  28              		.loc 1 85 0
  29              		.cfi_startproc
  30              		@ args = 0, pretend = 0, frame = 0
  31              		@ frame_needed = 0, uses_anonymous_args = 0
  32              	.LVL0:
  33              		.loc 1 87 0
  34 0000 0029     		cmp	r1, #0
  35 0002 18BF     		it	ne
  36 0004 0028     		cmpne	r0, #0
  37              		.loc 1 85 0
  38 0006 F8B5     		push	{r3, r4, r5, r6, r7, lr}
  39              		.cfi_def_cfa_offset 24
  40              		.cfi_offset 3, -24
  41              		.cfi_offset 4, -20
  42              		.cfi_offset 5, -16
  43              		.cfi_offset 6, -12
  44              		.cfi_offset 7, -8
  45              		.cfi_offset 14, -4
  46              		.loc 1 87 0
  47 0008 0546     		mov	r5, r0
  48 000a 0C46     		mov	r4, r1
  49              		.loc 1 85 0
  50 000c 1746     		mov	r7, r2
  51              		.loc 1 87 0
  52 000e 05D1     		bne	.L2
  53              		.loc 1 87 0 is_stmt 0 discriminator 1
  54 0010 40F20000 		movw	r0, #:lower16:.LC0
  55              	.LVL1:
  56 0014 C0F20000 		movt	r0, #:upper16:.LC0
  57 0018 FFF7FEFF 		bl	chDbgPanic
ARM GAS  /tmp/ccc7VhL9.s 			page 2


  58              	.LVL2:
  59              	.L2:
  60              	.LBB2:
  61              		.loc 1 89 0 is_stmt 1
  62 001c 2023     		movs	r3, #32
  63              	@ 89 "../../../os/kernel/src/chevents.c" 1
  64 001e 83F31188 		msr     BASEPRI, r3
  65              	@ 0 "" 2
  66              		.thumb
  67              	.LBE2:
  68 0022 FFF7FEFF 		bl	dbg_check_lock
  69              	.LVL3:
  70              		.loc 1 92 0
  71 0026 40F20003 		movw	r3, #:lower16:rlist
  72 002a C0F20003 		movt	r3, #:upper16:rlist
  73              		.loc 1 90 0
  74 002e 2A68     		ldr	r2, [r5]
  75              		.loc 1 92 0
  76 0030 9B69     		ldr	r3, [r3, #24]
  77              		.loc 1 90 0
  78 0032 2260     		str	r2, [r4]
  79              		.loc 1 94 0
  80 0034 0026     		movs	r6, #0
  81              		.loc 1 91 0
  82 0036 2C60     		str	r4, [r5]
  83              		.loc 1 92 0
  84 0038 6360     		str	r3, [r4, #4]
  85              		.loc 1 93 0
  86 003a A760     		str	r7, [r4, #8]
  87              		.loc 1 94 0
  88 003c E660     		str	r6, [r4, #12]
  89              		.loc 1 95 0
  90 003e FFF7FEFF 		bl	dbg_check_unlock
  91              	.LVL4:
  92              	.LBB3:
  93 0042 3346     		mov	r3, r6
  94              	@ 95 "../../../os/kernel/src/chevents.c" 1
  95 0044 83F31188 		msr     BASEPRI, r3
  96              	@ 0 "" 2
  97              		.thumb
  98 0048 F8BD     		pop	{r3, r4, r5, r6, r7, pc}
  99              	.LBE3:
 100              		.cfi_endproc
 101              	.LFE7:
 102              		.size	chEvtRegisterMask, .-chEvtRegisterMask
 103 004a 00BFAFF3 		.section	.text.chEvtUnregister,"ax",%progbits
 103      0080
 104              		.align	2
 105              		.p2align 4,,15
 106              		.global	chEvtUnregister
 107              		.thumb
 108              		.thumb_func
 109              		.type	chEvtUnregister, %function
 110              	chEvtUnregister:
 111              	.LFB8:
 112              		.loc 1 111 0
 113              		.cfi_startproc
ARM GAS  /tmp/ccc7VhL9.s 			page 3


 114              		@ args = 0, pretend = 0, frame = 0
 115              		@ frame_needed = 0, uses_anonymous_args = 0
 116              	.LVL5:
 117              		.loc 1 114 0
 118 0000 0029     		cmp	r1, #0
 119 0002 18BF     		it	ne
 120 0004 0028     		cmpne	r0, #0
 121              		.loc 1 111 0
 122 0006 38B5     		push	{r3, r4, r5, lr}
 123              		.cfi_def_cfa_offset 16
 124              		.cfi_offset 3, -16
 125              		.cfi_offset 4, -12
 126              		.cfi_offset 5, -8
 127              		.cfi_offset 14, -4
 128              		.loc 1 114 0
 129 0008 0446     		mov	r4, r0
 130 000a 0D46     		mov	r5, r1
 131 000c 1AD0     		beq	.L16
 132              	.LVL6:
 133              	.L8:
 134              	.LBB4:
 135              		.loc 1 117 0
 136 000e 2023     		movs	r3, #32
 137              	@ 117 "../../../os/kernel/src/chevents.c" 1
 138 0010 83F31188 		msr     BASEPRI, r3
 139              	@ 0 "" 2
 140              		.thumb
 141              	.LBE4:
 142 0014 FFF7FEFF 		bl	dbg_check_lock
 143              	.LVL7:
 144              		.loc 1 118 0
 145 0018 2246     		mov	r2, r4
 146 001a 02E0     		b	.L9
 147              	.LVL8:
 148              	.L12:
 149              		.loc 1 119 0
 150 001c 9D42     		cmp	r5, r3
 151 001e 09D0     		beq	.L17
 152 0020 1A46     		mov	r2, r3
 153              	.LVL9:
 154              	.L9:
 155              		.loc 1 118 0 discriminator 1
 156 0022 1368     		ldr	r3, [r2]
 157 0024 A342     		cmp	r3, r4
 158 0026 F9D1     		bne	.L12
 159              		.loc 1 125 0
 160 0028 FFF7FEFF 		bl	dbg_check_unlock
 161              	.LVL10:
 162              	.LBB5:
 163 002c 0023     		movs	r3, #0
 164              	@ 125 "../../../os/kernel/src/chevents.c" 1
 165 002e 83F31188 		msr     BASEPRI, r3
 166              	@ 0 "" 2
 167              		.thumb
 168 0032 38BD     		pop	{r3, r4, r5, pc}
 169              	.LVL11:
 170              	.L17:
ARM GAS  /tmp/ccc7VhL9.s 			page 4


 171              	.LBE5:
 172              		.loc 1 120 0
 173 0034 2B68     		ldr	r3, [r5]
 174 0036 1360     		str	r3, [r2]
 175              		.loc 1 125 0
 176 0038 FFF7FEFF 		bl	dbg_check_unlock
 177              	.LVL12:
 178              	.LBB6:
 179 003c 0023     		movs	r3, #0
 180              	@ 125 "../../../os/kernel/src/chevents.c" 1
 181 003e 83F31188 		msr     BASEPRI, r3
 182              	@ 0 "" 2
 183              		.thumb
 184 0042 38BD     		pop	{r3, r4, r5, pc}
 185              	.LVL13:
 186              	.L16:
 187              	.LBE6:
 188              		.loc 1 114 0 discriminator 1
 189 0044 40F20000 		movw	r0, #:lower16:.LC1
 190              	.LVL14:
 191 0048 C0F20000 		movt	r0, #:upper16:.LC1
 192 004c FFF7FEFF 		bl	chDbgPanic
 193              	.LVL15:
 194 0050 DDE7     		b	.L8
 195              		.cfi_endproc
 196              	.LFE8:
 197              		.size	chEvtUnregister, .-chEvtUnregister
 198 0052 00BFAFF3 		.section	.text.chEvtGetAndClearEvents,"ax",%progbits
 198      0080AFF3 
 198      0080AFF3 
 198      0080
 199              		.align	2
 200              		.p2align 4,,15
 201              		.global	chEvtGetAndClearEvents
 202              		.thumb
 203              		.thumb_func
 204              		.type	chEvtGetAndClearEvents, %function
 205              	chEvtGetAndClearEvents:
 206              	.LFB9:
 207              		.loc 1 136 0
 208              		.cfi_startproc
 209              		@ args = 0, pretend = 0, frame = 0
 210              		@ frame_needed = 0, uses_anonymous_args = 0
 211              	.LVL16:
 212 0000 10B5     		push	{r4, lr}
 213              		.cfi_def_cfa_offset 8
 214              		.cfi_offset 4, -8
 215              		.cfi_offset 14, -4
 216              	.LBB7:
 217              		.loc 1 139 0
 218 0002 2023     		movs	r3, #32
 219              	.LBE7:
 220              		.loc 1 136 0
 221 0004 0446     		mov	r4, r0
 222              	.LBB8:
 223              		.loc 1 139 0
 224              	@ 139 "../../../os/kernel/src/chevents.c" 1
ARM GAS  /tmp/ccc7VhL9.s 			page 5


 225 0006 83F31188 		msr     BASEPRI, r3
 226              	@ 0 "" 2
 227              		.thumb
 228              	.LBE8:
 229 000a FFF7FEFF 		bl	dbg_check_lock
 230              	.LVL17:
 231              		.loc 1 141 0
 232 000e 40F20003 		movw	r3, #:lower16:rlist
 233 0012 C0F20003 		movt	r3, #:upper16:rlist
 234 0016 9B69     		ldr	r3, [r3, #24]
 235 0018 D86B     		ldr	r0, [r3, #60]
 236              		.loc 1 142 0
 237 001a 20EA0402 		bic	r2, r0, r4
 238 001e DA63     		str	r2, [r3, #60]
 239              		.loc 1 141 0
 240 0020 0440     		ands	r4, r4, r0
 241              	.LVL18:
 242              		.loc 1 144 0
 243 0022 FFF7FEFF 		bl	dbg_check_unlock
 244              	.LVL19:
 245              	.LBB9:
 246 0026 0023     		movs	r3, #0
 247              	@ 144 "../../../os/kernel/src/chevents.c" 1
 248 0028 83F31188 		msr     BASEPRI, r3
 249              	@ 0 "" 2
 250              		.thumb
 251              	.LBE9:
 252              		.loc 1 146 0
 253 002c 2046     		mov	r0, r4
 254 002e 10BD     		pop	{r4, pc}
 255              		.cfi_endproc
 256              	.LFE9:
 257              		.size	chEvtGetAndClearEvents, .-chEvtGetAndClearEvents
 258              		.section	.text.chEvtAddEvents,"ax",%progbits
 259              		.align	2
 260              		.p2align 4,,15
 261              		.global	chEvtAddEvents
 262              		.thumb
 263              		.thumb_func
 264              		.type	chEvtAddEvents, %function
 265              	chEvtAddEvents:
 266              	.LFB10:
 267              		.loc 1 157 0
 268              		.cfi_startproc
 269              		@ args = 0, pretend = 0, frame = 0
 270              		@ frame_needed = 0, uses_anonymous_args = 0
 271              	.LVL20:
 272 0000 10B5     		push	{r4, lr}
 273              		.cfi_def_cfa_offset 8
 274              		.cfi_offset 4, -8
 275              		.cfi_offset 14, -4
 276              	.LBB10:
 277              		.loc 1 159 0
 278 0002 2023     		movs	r3, #32
 279              	.LBE10:
 280              		.loc 1 157 0
 281 0004 0446     		mov	r4, r0
ARM GAS  /tmp/ccc7VhL9.s 			page 6


 282              	.LBB11:
 283              		.loc 1 159 0
 284              	@ 159 "../../../os/kernel/src/chevents.c" 1
 285 0006 83F31188 		msr     BASEPRI, r3
 286              	@ 0 "" 2
 287              		.thumb
 288              	.LBE11:
 289 000a FFF7FEFF 		bl	dbg_check_lock
 290              	.LVL21:
 291              		.loc 1 161 0
 292 000e 40F20003 		movw	r3, #:lower16:rlist
 293 0012 C0F20003 		movt	r3, #:upper16:rlist
 294 0016 9B69     		ldr	r3, [r3, #24]
 295 0018 DA6B     		ldr	r2, [r3, #60]
 296 001a 1443     		orrs	r4, r4, r2
 297              	.LVL22:
 298 001c DC63     		str	r4, [r3, #60]
 299              	.LVL23:
 300              		.loc 1 163 0
 301 001e FFF7FEFF 		bl	dbg_check_unlock
 302              	.LVL24:
 303              	.LBB12:
 304 0022 0023     		movs	r3, #0
 305              	@ 163 "../../../os/kernel/src/chevents.c" 1
 306 0024 83F31188 		msr     BASEPRI, r3
 307              	@ 0 "" 2
 308              		.thumb
 309              	.LBE12:
 310              		.loc 1 165 0
 311 0028 2046     		mov	r0, r4
 312 002a 10BD     		pop	{r4, pc}
 313              		.cfi_endproc
 314              	.LFE10:
 315              		.size	chEvtAddEvents, .-chEvtAddEvents
 316 002c AFF30080 		.section	.text.chEvtGetAndClearFlags,"ax",%progbits
 317              		.align	2
 318              		.p2align 4,,15
 319              		.global	chEvtGetAndClearFlags
 320              		.thumb
 321              		.thumb_func
 322              		.type	chEvtGetAndClearFlags, %function
 323              	chEvtGetAndClearFlags:
 324              	.LFB12:
 325              		.loc 1 209 0
 326              		.cfi_startproc
 327              		@ args = 0, pretend = 0, frame = 0
 328              		@ frame_needed = 0, uses_anonymous_args = 0
 329              	.LVL25:
 330 0000 70B5     		push	{r4, r5, r6, lr}
 331              		.cfi_def_cfa_offset 16
 332              		.cfi_offset 4, -16
 333              		.cfi_offset 5, -12
 334              		.cfi_offset 6, -8
 335              		.cfi_offset 14, -4
 336              	.LBB13:
 337              		.loc 1 212 0
 338 0002 2023     		movs	r3, #32
ARM GAS  /tmp/ccc7VhL9.s 			page 7


 339              	.LBE13:
 340              		.loc 1 209 0
 341 0004 0546     		mov	r5, r0
 342              	.LBB14:
 343              		.loc 1 212 0
 344              	@ 212 "../../../os/kernel/src/chevents.c" 1
 345 0006 83F31188 		msr     BASEPRI, r3
 346              	@ 0 "" 2
 347              		.thumb
 348              	.LBE14:
 349              		.loc 1 215 0
 350 000a 0024     		movs	r4, #0
 351              		.loc 1 212 0
 352 000c FFF7FEFF 		bl	dbg_check_lock
 353              	.LVL26:
 354              		.loc 1 214 0
 355 0010 EE68     		ldr	r6, [r5, #12]
 356              	.LVL27:
 357              		.loc 1 215 0
 358 0012 EC60     		str	r4, [r5, #12]
 359              		.loc 1 217 0
 360 0014 FFF7FEFF 		bl	dbg_check_unlock
 361              	.LVL28:
 362              	.LBB15:
 363 0018 2346     		mov	r3, r4
 364              	@ 217 "../../../os/kernel/src/chevents.c" 1
 365 001a 83F31188 		msr     BASEPRI, r3
 366              	@ 0 "" 2
 367              		.thumb
 368              	.LBE15:
 369              		.loc 1 219 0
 370 001e 3046     		mov	r0, r6
 371 0020 70BD     		pop	{r4, r5, r6, pc}
 372              		.cfi_endproc
 373              	.LFE12:
 374              		.size	chEvtGetAndClearFlags, .-chEvtGetAndClearFlags
 375 0022 00BFAFF3 		.section	.text.chEvtSignalI,"ax",%progbits
 375      0080AFF3 
 375      0080AFF3 
 375      0080
 376              		.align	2
 377              		.p2align 4,,15
 378              		.global	chEvtSignalI
 379              		.thumb
 380              		.thumb_func
 381              		.type	chEvtSignalI, %function
 382              	chEvtSignalI:
 383              	.LFB14:
 384              		.loc 1 251 0
 385              		.cfi_startproc
 386              		@ args = 0, pretend = 0, frame = 0
 387              		@ frame_needed = 0, uses_anonymous_args = 0
 388              	.LVL29:
 389 0000 38B5     		push	{r3, r4, r5, lr}
 390              		.cfi_def_cfa_offset 16
 391              		.cfi_offset 3, -16
 392              		.cfi_offset 4, -12
ARM GAS  /tmp/ccc7VhL9.s 			page 8


 393              		.cfi_offset 5, -8
 394              		.cfi_offset 14, -4
 395              		.loc 1 251 0
 396 0002 0446     		mov	r4, r0
 397 0004 0D46     		mov	r5, r1
 398              		.loc 1 253 0
 399 0006 FFF7FEFF 		bl	chDbgCheckClassI
 400              	.LVL30:
 401              		.loc 1 254 0
 402 000a C4B1     		cbz	r4, .L26
 403              	.L22:
 404              		.loc 1 256 0
 405 000c E26B     		ldr	r2, [r4, #60]
 406              		.loc 1 258 0
 407 000e 94F82030 		ldrb	r3, [r4, #32]	@ zero_extendqisi2
 408              		.loc 1 256 0
 409 0012 45EA0201 		orr	r1, r5, r2
 410              		.loc 1 258 0
 411 0016 082B     		cmp	r3, #8
 412              		.loc 1 256 0
 413 0018 E163     		str	r1, [r4, #60]
 414              		.loc 1 258 0
 415 001a 0CD0     		beq	.L27
 416              		.loc 1 259 0
 417 001c 092B     		cmp	r3, #9
 418 001e 00D0     		beq	.L28
 419              	.L21:
 420 0020 38BD     		pop	{r3, r4, r5, pc}
 421              	.LVL31:
 422              	.L28:
 423              		.loc 1 261 0
 424 0022 A36A     		ldr	r3, [r4, #40]
 425 0024 1940     		ands	r1, r1, r3
 426              		.loc 1 260 0
 427 0026 8B42     		cmp	r3, r1
 428 0028 FAD1     		bne	.L21
 429              	.L24:
 430              	.LVL32:
 431              	.LBB18:
 432              	.LBB19:
 433              		.loc 1 262 0
 434 002a 2046     		mov	r0, r4
 435 002c FFF7FEFF 		bl	chSchReadyI
 436              	.LVL33:
 437 0030 0023     		movs	r3, #0
 438 0032 8362     		str	r3, [r0, #40]
 439 0034 38BD     		pop	{r3, r4, r5, pc}
 440              	.LVL34:
 441              	.L27:
 442              	.LBE19:
 443              	.LBE18:
 444              		.loc 1 259 0 discriminator 1
 445 0036 A36A     		ldr	r3, [r4, #40]
 446              		.loc 1 258 0 discriminator 1
 447 0038 1942     		tst	r1, r3
 448 003a F6D1     		bne	.L24
 449 003c 38BD     		pop	{r3, r4, r5, pc}
ARM GAS  /tmp/ccc7VhL9.s 			page 9


 450              	.LVL35:
 451              	.L26:
 452              		.loc 1 254 0 discriminator 1
 453 003e 40F20000 		movw	r0, #:lower16:.LC2
 454 0042 C0F20000 		movt	r0, #:upper16:.LC2
 455 0046 FFF7FEFF 		bl	chDbgPanic
 456              	.LVL36:
 457 004a DFE7     		b	.L22
 458              		.cfi_endproc
 459              	.LFE14:
 460              		.size	chEvtSignalI, .-chEvtSignalI
 461 004c AFF30080 		.section	.text.chEvtBroadcastFlagsI,"ax",%progbits
 462              		.align	2
 463              		.p2align 4,,15
 464              		.global	chEvtBroadcastFlagsI
 465              		.thumb
 466              		.thumb_func
 467              		.type	chEvtBroadcastFlagsI, %function
 468              	chEvtBroadcastFlagsI:
 469              	.LFB11:
 470              		.loc 1 184 0
 471              		.cfi_startproc
 472              		@ args = 0, pretend = 0, frame = 0
 473              		@ frame_needed = 0, uses_anonymous_args = 0
 474              	.LVL37:
 475 0000 70B5     		push	{r4, r5, r6, lr}
 476              		.cfi_def_cfa_offset 16
 477              		.cfi_offset 4, -16
 478              		.cfi_offset 5, -12
 479              		.cfi_offset 6, -8
 480              		.cfi_offset 14, -4
 481              		.loc 1 184 0
 482 0002 0546     		mov	r5, r0
 483 0004 0E46     		mov	r6, r1
 484              		.loc 1 187 0
 485 0006 FFF7FEFF 		bl	chDbgCheckClassI
 486              	.LVL38:
 487              		.loc 1 188 0
 488 000a 65B1     		cbz	r5, .L34
 489              	.L30:
 490              		.loc 1 190 0
 491 000c 2C68     		ldr	r4, [r5]
 492              	.LVL39:
 493              		.loc 1 191 0
 494 000e A542     		cmp	r5, r4
 495 0010 08D0     		beq	.L29
 496              	.L33:
 497              		.loc 1 193 0
 498 0012 201D     		adds	r0, r4, #4
 499 0014 0BC8     		ldmia	r0, {r0, r1, r3}
 500              		.loc 1 192 0
 501 0016 3343     		orrs	r3, r3, r6
 502 0018 E360     		str	r3, [r4, #12]
 503              		.loc 1 193 0
 504 001a FFF7FEFF 		bl	chEvtSignalI
 505              	.LVL40:
 506              		.loc 1 194 0
ARM GAS  /tmp/ccc7VhL9.s 			page 10


 507 001e 2468     		ldr	r4, [r4]
 508              	.LVL41:
 509              		.loc 1 191 0
 510 0020 A542     		cmp	r5, r4
 511 0022 F6D1     		bne	.L33
 512              	.L29:
 513 0024 70BD     		pop	{r4, r5, r6, pc}
 514              	.LVL42:
 515              	.L34:
 516              		.loc 1 188 0 discriminator 1
 517 0026 40F20000 		movw	r0, #:lower16:.LC3
 518 002a C0F20000 		movt	r0, #:upper16:.LC3
 519 002e FFF7FEFF 		bl	chDbgPanic
 520              	.LVL43:
 521 0032 EBE7     		b	.L30
 522              		.cfi_endproc
 523              	.LFE11:
 524              		.size	chEvtBroadcastFlagsI, .-chEvtBroadcastFlagsI
 525 0034 AFF30080 		.section	.text.chEvtSignal,"ax",%progbits
 525      AFF30080 
 525      AFF30080 
 526              		.align	2
 527              		.p2align 4,,15
 528              		.global	chEvtSignal
 529              		.thumb
 530              		.thumb_func
 531              		.type	chEvtSignal, %function
 532              	chEvtSignal:
 533              	.LFB13:
 534              		.loc 1 229 0
 535              		.cfi_startproc
 536              		@ args = 0, pretend = 0, frame = 0
 537              		@ frame_needed = 0, uses_anonymous_args = 0
 538              	.LVL44:
 539 0000 38B5     		push	{r3, r4, r5, lr}
 540              		.cfi_def_cfa_offset 16
 541              		.cfi_offset 3, -16
 542              		.cfi_offset 4, -12
 543              		.cfi_offset 5, -8
 544              		.cfi_offset 14, -4
 545              		.loc 1 231 0
 546 0002 0446     		mov	r4, r0
 547              		.loc 1 229 0
 548 0004 0D46     		mov	r5, r1
 549              		.loc 1 231 0
 550 0006 80B1     		cbz	r0, .L37
 551              	.LVL45:
 552              	.L36:
 553              	.LBB20:
 554              		.loc 1 233 0
 555 0008 2023     		movs	r3, #32
 556              	@ 233 "../../../os/kernel/src/chevents.c" 1
 557 000a 83F31188 		msr     BASEPRI, r3
 558              	@ 0 "" 2
 559              		.thumb
 560              	.LBE20:
 561 000e FFF7FEFF 		bl	dbg_check_lock
ARM GAS  /tmp/ccc7VhL9.s 			page 11


 562              	.LVL46:
 563              		.loc 1 234 0
 564 0012 2046     		mov	r0, r4
 565 0014 2946     		mov	r1, r5
 566 0016 FFF7FEFF 		bl	chEvtSignalI
 567              	.LVL47:
 568              		.loc 1 235 0
 569 001a FFF7FEFF 		bl	chSchRescheduleS
 570              	.LVL48:
 571              		.loc 1 236 0
 572 001e FFF7FEFF 		bl	dbg_check_unlock
 573              	.LVL49:
 574              	.LBB21:
 575 0022 0023     		movs	r3, #0
 576              	@ 236 "../../../os/kernel/src/chevents.c" 1
 577 0024 83F31188 		msr     BASEPRI, r3
 578              	@ 0 "" 2
 579              		.thumb
 580 0028 38BD     		pop	{r3, r4, r5, pc}
 581              	.LVL50:
 582              	.L37:
 583              	.LBE21:
 584              		.loc 1 231 0 discriminator 1
 585 002a 40F20000 		movw	r0, #:lower16:.LC4
 586              	.LVL51:
 587 002e C0F20000 		movt	r0, #:upper16:.LC4
 588 0032 FFF7FEFF 		bl	chDbgPanic
 589              	.LVL52:
 590 0036 E7E7     		b	.L36
 591              		.cfi_endproc
 592              	.LFE13:
 593              		.size	chEvtSignal, .-chEvtSignal
 594 0038 AFF30080 		.section	.text.chEvtBroadcastFlags,"ax",%progbits
 594      AFF30080 
 595              		.align	2
 596              		.p2align 4,,15
 597              		.global	chEvtBroadcastFlags
 598              		.thumb
 599              		.thumb_func
 600              		.type	chEvtBroadcastFlags, %function
 601              	chEvtBroadcastFlags:
 602              	.LFB15:
 603              		.loc 1 278 0
 604              		.cfi_startproc
 605              		@ args = 0, pretend = 0, frame = 0
 606              		@ frame_needed = 0, uses_anonymous_args = 0
 607              	.LVL53:
 608 0000 38B5     		push	{r3, r4, r5, lr}
 609              		.cfi_def_cfa_offset 16
 610              		.cfi_offset 3, -16
 611              		.cfi_offset 4, -12
 612              		.cfi_offset 5, -8
 613              		.cfi_offset 14, -4
 614              		.loc 1 278 0
 615 0002 0546     		mov	r5, r0
 616 0004 0C46     		mov	r4, r1
 617              	.LBB22:
ARM GAS  /tmp/ccc7VhL9.s 			page 12


 618              		.loc 1 280 0
 619 0006 2023     		movs	r3, #32
 620              	@ 280 "../../../os/kernel/src/chevents.c" 1
 621 0008 83F31188 		msr     BASEPRI, r3
 622              	@ 0 "" 2
 623              		.thumb
 624              	.LBE22:
 625 000c FFF7FEFF 		bl	dbg_check_lock
 626              	.LVL54:
 627              		.loc 1 281 0
 628 0010 2846     		mov	r0, r5
 629 0012 2146     		mov	r1, r4
 630 0014 FFF7FEFF 		bl	chEvtBroadcastFlagsI
 631              	.LVL55:
 632              		.loc 1 282 0
 633 0018 FFF7FEFF 		bl	chSchRescheduleS
 634              	.LVL56:
 635              		.loc 1 283 0
 636 001c FFF7FEFF 		bl	dbg_check_unlock
 637              	.LVL57:
 638              	.LBB23:
 639 0020 0023     		movs	r3, #0
 640              	@ 283 "../../../os/kernel/src/chevents.c" 1
 641 0022 83F31188 		msr     BASEPRI, r3
 642              	@ 0 "" 2
 643              		.thumb
 644 0026 38BD     		pop	{r3, r4, r5, pc}
 645              	.LBE23:
 646              		.cfi_endproc
 647              	.LFE15:
 648              		.size	chEvtBroadcastFlags, .-chEvtBroadcastFlags
 649 0028 AFF30080 		.section	.text.chEvtGetAndClearFlagsI,"ax",%progbits
 649      AFF30080 
 650              		.align	2
 651              		.p2align 4,,15
 652              		.global	chEvtGetAndClearFlagsI
 653              		.thumb
 654              		.thumb_func
 655              		.type	chEvtGetAndClearFlagsI, %function
 656              	chEvtGetAndClearFlagsI:
 657              	.LFB16:
 658              		.loc 1 297 0
 659              		.cfi_startproc
 660              		@ args = 0, pretend = 0, frame = 0
 661              		@ frame_needed = 0, uses_anonymous_args = 0
 662              		@ link register save eliminated.
 663              	.LVL58:
 664              		.loc 1 297 0
 665 0000 0346     		mov	r3, r0
 666              		.loc 1 301 0
 667 0002 0022     		movs	r2, #0
 668              		.loc 1 300 0
 669 0004 C068     		ldr	r0, [r0, #12]
 670              	.LVL59:
 671              		.loc 1 301 0
 672 0006 DA60     		str	r2, [r3, #12]
 673              		.loc 1 304 0
ARM GAS  /tmp/ccc7VhL9.s 			page 13


 674 0008 7047     		bx	lr
 675              		.cfi_endproc
 676              	.LFE16:
 677              		.size	chEvtGetAndClearFlagsI, .-chEvtGetAndClearFlagsI
 678 000a 00BFAFF3 		.section	.text.chEvtDispatch,"ax",%progbits
 678      0080
 679              		.align	2
 680              		.p2align 4,,15
 681              		.global	chEvtDispatch
 682              		.thumb
 683              		.thumb_func
 684              		.type	chEvtDispatch, %function
 685              	chEvtDispatch:
 686              	.LFB17:
 687              		.loc 1 315 0
 688              		.cfi_startproc
 689              		@ args = 0, pretend = 0, frame = 0
 690              		@ frame_needed = 0, uses_anonymous_args = 0
 691              	.LVL60:
 692 0000 2DE9F843 		push	{r3, r4, r5, r6, r7, r8, r9, lr}
 693              		.cfi_def_cfa_offset 32
 694              		.cfi_offset 3, -32
 695              		.cfi_offset 4, -28
 696              		.cfi_offset 5, -24
 697              		.cfi_offset 6, -20
 698              		.cfi_offset 7, -16
 699              		.cfi_offset 8, -12
 700              		.cfi_offset 9, -8
 701              		.cfi_offset 14, -4
 702              		.loc 1 318 0
 703 0004 8146     		mov	r9, r0
 704              		.loc 1 315 0
 705 0006 0D46     		mov	r5, r1
 706              		.loc 1 318 0
 707 0008 F0B1     		cbz	r0, .L54
 708              	.LVL61:
 709              	.L41:
 710              		.loc 1 321 0 discriminator 1
 711 000a 95B1     		cbz	r5, .L40
 712              		.loc 1 321 0 is_stmt 0
 713 000c 0026     		movs	r6, #0
 714 000e 3446     		mov	r4, r6
 715              		.loc 1 322 0 is_stmt 1
 716 0010 4FF00108 		mov	r8, #1
 717              	.LVL62:
 718              	.L46:
 719 0014 08FA04F7 		lsl	r7, r8, r4
 720 0018 2F42     		tst	r7, r5
 721 001a 06D0     		beq	.L43
 722              		.loc 1 323 0
 723 001c 59F80630 		ldr	r3, [r9, r6]
 724 0020 4BB1     		cbz	r3, .L55
 725              	.L44:
 726              		.loc 1 327 0
 727 0022 2046     		mov	r0, r4
 728              		.loc 1 326 0
 729 0024 25EA0705 		bic	r5, r5, r7
ARM GAS  /tmp/ccc7VhL9.s 			page 14


 730              	.LVL63:
 731              		.loc 1 327 0
 732 0028 9847     		blx	r3
 733              	.LVL64:
 734              	.L43:
 735              		.loc 1 329 0
 736 002a 0134     		adds	r4, r4, #1
 737              	.LVL65:
 738 002c 0436     		adds	r6, r6, #4
 739              		.loc 1 321 0
 740 002e 002D     		cmp	r5, #0
 741 0030 F0D1     		bne	.L46
 742              	.LVL66:
 743              	.L40:
 744 0032 BDE8F883 		pop	{r3, r4, r5, r6, r7, r8, r9, pc}
 745              	.LVL67:
 746              	.L55:
 747              		.loc 1 323 0 discriminator 1
 748 0036 40F20000 		movw	r0, #:lower16:.LC6
 749 003a C0F20000 		movt	r0, #:upper16:.LC6
 750 003e FFF7FEFF 		bl	chDbgPanic
 751              	.LVL68:
 752 0042 59F80630 		ldr	r3, [r9, r6]
 753 0046 ECE7     		b	.L44
 754              	.LVL69:
 755              	.L54:
 756              		.loc 1 318 0 discriminator 1
 757 0048 40F20000 		movw	r0, #:lower16:.LC5
 758              	.LVL70:
 759 004c C0F20000 		movt	r0, #:upper16:.LC5
 760 0050 FFF7FEFF 		bl	chDbgPanic
 761              	.LVL71:
 762 0054 D9E7     		b	.L41
 763              		.cfi_endproc
 764              	.LFE17:
 765              		.size	chEvtDispatch, .-chEvtDispatch
 766 0056 00BFAFF3 		.section	.text.chEvtWaitOne,"ax",%progbits
 766      0080AFF3 
 766      0080
 767              		.align	2
 768              		.p2align 4,,15
 769              		.global	chEvtWaitOne
 770              		.thumb
 771              		.thumb_func
 772              		.type	chEvtWaitOne, %function
 773              	chEvtWaitOne:
 774              	.LFB18:
 775              		.loc 1 350 0
 776              		.cfi_startproc
 777              		@ args = 0, pretend = 0, frame = 0
 778              		@ frame_needed = 0, uses_anonymous_args = 0
 779              	.LVL72:
 780 0000 38B5     		push	{r3, r4, r5, lr}
 781              		.cfi_def_cfa_offset 16
 782              		.cfi_offset 3, -16
 783              		.cfi_offset 4, -12
 784              		.cfi_offset 5, -8
ARM GAS  /tmp/ccc7VhL9.s 			page 15


 785              		.cfi_offset 14, -4
 786              		.loc 1 351 0
 787 0002 40F20003 		movw	r3, #:lower16:rlist
 788 0006 C0F20003 		movt	r3, #:upper16:rlist
 789              		.loc 1 350 0
 790 000a 0446     		mov	r4, r0
 791              		.loc 1 351 0
 792 000c 9D69     		ldr	r5, [r3, #24]
 793              	.LVL73:
 794              	.LBB24:
 795              		.loc 1 354 0
 796 000e 2023     		movs	r3, #32
 797              	@ 354 "../../../os/kernel/src/chevents.c" 1
 798 0010 83F31188 		msr     BASEPRI, r3
 799              	@ 0 "" 2
 800              		.thumb
 801              	.LBE24:
 802 0014 FFF7FEFF 		bl	dbg_check_lock
 803              	.LVL74:
 804              		.loc 1 356 0
 805 0018 EB6B     		ldr	r3, [r5, #60]
 806              	.LVL75:
 807 001a 14EA0302 		ands	r2, r4, r3
 808              	.LVL76:
 809 001e 06D1     		bne	.L57
 810              		.loc 1 357 0
 811 0020 AC62     		str	r4, [r5, #40]
 812              		.loc 1 358 0
 813 0022 0820     		movs	r0, #8
 814 0024 FFF7FEFF 		bl	chSchGoSleepS
 815              	.LVL77:
 816              		.loc 1 359 0
 817 0028 EB6B     		ldr	r3, [r5, #60]
 818 002a 04EA0302 		and	r2, r4, r3
 819              	.LVL78:
 820              	.L57:
 821              		.loc 1 361 0
 822 002e 5442     		negs	r4, r2
 823              	.LVL79:
 824 0030 1440     		ands	r4, r4, r2
 825              	.LVL80:
 826              		.loc 1 362 0
 827 0032 23EA0403 		bic	r3, r3, r4
 828 0036 EB63     		str	r3, [r5, #60]
 829              		.loc 1 364 0
 830 0038 FFF7FEFF 		bl	dbg_check_unlock
 831              	.LVL81:
 832              	.LBB25:
 833 003c 0023     		movs	r3, #0
 834              	@ 364 "../../../os/kernel/src/chevents.c" 1
 835 003e 83F31188 		msr     BASEPRI, r3
 836              	@ 0 "" 2
 837              		.thumb
 838              	.LBE25:
 839              		.loc 1 366 0
 840 0042 2046     		mov	r0, r4
 841 0044 38BD     		pop	{r3, r4, r5, pc}
ARM GAS  /tmp/ccc7VhL9.s 			page 16


 842              		.cfi_endproc
 843              	.LFE18:
 844              		.size	chEvtWaitOne, .-chEvtWaitOne
 845 0046 00BFAFF3 		.section	.text.chEvtWaitAny,"ax",%progbits
 845      0080AFF3 
 845      0080
 846              		.align	2
 847              		.p2align 4,,15
 848              		.global	chEvtWaitAny
 849              		.thumb
 850              		.thumb_func
 851              		.type	chEvtWaitAny, %function
 852              	chEvtWaitAny:
 853              	.LFB19:
 854              		.loc 1 379 0
 855              		.cfi_startproc
 856              		@ args = 0, pretend = 0, frame = 0
 857              		@ frame_needed = 0, uses_anonymous_args = 0
 858              	.LVL82:
 859              		.loc 1 380 0
 860 0000 40F20003 		movw	r3, #:lower16:rlist
 861 0004 C0F20003 		movt	r3, #:upper16:rlist
 862              		.loc 1 379 0
 863 0008 70B5     		push	{r4, r5, r6, lr}
 864              		.cfi_def_cfa_offset 16
 865              		.cfi_offset 4, -16
 866              		.cfi_offset 5, -12
 867              		.cfi_offset 6, -8
 868              		.cfi_offset 14, -4
 869              		.loc 1 380 0
 870 000a 9D69     		ldr	r5, [r3, #24]
 871              	.LVL83:
 872              		.loc 1 379 0
 873 000c 0446     		mov	r4, r0
 874              	.LBB26:
 875              		.loc 1 383 0
 876 000e 2023     		movs	r3, #32
 877              	@ 383 "../../../os/kernel/src/chevents.c" 1
 878 0010 83F31188 		msr     BASEPRI, r3
 879              	@ 0 "" 2
 880              		.thumb
 881              	.LBE26:
 882 0014 FFF7FEFF 		bl	dbg_check_lock
 883              	.LVL84:
 884              		.loc 1 385 0
 885 0018 EB6B     		ldr	r3, [r5, #60]
 886              	.LVL85:
 887 001a 14EA0306 		ands	r6, r4, r3
 888              	.LVL86:
 889 001e 06D1     		bne	.L60
 890              		.loc 1 386 0
 891 0020 AC62     		str	r4, [r5, #40]
 892              		.loc 1 387 0
 893 0022 0820     		movs	r0, #8
 894 0024 FFF7FEFF 		bl	chSchGoSleepS
 895              	.LVL87:
 896              		.loc 1 388 0
ARM GAS  /tmp/ccc7VhL9.s 			page 17


 897 0028 EB6B     		ldr	r3, [r5, #60]
 898 002a 04EA0306 		and	r6, r4, r3
 899              	.LVL88:
 900              	.L60:
 901              		.loc 1 390 0
 902 002e 23EA0603 		bic	r3, r3, r6
 903 0032 EB63     		str	r3, [r5, #60]
 904              		.loc 1 392 0
 905 0034 FFF7FEFF 		bl	dbg_check_unlock
 906              	.LVL89:
 907              	.LBB27:
 908 0038 0023     		movs	r3, #0
 909              	@ 392 "../../../os/kernel/src/chevents.c" 1
 910 003a 83F31188 		msr     BASEPRI, r3
 911              	@ 0 "" 2
 912              		.thumb
 913              	.LBE27:
 914              		.loc 1 394 0
 915 003e 3046     		mov	r0, r6
 916 0040 70BD     		pop	{r4, r5, r6, pc}
 917              		.cfi_endproc
 918              	.LFE19:
 919              		.size	chEvtWaitAny, .-chEvtWaitAny
 920 0042 00BFAFF3 		.section	.text.chEvtWaitAll,"ax",%progbits
 920      0080AFF3 
 920      0080AFF3 
 920      0080
 921              		.align	2
 922              		.p2align 4,,15
 923              		.global	chEvtWaitAll
 924              		.thumb
 925              		.thumb_func
 926              		.type	chEvtWaitAll, %function
 927              	chEvtWaitAll:
 928              	.LFB20:
 929              		.loc 1 407 0
 930              		.cfi_startproc
 931              		@ args = 0, pretend = 0, frame = 0
 932              		@ frame_needed = 0, uses_anonymous_args = 0
 933              	.LVL90:
 934 0000 38B5     		push	{r3, r4, r5, lr}
 935              		.cfi_def_cfa_offset 16
 936              		.cfi_offset 3, -16
 937              		.cfi_offset 4, -12
 938              		.cfi_offset 5, -8
 939              		.cfi_offset 14, -4
 940              		.loc 1 408 0
 941 0002 40F20003 		movw	r3, #:lower16:rlist
 942 0006 C0F20003 		movt	r3, #:upper16:rlist
 943              		.loc 1 407 0
 944 000a 0446     		mov	r4, r0
 945              		.loc 1 408 0
 946 000c 9D69     		ldr	r5, [r3, #24]
 947              	.LVL91:
 948              	.LBB28:
 949              		.loc 1 410 0
 950 000e 2023     		movs	r3, #32
ARM GAS  /tmp/ccc7VhL9.s 			page 18


 951              	@ 410 "../../../os/kernel/src/chevents.c" 1
 952 0010 83F31188 		msr     BASEPRI, r3
 953              	@ 0 "" 2
 954              		.thumb
 955              	.LBE28:
 956 0014 FFF7FEFF 		bl	dbg_check_lock
 957              	.LVL92:
 958              		.loc 1 412 0
 959 0018 EB6B     		ldr	r3, [r5, #60]
 960 001a 04EA0302 		and	r2, r4, r3
 961 001e A242     		cmp	r2, r4
 962 0020 04D0     		beq	.L63
 963              		.loc 1 413 0
 964 0022 AC62     		str	r4, [r5, #40]
 965              		.loc 1 414 0
 966 0024 0920     		movs	r0, #9
 967 0026 FFF7FEFF 		bl	chSchGoSleepS
 968              	.LVL93:
 969 002a EB6B     		ldr	r3, [r5, #60]
 970              	.L63:
 971              		.loc 1 416 0
 972 002c 23EA0403 		bic	r3, r3, r4
 973 0030 EB63     		str	r3, [r5, #60]
 974              		.loc 1 418 0
 975 0032 FFF7FEFF 		bl	dbg_check_unlock
 976              	.LVL94:
 977              	.LBB29:
 978 0036 0023     		movs	r3, #0
 979              	@ 418 "../../../os/kernel/src/chevents.c" 1
 980 0038 83F31188 		msr     BASEPRI, r3
 981              	@ 0 "" 2
 982              		.thumb
 983              	.LBE29:
 984              		.loc 1 420 0
 985 003c 2046     		mov	r0, r4
 986 003e 38BD     		pop	{r3, r4, r5, pc}
 987              		.cfi_endproc
 988              	.LFE20:
 989              		.size	chEvtWaitAll, .-chEvtWaitAll
 990              		.section	.text.chEvtWaitOneTimeout,"ax",%progbits
 991              		.align	2
 992              		.p2align 4,,15
 993              		.global	chEvtWaitOneTimeout
 994              		.thumb
 995              		.thumb_func
 996              		.type	chEvtWaitOneTimeout, %function
 997              	chEvtWaitOneTimeout:
 998              	.LFB21:
 999              		.loc 1 446 0
 1000              		.cfi_startproc
 1001              		@ args = 0, pretend = 0, frame = 0
 1002              		@ frame_needed = 0, uses_anonymous_args = 0
 1003              	.LVL95:
 1004              		.loc 1 447 0
 1005 0000 40F20002 		movw	r2, #:lower16:rlist
 1006 0004 C0F20002 		movt	r2, #:upper16:rlist
 1007              		.loc 1 446 0
ARM GAS  /tmp/ccc7VhL9.s 			page 19


 1008 0008 F8B5     		push	{r3, r4, r5, r6, r7, lr}
 1009              		.cfi_def_cfa_offset 24
 1010              		.cfi_offset 3, -24
 1011              		.cfi_offset 4, -20
 1012              		.cfi_offset 5, -16
 1013              		.cfi_offset 6, -12
 1014              		.cfi_offset 7, -8
 1015              		.cfi_offset 14, -4
 1016              		.loc 1 446 0
 1017 000a 0446     		mov	r4, r0
 1018 000c 0F46     		mov	r7, r1
 1019              		.loc 1 447 0
 1020 000e 9569     		ldr	r5, [r2, #24]
 1021              	.LVL96:
 1022              	.LBB30:
 1023              		.loc 1 450 0
 1024 0010 2023     		movs	r3, #32
 1025              	@ 450 "../../../os/kernel/src/chevents.c" 1
 1026 0012 83F31188 		msr     BASEPRI, r3
 1027              	@ 0 "" 2
 1028              		.thumb
 1029              	.LBE30:
 1030 0016 FFF7FEFF 		bl	dbg_check_lock
 1031              	.LVL97:
 1032              		.loc 1 452 0
 1033 001a EA6B     		ldr	r2, [r5, #60]
 1034              	.LVL98:
 1035 001c 14EA0206 		ands	r6, r4, r2
 1036              	.LVL99:
 1037 0020 0BD1     		bne	.L66
 1038              		.loc 1 453 0
 1039 0022 B7B1     		cbz	r7, .L71
 1040              		.loc 1 457 0
 1041 0024 AC62     		str	r4, [r5, #40]
 1042              		.loc 1 458 0
 1043 0026 3946     		mov	r1, r7
 1044 0028 0820     		movs	r0, #8
 1045 002a FFF7FEFF 		bl	chSchGoSleepTimeoutS
 1046              	.LVL100:
 1047 002e 0028     		cmp	r0, #0
 1048              		.loc 1 462 0
 1049 0030 A4BF     		itt	ge
 1050 0032 EA6B     		ldrge	r2, [r5, #60]
 1051 0034 04EA0206 		andge	r6, r4, r2
 1052              	.LVL101:
 1053              		.loc 1 458 0
 1054 0038 12DB     		blt	.L72
 1055              	.L66:
 1056              	.LVL102:
 1057              		.loc 1 464 0
 1058 003a 7342     		negs	r3, r6
 1059 003c 1E40     		ands	r6, r6, r3
 1060              	.LVL103:
 1061              		.loc 1 465 0
 1062 003e 22EA0602 		bic	r2, r2, r6
 1063 0042 EA63     		str	r2, [r5, #60]
 1064              		.loc 1 467 0
ARM GAS  /tmp/ccc7VhL9.s 			page 20


 1065 0044 FFF7FEFF 		bl	dbg_check_unlock
 1066              	.LVL104:
 1067              	.LBB31:
 1068 0048 0023     		movs	r3, #0
 1069              	@ 467 "../../../os/kernel/src/chevents.c" 1
 1070 004a 83F31188 		msr     BASEPRI, r3
 1071              	@ 0 "" 2
 1072              		.thumb
 1073              	.LBE31:
 1074              		.loc 1 468 0
 1075 004e 3046     		mov	r0, r6
 1076              		.loc 1 469 0
 1077 0050 F8BD     		pop	{r3, r4, r5, r6, r7, pc}
 1078              	.LVL105:
 1079              	.L71:
 1080              		.loc 1 454 0
 1081 0052 FFF7FEFF 		bl	dbg_check_unlock
 1082              	.LVL106:
 1083              	.LBB32:
 1084 0056 3B46     		mov	r3, r7
 1085              	@ 454 "../../../os/kernel/src/chevents.c" 1
 1086 0058 83F31188 		msr     BASEPRI, r3
 1087              	@ 0 "" 2
 1088              		.thumb
 1089              	.LBE32:
 1090              		.loc 1 455 0
 1091 005c 0020     		movs	r0, #0
 1092 005e F8BD     		pop	{r3, r4, r5, r6, r7, pc}
 1093              	.LVL107:
 1094              	.L72:
 1095              		.loc 1 459 0
 1096 0060 FFF7FEFF 		bl	dbg_check_unlock
 1097              	.LVL108:
 1098              	.LBB33:
 1099 0064 3346     		mov	r3, r6
 1100              	@ 459 "../../../os/kernel/src/chevents.c" 1
 1101 0066 83F31188 		msr     BASEPRI, r3
 1102              	@ 0 "" 2
 1103              		.thumb
 1104              	.LBE33:
 1105              		.loc 1 460 0
 1106 006a 0020     		movs	r0, #0
 1107 006c F8BD     		pop	{r3, r4, r5, r6, r7, pc}
 1108              		.cfi_endproc
 1109              	.LFE21:
 1110              		.size	chEvtWaitOneTimeout, .-chEvtWaitOneTimeout
 1111 006e 00BF     		.section	.text.chEvtWaitAnyTimeout,"ax",%progbits
 1112              		.align	2
 1113              		.p2align 4,,15
 1114              		.global	chEvtWaitAnyTimeout
 1115              		.thumb
 1116              		.thumb_func
 1117              		.type	chEvtWaitAnyTimeout, %function
 1118              	chEvtWaitAnyTimeout:
 1119              	.LFB22:
 1120              		.loc 1 489 0
 1121              		.cfi_startproc
ARM GAS  /tmp/ccc7VhL9.s 			page 21


 1122              		@ args = 0, pretend = 0, frame = 0
 1123              		@ frame_needed = 0, uses_anonymous_args = 0
 1124              	.LVL109:
 1125              		.loc 1 490 0
 1126 0000 40F20002 		movw	r2, #:lower16:rlist
 1127 0004 C0F20002 		movt	r2, #:upper16:rlist
 1128              		.loc 1 489 0
 1129 0008 F8B5     		push	{r3, r4, r5, r6, r7, lr}
 1130              		.cfi_def_cfa_offset 24
 1131              		.cfi_offset 3, -24
 1132              		.cfi_offset 4, -20
 1133              		.cfi_offset 5, -16
 1134              		.cfi_offset 6, -12
 1135              		.cfi_offset 7, -8
 1136              		.cfi_offset 14, -4
 1137              		.loc 1 489 0
 1138 000a 0446     		mov	r4, r0
 1139 000c 0F46     		mov	r7, r1
 1140              		.loc 1 490 0
 1141 000e 9569     		ldr	r5, [r2, #24]
 1142              	.LVL110:
 1143              	.LBB34:
 1144              		.loc 1 493 0
 1145 0010 2023     		movs	r3, #32
 1146              	@ 493 "../../../os/kernel/src/chevents.c" 1
 1147 0012 83F31188 		msr     BASEPRI, r3
 1148              	@ 0 "" 2
 1149              		.thumb
 1150              	.LBE34:
 1151 0016 FFF7FEFF 		bl	dbg_check_lock
 1152              	.LVL111:
 1153              		.loc 1 495 0
 1154 001a EA6B     		ldr	r2, [r5, #60]
 1155              	.LVL112:
 1156 001c 14EA0206 		ands	r6, r4, r2
 1157              	.LVL113:
 1158 0020 0BD1     		bne	.L74
 1159              		.loc 1 496 0
 1160 0022 A7B1     		cbz	r7, .L79
 1161              		.loc 1 500 0
 1162 0024 AC62     		str	r4, [r5, #40]
 1163              		.loc 1 501 0
 1164 0026 3946     		mov	r1, r7
 1165 0028 0820     		movs	r0, #8
 1166 002a FFF7FEFF 		bl	chSchGoSleepTimeoutS
 1167              	.LVL114:
 1168 002e 0028     		cmp	r0, #0
 1169              		.loc 1 505 0
 1170 0030 A4BF     		itt	ge
 1171 0032 EA6B     		ldrge	r2, [r5, #60]
 1172 0034 04EA0206 		andge	r6, r4, r2
 1173              	.LVL115:
 1174              		.loc 1 501 0
 1175 0038 10DB     		blt	.L80
 1176              	.L74:
 1177              	.LVL116:
 1178              		.loc 1 507 0
ARM GAS  /tmp/ccc7VhL9.s 			page 22


 1179 003a 22EA0602 		bic	r2, r2, r6
 1180 003e EA63     		str	r2, [r5, #60]
 1181              		.loc 1 509 0
 1182 0040 FFF7FEFF 		bl	dbg_check_unlock
 1183              	.LVL117:
 1184              	.LBB35:
 1185 0044 0023     		movs	r3, #0
 1186              	@ 509 "../../../os/kernel/src/chevents.c" 1
 1187 0046 83F31188 		msr     BASEPRI, r3
 1188              	@ 0 "" 2
 1189              		.thumb
 1190              	.LBE35:
 1191              		.loc 1 510 0
 1192 004a 3046     		mov	r0, r6
 1193              		.loc 1 511 0
 1194 004c F8BD     		pop	{r3, r4, r5, r6, r7, pc}
 1195              	.LVL118:
 1196              	.L79:
 1197              		.loc 1 497 0
 1198 004e FFF7FEFF 		bl	dbg_check_unlock
 1199              	.LVL119:
 1200              	.LBB36:
 1201 0052 3B46     		mov	r3, r7
 1202              	@ 497 "../../../os/kernel/src/chevents.c" 1
 1203 0054 83F31188 		msr     BASEPRI, r3
 1204              	@ 0 "" 2
 1205              		.thumb
 1206              	.LBE36:
 1207              		.loc 1 498 0
 1208 0058 0020     		movs	r0, #0
 1209 005a F8BD     		pop	{r3, r4, r5, r6, r7, pc}
 1210              	.LVL120:
 1211              	.L80:
 1212              		.loc 1 502 0
 1213 005c FFF7FEFF 		bl	dbg_check_unlock
 1214              	.LVL121:
 1215              	.LBB37:
 1216 0060 3346     		mov	r3, r6
 1217              	@ 502 "../../../os/kernel/src/chevents.c" 1
 1218 0062 83F31188 		msr     BASEPRI, r3
 1219              	@ 0 "" 2
 1220              		.thumb
 1221              	.LBE37:
 1222              		.loc 1 503 0
 1223 0066 0020     		movs	r0, #0
 1224 0068 F8BD     		pop	{r3, r4, r5, r6, r7, pc}
 1225              		.cfi_endproc
 1226              	.LFE22:
 1227              		.size	chEvtWaitAnyTimeout, .-chEvtWaitAnyTimeout
 1228 006a 00BFAFF3 		.section	.text.chEvtWaitAllTimeout,"ax",%progbits
 1228      0080
 1229              		.align	2
 1230              		.p2align 4,,15
 1231              		.global	chEvtWaitAllTimeout
 1232              		.thumb
 1233              		.thumb_func
 1234              		.type	chEvtWaitAllTimeout, %function
ARM GAS  /tmp/ccc7VhL9.s 			page 23


 1235              	chEvtWaitAllTimeout:
 1236              	.LFB23:
 1237              		.loc 1 530 0
 1238              		.cfi_startproc
 1239              		@ args = 0, pretend = 0, frame = 0
 1240              		@ frame_needed = 0, uses_anonymous_args = 0
 1241              	.LVL122:
 1242              		.loc 1 531 0
 1243 0000 40F20002 		movw	r2, #:lower16:rlist
 1244 0004 C0F20002 		movt	r2, #:upper16:rlist
 1245              		.loc 1 530 0
 1246 0008 70B5     		push	{r4, r5, r6, lr}
 1247              		.cfi_def_cfa_offset 16
 1248              		.cfi_offset 4, -16
 1249              		.cfi_offset 5, -12
 1250              		.cfi_offset 6, -8
 1251              		.cfi_offset 14, -4
 1252              	.LBB38:
 1253              		.loc 1 533 0
 1254 000a 2023     		movs	r3, #32
 1255              	.LBE38:
 1256              		.loc 1 530 0
 1257 000c 0446     		mov	r4, r0
 1258 000e 0E46     		mov	r6, r1
 1259              		.loc 1 531 0
 1260 0010 9569     		ldr	r5, [r2, #24]
 1261              	.LVL123:
 1262              	.LBB39:
 1263              		.loc 1 533 0
 1264              	@ 533 "../../../os/kernel/src/chevents.c" 1
 1265 0012 83F31188 		msr     BASEPRI, r3
 1266              	@ 0 "" 2
 1267              		.thumb
 1268              	.LBE39:
 1269 0016 FFF7FEFF 		bl	dbg_check_lock
 1270              	.LVL124:
 1271              		.loc 1 535 0
 1272 001a EB6B     		ldr	r3, [r5, #60]
 1273 001c 04EA0302 		and	r2, r4, r3
 1274 0020 A242     		cmp	r2, r4
 1275 0022 08D0     		beq	.L82
 1276              		.loc 1 536 0
 1277 0024 8EB1     		cbz	r6, .L87
 1278              		.loc 1 540 0
 1279 0026 AC62     		str	r4, [r5, #40]
 1280              		.loc 1 541 0
 1281 0028 3146     		mov	r1, r6
 1282 002a 0920     		movs	r0, #9
 1283 002c FFF7FEFF 		bl	chSchGoSleepTimeoutS
 1284              	.LVL125:
 1285 0030 0028     		cmp	r0, #0
 1286 0032 11DB     		blt	.L85
 1287 0034 EB6B     		ldr	r3, [r5, #60]
 1288              	.L82:
 1289              		.loc 1 546 0
 1290 0036 23EA0403 		bic	r3, r3, r4
 1291 003a EB63     		str	r3, [r5, #60]
ARM GAS  /tmp/ccc7VhL9.s 			page 24


 1292              		.loc 1 548 0
 1293 003c FFF7FEFF 		bl	dbg_check_unlock
 1294              	.LVL126:
 1295              	.LBB40:
 1296 0040 0023     		movs	r3, #0
 1297              	@ 548 "../../../os/kernel/src/chevents.c" 1
 1298 0042 83F31188 		msr     BASEPRI, r3
 1299              	@ 0 "" 2
 1300              		.thumb
 1301              	.LBE40:
 1302              		.loc 1 549 0
 1303 0046 2046     		mov	r0, r4
 1304              		.loc 1 550 0
 1305 0048 70BD     		pop	{r4, r5, r6, pc}
 1306              	.LVL127:
 1307              	.L87:
 1308              		.loc 1 537 0
 1309 004a FFF7FEFF 		bl	dbg_check_unlock
 1310              	.LVL128:
 1311              	.LBB41:
 1312 004e 3346     		mov	r3, r6
 1313              	@ 537 "../../../os/kernel/src/chevents.c" 1
 1314 0050 83F31188 		msr     BASEPRI, r3
 1315              	@ 0 "" 2
 1316              		.thumb
 1317              	.LBE41:
 1318              		.loc 1 538 0
 1319 0054 0020     		movs	r0, #0
 1320 0056 70BD     		pop	{r4, r5, r6, pc}
 1321              	.LVL129:
 1322              	.L85:
 1323              		.loc 1 542 0
 1324 0058 FFF7FEFF 		bl	dbg_check_unlock
 1325              	.LVL130:
 1326              	.LBB42:
 1327 005c 0023     		movs	r3, #0
 1328              	@ 542 "../../../os/kernel/src/chevents.c" 1
 1329 005e 83F31188 		msr     BASEPRI, r3
 1330              	@ 0 "" 2
 1331              		.thumb
 1332              	.LBE42:
 1333              		.loc 1 543 0
 1334 0062 0020     		movs	r0, #0
 1335 0064 70BD     		pop	{r4, r5, r6, pc}
 1336              		.cfi_endproc
 1337              	.LFE23:
 1338              		.size	chEvtWaitAllTimeout, .-chEvtWaitAllTimeout
 1339 0066 00BFAFF3 		.section	.rodata.str1.4,"aMS",%progbits,1
 1339      0080AFF3 
 1339      0080
 1340              		.align	2
 1341              	.LC0:
 1342 0000 22636845 		.ascii	"\"chEvtRegisterMask\"()\000"
 1342      76745265 
 1342      67697374 
 1342      65724D61 
 1342      736B2228 
ARM GAS  /tmp/ccc7VhL9.s 			page 25


 1343 0016 0000     		.space	2
 1344              	.LC1:
 1345 0018 22636845 		.ascii	"\"chEvtUnregister\"()\000"
 1345      7674556E 
 1345      72656769 
 1345      73746572 
 1345      22282900 
 1346              	.LC2:
 1347 002c 22636845 		.ascii	"\"chEvtSignalI\"()\000"
 1347      76745369 
 1347      676E616C 
 1347      49222829 
 1347      00
 1348 003d 000000   		.space	3
 1349              	.LC3:
 1350 0040 22636845 		.ascii	"\"chEvtBroadcastMaskI\"()\000"
 1350      76744272 
 1350      6F616463 
 1350      6173744D 
 1350      61736B49 
 1351              	.LC4:
 1352 0058 22636845 		.ascii	"\"chEvtSignal\"()\000"
 1352      76745369 
 1352      676E616C 
 1352      22282900 
 1353              	.LC5:
 1354 0068 22636845 		.ascii	"\"chEvtDispatch\"()\000"
 1354      76744469 
 1354      73706174 
 1354      63682228 
 1354      2900
 1355 007a 0000     		.space	2
 1356              	.LC6:
 1357 007c 63684576 		.ascii	"chEvtDispatch(), #1\000"
 1357      74446973 
 1357      70617463 
 1357      6828292C 
 1357      20233100 
 1358              		.text
 1359              	.Letext0:
 1360              		.file 2 "/usr/include/newlib/machine/_default_types.h"
 1361              		.file 3 "/usr/include/newlib/stdint.h"
 1362              		.file 4 "../../../os/ports/GCC/ARMCMx/chtypes.h"
 1363              		.file 5 "../../../os/kernel/include/chlists.h"
 1364              		.file 6 "../../../os/kernel/include/chthreads.h"
 1365              		.file 7 "../../../os/ports/GCC/ARMCMx/chcore_v7m.h"
 1366              		.file 8 "../../../os/kernel/include/chschd.h"
 1367              		.file 9 "../../../os/kernel/include/chmtx.h"
 1368              		.file 10 "../../../os/kernel/include/chevents.h"
 1369              		.file 11 "../../../os/kernel/include/chdebug.h"
 1370              		.section	.debug_info,"",%progbits
 1371              	.Ldebug_info0:
 1372 0000 E50F0000 		.4byte	0xfe5
 1373 0004 0400     		.2byte	0x4
 1374 0006 00000000 		.4byte	.Ldebug_abbrev0
 1375 000a 04       		.byte	0x4
 1376 000b 01       		.uleb128 0x1
ARM GAS  /tmp/ccc7VhL9.s 			page 26


 1377 000c 37000000 		.4byte	.LASF108
 1378 0010 01       		.byte	0x1
 1379 0011 58020000 		.4byte	.LASF109
 1380 0015 41030000 		.4byte	.LASF110
 1381 0019 78000000 		.4byte	.Ldebug_ranges0+0x78
 1382 001d 00000000 		.4byte	0
 1383 0021 00000000 		.4byte	.Ldebug_line0
 1384 0025 02       		.uleb128 0x2
 1385 0026 04       		.byte	0x4
 1386 0027 05       		.byte	0x5
 1387 0028 696E7400 		.ascii	"int\000"
 1388 002c 03       		.uleb128 0x3
 1389 002d 04       		.byte	0x4
 1390 002e 07       		.byte	0x7
 1391 002f 22020000 		.4byte	.LASF0
 1392 0033 03       		.uleb128 0x3
 1393 0034 01       		.byte	0x1
 1394 0035 06       		.byte	0x6
 1395 0036 2C010000 		.4byte	.LASF1
 1396 003a 04       		.uleb128 0x4
 1397 003b 21000000 		.4byte	.LASF5
 1398 003f 02       		.byte	0x2
 1399 0040 1C       		.byte	0x1c
 1400 0041 45000000 		.4byte	0x45
 1401 0045 03       		.uleb128 0x3
 1402 0046 01       		.byte	0x1
 1403 0047 08       		.byte	0x8
 1404 0048 EE030000 		.4byte	.LASF2
 1405 004c 03       		.uleb128 0x3
 1406 004d 02       		.byte	0x2
 1407 004e 05       		.byte	0x5
 1408 004f 28040000 		.4byte	.LASF3
 1409 0053 03       		.uleb128 0x3
 1410 0054 02       		.byte	0x2
 1411 0055 07       		.byte	0x7
 1412 0056 82020000 		.4byte	.LASF4
 1413 005a 04       		.uleb128 0x4
 1414 005b D6040000 		.4byte	.LASF6
 1415 005f 02       		.byte	0x2
 1416 0060 37       		.byte	0x37
 1417 0061 65000000 		.4byte	0x65
 1418 0065 03       		.uleb128 0x3
 1419 0066 04       		.byte	0x4
 1420 0067 05       		.byte	0x5
 1421 0068 66010000 		.4byte	.LASF7
 1422 006c 04       		.uleb128 0x4
 1423 006d C8010000 		.4byte	.LASF8
 1424 0071 02       		.byte	0x2
 1425 0072 38       		.byte	0x38
 1426 0073 77000000 		.4byte	0x77
 1427 0077 03       		.uleb128 0x3
 1428 0078 04       		.byte	0x4
 1429 0079 07       		.byte	0x7
 1430 007a 2F020000 		.4byte	.LASF9
 1431 007e 03       		.uleb128 0x3
 1432 007f 08       		.byte	0x8
 1433 0080 05       		.byte	0x5
ARM GAS  /tmp/ccc7VhL9.s 			page 27


 1434 0081 1E010000 		.4byte	.LASF10
 1435 0085 04       		.uleb128 0x4
 1436 0086 B5030000 		.4byte	.LASF11
 1437 008a 02       		.byte	0x2
 1438 008b 4E       		.byte	0x4e
 1439 008c 90000000 		.4byte	0x90
 1440 0090 03       		.uleb128 0x3
 1441 0091 08       		.byte	0x8
 1442 0092 07       		.byte	0x7
 1443 0093 D4000000 		.4byte	.LASF12
 1444 0097 04       		.uleb128 0x4
 1445 0098 1C050000 		.4byte	.LASF13
 1446 009c 03       		.byte	0x3
 1447 009d 2A       		.byte	0x2a
 1448 009e 3A000000 		.4byte	0x3a
 1449 00a2 04       		.uleb128 0x4
 1450 00a3 E6030000 		.4byte	.LASF14
 1451 00a7 03       		.byte	0x3
 1452 00a8 41       		.byte	0x41
 1453 00a9 5A000000 		.4byte	0x5a
 1454 00ad 04       		.uleb128 0x4
 1455 00ae 98040000 		.4byte	.LASF15
 1456 00b2 03       		.byte	0x3
 1457 00b3 42       		.byte	0x42
 1458 00b4 6C000000 		.4byte	0x6c
 1459 00b8 04       		.uleb128 0x4
 1460 00b9 18000000 		.4byte	.LASF16
 1461 00bd 03       		.byte	0x3
 1462 00be 4E       		.byte	0x4e
 1463 00bf 85000000 		.4byte	0x85
 1464 00c3 03       		.uleb128 0x3
 1465 00c4 01       		.byte	0x1
 1466 00c5 02       		.byte	0x2
 1467 00c6 E0030000 		.4byte	.LASF17
 1468 00ca 04       		.uleb128 0x4
 1469 00cb CD020000 		.4byte	.LASF18
 1470 00cf 04       		.byte	0x4
 1471 00d0 2C       		.byte	0x2c
 1472 00d1 97000000 		.4byte	0x97
 1473 00d5 04       		.uleb128 0x4
 1474 00d6 6F010000 		.4byte	.LASF19
 1475 00da 04       		.byte	0x4
 1476 00db 2D       		.byte	0x2d
 1477 00dc 97000000 		.4byte	0x97
 1478 00e0 04       		.uleb128 0x4
 1479 00e1 C9030000 		.4byte	.LASF20
 1480 00e5 04       		.byte	0x4
 1481 00e6 2E       		.byte	0x2e
 1482 00e7 97000000 		.4byte	0x97
 1483 00eb 04       		.uleb128 0x4
 1484 00ec 5C010000 		.4byte	.LASF21
 1485 00f0 04       		.byte	0x4
 1486 00f1 2F       		.byte	0x2f
 1487 00f2 97000000 		.4byte	0x97
 1488 00f6 04       		.uleb128 0x4
 1489 00f7 D8030000 		.4byte	.LASF22
 1490 00fb 04       		.byte	0x4
ARM GAS  /tmp/ccc7VhL9.s 			page 28


 1491 00fc 30       		.byte	0x30
 1492 00fd AD000000 		.4byte	0xad
 1493 0101 04       		.uleb128 0x4
 1494 0102 A7020000 		.4byte	.LASF23
 1495 0106 04       		.byte	0x4
 1496 0107 31       		.byte	0x31
 1497 0108 A2000000 		.4byte	0xa2
 1498 010c 04       		.uleb128 0x4
 1499 010d F5010000 		.4byte	.LASF24
 1500 0111 04       		.byte	0x4
 1501 0112 32       		.byte	0x32
 1502 0113 A2000000 		.4byte	0xa2
 1503 0117 04       		.uleb128 0x4
 1504 0118 E1020000 		.4byte	.LASF25
 1505 011c 04       		.byte	0x4
 1506 011d 33       		.byte	0x33
 1507 011e AD000000 		.4byte	0xad
 1508 0122 04       		.uleb128 0x4
 1509 0123 F9040000 		.4byte	.LASF26
 1510 0127 04       		.byte	0x4
 1511 0128 34       		.byte	0x34
 1512 0129 AD000000 		.4byte	0xad
 1513 012d 04       		.uleb128 0x4
 1514 012e C1040000 		.4byte	.LASF27
 1515 0132 04       		.byte	0x4
 1516 0133 35       		.byte	0x35
 1517 0134 AD000000 		.4byte	0xad
 1518 0138 04       		.uleb128 0x4
 1519 0139 78040000 		.4byte	.LASF28
 1520 013d 05       		.byte	0x5
 1521 013e 2A       		.byte	0x2a
 1522 013f 43010000 		.4byte	0x143
 1523 0143 05       		.uleb128 0x5
 1524 0144 78040000 		.4byte	.LASF28
 1525 0148 4C       		.byte	0x4c
 1526 0149 06       		.byte	0x6
 1527 014a 5E       		.byte	0x5e
 1528 014b 4C020000 		.4byte	0x24c
 1529 014f 06       		.uleb128 0x6
 1530 0150 69040000 		.4byte	.LASF29
 1531 0154 06       		.byte	0x6
 1532 0155 5F       		.byte	0x5f
 1533 0156 6D020000 		.4byte	0x26d
 1534 015a 00       		.byte	0
 1535 015b 06       		.uleb128 0x6
 1536 015c D1030000 		.4byte	.LASF30
 1537 0160 06       		.byte	0x6
 1538 0161 61       		.byte	0x61
 1539 0162 6D020000 		.4byte	0x26d
 1540 0166 04       		.byte	0x4
 1541 0167 06       		.uleb128 0x6
 1542 0168 17010000 		.4byte	.LASF31
 1543 016c 06       		.byte	0x6
 1544 016d 63       		.byte	0x63
 1545 016e F6000000 		.4byte	0xf6
 1546 0172 08       		.byte	0x8
 1547 0173 06       		.uleb128 0x6
ARM GAS  /tmp/ccc7VhL9.s 			page 29


 1548 0174 A0050000 		.4byte	.LASF32
 1549 0178 06       		.byte	0x6
 1550 0179 64       		.byte	0x64
 1551 017a 32030000 		.4byte	0x332
 1552 017e 0C       		.byte	0xc
 1553 017f 06       		.uleb128 0x6
 1554 0180 AF010000 		.4byte	.LASF33
 1555 0184 06       		.byte	0x6
 1556 0185 66       		.byte	0x66
 1557 0186 6D020000 		.4byte	0x26d
 1558 018a 10       		.byte	0x10
 1559 018b 06       		.uleb128 0x6
 1560 018c 26030000 		.4byte	.LASF34
 1561 0190 06       		.byte	0x6
 1562 0191 67       		.byte	0x67
 1563 0192 6D020000 		.4byte	0x26d
 1564 0196 14       		.byte	0x14
 1565 0197 06       		.uleb128 0x6
 1566 0198 53050000 		.4byte	.LASF35
 1567 019c 06       		.byte	0x6
 1568 019d 6E       		.byte	0x6e
 1569 019e C0040000 		.4byte	0x4c0
 1570 01a2 18       		.byte	0x18
 1571 01a3 06       		.uleb128 0x6
 1572 01a4 17020000 		.4byte	.LASF36
 1573 01a8 06       		.byte	0x6
 1574 01a9 74       		.byte	0x74
 1575 01aa D2040000 		.4byte	0x4d2
 1576 01ae 1C       		.byte	0x1c
 1577 01af 06       		.uleb128 0x6
 1578 01b0 32040000 		.4byte	.LASF37
 1579 01b4 06       		.byte	0x6
 1580 01b5 79       		.byte	0x79
 1581 01b6 D5000000 		.4byte	0xd5
 1582 01ba 20       		.byte	0x20
 1583 01bb 06       		.uleb128 0x6
 1584 01bc 70040000 		.4byte	.LASF38
 1585 01c0 06       		.byte	0x6
 1586 01c1 7D       		.byte	0x7d
 1587 01c2 CA000000 		.4byte	0xca
 1588 01c6 21       		.byte	0x21
 1589 01c7 06       		.uleb128 0x6
 1590 01c8 05050000 		.4byte	.LASF39
 1591 01cc 06       		.byte	0x6
 1592 01cd 82       		.byte	0x82
 1593 01ce E0000000 		.4byte	0xe0
 1594 01d2 22       		.byte	0x22
 1595 01d3 06       		.uleb128 0x6
 1596 01d4 3A040000 		.4byte	.LASF40
 1597 01d8 06       		.byte	0x6
 1598 01d9 88       		.byte	0x88
 1599 01da EB000000 		.4byte	0xeb
 1600 01de 23       		.byte	0x23
 1601 01df 06       		.uleb128 0x6
 1602 01e0 E0040000 		.4byte	.LASF41
 1603 01e4 06       		.byte	0x6
 1604 01e5 8F       		.byte	0x8f
ARM GAS  /tmp/ccc7VhL9.s 			page 30


 1605 01e6 5A030000 		.4byte	0x35a
 1606 01ea 24       		.byte	0x24
 1607 01eb 07       		.uleb128 0x7
 1608 01ec 705F7500 		.ascii	"p_u\000"
 1609 01f0 06       		.byte	0x6
 1610 01f1 B4       		.byte	0xb4
 1611 01f2 8B040000 		.4byte	0x48b
 1612 01f6 28       		.byte	0x28
 1613 01f7 06       		.uleb128 0x6
 1614 01f8 A6050000 		.4byte	.LASF42
 1615 01fc 06       		.byte	0x6
 1616 01fd B9       		.byte	0xb9
 1617 01fe 93020000 		.4byte	0x293
 1618 0202 2C       		.byte	0x2c
 1619 0203 06       		.uleb128 0x6
 1620 0204 EE040000 		.4byte	.LASF43
 1621 0208 06       		.byte	0x6
 1622 0209 BF       		.byte	0xbf
 1623 020a 73020000 		.4byte	0x273
 1624 020e 30       		.byte	0x30
 1625 020f 06       		.uleb128 0x6
 1626 0210 00000000 		.4byte	.LASF44
 1627 0214 06       		.byte	0x6
 1628 0215 C3       		.byte	0xc3
 1629 0216 01010000 		.4byte	0x101
 1630 021a 38       		.byte	0x38
 1631 021b 06       		.uleb128 0x6
 1632 021c 8D040000 		.4byte	.LASF45
 1633 0220 06       		.byte	0x6
 1634 0221 C9       		.byte	0xc9
 1635 0222 17010000 		.4byte	0x117
 1636 0226 3C       		.byte	0x3c
 1637 0227 06       		.uleb128 0x6
 1638 0228 1E040000 		.4byte	.LASF46
 1639 022c 06       		.byte	0x6
 1640 022d D0       		.byte	0xd0
 1641 022e D8040000 		.4byte	0x4d8
 1642 0232 40       		.byte	0x40
 1643 0233 06       		.uleb128 0x6
 1644 0234 CB040000 		.4byte	.LASF47
 1645 0238 06       		.byte	0x6
 1646 0239 D4       		.byte	0xd4
 1647 023a F6000000 		.4byte	0xf6
 1648 023e 44       		.byte	0x44
 1649 023f 06       		.uleb128 0x6
 1650 0240 4C010000 		.4byte	.LASF48
 1651 0244 06       		.byte	0x6
 1652 0245 DA       		.byte	0xda
 1653 0246 A9020000 		.4byte	0x2a9
 1654 024a 48       		.byte	0x48
 1655 024b 00       		.byte	0
 1656 024c 08       		.uleb128 0x8
 1657 024d 08       		.byte	0x8
 1658 024e 05       		.byte	0x5
 1659 024f 61       		.byte	0x61
 1660 0250 6D020000 		.4byte	0x26d
 1661 0254 06       		.uleb128 0x6
ARM GAS  /tmp/ccc7VhL9.s 			page 31


 1662 0255 69040000 		.4byte	.LASF29
 1663 0259 05       		.byte	0x5
 1664 025a 62       		.byte	0x62
 1665 025b 6D020000 		.4byte	0x26d
 1666 025f 00       		.byte	0
 1667 0260 06       		.uleb128 0x6
 1668 0261 D1030000 		.4byte	.LASF30
 1669 0265 05       		.byte	0x5
 1670 0266 64       		.byte	0x64
 1671 0267 6D020000 		.4byte	0x26d
 1672 026b 04       		.byte	0x4
 1673 026c 00       		.byte	0
 1674 026d 09       		.uleb128 0x9
 1675 026e 04       		.byte	0x4
 1676 026f 38010000 		.4byte	0x138
 1677 0273 04       		.uleb128 0x4
 1678 0274 34030000 		.4byte	.LASF49
 1679 0278 05       		.byte	0x5
 1680 0279 66       		.byte	0x66
 1681 027a 4C020000 		.4byte	0x24c
 1682 027e 08       		.uleb128 0x8
 1683 027f 04       		.byte	0x4
 1684 0280 05       		.byte	0x5
 1685 0281 6B       		.byte	0x6b
 1686 0282 93020000 		.4byte	0x293
 1687 0286 06       		.uleb128 0x6
 1688 0287 69040000 		.4byte	.LASF29
 1689 028b 05       		.byte	0x5
 1690 028c 6D       		.byte	0x6d
 1691 028d 6D020000 		.4byte	0x26d
 1692 0291 00       		.byte	0
 1693 0292 00       		.byte	0
 1694 0293 04       		.uleb128 0x4
 1695 0294 D5020000 		.4byte	.LASF50
 1696 0298 05       		.byte	0x5
 1697 0299 70       		.byte	0x70
 1698 029a 7E020000 		.4byte	0x27e
 1699 029e 04       		.uleb128 0x4
 1700 029f D8010000 		.4byte	.LASF51
 1701 02a3 07       		.byte	0x7
 1702 02a4 E5       		.byte	0xe5
 1703 02a5 A9020000 		.4byte	0x2a9
 1704 02a9 0A       		.uleb128 0xa
 1705 02aa 04       		.byte	0x4
 1706 02ab 04       		.uleb128 0x4
 1707 02ac F3020000 		.4byte	.LASF52
 1708 02b0 07       		.byte	0x7
 1709 02b1 EB       		.byte	0xeb
 1710 02b2 B8000000 		.4byte	0xb8
 1711 02b6 0B       		.uleb128 0xb
 1712 02b7 E7040000 		.4byte	.LASF53
 1713 02bb 24       		.byte	0x24
 1714 02bc 07       		.byte	0x7
 1715 02bd 0C01     		.2byte	0x10c
 1716 02bf 32030000 		.4byte	0x332
 1717 02c3 0C       		.uleb128 0xc
 1718 02c4 723400   		.ascii	"r4\000"
ARM GAS  /tmp/ccc7VhL9.s 			page 32


 1719 02c7 07       		.byte	0x7
 1720 02c8 1F01     		.2byte	0x11f
 1721 02ca 9E020000 		.4byte	0x29e
 1722 02ce 00       		.byte	0
 1723 02cf 0C       		.uleb128 0xc
 1724 02d0 723500   		.ascii	"r5\000"
 1725 02d3 07       		.byte	0x7
 1726 02d4 2001     		.2byte	0x120
 1727 02d6 9E020000 		.4byte	0x29e
 1728 02da 04       		.byte	0x4
 1729 02db 0C       		.uleb128 0xc
 1730 02dc 723600   		.ascii	"r6\000"
 1731 02df 07       		.byte	0x7
 1732 02e0 2101     		.2byte	0x121
 1733 02e2 9E020000 		.4byte	0x29e
 1734 02e6 08       		.byte	0x8
 1735 02e7 0C       		.uleb128 0xc
 1736 02e8 723700   		.ascii	"r7\000"
 1737 02eb 07       		.byte	0x7
 1738 02ec 2201     		.2byte	0x122
 1739 02ee 9E020000 		.4byte	0x29e
 1740 02f2 0C       		.byte	0xc
 1741 02f3 0C       		.uleb128 0xc
 1742 02f4 723800   		.ascii	"r8\000"
 1743 02f7 07       		.byte	0x7
 1744 02f8 2301     		.2byte	0x123
 1745 02fa 9E020000 		.4byte	0x29e
 1746 02fe 10       		.byte	0x10
 1747 02ff 0C       		.uleb128 0xc
 1748 0300 723900   		.ascii	"r9\000"
 1749 0303 07       		.byte	0x7
 1750 0304 2401     		.2byte	0x124
 1751 0306 9E020000 		.4byte	0x29e
 1752 030a 14       		.byte	0x14
 1753 030b 0C       		.uleb128 0xc
 1754 030c 72313000 		.ascii	"r10\000"
 1755 0310 07       		.byte	0x7
 1756 0311 2501     		.2byte	0x125
 1757 0313 9E020000 		.4byte	0x29e
 1758 0317 18       		.byte	0x18
 1759 0318 0C       		.uleb128 0xc
 1760 0319 72313100 		.ascii	"r11\000"
 1761 031d 07       		.byte	0x7
 1762 031e 2601     		.2byte	0x126
 1763 0320 9E020000 		.4byte	0x29e
 1764 0324 1C       		.byte	0x1c
 1765 0325 0C       		.uleb128 0xc
 1766 0326 6C7200   		.ascii	"lr\000"
 1767 0329 07       		.byte	0x7
 1768 032a 2701     		.2byte	0x127
 1769 032c 9E020000 		.4byte	0x29e
 1770 0330 20       		.byte	0x20
 1771 0331 00       		.byte	0
 1772 0332 0B       		.uleb128 0xb
 1773 0333 7A020000 		.4byte	.LASF54
 1774 0337 04       		.byte	0x4
 1775 0338 07       		.byte	0x7
ARM GAS  /tmp/ccc7VhL9.s 			page 33


 1776 0339 3101     		.2byte	0x131
 1777 033b 4D030000 		.4byte	0x34d
 1778 033f 0C       		.uleb128 0xc
 1779 0340 72313300 		.ascii	"r13\000"
 1780 0344 07       		.byte	0x7
 1781 0345 3201     		.2byte	0x132
 1782 0347 4D030000 		.4byte	0x34d
 1783 034b 00       		.byte	0
 1784 034c 00       		.byte	0
 1785 034d 09       		.uleb128 0x9
 1786 034e 04       		.byte	0x4
 1787 034f B6020000 		.4byte	0x2b6
 1788 0353 03       		.uleb128 0x3
 1789 0354 04       		.byte	0x4
 1790 0355 07       		.byte	0x7
 1791 0356 0F030000 		.4byte	.LASF55
 1792 035a 0D       		.uleb128 0xd
 1793 035b 2D010000 		.4byte	0x12d
 1794 035f 08       		.uleb128 0x8
 1795 0360 1C       		.byte	0x1c
 1796 0361 08       		.byte	0x8
 1797 0362 5E       		.byte	0x5e
 1798 0363 B0030000 		.4byte	0x3b0
 1799 0367 06       		.uleb128 0x6
 1800 0368 A1040000 		.4byte	.LASF56
 1801 036c 08       		.byte	0x8
 1802 036d 5F       		.byte	0x5f
 1803 036e 73020000 		.4byte	0x273
 1804 0372 00       		.byte	0
 1805 0373 06       		.uleb128 0x6
 1806 0374 44040000 		.4byte	.LASF57
 1807 0378 08       		.byte	0x8
 1808 0379 60       		.byte	0x60
 1809 037a F6000000 		.4byte	0xf6
 1810 037e 08       		.byte	0x8
 1811 037f 06       		.uleb128 0x6
 1812 0380 2E030000 		.4byte	.LASF58
 1813 0384 08       		.byte	0x8
 1814 0385 62       		.byte	0x62
 1815 0386 32030000 		.4byte	0x332
 1816 038a 0C       		.byte	0xc
 1817 038b 06       		.uleb128 0x6
 1818 038c AD020000 		.4byte	.LASF59
 1819 0390 08       		.byte	0x8
 1820 0391 65       		.byte	0x65
 1821 0392 6D020000 		.4byte	0x26d
 1822 0396 10       		.byte	0x10
 1823 0397 06       		.uleb128 0x6
 1824 0398 A5030000 		.4byte	.LASF60
 1825 039c 08       		.byte	0x8
 1826 039d 66       		.byte	0x66
 1827 039e 6D020000 		.4byte	0x26d
 1828 03a2 14       		.byte	0x14
 1829 03a3 06       		.uleb128 0x6
 1830 03a4 9B030000 		.4byte	.LASF61
 1831 03a8 08       		.byte	0x8
 1832 03a9 69       		.byte	0x69
ARM GAS  /tmp/ccc7VhL9.s 			page 34


 1833 03aa 6D020000 		.4byte	0x26d
 1834 03ae 18       		.byte	0x18
 1835 03af 00       		.byte	0
 1836 03b0 04       		.uleb128 0x4
 1837 03b1 0C050000 		.4byte	.LASF62
 1838 03b5 08       		.byte	0x8
 1839 03b6 6B       		.byte	0x6b
 1840 03b7 5F030000 		.4byte	0x35f
 1841 03bb 05       		.uleb128 0x5
 1842 03bc ED020000 		.4byte	.LASF63
 1843 03c0 10       		.byte	0x10
 1844 03c1 09       		.byte	0x9
 1845 03c2 2C       		.byte	0x2c
 1846 03c3 EC030000 		.4byte	0x3ec
 1847 03c7 06       		.uleb128 0x6
 1848 03c8 54010000 		.4byte	.LASF64
 1849 03cc 09       		.byte	0x9
 1850 03cd 2D       		.byte	0x2d
 1851 03ce 73020000 		.4byte	0x273
 1852 03d2 00       		.byte	0
 1853 03d3 06       		.uleb128 0x6
 1854 03d4 89050000 		.4byte	.LASF65
 1855 03d8 09       		.byte	0x9
 1856 03d9 2F       		.byte	0x2f
 1857 03da 6D020000 		.4byte	0x26d
 1858 03de 08       		.byte	0x8
 1859 03df 06       		.uleb128 0x6
 1860 03e0 BA040000 		.4byte	.LASF66
 1861 03e4 09       		.byte	0x9
 1862 03e5 31       		.byte	0x31
 1863 03e6 EC030000 		.4byte	0x3ec
 1864 03ea 0C       		.byte	0xc
 1865 03eb 00       		.byte	0
 1866 03ec 09       		.uleb128 0x9
 1867 03ed 04       		.byte	0x4
 1868 03ee BB030000 		.4byte	0x3bb
 1869 03f2 04       		.uleb128 0x4
 1870 03f3 ED020000 		.4byte	.LASF63
 1871 03f7 09       		.byte	0x9
 1872 03f8 33       		.byte	0x33
 1873 03f9 BB030000 		.4byte	0x3bb
 1874 03fd 04       		.uleb128 0x4
 1875 03fe 2A050000 		.4byte	.LASF67
 1876 0402 0A       		.byte	0xa
 1877 0403 2C       		.byte	0x2c
 1878 0404 08040000 		.4byte	0x408
 1879 0408 05       		.uleb128 0x5
 1880 0409 2A050000 		.4byte	.LASF67
 1881 040d 10       		.byte	0x10
 1882 040e 0A       		.byte	0xa
 1883 040f 31       		.byte	0x31
 1884 0410 45040000 		.4byte	0x445
 1885 0414 06       		.uleb128 0x6
 1886 0415 B5020000 		.4byte	.LASF68
 1887 0419 0A       		.byte	0xa
 1888 041a 32       		.byte	0x32
 1889 041b 45040000 		.4byte	0x445
ARM GAS  /tmp/ccc7VhL9.s 			page 35


 1890 041f 00       		.byte	0
 1891 0420 06       		.uleb128 0x6
 1892 0421 09040000 		.4byte	.LASF69
 1893 0425 0A       		.byte	0xa
 1894 0426 35       		.byte	0x35
 1895 0427 6D020000 		.4byte	0x26d
 1896 042b 04       		.byte	0x4
 1897 042c 06       		.uleb128 0x6
 1898 042d AD030000 		.4byte	.LASF70
 1899 0431 0A       		.byte	0xa
 1900 0432 37       		.byte	0x37
 1901 0433 17010000 		.4byte	0x117
 1902 0437 08       		.byte	0x8
 1903 0438 06       		.uleb128 0x6
 1904 0439 15040000 		.4byte	.LASF71
 1905 043d 0A       		.byte	0xa
 1906 043e 3A       		.byte	0x3a
 1907 043f 22010000 		.4byte	0x122
 1908 0443 0C       		.byte	0xc
 1909 0444 00       		.byte	0
 1910 0445 09       		.uleb128 0x9
 1911 0446 04       		.byte	0x4
 1912 0447 FD030000 		.4byte	0x3fd
 1913 044b 05       		.uleb128 0x5
 1914 044c FF010000 		.4byte	.LASF72
 1915 0450 04       		.byte	0x4
 1916 0451 0A       		.byte	0xa
 1917 0452 41       		.byte	0x41
 1918 0453 64040000 		.4byte	0x464
 1919 0457 06       		.uleb128 0x6
 1920 0458 5A050000 		.4byte	.LASF73
 1921 045c 0A       		.byte	0xa
 1922 045d 42       		.byte	0x42
 1923 045e 45040000 		.4byte	0x445
 1924 0462 00       		.byte	0
 1925 0463 00       		.byte	0
 1926 0464 04       		.uleb128 0x4
 1927 0465 FF010000 		.4byte	.LASF72
 1928 0469 0A       		.byte	0xa
 1929 046a 45       		.byte	0x45
 1930 046b 4B040000 		.4byte	0x44b
 1931 046f 04       		.uleb128 0x4
 1932 0470 0B020000 		.4byte	.LASF74
 1933 0474 0A       		.byte	0xa
 1934 0475 4A       		.byte	0x4a
 1935 0476 7A040000 		.4byte	0x47a
 1936 047a 09       		.uleb128 0x9
 1937 047b 04       		.byte	0x4
 1938 047c 80040000 		.4byte	0x480
 1939 0480 0E       		.uleb128 0xe
 1940 0481 8B040000 		.4byte	0x48b
 1941 0485 0F       		.uleb128 0xf
 1942 0486 0C010000 		.4byte	0x10c
 1943 048a 00       		.byte	0
 1944 048b 10       		.uleb128 0x10
 1945 048c 04       		.byte	0x4
 1946 048d 06       		.byte	0x6
ARM GAS  /tmp/ccc7VhL9.s 			page 36


 1947 048e 96       		.byte	0x96
 1948 048f C0040000 		.4byte	0x4c0
 1949 0493 11       		.uleb128 0x11
 1950 0494 11000000 		.4byte	.LASF75
 1951 0498 06       		.byte	0x6
 1952 0499 9D       		.byte	0x9d
 1953 049a 01010000 		.4byte	0x101
 1954 049e 11       		.uleb128 0x11
 1955 049f FA000000 		.4byte	.LASF76
 1956 04a3 06       		.byte	0x6
 1957 04a4 A4       		.byte	0xa4
 1958 04a5 01010000 		.4byte	0x101
 1959 04a9 11       		.uleb128 0x11
 1960 04aa 4C050000 		.4byte	.LASF77
 1961 04ae 06       		.byte	0x6
 1962 04af AB       		.byte	0xab
 1963 04b0 A9020000 		.4byte	0x2a9
 1964 04b4 11       		.uleb128 0x11
 1965 04b5 62040000 		.4byte	.LASF78
 1966 04b9 06       		.byte	0x6
 1967 04ba B2       		.byte	0xb2
 1968 04bb 17010000 		.4byte	0x117
 1969 04bf 00       		.byte	0
 1970 04c0 09       		.uleb128 0x9
 1971 04c1 04       		.byte	0x4
 1972 04c2 C6040000 		.4byte	0x4c6
 1973 04c6 12       		.uleb128 0x12
 1974 04c7 CB040000 		.4byte	0x4cb
 1975 04cb 03       		.uleb128 0x3
 1976 04cc 01       		.byte	0x1
 1977 04cd 08       		.byte	0x8
 1978 04ce B5040000 		.4byte	.LASF79
 1979 04d2 09       		.uleb128 0x9
 1980 04d3 04       		.byte	0x4
 1981 04d4 AB020000 		.4byte	0x2ab
 1982 04d8 09       		.uleb128 0x9
 1983 04d9 04       		.byte	0x4
 1984 04da F2030000 		.4byte	0x3f2
 1985 04de 13       		.uleb128 0x13
 1986 04df B0050000 		.4byte	.LASF100
 1987 04e3 01       		.byte	0x1
 1988 04e4 FB       		.byte	0xfb
 1989 04e5 01       		.byte	0x1
 1990 04e6 00050000 		.4byte	0x500
 1991 04ea 14       		.uleb128 0x14
 1992 04eb 747000   		.ascii	"tp\000"
 1993 04ee 01       		.byte	0x1
 1994 04ef FB       		.byte	0xfb
 1995 04f0 6D020000 		.4byte	0x26d
 1996 04f4 15       		.uleb128 0x15
 1997 04f5 D3010000 		.4byte	.LASF80
 1998 04f9 01       		.byte	0x1
 1999 04fa FB       		.byte	0xfb
 2000 04fb 17010000 		.4byte	0x117
 2001 04ff 00       		.byte	0
 2002 0500 16       		.uleb128 0x16
 2003 0501 95020000 		.4byte	.LASF81
ARM GAS  /tmp/ccc7VhL9.s 			page 37


 2004 0505 01       		.byte	0x1
 2005 0506 55       		.byte	0x55
 2006 0507 00000000 		.4byte	.LFB7
 2007 050b 4A000000 		.4byte	.LFE7-.LFB7
 2008 050f 01       		.uleb128 0x1
 2009 0510 9C       		.byte	0x9c
 2010 0511 A2050000 		.4byte	0x5a2
 2011 0515 17       		.uleb128 0x17
 2012 0516 65737000 		.ascii	"esp\000"
 2013 051a 01       		.byte	0x1
 2014 051b 55       		.byte	0x55
 2015 051c A2050000 		.4byte	0x5a2
 2016 0520 00000000 		.4byte	.LLST0
 2017 0524 17       		.uleb128 0x17
 2018 0525 656C7000 		.ascii	"elp\000"
 2019 0529 01       		.byte	0x1
 2020 052a 55       		.byte	0x55
 2021 052b 45040000 		.4byte	0x445
 2022 052f 1E000000 		.4byte	.LLST1
 2023 0533 18       		.uleb128 0x18
 2024 0534 D3010000 		.4byte	.LASF80
 2025 0538 01       		.byte	0x1
 2026 0539 55       		.byte	0x55
 2027 053a 17010000 		.4byte	0x117
 2028 053e 3C000000 		.4byte	.LLST2
 2029 0542 19       		.uleb128 0x19
 2030 0543 1C000000 		.4byte	.LBB2
 2031 0547 06000000 		.4byte	.LBE2-.LBB2
 2032 054b 5D050000 		.4byte	0x55d
 2033 054f 1A       		.uleb128 0x1a
 2034 0550 746D7000 		.ascii	"tmp\000"
 2035 0554 01       		.byte	0x1
 2036 0555 59       		.byte	0x59
 2037 0556 AD000000 		.4byte	0xad
 2038 055a 01       		.uleb128 0x1
 2039 055b 53       		.byte	0x53
 2040 055c 00       		.byte	0
 2041 055d 19       		.uleb128 0x19
 2042 055e 42000000 		.4byte	.LBB3
 2043 0562 08000000 		.4byte	.LBE3-.LBB3
 2044 0566 78050000 		.4byte	0x578
 2045 056a 1A       		.uleb128 0x1a
 2046 056b 746D7000 		.ascii	"tmp\000"
 2047 056f 01       		.byte	0x1
 2048 0570 5F       		.byte	0x5f
 2049 0571 AD000000 		.4byte	0xad
 2050 0575 01       		.uleb128 0x1
 2051 0576 53       		.byte	0x53
 2052 0577 00       		.byte	0
 2053 0578 1B       		.uleb128 0x1b
 2054 0579 1C000000 		.4byte	.LVL2
 2055 057d 7F0F0000 		.4byte	0xf7f
 2056 0581 8F050000 		.4byte	0x58f
 2057 0585 1C       		.uleb128 0x1c
 2058 0586 01       		.uleb128 0x1
 2059 0587 50       		.byte	0x50
 2060 0588 05       		.uleb128 0x5
ARM GAS  /tmp/ccc7VhL9.s 			page 38


 2061 0589 03       		.byte	0x3
 2062 058a 00000000 		.4byte	.LC0
 2063 058e 00       		.byte	0
 2064 058f 1D       		.uleb128 0x1d
 2065 0590 26000000 		.4byte	.LVL3
 2066 0594 900F0000 		.4byte	0xf90
 2067 0598 1D       		.uleb128 0x1d
 2068 0599 42000000 		.4byte	.LVL4
 2069 059d 970F0000 		.4byte	0xf97
 2070 05a1 00       		.byte	0
 2071 05a2 09       		.uleb128 0x9
 2072 05a3 04       		.byte	0x4
 2073 05a4 64040000 		.4byte	0x464
 2074 05a8 16       		.uleb128 0x16
 2075 05a9 BD020000 		.4byte	.LASF82
 2076 05ad 01       		.byte	0x1
 2077 05ae 6F       		.byte	0x6f
 2078 05af 00000000 		.4byte	.LFB8
 2079 05b3 52000000 		.4byte	.LFE8-.LFB8
 2080 05b7 01       		.uleb128 0x1
 2081 05b8 9C       		.byte	0x9c
 2082 05b9 49060000 		.4byte	0x649
 2083 05bd 17       		.uleb128 0x17
 2084 05be 65737000 		.ascii	"esp\000"
 2085 05c2 01       		.byte	0x1
 2086 05c3 6F       		.byte	0x6f
 2087 05c4 A2050000 		.4byte	0x5a2
 2088 05c8 5A000000 		.4byte	.LLST3
 2089 05cc 17       		.uleb128 0x17
 2090 05cd 656C7000 		.ascii	"elp\000"
 2091 05d1 01       		.byte	0x1
 2092 05d2 6F       		.byte	0x6f
 2093 05d3 45040000 		.4byte	0x445
 2094 05d7 8E000000 		.4byte	.LLST4
 2095 05db 1E       		.uleb128 0x1e
 2096 05dc 7000     		.ascii	"p\000"
 2097 05de 01       		.byte	0x1
 2098 05df 70       		.byte	0x70
 2099 05e0 45040000 		.4byte	0x445
 2100 05e4 C2000000 		.4byte	.LLST5
 2101 05e8 19       		.uleb128 0x19
 2102 05e9 0E000000 		.4byte	.LBB4
 2103 05ed 06000000 		.4byte	.LBE4-.LBB4
 2104 05f1 03060000 		.4byte	0x603
 2105 05f5 1A       		.uleb128 0x1a
 2106 05f6 746D7000 		.ascii	"tmp\000"
 2107 05fa 01       		.byte	0x1
 2108 05fb 75       		.byte	0x75
 2109 05fc AD000000 		.4byte	0xad
 2110 0600 01       		.uleb128 0x1
 2111 0601 53       		.byte	0x53
 2112 0602 00       		.byte	0
 2113 0603 1F       		.uleb128 0x1f
 2114 0604 00000000 		.4byte	.Ldebug_ranges0+0
 2115 0608 1A060000 		.4byte	0x61a
 2116 060c 1A       		.uleb128 0x1a
 2117 060d 746D7000 		.ascii	"tmp\000"
ARM GAS  /tmp/ccc7VhL9.s 			page 39


 2118 0611 01       		.byte	0x1
 2119 0612 7D       		.byte	0x7d
 2120 0613 AD000000 		.4byte	0xad
 2121 0617 01       		.uleb128 0x1
 2122 0618 53       		.byte	0x53
 2123 0619 00       		.byte	0
 2124 061a 1D       		.uleb128 0x1d
 2125 061b 18000000 		.4byte	.LVL7
 2126 061f 900F0000 		.4byte	0xf90
 2127 0623 1D       		.uleb128 0x1d
 2128 0624 2C000000 		.4byte	.LVL10
 2129 0628 970F0000 		.4byte	0xf97
 2130 062c 1D       		.uleb128 0x1d
 2131 062d 3C000000 		.4byte	.LVL12
 2132 0631 970F0000 		.4byte	0xf97
 2133 0635 20       		.uleb128 0x20
 2134 0636 50000000 		.4byte	.LVL15
 2135 063a 7F0F0000 		.4byte	0xf7f
 2136 063e 1C       		.uleb128 0x1c
 2137 063f 01       		.uleb128 0x1
 2138 0640 50       		.byte	0x50
 2139 0641 05       		.uleb128 0x5
 2140 0642 03       		.byte	0x3
 2141 0643 18000000 		.4byte	.LC1
 2142 0647 00       		.byte	0
 2143 0648 00       		.byte	0
 2144 0649 21       		.uleb128 0x21
 2145 064a 41020000 		.4byte	.LASF83
 2146 064e 01       		.byte	0x1
 2147 064f 88       		.byte	0x88
 2148 0650 17010000 		.4byte	0x117
 2149 0654 00000000 		.4byte	.LFB9
 2150 0658 30000000 		.4byte	.LFE9-.LFB9
 2151 065c 01       		.uleb128 0x1
 2152 065d 9C       		.byte	0x9c
 2153 065e C1060000 		.4byte	0x6c1
 2154 0662 18       		.uleb128 0x18
 2155 0663 D3010000 		.4byte	.LASF80
 2156 0667 01       		.byte	0x1
 2157 0668 88       		.byte	0x88
 2158 0669 17010000 		.4byte	0x117
 2159 066d EB000000 		.4byte	.LLST6
 2160 0671 1A       		.uleb128 0x1a
 2161 0672 6D00     		.ascii	"m\000"
 2162 0674 01       		.byte	0x1
 2163 0675 89       		.byte	0x89
 2164 0676 17010000 		.4byte	0x117
 2165 067a 01       		.uleb128 0x1
 2166 067b 54       		.byte	0x54
 2167 067c 1F       		.uleb128 0x1f
 2168 067d 18000000 		.4byte	.Ldebug_ranges0+0x18
 2169 0681 93060000 		.4byte	0x693
 2170 0685 1A       		.uleb128 0x1a
 2171 0686 746D7000 		.ascii	"tmp\000"
 2172 068a 01       		.byte	0x1
 2173 068b 8B       		.byte	0x8b
 2174 068c AD000000 		.4byte	0xad
ARM GAS  /tmp/ccc7VhL9.s 			page 40


 2175 0690 01       		.uleb128 0x1
 2176 0691 53       		.byte	0x53
 2177 0692 00       		.byte	0
 2178 0693 19       		.uleb128 0x19
 2179 0694 26000000 		.4byte	.LBB9
 2180 0698 06000000 		.4byte	.LBE9-.LBB9
 2181 069c AE060000 		.4byte	0x6ae
 2182 06a0 1A       		.uleb128 0x1a
 2183 06a1 746D7000 		.ascii	"tmp\000"
 2184 06a5 01       		.byte	0x1
 2185 06a6 90       		.byte	0x90
 2186 06a7 AD000000 		.4byte	0xad
 2187 06ab 01       		.uleb128 0x1
 2188 06ac 53       		.byte	0x53
 2189 06ad 00       		.byte	0
 2190 06ae 1D       		.uleb128 0x1d
 2191 06af 0E000000 		.4byte	.LVL17
 2192 06b3 900F0000 		.4byte	0xf90
 2193 06b7 1D       		.uleb128 0x1d
 2194 06b8 26000000 		.4byte	.LVL19
 2195 06bc 970F0000 		.4byte	0xf97
 2196 06c0 00       		.byte	0
 2197 06c1 21       		.uleb128 0x21
 2198 06c2 EB000000 		.4byte	.LASF84
 2199 06c6 01       		.byte	0x1
 2200 06c7 9D       		.byte	0x9d
 2201 06c8 17010000 		.4byte	0x117
 2202 06cc 00000000 		.4byte	.LFB10
 2203 06d0 2C000000 		.4byte	.LFE10-.LFB10
 2204 06d4 01       		.uleb128 0x1
 2205 06d5 9C       		.byte	0x9c
 2206 06d6 2E070000 		.4byte	0x72e
 2207 06da 18       		.uleb128 0x18
 2208 06db D3010000 		.4byte	.LASF80
 2209 06df 01       		.byte	0x1
 2210 06e0 9D       		.byte	0x9d
 2211 06e1 17010000 		.4byte	0x117
 2212 06e5 17010000 		.4byte	.LLST7
 2213 06e9 1F       		.uleb128 0x1f
 2214 06ea 30000000 		.4byte	.Ldebug_ranges0+0x30
 2215 06ee 00070000 		.4byte	0x700
 2216 06f2 1A       		.uleb128 0x1a
 2217 06f3 746D7000 		.ascii	"tmp\000"
 2218 06f7 01       		.byte	0x1
 2219 06f8 9F       		.byte	0x9f
 2220 06f9 AD000000 		.4byte	0xad
 2221 06fd 01       		.uleb128 0x1
 2222 06fe 53       		.byte	0x53
 2223 06ff 00       		.byte	0
 2224 0700 19       		.uleb128 0x19
 2225 0701 22000000 		.4byte	.LBB12
 2226 0705 06000000 		.4byte	.LBE12-.LBB12
 2227 0709 1B070000 		.4byte	0x71b
 2228 070d 1A       		.uleb128 0x1a
 2229 070e 746D7000 		.ascii	"tmp\000"
 2230 0712 01       		.byte	0x1
 2231 0713 A3       		.byte	0xa3
ARM GAS  /tmp/ccc7VhL9.s 			page 41


 2232 0714 AD000000 		.4byte	0xad
 2233 0718 01       		.uleb128 0x1
 2234 0719 53       		.byte	0x53
 2235 071a 00       		.byte	0
 2236 071b 1D       		.uleb128 0x1d
 2237 071c 0E000000 		.4byte	.LVL21
 2238 0720 900F0000 		.4byte	0xf90
 2239 0724 1D       		.uleb128 0x1d
 2240 0725 22000000 		.4byte	.LVL24
 2241 0729 970F0000 		.4byte	0xf97
 2242 072d 00       		.byte	0
 2243 072e 21       		.uleb128 0x21
 2244 072f 62050000 		.4byte	.LASF85
 2245 0733 01       		.byte	0x1
 2246 0734 D1       		.byte	0xd1
 2247 0735 22010000 		.4byte	0x122
 2248 0739 00000000 		.4byte	.LFB12
 2249 073d 22000000 		.4byte	.LFE12-.LFB12
 2250 0741 01       		.uleb128 0x1
 2251 0742 9C       		.byte	0x9c
 2252 0743 A8070000 		.4byte	0x7a8
 2253 0747 17       		.uleb128 0x17
 2254 0748 656C7000 		.ascii	"elp\000"
 2255 074c 01       		.byte	0x1
 2256 074d D1       		.byte	0xd1
 2257 074e 45040000 		.4byte	0x445
 2258 0752 4E010000 		.4byte	.LLST8
 2259 0756 22       		.uleb128 0x22
 2260 0757 24050000 		.4byte	.LASF86
 2261 075b 01       		.byte	0x1
 2262 075c D2       		.byte	0xd2
 2263 075d 22010000 		.4byte	0x122
 2264 0761 01       		.uleb128 0x1
 2265 0762 56       		.byte	0x56
 2266 0763 1F       		.uleb128 0x1f
 2267 0764 48000000 		.4byte	.Ldebug_ranges0+0x48
 2268 0768 7A070000 		.4byte	0x77a
 2269 076c 1A       		.uleb128 0x1a
 2270 076d 746D7000 		.ascii	"tmp\000"
 2271 0771 01       		.byte	0x1
 2272 0772 D4       		.byte	0xd4
 2273 0773 AD000000 		.4byte	0xad
 2274 0777 01       		.uleb128 0x1
 2275 0778 53       		.byte	0x53
 2276 0779 00       		.byte	0
 2277 077a 19       		.uleb128 0x19
 2278 077b 18000000 		.4byte	.LBB15
 2279 077f 06000000 		.4byte	.LBE15-.LBB15
 2280 0783 95070000 		.4byte	0x795
 2281 0787 1A       		.uleb128 0x1a
 2282 0788 746D7000 		.ascii	"tmp\000"
 2283 078c 01       		.byte	0x1
 2284 078d D9       		.byte	0xd9
 2285 078e AD000000 		.4byte	0xad
 2286 0792 01       		.uleb128 0x1
 2287 0793 53       		.byte	0x53
 2288 0794 00       		.byte	0
ARM GAS  /tmp/ccc7VhL9.s 			page 42


 2289 0795 1D       		.uleb128 0x1d
 2290 0796 10000000 		.4byte	.LVL26
 2291 079a 900F0000 		.4byte	0xf90
 2292 079e 1D       		.uleb128 0x1d
 2293 079f 18000000 		.4byte	.LVL28
 2294 07a3 970F0000 		.4byte	0xf97
 2295 07a7 00       		.byte	0
 2296 07a8 23       		.uleb128 0x23
 2297 07a9 DE040000 		.4byte	0x4de
 2298 07ad 00000000 		.4byte	.LFB14
 2299 07b1 4C000000 		.4byte	.LFE14-.LFB14
 2300 07b5 01       		.uleb128 0x1
 2301 07b6 9C       		.byte	0x9c
 2302 07b7 1A080000 		.4byte	0x81a
 2303 07bb 24       		.uleb128 0x24
 2304 07bc EA040000 		.4byte	0x4ea
 2305 07c0 6C010000 		.4byte	.LLST9
 2306 07c4 24       		.uleb128 0x24
 2307 07c5 F4040000 		.4byte	0x4f4
 2308 07c9 8A010000 		.4byte	.LLST10
 2309 07cd 19       		.uleb128 0x19
 2310 07ce 2A000000 		.4byte	.LBB18
 2311 07d2 0C000000 		.4byte	.LBE18-.LBB18
 2312 07d6 FD070000 		.4byte	0x7fd
 2313 07da 24       		.uleb128 0x24
 2314 07db F4040000 		.4byte	0x4f4
 2315 07df A8010000 		.4byte	.LLST11
 2316 07e3 24       		.uleb128 0x24
 2317 07e4 EA040000 		.4byte	0x4ea
 2318 07e8 BB010000 		.4byte	.LLST12
 2319 07ec 20       		.uleb128 0x20
 2320 07ed 30000000 		.4byte	.LVL33
 2321 07f1 9E0F0000 		.4byte	0xf9e
 2322 07f5 1C       		.uleb128 0x1c
 2323 07f6 01       		.uleb128 0x1
 2324 07f7 50       		.byte	0x50
 2325 07f8 02       		.uleb128 0x2
 2326 07f9 74       		.byte	0x74
 2327 07fa 00       		.sleb128 0
 2328 07fb 00       		.byte	0
 2329 07fc 00       		.byte	0
 2330 07fd 1D       		.uleb128 0x1d
 2331 07fe 0A000000 		.4byte	.LVL30
 2332 0802 B30F0000 		.4byte	0xfb3
 2333 0806 20       		.uleb128 0x20
 2334 0807 4A000000 		.4byte	.LVL36
 2335 080b 7F0F0000 		.4byte	0xf7f
 2336 080f 1C       		.uleb128 0x1c
 2337 0810 01       		.uleb128 0x1
 2338 0811 50       		.byte	0x50
 2339 0812 05       		.uleb128 0x5
 2340 0813 03       		.byte	0x3
 2341 0814 2C000000 		.4byte	.LC2
 2342 0818 00       		.byte	0
 2343 0819 00       		.byte	0
 2344 081a 16       		.uleb128 0x16
 2345 081b 9A010000 		.4byte	.LASF87
ARM GAS  /tmp/ccc7VhL9.s 			page 43


 2346 081f 01       		.byte	0x1
 2347 0820 B8       		.byte	0xb8
 2348 0821 00000000 		.4byte	.LFB11
 2349 0825 34000000 		.4byte	.LFE11-.LFB11
 2350 0829 01       		.uleb128 0x1
 2351 082a 9C       		.byte	0x9c
 2352 082b 82080000 		.4byte	0x882
 2353 082f 17       		.uleb128 0x17
 2354 0830 65737000 		.ascii	"esp\000"
 2355 0834 01       		.byte	0x1
 2356 0835 B8       		.byte	0xb8
 2357 0836 A2050000 		.4byte	0x5a2
 2358 083a CE010000 		.4byte	.LLST13
 2359 083e 18       		.uleb128 0x18
 2360 083f 24050000 		.4byte	.LASF86
 2361 0843 01       		.byte	0x1
 2362 0844 B8       		.byte	0xb8
 2363 0845 22010000 		.4byte	0x122
 2364 0849 EC010000 		.4byte	.LLST14
 2365 084d 1E       		.uleb128 0x1e
 2366 084e 656C7000 		.ascii	"elp\000"
 2367 0852 01       		.byte	0x1
 2368 0853 B9       		.byte	0xb9
 2369 0854 45040000 		.4byte	0x445
 2370 0858 0A020000 		.4byte	.LLST15
 2371 085c 1D       		.uleb128 0x1d
 2372 085d 0A000000 		.4byte	.LVL38
 2373 0861 B30F0000 		.4byte	0xfb3
 2374 0865 1D       		.uleb128 0x1d
 2375 0866 1E000000 		.4byte	.LVL40
 2376 086a DE040000 		.4byte	0x4de
 2377 086e 20       		.uleb128 0x20
 2378 086f 32000000 		.4byte	.LVL43
 2379 0873 7F0F0000 		.4byte	0xf7f
 2380 0877 1C       		.uleb128 0x1c
 2381 0878 01       		.uleb128 0x1
 2382 0879 50       		.byte	0x50
 2383 087a 05       		.uleb128 0x5
 2384 087b 03       		.byte	0x3
 2385 087c 40000000 		.4byte	.LC3
 2386 0880 00       		.byte	0
 2387 0881 00       		.byte	0
 2388 0882 16       		.uleb128 0x16
 2389 0883 2B000000 		.4byte	.LASF88
 2390 0887 01       		.byte	0x1
 2391 0888 E5       		.byte	0xe5
 2392 0889 00000000 		.4byte	.LFB13
 2393 088d 38000000 		.4byte	.LFE13-.LFB13
 2394 0891 01       		.uleb128 0x1
 2395 0892 9C       		.byte	0x9c
 2396 0893 33090000 		.4byte	0x933
 2397 0897 17       		.uleb128 0x17
 2398 0898 747000   		.ascii	"tp\000"
 2399 089b 01       		.byte	0x1
 2400 089c E5       		.byte	0xe5
 2401 089d 6D020000 		.4byte	0x26d
 2402 08a1 1D020000 		.4byte	.LLST16
ARM GAS  /tmp/ccc7VhL9.s 			page 44


 2403 08a5 18       		.uleb128 0x18
 2404 08a6 D3010000 		.4byte	.LASF80
 2405 08aa 01       		.byte	0x1
 2406 08ab E5       		.byte	0xe5
 2407 08ac 17010000 		.4byte	0x117
 2408 08b0 51020000 		.4byte	.LLST17
 2409 08b4 19       		.uleb128 0x19
 2410 08b5 08000000 		.4byte	.LBB20
 2411 08b9 06000000 		.4byte	.LBE20-.LBB20
 2412 08bd CF080000 		.4byte	0x8cf
 2413 08c1 1A       		.uleb128 0x1a
 2414 08c2 746D7000 		.ascii	"tmp\000"
 2415 08c6 01       		.byte	0x1
 2416 08c7 E9       		.byte	0xe9
 2417 08c8 AD000000 		.4byte	0xad
 2418 08cc 01       		.uleb128 0x1
 2419 08cd 53       		.byte	0x53
 2420 08ce 00       		.byte	0
 2421 08cf 19       		.uleb128 0x19
 2422 08d0 22000000 		.4byte	.LBB21
 2423 08d4 08000000 		.4byte	.LBE21-.LBB21
 2424 08d8 EA080000 		.4byte	0x8ea
 2425 08dc 1A       		.uleb128 0x1a
 2426 08dd 746D7000 		.ascii	"tmp\000"
 2427 08e1 01       		.byte	0x1
 2428 08e2 EC       		.byte	0xec
 2429 08e3 AD000000 		.4byte	0xad
 2430 08e7 01       		.uleb128 0x1
 2431 08e8 53       		.byte	0x53
 2432 08e9 00       		.byte	0
 2433 08ea 1D       		.uleb128 0x1d
 2434 08eb 12000000 		.4byte	.LVL46
 2435 08ef 900F0000 		.4byte	0xf90
 2436 08f3 1B       		.uleb128 0x1b
 2437 08f4 1A000000 		.4byte	.LVL47
 2438 08f8 DE040000 		.4byte	0x4de
 2439 08fc 0D090000 		.4byte	0x90d
 2440 0900 1C       		.uleb128 0x1c
 2441 0901 01       		.uleb128 0x1
 2442 0902 51       		.byte	0x51
 2443 0903 02       		.uleb128 0x2
 2444 0904 75       		.byte	0x75
 2445 0905 00       		.sleb128 0
 2446 0906 1C       		.uleb128 0x1c
 2447 0907 01       		.uleb128 0x1
 2448 0908 50       		.byte	0x50
 2449 0909 02       		.uleb128 0x2
 2450 090a 74       		.byte	0x74
 2451 090b 00       		.sleb128 0
 2452 090c 00       		.byte	0
 2453 090d 1D       		.uleb128 0x1d
 2454 090e 1E000000 		.4byte	.LVL48
 2455 0912 BA0F0000 		.4byte	0xfba
 2456 0916 1D       		.uleb128 0x1d
 2457 0917 22000000 		.4byte	.LVL49
 2458 091b 970F0000 		.4byte	0xf97
 2459 091f 20       		.uleb128 0x20
ARM GAS  /tmp/ccc7VhL9.s 			page 45


 2460 0920 36000000 		.4byte	.LVL52
 2461 0924 7F0F0000 		.4byte	0xf7f
 2462 0928 1C       		.uleb128 0x1c
 2463 0929 01       		.uleb128 0x1
 2464 092a 50       		.byte	0x50
 2465 092b 05       		.uleb128 0x5
 2466 092c 03       		.byte	0x3
 2467 092d 58000000 		.4byte	.LC4
 2468 0931 00       		.byte	0
 2469 0932 00       		.byte	0
 2470 0933 25       		.uleb128 0x25
 2471 0934 E1010000 		.4byte	.LASF89
 2472 0938 01       		.byte	0x1
 2473 0939 1601     		.2byte	0x116
 2474 093b 00000000 		.4byte	.LFB15
 2475 093f 28000000 		.4byte	.LFE15-.LFB15
 2476 0943 01       		.uleb128 0x1
 2477 0944 9C       		.byte	0x9c
 2478 0945 D7090000 		.4byte	0x9d7
 2479 0949 26       		.uleb128 0x26
 2480 094a 65737000 		.ascii	"esp\000"
 2481 094e 01       		.byte	0x1
 2482 094f 1601     		.2byte	0x116
 2483 0951 A2050000 		.4byte	0x5a2
 2484 0955 85020000 		.4byte	.LLST18
 2485 0959 27       		.uleb128 0x27
 2486 095a 24050000 		.4byte	.LASF86
 2487 095e 01       		.byte	0x1
 2488 095f 1601     		.2byte	0x116
 2489 0961 22010000 		.4byte	0x122
 2490 0965 A3020000 		.4byte	.LLST19
 2491 0969 19       		.uleb128 0x19
 2492 096a 06000000 		.4byte	.LBB22
 2493 096e 06000000 		.4byte	.LBE22-.LBB22
 2494 0972 85090000 		.4byte	0x985
 2495 0976 28       		.uleb128 0x28
 2496 0977 746D7000 		.ascii	"tmp\000"
 2497 097b 01       		.byte	0x1
 2498 097c 1801     		.2byte	0x118
 2499 097e AD000000 		.4byte	0xad
 2500 0982 01       		.uleb128 0x1
 2501 0983 53       		.byte	0x53
 2502 0984 00       		.byte	0
 2503 0985 19       		.uleb128 0x19
 2504 0986 20000000 		.4byte	.LBB23
 2505 098a 08000000 		.4byte	.LBE23-.LBB23
 2506 098e A1090000 		.4byte	0x9a1
 2507 0992 28       		.uleb128 0x28
 2508 0993 746D7000 		.ascii	"tmp\000"
 2509 0997 01       		.byte	0x1
 2510 0998 1B01     		.2byte	0x11b
 2511 099a AD000000 		.4byte	0xad
 2512 099e 01       		.uleb128 0x1
 2513 099f 53       		.byte	0x53
 2514 09a0 00       		.byte	0
 2515 09a1 1D       		.uleb128 0x1d
 2516 09a2 10000000 		.4byte	.LVL54
ARM GAS  /tmp/ccc7VhL9.s 			page 46


 2517 09a6 900F0000 		.4byte	0xf90
 2518 09aa 1B       		.uleb128 0x1b
 2519 09ab 18000000 		.4byte	.LVL55
 2520 09af 1A080000 		.4byte	0x81a
 2521 09b3 C4090000 		.4byte	0x9c4
 2522 09b7 1C       		.uleb128 0x1c
 2523 09b8 01       		.uleb128 0x1
 2524 09b9 51       		.byte	0x51
 2525 09ba 02       		.uleb128 0x2
 2526 09bb 74       		.byte	0x74
 2527 09bc 00       		.sleb128 0
 2528 09bd 1C       		.uleb128 0x1c
 2529 09be 01       		.uleb128 0x1
 2530 09bf 50       		.byte	0x50
 2531 09c0 02       		.uleb128 0x2
 2532 09c1 75       		.byte	0x75
 2533 09c2 00       		.sleb128 0
 2534 09c3 00       		.byte	0
 2535 09c4 1D       		.uleb128 0x1d
 2536 09c5 1C000000 		.4byte	.LVL56
 2537 09c9 BA0F0000 		.4byte	0xfba
 2538 09cd 1D       		.uleb128 0x1d
 2539 09ce 20000000 		.4byte	.LVL57
 2540 09d2 970F0000 		.4byte	0xf97
 2541 09d6 00       		.byte	0
 2542 09d7 29       		.uleb128 0x29
 2543 09d8 4B040000 		.4byte	.LASF90
 2544 09dc 01       		.byte	0x1
 2545 09dd 2901     		.2byte	0x129
 2546 09df 22010000 		.4byte	0x122
 2547 09e3 00000000 		.4byte	.LFB16
 2548 09e7 0A000000 		.4byte	.LFE16-.LFB16
 2549 09eb 01       		.uleb128 0x1
 2550 09ec 9C       		.byte	0x9c
 2551 09ed 100A0000 		.4byte	0xa10
 2552 09f1 26       		.uleb128 0x26
 2553 09f2 656C7000 		.ascii	"elp\000"
 2554 09f6 01       		.byte	0x1
 2555 09f7 2901     		.2byte	0x129
 2556 09f9 45040000 		.4byte	0x445
 2557 09fd C1020000 		.4byte	.LLST20
 2558 0a01 2A       		.uleb128 0x2a
 2559 0a02 24050000 		.4byte	.LASF86
 2560 0a06 01       		.byte	0x1
 2561 0a07 2A01     		.2byte	0x12a
 2562 0a09 22010000 		.4byte	0x122
 2563 0a0d 01       		.uleb128 0x1
 2564 0a0e 50       		.byte	0x50
 2565 0a0f 00       		.byte	0
 2566 0a10 25       		.uleb128 0x25
 2567 0a11 18030000 		.4byte	.LASF91
 2568 0a15 01       		.byte	0x1
 2569 0a16 3B01     		.2byte	0x13b
 2570 0a18 00000000 		.4byte	.LFB17
 2571 0a1c 56000000 		.4byte	.LFE17-.LFB17
 2572 0a20 01       		.uleb128 0x1
 2573 0a21 9C       		.byte	0x9c
ARM GAS  /tmp/ccc7VhL9.s 			page 47


 2574 0a22 910A0000 		.4byte	0xa91
 2575 0a26 27       		.uleb128 0x27
 2576 0a27 C0030000 		.4byte	.LASF92
 2577 0a2b 01       		.byte	0x1
 2578 0a2c 3B01     		.2byte	0x13b
 2579 0a2e 910A0000 		.4byte	0xa91
 2580 0a32 DF020000 		.4byte	.LLST21
 2581 0a36 27       		.uleb128 0x27
 2582 0a37 D3010000 		.4byte	.LASF80
 2583 0a3b 01       		.byte	0x1
 2584 0a3c 3B01     		.2byte	0x13b
 2585 0a3e 17010000 		.4byte	0x117
 2586 0a42 13030000 		.4byte	.LLST22
 2587 0a46 2B       		.uleb128 0x2b
 2588 0a47 65696400 		.ascii	"eid\000"
 2589 0a4b 01       		.byte	0x1
 2590 0a4c 3C01     		.2byte	0x13c
 2591 0a4e 0C010000 		.4byte	0x10c
 2592 0a52 47030000 		.4byte	.LLST23
 2593 0a56 2C       		.uleb128 0x2c
 2594 0a57 2A000000 		.4byte	.LVL64
 2595 0a5b 660A0000 		.4byte	0xa66
 2596 0a5f 1C       		.uleb128 0x1c
 2597 0a60 01       		.uleb128 0x1
 2598 0a61 50       		.byte	0x50
 2599 0a62 02       		.uleb128 0x2
 2600 0a63 74       		.byte	0x74
 2601 0a64 00       		.sleb128 0
 2602 0a65 00       		.byte	0
 2603 0a66 1B       		.uleb128 0x1b
 2604 0a67 42000000 		.4byte	.LVL68
 2605 0a6b 7F0F0000 		.4byte	0xf7f
 2606 0a6f 7D0A0000 		.4byte	0xa7d
 2607 0a73 1C       		.uleb128 0x1c
 2608 0a74 01       		.uleb128 0x1
 2609 0a75 50       		.byte	0x50
 2610 0a76 05       		.uleb128 0x5
 2611 0a77 03       		.byte	0x3
 2612 0a78 7C000000 		.4byte	.LC6
 2613 0a7c 00       		.byte	0
 2614 0a7d 20       		.uleb128 0x20
 2615 0a7e 54000000 		.4byte	.LVL71
 2616 0a82 7F0F0000 		.4byte	0xf7f
 2617 0a86 1C       		.uleb128 0x1c
 2618 0a87 01       		.uleb128 0x1
 2619 0a88 50       		.byte	0x50
 2620 0a89 05       		.uleb128 0x5
 2621 0a8a 03       		.byte	0x3
 2622 0a8b 68000000 		.4byte	.LC5
 2623 0a8f 00       		.byte	0
 2624 0a90 00       		.byte	0
 2625 0a91 09       		.uleb128 0x9
 2626 0a92 04       		.byte	0x4
 2627 0a93 970A0000 		.4byte	0xa97
 2628 0a97 12       		.uleb128 0x12
 2629 0a98 6F040000 		.4byte	0x46f
 2630 0a9c 29       		.uleb128 0x29
ARM GAS  /tmp/ccc7VhL9.s 			page 48


 2631 0a9d FC030000 		.4byte	.LASF93
 2632 0aa1 01       		.byte	0x1
 2633 0aa2 5E01     		.2byte	0x15e
 2634 0aa4 17010000 		.4byte	0x117
 2635 0aa8 00000000 		.4byte	.LFB18
 2636 0aac 46000000 		.4byte	.LFE18-.LFB18
 2637 0ab0 01       		.uleb128 0x1
 2638 0ab1 9C       		.byte	0x9c
 2639 0ab2 400B0000 		.4byte	0xb40
 2640 0ab6 27       		.uleb128 0x27
 2641 0ab7 D3010000 		.4byte	.LASF80
 2642 0abb 01       		.byte	0x1
 2643 0abc 5E01     		.2byte	0x15e
 2644 0abe 17010000 		.4byte	0x117
 2645 0ac2 71030000 		.4byte	.LLST24
 2646 0ac6 28       		.uleb128 0x28
 2647 0ac7 63747000 		.ascii	"ctp\000"
 2648 0acb 01       		.byte	0x1
 2649 0acc 5F01     		.2byte	0x15f
 2650 0ace 6D020000 		.4byte	0x26d
 2651 0ad2 01       		.uleb128 0x1
 2652 0ad3 55       		.byte	0x55
 2653 0ad4 2B       		.uleb128 0x2b
 2654 0ad5 6D00     		.ascii	"m\000"
 2655 0ad7 01       		.byte	0x1
 2656 0ad8 6001     		.2byte	0x160
 2657 0ada 17010000 		.4byte	0x117
 2658 0ade 9D030000 		.4byte	.LLST25
 2659 0ae2 19       		.uleb128 0x19
 2660 0ae3 0E000000 		.4byte	.LBB24
 2661 0ae7 06000000 		.4byte	.LBE24-.LBB24
 2662 0aeb FE0A0000 		.4byte	0xafe
 2663 0aef 28       		.uleb128 0x28
 2664 0af0 746D7000 		.ascii	"tmp\000"
 2665 0af4 01       		.byte	0x1
 2666 0af5 6201     		.2byte	0x162
 2667 0af7 AD000000 		.4byte	0xad
 2668 0afb 01       		.uleb128 0x1
 2669 0afc 53       		.byte	0x53
 2670 0afd 00       		.byte	0
 2671 0afe 19       		.uleb128 0x19
 2672 0aff 3C000000 		.4byte	.LBB25
 2673 0b03 06000000 		.4byte	.LBE25-.LBB25
 2674 0b07 1A0B0000 		.4byte	0xb1a
 2675 0b0b 28       		.uleb128 0x28
 2676 0b0c 746D7000 		.ascii	"tmp\000"
 2677 0b10 01       		.byte	0x1
 2678 0b11 6C01     		.2byte	0x16c
 2679 0b13 AD000000 		.4byte	0xad
 2680 0b17 01       		.uleb128 0x1
 2681 0b18 53       		.byte	0x53
 2682 0b19 00       		.byte	0
 2683 0b1a 1D       		.uleb128 0x1d
 2684 0b1b 18000000 		.4byte	.LVL74
 2685 0b1f 900F0000 		.4byte	0xf90
 2686 0b23 1B       		.uleb128 0x1b
 2687 0b24 28000000 		.4byte	.LVL77
ARM GAS  /tmp/ccc7VhL9.s 			page 49


 2688 0b28 C10F0000 		.4byte	0xfc1
 2689 0b2c 360B0000 		.4byte	0xb36
 2690 0b30 1C       		.uleb128 0x1c
 2691 0b31 01       		.uleb128 0x1
 2692 0b32 50       		.byte	0x50
 2693 0b33 01       		.uleb128 0x1
 2694 0b34 38       		.byte	0x38
 2695 0b35 00       		.byte	0
 2696 0b36 1D       		.uleb128 0x1d
 2697 0b37 3C000000 		.4byte	.LVL81
 2698 0b3b 970F0000 		.4byte	0xf97
 2699 0b3f 00       		.byte	0
 2700 0b40 29       		.uleb128 0x29
 2701 0b41 78010000 		.4byte	.LASF94
 2702 0b45 01       		.byte	0x1
 2703 0b46 7B01     		.2byte	0x17b
 2704 0b48 17010000 		.4byte	0x117
 2705 0b4c 00000000 		.4byte	.LFB19
 2706 0b50 42000000 		.4byte	.LFE19-.LFB19
 2707 0b54 01       		.uleb128 0x1
 2708 0b55 9C       		.byte	0x9c
 2709 0b56 E40B0000 		.4byte	0xbe4
 2710 0b5a 27       		.uleb128 0x27
 2711 0b5b D3010000 		.4byte	.LASF80
 2712 0b5f 01       		.byte	0x1
 2713 0b60 7B01     		.2byte	0x17b
 2714 0b62 17010000 		.4byte	0x117
 2715 0b66 D6030000 		.4byte	.LLST26
 2716 0b6a 28       		.uleb128 0x28
 2717 0b6b 63747000 		.ascii	"ctp\000"
 2718 0b6f 01       		.byte	0x1
 2719 0b70 7C01     		.2byte	0x17c
 2720 0b72 6D020000 		.4byte	0x26d
 2721 0b76 01       		.uleb128 0x1
 2722 0b77 55       		.byte	0x55
 2723 0b78 2B       		.uleb128 0x2b
 2724 0b79 6D00     		.ascii	"m\000"
 2725 0b7b 01       		.byte	0x1
 2726 0b7c 7D01     		.2byte	0x17d
 2727 0b7e 17010000 		.4byte	0x117
 2728 0b82 F4030000 		.4byte	.LLST27
 2729 0b86 19       		.uleb128 0x19
 2730 0b87 0E000000 		.4byte	.LBB26
 2731 0b8b 06000000 		.4byte	.LBE26-.LBB26
 2732 0b8f A20B0000 		.4byte	0xba2
 2733 0b93 28       		.uleb128 0x28
 2734 0b94 746D7000 		.ascii	"tmp\000"
 2735 0b98 01       		.byte	0x1
 2736 0b99 7F01     		.2byte	0x17f
 2737 0b9b AD000000 		.4byte	0xad
 2738 0b9f 01       		.uleb128 0x1
 2739 0ba0 53       		.byte	0x53
 2740 0ba1 00       		.byte	0
 2741 0ba2 19       		.uleb128 0x19
 2742 0ba3 38000000 		.4byte	.LBB27
 2743 0ba7 06000000 		.4byte	.LBE27-.LBB27
 2744 0bab BE0B0000 		.4byte	0xbbe
ARM GAS  /tmp/ccc7VhL9.s 			page 50


 2745 0baf 28       		.uleb128 0x28
 2746 0bb0 746D7000 		.ascii	"tmp\000"
 2747 0bb4 01       		.byte	0x1
 2748 0bb5 8801     		.2byte	0x188
 2749 0bb7 AD000000 		.4byte	0xad
 2750 0bbb 01       		.uleb128 0x1
 2751 0bbc 53       		.byte	0x53
 2752 0bbd 00       		.byte	0
 2753 0bbe 1D       		.uleb128 0x1d
 2754 0bbf 18000000 		.4byte	.LVL84
 2755 0bc3 900F0000 		.4byte	0xf90
 2756 0bc7 1B       		.uleb128 0x1b
 2757 0bc8 28000000 		.4byte	.LVL87
 2758 0bcc C10F0000 		.4byte	0xfc1
 2759 0bd0 DA0B0000 		.4byte	0xbda
 2760 0bd4 1C       		.uleb128 0x1c
 2761 0bd5 01       		.uleb128 0x1
 2762 0bd6 50       		.byte	0x50
 2763 0bd7 01       		.uleb128 0x1
 2764 0bd8 38       		.byte	0x38
 2765 0bd9 00       		.byte	0
 2766 0bda 1D       		.uleb128 0x1d
 2767 0bdb 38000000 		.4byte	.LVL89
 2768 0bdf 970F0000 		.4byte	0xf97
 2769 0be3 00       		.byte	0
 2770 0be4 29       		.uleb128 0x29
 2771 0be5 8E030000 		.4byte	.LASF95
 2772 0be9 01       		.byte	0x1
 2773 0bea 9701     		.2byte	0x197
 2774 0bec 17010000 		.4byte	0x117
 2775 0bf0 00000000 		.4byte	.LFB20
 2776 0bf4 40000000 		.4byte	.LFE20-.LFB20
 2777 0bf8 01       		.uleb128 0x1
 2778 0bf9 9C       		.byte	0x9c
 2779 0bfa 7A0C0000 		.4byte	0xc7a
 2780 0bfe 27       		.uleb128 0x27
 2781 0bff D3010000 		.4byte	.LASF80
 2782 0c03 01       		.byte	0x1
 2783 0c04 9701     		.2byte	0x197
 2784 0c06 17010000 		.4byte	0x117
 2785 0c0a 17040000 		.4byte	.LLST28
 2786 0c0e 28       		.uleb128 0x28
 2787 0c0f 63747000 		.ascii	"ctp\000"
 2788 0c13 01       		.byte	0x1
 2789 0c14 9801     		.2byte	0x198
 2790 0c16 6D020000 		.4byte	0x26d
 2791 0c1a 01       		.uleb128 0x1
 2792 0c1b 55       		.byte	0x55
 2793 0c1c 19       		.uleb128 0x19
 2794 0c1d 0E000000 		.4byte	.LBB28
 2795 0c21 06000000 		.4byte	.LBE28-.LBB28
 2796 0c25 380C0000 		.4byte	0xc38
 2797 0c29 28       		.uleb128 0x28
 2798 0c2a 746D7000 		.ascii	"tmp\000"
 2799 0c2e 01       		.byte	0x1
 2800 0c2f 9A01     		.2byte	0x19a
 2801 0c31 AD000000 		.4byte	0xad
ARM GAS  /tmp/ccc7VhL9.s 			page 51


 2802 0c35 01       		.uleb128 0x1
 2803 0c36 53       		.byte	0x53
 2804 0c37 00       		.byte	0
 2805 0c38 19       		.uleb128 0x19
 2806 0c39 36000000 		.4byte	.LBB29
 2807 0c3d 06000000 		.4byte	.LBE29-.LBB29
 2808 0c41 540C0000 		.4byte	0xc54
 2809 0c45 28       		.uleb128 0x28
 2810 0c46 746D7000 		.ascii	"tmp\000"
 2811 0c4a 01       		.byte	0x1
 2812 0c4b A201     		.2byte	0x1a2
 2813 0c4d AD000000 		.4byte	0xad
 2814 0c51 01       		.uleb128 0x1
 2815 0c52 53       		.byte	0x53
 2816 0c53 00       		.byte	0
 2817 0c54 1D       		.uleb128 0x1d
 2818 0c55 18000000 		.4byte	.LVL92
 2819 0c59 900F0000 		.4byte	0xf90
 2820 0c5d 1B       		.uleb128 0x1b
 2821 0c5e 2A000000 		.4byte	.LVL93
 2822 0c62 C10F0000 		.4byte	0xfc1
 2823 0c66 700C0000 		.4byte	0xc70
 2824 0c6a 1C       		.uleb128 0x1c
 2825 0c6b 01       		.uleb128 0x1
 2826 0c6c 50       		.byte	0x50
 2827 0c6d 01       		.uleb128 0x1
 2828 0c6e 39       		.byte	0x39
 2829 0c6f 00       		.byte	0
 2830 0c70 1D       		.uleb128 0x1d
 2831 0c71 36000000 		.4byte	.LVL94
 2832 0c75 970F0000 		.4byte	0xf97
 2833 0c79 00       		.byte	0
 2834 0c7a 29       		.uleb128 0x29
 2835 0c7b 38050000 		.4byte	.LASF96
 2836 0c7f 01       		.byte	0x1
 2837 0c80 BE01     		.2byte	0x1be
 2838 0c82 17010000 		.4byte	0x117
 2839 0c86 00000000 		.4byte	.LFB21
 2840 0c8a 6E000000 		.4byte	.LFE21-.LFB21
 2841 0c8e 01       		.uleb128 0x1
 2842 0c8f 9C       		.byte	0x9c
 2843 0c90 7E0D0000 		.4byte	0xd7e
 2844 0c94 27       		.uleb128 0x27
 2845 0c95 D3010000 		.4byte	.LASF80
 2846 0c99 01       		.byte	0x1
 2847 0c9a BE01     		.2byte	0x1be
 2848 0c9c 17010000 		.4byte	0x117
 2849 0ca0 35040000 		.4byte	.LLST29
 2850 0ca4 27       		.uleb128 0x27
 2851 0ca5 89030000 		.4byte	.LASF97
 2852 0ca9 01       		.byte	0x1
 2853 0caa BE01     		.2byte	0x1be
 2854 0cac 2D010000 		.4byte	0x12d
 2855 0cb0 53040000 		.4byte	.LLST30
 2856 0cb4 28       		.uleb128 0x28
 2857 0cb5 63747000 		.ascii	"ctp\000"
 2858 0cb9 01       		.byte	0x1
ARM GAS  /tmp/ccc7VhL9.s 			page 52


 2859 0cba BF01     		.2byte	0x1bf
 2860 0cbc 6D020000 		.4byte	0x26d
 2861 0cc0 01       		.uleb128 0x1
 2862 0cc1 55       		.byte	0x55
 2863 0cc2 2B       		.uleb128 0x2b
 2864 0cc3 6D00     		.ascii	"m\000"
 2865 0cc5 01       		.byte	0x1
 2866 0cc6 C001     		.2byte	0x1c0
 2867 0cc8 17010000 		.4byte	0x117
 2868 0ccc 71040000 		.4byte	.LLST31
 2869 0cd0 19       		.uleb128 0x19
 2870 0cd1 10000000 		.4byte	.LBB30
 2871 0cd5 06000000 		.4byte	.LBE30-.LBB30
 2872 0cd9 EC0C0000 		.4byte	0xcec
 2873 0cdd 28       		.uleb128 0x28
 2874 0cde 746D7000 		.ascii	"tmp\000"
 2875 0ce2 01       		.byte	0x1
 2876 0ce3 C201     		.2byte	0x1c2
 2877 0ce5 AD000000 		.4byte	0xad
 2878 0ce9 01       		.uleb128 0x1
 2879 0cea 53       		.byte	0x53
 2880 0ceb 00       		.byte	0
 2881 0cec 19       		.uleb128 0x19
 2882 0ced 48000000 		.4byte	.LBB31
 2883 0cf1 06000000 		.4byte	.LBE31-.LBB31
 2884 0cf5 080D0000 		.4byte	0xd08
 2885 0cf9 28       		.uleb128 0x28
 2886 0cfa 746D7000 		.ascii	"tmp\000"
 2887 0cfe 01       		.byte	0x1
 2888 0cff D301     		.2byte	0x1d3
 2889 0d01 AD000000 		.4byte	0xad
 2890 0d05 01       		.uleb128 0x1
 2891 0d06 53       		.byte	0x53
 2892 0d07 00       		.byte	0
 2893 0d08 19       		.uleb128 0x19
 2894 0d09 56000000 		.4byte	.LBB32
 2895 0d0d 06000000 		.4byte	.LBE32-.LBB32
 2896 0d11 240D0000 		.4byte	0xd24
 2897 0d15 28       		.uleb128 0x28
 2898 0d16 746D7000 		.ascii	"tmp\000"
 2899 0d1a 01       		.byte	0x1
 2900 0d1b C601     		.2byte	0x1c6
 2901 0d1d AD000000 		.4byte	0xad
 2902 0d21 01       		.uleb128 0x1
 2903 0d22 53       		.byte	0x53
 2904 0d23 00       		.byte	0
 2905 0d24 19       		.uleb128 0x19
 2906 0d25 64000000 		.4byte	.LBB33
 2907 0d29 06000000 		.4byte	.LBE33-.LBB33
 2908 0d2d 400D0000 		.4byte	0xd40
 2909 0d31 28       		.uleb128 0x28
 2910 0d32 746D7000 		.ascii	"tmp\000"
 2911 0d36 01       		.byte	0x1
 2912 0d37 CB01     		.2byte	0x1cb
 2913 0d39 AD000000 		.4byte	0xad
 2914 0d3d 01       		.uleb128 0x1
 2915 0d3e 53       		.byte	0x53
ARM GAS  /tmp/ccc7VhL9.s 			page 53


 2916 0d3f 00       		.byte	0
 2917 0d40 1D       		.uleb128 0x1d
 2918 0d41 1A000000 		.4byte	.LVL97
 2919 0d45 900F0000 		.4byte	0xf90
 2920 0d49 1B       		.uleb128 0x1b
 2921 0d4a 2E000000 		.4byte	.LVL100
 2922 0d4e D20F0000 		.4byte	0xfd2
 2923 0d52 620D0000 		.4byte	0xd62
 2924 0d56 1C       		.uleb128 0x1c
 2925 0d57 01       		.uleb128 0x1
 2926 0d58 51       		.byte	0x51
 2927 0d59 02       		.uleb128 0x2
 2928 0d5a 77       		.byte	0x77
 2929 0d5b 00       		.sleb128 0
 2930 0d5c 1C       		.uleb128 0x1c
 2931 0d5d 01       		.uleb128 0x1
 2932 0d5e 50       		.byte	0x50
 2933 0d5f 01       		.uleb128 0x1
 2934 0d60 38       		.byte	0x38
 2935 0d61 00       		.byte	0
 2936 0d62 1D       		.uleb128 0x1d
 2937 0d63 48000000 		.4byte	.LVL104
 2938 0d67 970F0000 		.4byte	0xf97
 2939 0d6b 1D       		.uleb128 0x1d
 2940 0d6c 56000000 		.4byte	.LVL106
 2941 0d70 970F0000 		.4byte	0xf97
 2942 0d74 1D       		.uleb128 0x1d
 2943 0d75 64000000 		.4byte	.LVL108
 2944 0d79 970F0000 		.4byte	0xf97
 2945 0d7d 00       		.byte	0
 2946 0d7e 29       		.uleb128 0x29
 2947 0d7f 03010000 		.4byte	.LASF98
 2948 0d83 01       		.byte	0x1
 2949 0d84 E901     		.2byte	0x1e9
 2950 0d86 17010000 		.4byte	0x117
 2951 0d8a 00000000 		.4byte	.LFB22
 2952 0d8e 6A000000 		.4byte	.LFE22-.LFB22
 2953 0d92 01       		.uleb128 0x1
 2954 0d93 9C       		.byte	0x9c
 2955 0d94 820E0000 		.4byte	0xe82
 2956 0d98 27       		.uleb128 0x27
 2957 0d99 D3010000 		.4byte	.LASF80
 2958 0d9d 01       		.byte	0x1
 2959 0d9e E901     		.2byte	0x1e9
 2960 0da0 17010000 		.4byte	0x117
 2961 0da4 9F040000 		.4byte	.LLST32
 2962 0da8 27       		.uleb128 0x27
 2963 0da9 89030000 		.4byte	.LASF97
 2964 0dad 01       		.byte	0x1
 2965 0dae E901     		.2byte	0x1e9
 2966 0db0 2D010000 		.4byte	0x12d
 2967 0db4 BD040000 		.4byte	.LLST33
 2968 0db8 28       		.uleb128 0x28
 2969 0db9 63747000 		.ascii	"ctp\000"
 2970 0dbd 01       		.byte	0x1
 2971 0dbe EA01     		.2byte	0x1ea
 2972 0dc0 6D020000 		.4byte	0x26d
ARM GAS  /tmp/ccc7VhL9.s 			page 54


 2973 0dc4 01       		.uleb128 0x1
 2974 0dc5 55       		.byte	0x55
 2975 0dc6 2B       		.uleb128 0x2b
 2976 0dc7 6D00     		.ascii	"m\000"
 2977 0dc9 01       		.byte	0x1
 2978 0dca EB01     		.2byte	0x1eb
 2979 0dcc 17010000 		.4byte	0x117
 2980 0dd0 DB040000 		.4byte	.LLST34
 2981 0dd4 19       		.uleb128 0x19
 2982 0dd5 10000000 		.4byte	.LBB34
 2983 0dd9 06000000 		.4byte	.LBE34-.LBB34
 2984 0ddd F00D0000 		.4byte	0xdf0
 2985 0de1 28       		.uleb128 0x28
 2986 0de2 746D7000 		.ascii	"tmp\000"
 2987 0de6 01       		.byte	0x1
 2988 0de7 ED01     		.2byte	0x1ed
 2989 0de9 AD000000 		.4byte	0xad
 2990 0ded 01       		.uleb128 0x1
 2991 0dee 53       		.byte	0x53
 2992 0def 00       		.byte	0
 2993 0df0 19       		.uleb128 0x19
 2994 0df1 44000000 		.4byte	.LBB35
 2995 0df5 06000000 		.4byte	.LBE35-.LBB35
 2996 0df9 0C0E0000 		.4byte	0xe0c
 2997 0dfd 28       		.uleb128 0x28
 2998 0dfe 746D7000 		.ascii	"tmp\000"
 2999 0e02 01       		.byte	0x1
 3000 0e03 FD01     		.2byte	0x1fd
 3001 0e05 AD000000 		.4byte	0xad
 3002 0e09 01       		.uleb128 0x1
 3003 0e0a 53       		.byte	0x53
 3004 0e0b 00       		.byte	0
 3005 0e0c 19       		.uleb128 0x19
 3006 0e0d 52000000 		.4byte	.LBB36
 3007 0e11 06000000 		.4byte	.LBE36-.LBB36
 3008 0e15 280E0000 		.4byte	0xe28
 3009 0e19 28       		.uleb128 0x28
 3010 0e1a 746D7000 		.ascii	"tmp\000"
 3011 0e1e 01       		.byte	0x1
 3012 0e1f F101     		.2byte	0x1f1
 3013 0e21 AD000000 		.4byte	0xad
 3014 0e25 01       		.uleb128 0x1
 3015 0e26 53       		.byte	0x53
 3016 0e27 00       		.byte	0
 3017 0e28 19       		.uleb128 0x19
 3018 0e29 60000000 		.4byte	.LBB37
 3019 0e2d 06000000 		.4byte	.LBE37-.LBB37
 3020 0e31 440E0000 		.4byte	0xe44
 3021 0e35 28       		.uleb128 0x28
 3022 0e36 746D7000 		.ascii	"tmp\000"
 3023 0e3a 01       		.byte	0x1
 3024 0e3b F601     		.2byte	0x1f6
 3025 0e3d AD000000 		.4byte	0xad
 3026 0e41 01       		.uleb128 0x1
 3027 0e42 53       		.byte	0x53
 3028 0e43 00       		.byte	0
 3029 0e44 1D       		.uleb128 0x1d
ARM GAS  /tmp/ccc7VhL9.s 			page 55


 3030 0e45 1A000000 		.4byte	.LVL111
 3031 0e49 900F0000 		.4byte	0xf90
 3032 0e4d 1B       		.uleb128 0x1b
 3033 0e4e 2E000000 		.4byte	.LVL114
 3034 0e52 D20F0000 		.4byte	0xfd2
 3035 0e56 660E0000 		.4byte	0xe66
 3036 0e5a 1C       		.uleb128 0x1c
 3037 0e5b 01       		.uleb128 0x1
 3038 0e5c 51       		.byte	0x51
 3039 0e5d 02       		.uleb128 0x2
 3040 0e5e 77       		.byte	0x77
 3041 0e5f 00       		.sleb128 0
 3042 0e60 1C       		.uleb128 0x1c
 3043 0e61 01       		.uleb128 0x1
 3044 0e62 50       		.byte	0x50
 3045 0e63 01       		.uleb128 0x1
 3046 0e64 38       		.byte	0x38
 3047 0e65 00       		.byte	0
 3048 0e66 1D       		.uleb128 0x1d
 3049 0e67 44000000 		.4byte	.LVL117
 3050 0e6b 970F0000 		.4byte	0xf97
 3051 0e6f 1D       		.uleb128 0x1d
 3052 0e70 52000000 		.4byte	.LVL119
 3053 0e74 970F0000 		.4byte	0xf97
 3054 0e78 1D       		.uleb128 0x1d
 3055 0e79 60000000 		.4byte	.LVL121
 3056 0e7d 970F0000 		.4byte	0xf97
 3057 0e81 00       		.byte	0
 3058 0e82 29       		.uleb128 0x29
 3059 0e83 38010000 		.4byte	.LASF99
 3060 0e87 01       		.byte	0x1
 3061 0e88 1202     		.2byte	0x212
 3062 0e8a 17010000 		.4byte	0x117
 3063 0e8e 00000000 		.4byte	.LFB23
 3064 0e92 66000000 		.4byte	.LFE23-.LFB23
 3065 0e96 01       		.uleb128 0x1
 3066 0e97 9C       		.byte	0x9c
 3067 0e98 740F0000 		.4byte	0xf74
 3068 0e9c 27       		.uleb128 0x27
 3069 0e9d D3010000 		.4byte	.LASF80
 3070 0ea1 01       		.byte	0x1
 3071 0ea2 1202     		.2byte	0x212
 3072 0ea4 17010000 		.4byte	0x117
 3073 0ea8 09050000 		.4byte	.LLST35
 3074 0eac 27       		.uleb128 0x27
 3075 0ead 89030000 		.4byte	.LASF97
 3076 0eb1 01       		.byte	0x1
 3077 0eb2 1202     		.2byte	0x212
 3078 0eb4 2D010000 		.4byte	0x12d
 3079 0eb8 27050000 		.4byte	.LLST36
 3080 0ebc 28       		.uleb128 0x28
 3081 0ebd 63747000 		.ascii	"ctp\000"
 3082 0ec1 01       		.byte	0x1
 3083 0ec2 1302     		.2byte	0x213
 3084 0ec4 6D020000 		.4byte	0x26d
 3085 0ec8 01       		.uleb128 0x1
 3086 0ec9 55       		.byte	0x55
ARM GAS  /tmp/ccc7VhL9.s 			page 56


 3087 0eca 1F       		.uleb128 0x1f
 3088 0ecb 60000000 		.4byte	.Ldebug_ranges0+0x60
 3089 0ecf E20E0000 		.4byte	0xee2
 3090 0ed3 28       		.uleb128 0x28
 3091 0ed4 746D7000 		.ascii	"tmp\000"
 3092 0ed8 01       		.byte	0x1
 3093 0ed9 1502     		.2byte	0x215
 3094 0edb AD000000 		.4byte	0xad
 3095 0edf 01       		.uleb128 0x1
 3096 0ee0 53       		.byte	0x53
 3097 0ee1 00       		.byte	0
 3098 0ee2 19       		.uleb128 0x19
 3099 0ee3 40000000 		.4byte	.LBB40
 3100 0ee7 06000000 		.4byte	.LBE40-.LBB40
 3101 0eeb FE0E0000 		.4byte	0xefe
 3102 0eef 28       		.uleb128 0x28
 3103 0ef0 746D7000 		.ascii	"tmp\000"
 3104 0ef4 01       		.byte	0x1
 3105 0ef5 2402     		.2byte	0x224
 3106 0ef7 AD000000 		.4byte	0xad
 3107 0efb 01       		.uleb128 0x1
 3108 0efc 53       		.byte	0x53
 3109 0efd 00       		.byte	0
 3110 0efe 19       		.uleb128 0x19
 3111 0eff 4E000000 		.4byte	.LBB41
 3112 0f03 06000000 		.4byte	.LBE41-.LBB41
 3113 0f07 1A0F0000 		.4byte	0xf1a
 3114 0f0b 28       		.uleb128 0x28
 3115 0f0c 746D7000 		.ascii	"tmp\000"
 3116 0f10 01       		.byte	0x1
 3117 0f11 1902     		.2byte	0x219
 3118 0f13 AD000000 		.4byte	0xad
 3119 0f17 01       		.uleb128 0x1
 3120 0f18 53       		.byte	0x53
 3121 0f19 00       		.byte	0
 3122 0f1a 19       		.uleb128 0x19
 3123 0f1b 5C000000 		.4byte	.LBB42
 3124 0f1f 06000000 		.4byte	.LBE42-.LBB42
 3125 0f23 360F0000 		.4byte	0xf36
 3126 0f27 28       		.uleb128 0x28
 3127 0f28 746D7000 		.ascii	"tmp\000"
 3128 0f2c 01       		.byte	0x1
 3129 0f2d 1E02     		.2byte	0x21e
 3130 0f2f AD000000 		.4byte	0xad
 3131 0f33 01       		.uleb128 0x1
 3132 0f34 53       		.byte	0x53
 3133 0f35 00       		.byte	0
 3134 0f36 1D       		.uleb128 0x1d
 3135 0f37 1A000000 		.4byte	.LVL124
 3136 0f3b 900F0000 		.4byte	0xf90
 3137 0f3f 1B       		.uleb128 0x1b
 3138 0f40 30000000 		.4byte	.LVL125
 3139 0f44 D20F0000 		.4byte	0xfd2
 3140 0f48 580F0000 		.4byte	0xf58
 3141 0f4c 1C       		.uleb128 0x1c
 3142 0f4d 01       		.uleb128 0x1
 3143 0f4e 51       		.byte	0x51
ARM GAS  /tmp/ccc7VhL9.s 			page 57


 3144 0f4f 02       		.uleb128 0x2
 3145 0f50 76       		.byte	0x76
 3146 0f51 00       		.sleb128 0
 3147 0f52 1C       		.uleb128 0x1c
 3148 0f53 01       		.uleb128 0x1
 3149 0f54 50       		.byte	0x50
 3150 0f55 01       		.uleb128 0x1
 3151 0f56 39       		.byte	0x39
 3152 0f57 00       		.byte	0
 3153 0f58 1D       		.uleb128 0x1d
 3154 0f59 40000000 		.4byte	.LVL126
 3155 0f5d 970F0000 		.4byte	0xf97
 3156 0f61 1D       		.uleb128 0x1d
 3157 0f62 4E000000 		.4byte	.LVL128
 3158 0f66 970F0000 		.4byte	0xf97
 3159 0f6a 1D       		.uleb128 0x1d
 3160 0f6b 5C000000 		.4byte	.LVL130
 3161 0f6f 970F0000 		.4byte	0xf97
 3162 0f73 00       		.byte	0
 3163 0f74 2D       		.uleb128 0x2d
 3164 0f75 16050000 		.4byte	.LASF111
 3165 0f79 08       		.byte	0x8
 3166 0f7a 6F       		.byte	0x6f
 3167 0f7b B0030000 		.4byte	0x3b0
 3168 0f7f 2E       		.uleb128 0x2e
 3169 0f80 06000000 		.4byte	.LASF101
 3170 0f84 0B       		.byte	0xb
 3171 0f85 F6       		.byte	0xf6
 3172 0f86 900F0000 		.4byte	0xf90
 3173 0f8a 0F       		.uleb128 0xf
 3174 0f8b C0040000 		.4byte	0x4c0
 3175 0f8f 00       		.byte	0
 3176 0f90 2F       		.uleb128 0x2f
 3177 0f91 91050000 		.4byte	.LASF102
 3178 0f95 0B       		.byte	0xb
 3179 0f96 E7       		.byte	0xe7
 3180 0f97 2F       		.uleb128 0x2f
 3181 0f98 FE020000 		.4byte	.LASF103
 3182 0f9c 0B       		.byte	0xb
 3183 0f9d E8       		.byte	0xe8
 3184 0f9e 30       		.uleb128 0x30
 3185 0f9f A9040000 		.4byte	.LASF112
 3186 0fa3 08       		.byte	0x8
 3187 0fa4 90       		.byte	0x90
 3188 0fa5 6D020000 		.4byte	0x26d
 3189 0fa9 B30F0000 		.4byte	0xfb3
 3190 0fad 0F       		.uleb128 0xf
 3191 0fae 6D020000 		.4byte	0x26d
 3192 0fb2 00       		.byte	0
 3193 0fb3 2F       		.uleb128 0x2f
 3194 0fb4 78050000 		.4byte	.LASF104
 3195 0fb8 0B       		.byte	0xb
 3196 0fb9 ED       		.byte	0xed
 3197 0fba 2F       		.uleb128 0x2f
 3198 0fbb B7010000 		.4byte	.LASF105
 3199 0fbf 08       		.byte	0x8
 3200 0fc0 9C       		.byte	0x9c
ARM GAS  /tmp/ccc7VhL9.s 			page 58


 3201 0fc1 2E       		.uleb128 0x2e
 3202 0fc2 7F040000 		.4byte	.LASF106
 3203 0fc6 08       		.byte	0x8
 3204 0fc7 93       		.byte	0x93
 3205 0fc8 D20F0000 		.4byte	0xfd2
 3206 0fcc 0F       		.uleb128 0xf
 3207 0fcd D5000000 		.4byte	0xd5
 3208 0fd1 00       		.byte	0
 3209 0fd2 31       		.uleb128 0x31
 3210 0fd3 85010000 		.4byte	.LASF107
 3211 0fd7 08       		.byte	0x8
 3212 0fd8 96       		.byte	0x96
 3213 0fd9 01010000 		.4byte	0x101
 3214 0fdd 0F       		.uleb128 0xf
 3215 0fde D5000000 		.4byte	0xd5
 3216 0fe2 0F       		.uleb128 0xf
 3217 0fe3 2D010000 		.4byte	0x12d
 3218 0fe7 00       		.byte	0
 3219 0fe8 00       		.byte	0
 3220              		.section	.debug_abbrev,"",%progbits
 3221              	.Ldebug_abbrev0:
 3222 0000 01       		.uleb128 0x1
 3223 0001 11       		.uleb128 0x11
 3224 0002 01       		.byte	0x1
 3225 0003 25       		.uleb128 0x25
 3226 0004 0E       		.uleb128 0xe
 3227 0005 13       		.uleb128 0x13
 3228 0006 0B       		.uleb128 0xb
 3229 0007 03       		.uleb128 0x3
 3230 0008 0E       		.uleb128 0xe
 3231 0009 1B       		.uleb128 0x1b
 3232 000a 0E       		.uleb128 0xe
 3233 000b 55       		.uleb128 0x55
 3234 000c 17       		.uleb128 0x17
 3235 000d 11       		.uleb128 0x11
 3236 000e 01       		.uleb128 0x1
 3237 000f 10       		.uleb128 0x10
 3238 0010 17       		.uleb128 0x17
 3239 0011 00       		.byte	0
 3240 0012 00       		.byte	0
 3241 0013 02       		.uleb128 0x2
 3242 0014 24       		.uleb128 0x24
 3243 0015 00       		.byte	0
 3244 0016 0B       		.uleb128 0xb
 3245 0017 0B       		.uleb128 0xb
 3246 0018 3E       		.uleb128 0x3e
 3247 0019 0B       		.uleb128 0xb
 3248 001a 03       		.uleb128 0x3
 3249 001b 08       		.uleb128 0x8
 3250 001c 00       		.byte	0
 3251 001d 00       		.byte	0
 3252 001e 03       		.uleb128 0x3
 3253 001f 24       		.uleb128 0x24
 3254 0020 00       		.byte	0
 3255 0021 0B       		.uleb128 0xb
 3256 0022 0B       		.uleb128 0xb
 3257 0023 3E       		.uleb128 0x3e
ARM GAS  /tmp/ccc7VhL9.s 			page 59


 3258 0024 0B       		.uleb128 0xb
 3259 0025 03       		.uleb128 0x3
 3260 0026 0E       		.uleb128 0xe
 3261 0027 00       		.byte	0
 3262 0028 00       		.byte	0
 3263 0029 04       		.uleb128 0x4
 3264 002a 16       		.uleb128 0x16
 3265 002b 00       		.byte	0
 3266 002c 03       		.uleb128 0x3
 3267 002d 0E       		.uleb128 0xe
 3268 002e 3A       		.uleb128 0x3a
 3269 002f 0B       		.uleb128 0xb
 3270 0030 3B       		.uleb128 0x3b
 3271 0031 0B       		.uleb128 0xb
 3272 0032 49       		.uleb128 0x49
 3273 0033 13       		.uleb128 0x13
 3274 0034 00       		.byte	0
 3275 0035 00       		.byte	0
 3276 0036 05       		.uleb128 0x5
 3277 0037 13       		.uleb128 0x13
 3278 0038 01       		.byte	0x1
 3279 0039 03       		.uleb128 0x3
 3280 003a 0E       		.uleb128 0xe
 3281 003b 0B       		.uleb128 0xb
 3282 003c 0B       		.uleb128 0xb
 3283 003d 3A       		.uleb128 0x3a
 3284 003e 0B       		.uleb128 0xb
 3285 003f 3B       		.uleb128 0x3b
 3286 0040 0B       		.uleb128 0xb
 3287 0041 01       		.uleb128 0x1
 3288 0042 13       		.uleb128 0x13
 3289 0043 00       		.byte	0
 3290 0044 00       		.byte	0
 3291 0045 06       		.uleb128 0x6
 3292 0046 0D       		.uleb128 0xd
 3293 0047 00       		.byte	0
 3294 0048 03       		.uleb128 0x3
 3295 0049 0E       		.uleb128 0xe
 3296 004a 3A       		.uleb128 0x3a
 3297 004b 0B       		.uleb128 0xb
 3298 004c 3B       		.uleb128 0x3b
 3299 004d 0B       		.uleb128 0xb
 3300 004e 49       		.uleb128 0x49
 3301 004f 13       		.uleb128 0x13
 3302 0050 38       		.uleb128 0x38
 3303 0051 0B       		.uleb128 0xb
 3304 0052 00       		.byte	0
 3305 0053 00       		.byte	0
 3306 0054 07       		.uleb128 0x7
 3307 0055 0D       		.uleb128 0xd
 3308 0056 00       		.byte	0
 3309 0057 03       		.uleb128 0x3
 3310 0058 08       		.uleb128 0x8
 3311 0059 3A       		.uleb128 0x3a
 3312 005a 0B       		.uleb128 0xb
 3313 005b 3B       		.uleb128 0x3b
 3314 005c 0B       		.uleb128 0xb
ARM GAS  /tmp/ccc7VhL9.s 			page 60


 3315 005d 49       		.uleb128 0x49
 3316 005e 13       		.uleb128 0x13
 3317 005f 38       		.uleb128 0x38
 3318 0060 0B       		.uleb128 0xb
 3319 0061 00       		.byte	0
 3320 0062 00       		.byte	0
 3321 0063 08       		.uleb128 0x8
 3322 0064 13       		.uleb128 0x13
 3323 0065 01       		.byte	0x1
 3324 0066 0B       		.uleb128 0xb
 3325 0067 0B       		.uleb128 0xb
 3326 0068 3A       		.uleb128 0x3a
 3327 0069 0B       		.uleb128 0xb
 3328 006a 3B       		.uleb128 0x3b
 3329 006b 0B       		.uleb128 0xb
 3330 006c 01       		.uleb128 0x1
 3331 006d 13       		.uleb128 0x13
 3332 006e 00       		.byte	0
 3333 006f 00       		.byte	0
 3334 0070 09       		.uleb128 0x9
 3335 0071 0F       		.uleb128 0xf
 3336 0072 00       		.byte	0
 3337 0073 0B       		.uleb128 0xb
 3338 0074 0B       		.uleb128 0xb
 3339 0075 49       		.uleb128 0x49
 3340 0076 13       		.uleb128 0x13
 3341 0077 00       		.byte	0
 3342 0078 00       		.byte	0
 3343 0079 0A       		.uleb128 0xa
 3344 007a 0F       		.uleb128 0xf
 3345 007b 00       		.byte	0
 3346 007c 0B       		.uleb128 0xb
 3347 007d 0B       		.uleb128 0xb
 3348 007e 00       		.byte	0
 3349 007f 00       		.byte	0
 3350 0080 0B       		.uleb128 0xb
 3351 0081 13       		.uleb128 0x13
 3352 0082 01       		.byte	0x1
 3353 0083 03       		.uleb128 0x3
 3354 0084 0E       		.uleb128 0xe
 3355 0085 0B       		.uleb128 0xb
 3356 0086 0B       		.uleb128 0xb
 3357 0087 3A       		.uleb128 0x3a
 3358 0088 0B       		.uleb128 0xb
 3359 0089 3B       		.uleb128 0x3b
 3360 008a 05       		.uleb128 0x5
 3361 008b 01       		.uleb128 0x1
 3362 008c 13       		.uleb128 0x13
 3363 008d 00       		.byte	0
 3364 008e 00       		.byte	0
 3365 008f 0C       		.uleb128 0xc
 3366 0090 0D       		.uleb128 0xd
 3367 0091 00       		.byte	0
 3368 0092 03       		.uleb128 0x3
 3369 0093 08       		.uleb128 0x8
 3370 0094 3A       		.uleb128 0x3a
 3371 0095 0B       		.uleb128 0xb
ARM GAS  /tmp/ccc7VhL9.s 			page 61


 3372 0096 3B       		.uleb128 0x3b
 3373 0097 05       		.uleb128 0x5
 3374 0098 49       		.uleb128 0x49
 3375 0099 13       		.uleb128 0x13
 3376 009a 38       		.uleb128 0x38
 3377 009b 0B       		.uleb128 0xb
 3378 009c 00       		.byte	0
 3379 009d 00       		.byte	0
 3380 009e 0D       		.uleb128 0xd
 3381 009f 35       		.uleb128 0x35
 3382 00a0 00       		.byte	0
 3383 00a1 49       		.uleb128 0x49
 3384 00a2 13       		.uleb128 0x13
 3385 00a3 00       		.byte	0
 3386 00a4 00       		.byte	0
 3387 00a5 0E       		.uleb128 0xe
 3388 00a6 15       		.uleb128 0x15
 3389 00a7 01       		.byte	0x1
 3390 00a8 27       		.uleb128 0x27
 3391 00a9 19       		.uleb128 0x19
 3392 00aa 01       		.uleb128 0x1
 3393 00ab 13       		.uleb128 0x13
 3394 00ac 00       		.byte	0
 3395 00ad 00       		.byte	0
 3396 00ae 0F       		.uleb128 0xf
 3397 00af 05       		.uleb128 0x5
 3398 00b0 00       		.byte	0
 3399 00b1 49       		.uleb128 0x49
 3400 00b2 13       		.uleb128 0x13
 3401 00b3 00       		.byte	0
 3402 00b4 00       		.byte	0
 3403 00b5 10       		.uleb128 0x10
 3404 00b6 17       		.uleb128 0x17
 3405 00b7 01       		.byte	0x1
 3406 00b8 0B       		.uleb128 0xb
 3407 00b9 0B       		.uleb128 0xb
 3408 00ba 3A       		.uleb128 0x3a
 3409 00bb 0B       		.uleb128 0xb
 3410 00bc 3B       		.uleb128 0x3b
 3411 00bd 0B       		.uleb128 0xb
 3412 00be 01       		.uleb128 0x1
 3413 00bf 13       		.uleb128 0x13
 3414 00c0 00       		.byte	0
 3415 00c1 00       		.byte	0
 3416 00c2 11       		.uleb128 0x11
 3417 00c3 0D       		.uleb128 0xd
 3418 00c4 00       		.byte	0
 3419 00c5 03       		.uleb128 0x3
 3420 00c6 0E       		.uleb128 0xe
 3421 00c7 3A       		.uleb128 0x3a
 3422 00c8 0B       		.uleb128 0xb
 3423 00c9 3B       		.uleb128 0x3b
 3424 00ca 0B       		.uleb128 0xb
 3425 00cb 49       		.uleb128 0x49
 3426 00cc 13       		.uleb128 0x13
 3427 00cd 00       		.byte	0
 3428 00ce 00       		.byte	0
ARM GAS  /tmp/ccc7VhL9.s 			page 62


 3429 00cf 12       		.uleb128 0x12
 3430 00d0 26       		.uleb128 0x26
 3431 00d1 00       		.byte	0
 3432 00d2 49       		.uleb128 0x49
 3433 00d3 13       		.uleb128 0x13
 3434 00d4 00       		.byte	0
 3435 00d5 00       		.byte	0
 3436 00d6 13       		.uleb128 0x13
 3437 00d7 2E       		.uleb128 0x2e
 3438 00d8 01       		.byte	0x1
 3439 00d9 3F       		.uleb128 0x3f
 3440 00da 19       		.uleb128 0x19
 3441 00db 03       		.uleb128 0x3
 3442 00dc 0E       		.uleb128 0xe
 3443 00dd 3A       		.uleb128 0x3a
 3444 00de 0B       		.uleb128 0xb
 3445 00df 3B       		.uleb128 0x3b
 3446 00e0 0B       		.uleb128 0xb
 3447 00e1 27       		.uleb128 0x27
 3448 00e2 19       		.uleb128 0x19
 3449 00e3 20       		.uleb128 0x20
 3450 00e4 0B       		.uleb128 0xb
 3451 00e5 01       		.uleb128 0x1
 3452 00e6 13       		.uleb128 0x13
 3453 00e7 00       		.byte	0
 3454 00e8 00       		.byte	0
 3455 00e9 14       		.uleb128 0x14
 3456 00ea 05       		.uleb128 0x5
 3457 00eb 00       		.byte	0
 3458 00ec 03       		.uleb128 0x3
 3459 00ed 08       		.uleb128 0x8
 3460 00ee 3A       		.uleb128 0x3a
 3461 00ef 0B       		.uleb128 0xb
 3462 00f0 3B       		.uleb128 0x3b
 3463 00f1 0B       		.uleb128 0xb
 3464 00f2 49       		.uleb128 0x49
 3465 00f3 13       		.uleb128 0x13
 3466 00f4 00       		.byte	0
 3467 00f5 00       		.byte	0
 3468 00f6 15       		.uleb128 0x15
 3469 00f7 05       		.uleb128 0x5
 3470 00f8 00       		.byte	0
 3471 00f9 03       		.uleb128 0x3
 3472 00fa 0E       		.uleb128 0xe
 3473 00fb 3A       		.uleb128 0x3a
 3474 00fc 0B       		.uleb128 0xb
 3475 00fd 3B       		.uleb128 0x3b
 3476 00fe 0B       		.uleb128 0xb
 3477 00ff 49       		.uleb128 0x49
 3478 0100 13       		.uleb128 0x13
 3479 0101 00       		.byte	0
 3480 0102 00       		.byte	0
 3481 0103 16       		.uleb128 0x16
 3482 0104 2E       		.uleb128 0x2e
 3483 0105 01       		.byte	0x1
 3484 0106 3F       		.uleb128 0x3f
 3485 0107 19       		.uleb128 0x19
ARM GAS  /tmp/ccc7VhL9.s 			page 63


 3486 0108 03       		.uleb128 0x3
 3487 0109 0E       		.uleb128 0xe
 3488 010a 3A       		.uleb128 0x3a
 3489 010b 0B       		.uleb128 0xb
 3490 010c 3B       		.uleb128 0x3b
 3491 010d 0B       		.uleb128 0xb
 3492 010e 27       		.uleb128 0x27
 3493 010f 19       		.uleb128 0x19
 3494 0110 11       		.uleb128 0x11
 3495 0111 01       		.uleb128 0x1
 3496 0112 12       		.uleb128 0x12
 3497 0113 06       		.uleb128 0x6
 3498 0114 40       		.uleb128 0x40
 3499 0115 18       		.uleb128 0x18
 3500 0116 9742     		.uleb128 0x2117
 3501 0118 19       		.uleb128 0x19
 3502 0119 01       		.uleb128 0x1
 3503 011a 13       		.uleb128 0x13
 3504 011b 00       		.byte	0
 3505 011c 00       		.byte	0
 3506 011d 17       		.uleb128 0x17
 3507 011e 05       		.uleb128 0x5
 3508 011f 00       		.byte	0
 3509 0120 03       		.uleb128 0x3
 3510 0121 08       		.uleb128 0x8
 3511 0122 3A       		.uleb128 0x3a
 3512 0123 0B       		.uleb128 0xb
 3513 0124 3B       		.uleb128 0x3b
 3514 0125 0B       		.uleb128 0xb
 3515 0126 49       		.uleb128 0x49
 3516 0127 13       		.uleb128 0x13
 3517 0128 02       		.uleb128 0x2
 3518 0129 17       		.uleb128 0x17
 3519 012a 00       		.byte	0
 3520 012b 00       		.byte	0
 3521 012c 18       		.uleb128 0x18
 3522 012d 05       		.uleb128 0x5
 3523 012e 00       		.byte	0
 3524 012f 03       		.uleb128 0x3
 3525 0130 0E       		.uleb128 0xe
 3526 0131 3A       		.uleb128 0x3a
 3527 0132 0B       		.uleb128 0xb
 3528 0133 3B       		.uleb128 0x3b
 3529 0134 0B       		.uleb128 0xb
 3530 0135 49       		.uleb128 0x49
 3531 0136 13       		.uleb128 0x13
 3532 0137 02       		.uleb128 0x2
 3533 0138 17       		.uleb128 0x17
 3534 0139 00       		.byte	0
 3535 013a 00       		.byte	0
 3536 013b 19       		.uleb128 0x19
 3537 013c 0B       		.uleb128 0xb
 3538 013d 01       		.byte	0x1
 3539 013e 11       		.uleb128 0x11
 3540 013f 01       		.uleb128 0x1
 3541 0140 12       		.uleb128 0x12
 3542 0141 06       		.uleb128 0x6
ARM GAS  /tmp/ccc7VhL9.s 			page 64


 3543 0142 01       		.uleb128 0x1
 3544 0143 13       		.uleb128 0x13
 3545 0144 00       		.byte	0
 3546 0145 00       		.byte	0
 3547 0146 1A       		.uleb128 0x1a
 3548 0147 34       		.uleb128 0x34
 3549 0148 00       		.byte	0
 3550 0149 03       		.uleb128 0x3
 3551 014a 08       		.uleb128 0x8
 3552 014b 3A       		.uleb128 0x3a
 3553 014c 0B       		.uleb128 0xb
 3554 014d 3B       		.uleb128 0x3b
 3555 014e 0B       		.uleb128 0xb
 3556 014f 49       		.uleb128 0x49
 3557 0150 13       		.uleb128 0x13
 3558 0151 02       		.uleb128 0x2
 3559 0152 18       		.uleb128 0x18
 3560 0153 00       		.byte	0
 3561 0154 00       		.byte	0
 3562 0155 1B       		.uleb128 0x1b
 3563 0156 898201   		.uleb128 0x4109
 3564 0159 01       		.byte	0x1
 3565 015a 11       		.uleb128 0x11
 3566 015b 01       		.uleb128 0x1
 3567 015c 31       		.uleb128 0x31
 3568 015d 13       		.uleb128 0x13
 3569 015e 01       		.uleb128 0x1
 3570 015f 13       		.uleb128 0x13
 3571 0160 00       		.byte	0
 3572 0161 00       		.byte	0
 3573 0162 1C       		.uleb128 0x1c
 3574 0163 8A8201   		.uleb128 0x410a
 3575 0166 00       		.byte	0
 3576 0167 02       		.uleb128 0x2
 3577 0168 18       		.uleb128 0x18
 3578 0169 9142     		.uleb128 0x2111
 3579 016b 18       		.uleb128 0x18
 3580 016c 00       		.byte	0
 3581 016d 00       		.byte	0
 3582 016e 1D       		.uleb128 0x1d
 3583 016f 898201   		.uleb128 0x4109
 3584 0172 00       		.byte	0
 3585 0173 11       		.uleb128 0x11
 3586 0174 01       		.uleb128 0x1
 3587 0175 31       		.uleb128 0x31
 3588 0176 13       		.uleb128 0x13
 3589 0177 00       		.byte	0
 3590 0178 00       		.byte	0
 3591 0179 1E       		.uleb128 0x1e
 3592 017a 34       		.uleb128 0x34
 3593 017b 00       		.byte	0
 3594 017c 03       		.uleb128 0x3
 3595 017d 08       		.uleb128 0x8
 3596 017e 3A       		.uleb128 0x3a
 3597 017f 0B       		.uleb128 0xb
 3598 0180 3B       		.uleb128 0x3b
 3599 0181 0B       		.uleb128 0xb
ARM GAS  /tmp/ccc7VhL9.s 			page 65


 3600 0182 49       		.uleb128 0x49
 3601 0183 13       		.uleb128 0x13
 3602 0184 02       		.uleb128 0x2
 3603 0185 17       		.uleb128 0x17
 3604 0186 00       		.byte	0
 3605 0187 00       		.byte	0
 3606 0188 1F       		.uleb128 0x1f
 3607 0189 0B       		.uleb128 0xb
 3608 018a 01       		.byte	0x1
 3609 018b 55       		.uleb128 0x55
 3610 018c 17       		.uleb128 0x17
 3611 018d 01       		.uleb128 0x1
 3612 018e 13       		.uleb128 0x13
 3613 018f 00       		.byte	0
 3614 0190 00       		.byte	0
 3615 0191 20       		.uleb128 0x20
 3616 0192 898201   		.uleb128 0x4109
 3617 0195 01       		.byte	0x1
 3618 0196 11       		.uleb128 0x11
 3619 0197 01       		.uleb128 0x1
 3620 0198 31       		.uleb128 0x31
 3621 0199 13       		.uleb128 0x13
 3622 019a 00       		.byte	0
 3623 019b 00       		.byte	0
 3624 019c 21       		.uleb128 0x21
 3625 019d 2E       		.uleb128 0x2e
 3626 019e 01       		.byte	0x1
 3627 019f 3F       		.uleb128 0x3f
 3628 01a0 19       		.uleb128 0x19
 3629 01a1 03       		.uleb128 0x3
 3630 01a2 0E       		.uleb128 0xe
 3631 01a3 3A       		.uleb128 0x3a
 3632 01a4 0B       		.uleb128 0xb
 3633 01a5 3B       		.uleb128 0x3b
 3634 01a6 0B       		.uleb128 0xb
 3635 01a7 27       		.uleb128 0x27
 3636 01a8 19       		.uleb128 0x19
 3637 01a9 49       		.uleb128 0x49
 3638 01aa 13       		.uleb128 0x13
 3639 01ab 11       		.uleb128 0x11
 3640 01ac 01       		.uleb128 0x1
 3641 01ad 12       		.uleb128 0x12
 3642 01ae 06       		.uleb128 0x6
 3643 01af 40       		.uleb128 0x40
 3644 01b0 18       		.uleb128 0x18
 3645 01b1 9742     		.uleb128 0x2117
 3646 01b3 19       		.uleb128 0x19
 3647 01b4 01       		.uleb128 0x1
 3648 01b5 13       		.uleb128 0x13
 3649 01b6 00       		.byte	0
 3650 01b7 00       		.byte	0
 3651 01b8 22       		.uleb128 0x22
 3652 01b9 34       		.uleb128 0x34
 3653 01ba 00       		.byte	0
 3654 01bb 03       		.uleb128 0x3
 3655 01bc 0E       		.uleb128 0xe
 3656 01bd 3A       		.uleb128 0x3a
ARM GAS  /tmp/ccc7VhL9.s 			page 66


 3657 01be 0B       		.uleb128 0xb
 3658 01bf 3B       		.uleb128 0x3b
 3659 01c0 0B       		.uleb128 0xb
 3660 01c1 49       		.uleb128 0x49
 3661 01c2 13       		.uleb128 0x13
 3662 01c3 02       		.uleb128 0x2
 3663 01c4 18       		.uleb128 0x18
 3664 01c5 00       		.byte	0
 3665 01c6 00       		.byte	0
 3666 01c7 23       		.uleb128 0x23
 3667 01c8 2E       		.uleb128 0x2e
 3668 01c9 01       		.byte	0x1
 3669 01ca 31       		.uleb128 0x31
 3670 01cb 13       		.uleb128 0x13
 3671 01cc 11       		.uleb128 0x11
 3672 01cd 01       		.uleb128 0x1
 3673 01ce 12       		.uleb128 0x12
 3674 01cf 06       		.uleb128 0x6
 3675 01d0 40       		.uleb128 0x40
 3676 01d1 18       		.uleb128 0x18
 3677 01d2 9742     		.uleb128 0x2117
 3678 01d4 19       		.uleb128 0x19
 3679 01d5 01       		.uleb128 0x1
 3680 01d6 13       		.uleb128 0x13
 3681 01d7 00       		.byte	0
 3682 01d8 00       		.byte	0
 3683 01d9 24       		.uleb128 0x24
 3684 01da 05       		.uleb128 0x5
 3685 01db 00       		.byte	0
 3686 01dc 31       		.uleb128 0x31
 3687 01dd 13       		.uleb128 0x13
 3688 01de 02       		.uleb128 0x2
 3689 01df 17       		.uleb128 0x17
 3690 01e0 00       		.byte	0
 3691 01e1 00       		.byte	0
 3692 01e2 25       		.uleb128 0x25
 3693 01e3 2E       		.uleb128 0x2e
 3694 01e4 01       		.byte	0x1
 3695 01e5 3F       		.uleb128 0x3f
 3696 01e6 19       		.uleb128 0x19
 3697 01e7 03       		.uleb128 0x3
 3698 01e8 0E       		.uleb128 0xe
 3699 01e9 3A       		.uleb128 0x3a
 3700 01ea 0B       		.uleb128 0xb
 3701 01eb 3B       		.uleb128 0x3b
 3702 01ec 05       		.uleb128 0x5
 3703 01ed 27       		.uleb128 0x27
 3704 01ee 19       		.uleb128 0x19
 3705 01ef 11       		.uleb128 0x11
 3706 01f0 01       		.uleb128 0x1
 3707 01f1 12       		.uleb128 0x12
 3708 01f2 06       		.uleb128 0x6
 3709 01f3 40       		.uleb128 0x40
 3710 01f4 18       		.uleb128 0x18
 3711 01f5 9742     		.uleb128 0x2117
 3712 01f7 19       		.uleb128 0x19
 3713 01f8 01       		.uleb128 0x1
ARM GAS  /tmp/ccc7VhL9.s 			page 67


 3714 01f9 13       		.uleb128 0x13
 3715 01fa 00       		.byte	0
 3716 01fb 00       		.byte	0
 3717 01fc 26       		.uleb128 0x26
 3718 01fd 05       		.uleb128 0x5
 3719 01fe 00       		.byte	0
 3720 01ff 03       		.uleb128 0x3
 3721 0200 08       		.uleb128 0x8
 3722 0201 3A       		.uleb128 0x3a
 3723 0202 0B       		.uleb128 0xb
 3724 0203 3B       		.uleb128 0x3b
 3725 0204 05       		.uleb128 0x5
 3726 0205 49       		.uleb128 0x49
 3727 0206 13       		.uleb128 0x13
 3728 0207 02       		.uleb128 0x2
 3729 0208 17       		.uleb128 0x17
 3730 0209 00       		.byte	0
 3731 020a 00       		.byte	0
 3732 020b 27       		.uleb128 0x27
 3733 020c 05       		.uleb128 0x5
 3734 020d 00       		.byte	0
 3735 020e 03       		.uleb128 0x3
 3736 020f 0E       		.uleb128 0xe
 3737 0210 3A       		.uleb128 0x3a
 3738 0211 0B       		.uleb128 0xb
 3739 0212 3B       		.uleb128 0x3b
 3740 0213 05       		.uleb128 0x5
 3741 0214 49       		.uleb128 0x49
 3742 0215 13       		.uleb128 0x13
 3743 0216 02       		.uleb128 0x2
 3744 0217 17       		.uleb128 0x17
 3745 0218 00       		.byte	0
 3746 0219 00       		.byte	0
 3747 021a 28       		.uleb128 0x28
 3748 021b 34       		.uleb128 0x34
 3749 021c 00       		.byte	0
 3750 021d 03       		.uleb128 0x3
 3751 021e 08       		.uleb128 0x8
 3752 021f 3A       		.uleb128 0x3a
 3753 0220 0B       		.uleb128 0xb
 3754 0221 3B       		.uleb128 0x3b
 3755 0222 05       		.uleb128 0x5
 3756 0223 49       		.uleb128 0x49
 3757 0224 13       		.uleb128 0x13
 3758 0225 02       		.uleb128 0x2
 3759 0226 18       		.uleb128 0x18
 3760 0227 00       		.byte	0
 3761 0228 00       		.byte	0
 3762 0229 29       		.uleb128 0x29
 3763 022a 2E       		.uleb128 0x2e
 3764 022b 01       		.byte	0x1
 3765 022c 3F       		.uleb128 0x3f
 3766 022d 19       		.uleb128 0x19
 3767 022e 03       		.uleb128 0x3
 3768 022f 0E       		.uleb128 0xe
 3769 0230 3A       		.uleb128 0x3a
 3770 0231 0B       		.uleb128 0xb
ARM GAS  /tmp/ccc7VhL9.s 			page 68


 3771 0232 3B       		.uleb128 0x3b
 3772 0233 05       		.uleb128 0x5
 3773 0234 27       		.uleb128 0x27
 3774 0235 19       		.uleb128 0x19
 3775 0236 49       		.uleb128 0x49
 3776 0237 13       		.uleb128 0x13
 3777 0238 11       		.uleb128 0x11
 3778 0239 01       		.uleb128 0x1
 3779 023a 12       		.uleb128 0x12
 3780 023b 06       		.uleb128 0x6
 3781 023c 40       		.uleb128 0x40
 3782 023d 18       		.uleb128 0x18
 3783 023e 9742     		.uleb128 0x2117
 3784 0240 19       		.uleb128 0x19
 3785 0241 01       		.uleb128 0x1
 3786 0242 13       		.uleb128 0x13
 3787 0243 00       		.byte	0
 3788 0244 00       		.byte	0
 3789 0245 2A       		.uleb128 0x2a
 3790 0246 34       		.uleb128 0x34
 3791 0247 00       		.byte	0
 3792 0248 03       		.uleb128 0x3
 3793 0249 0E       		.uleb128 0xe
 3794 024a 3A       		.uleb128 0x3a
 3795 024b 0B       		.uleb128 0xb
 3796 024c 3B       		.uleb128 0x3b
 3797 024d 05       		.uleb128 0x5
 3798 024e 49       		.uleb128 0x49
 3799 024f 13       		.uleb128 0x13
 3800 0250 02       		.uleb128 0x2
 3801 0251 18       		.uleb128 0x18
 3802 0252 00       		.byte	0
 3803 0253 00       		.byte	0
 3804 0254 2B       		.uleb128 0x2b
 3805 0255 34       		.uleb128 0x34
 3806 0256 00       		.byte	0
 3807 0257 03       		.uleb128 0x3
 3808 0258 08       		.uleb128 0x8
 3809 0259 3A       		.uleb128 0x3a
 3810 025a 0B       		.uleb128 0xb
 3811 025b 3B       		.uleb128 0x3b
 3812 025c 05       		.uleb128 0x5
 3813 025d 49       		.uleb128 0x49
 3814 025e 13       		.uleb128 0x13
 3815 025f 02       		.uleb128 0x2
 3816 0260 17       		.uleb128 0x17
 3817 0261 00       		.byte	0
 3818 0262 00       		.byte	0
 3819 0263 2C       		.uleb128 0x2c
 3820 0264 898201   		.uleb128 0x4109
 3821 0267 01       		.byte	0x1
 3822 0268 11       		.uleb128 0x11
 3823 0269 01       		.uleb128 0x1
 3824 026a 01       		.uleb128 0x1
 3825 026b 13       		.uleb128 0x13
 3826 026c 00       		.byte	0
 3827 026d 00       		.byte	0
ARM GAS  /tmp/ccc7VhL9.s 			page 69


 3828 026e 2D       		.uleb128 0x2d
 3829 026f 34       		.uleb128 0x34
 3830 0270 00       		.byte	0
 3831 0271 03       		.uleb128 0x3
 3832 0272 0E       		.uleb128 0xe
 3833 0273 3A       		.uleb128 0x3a
 3834 0274 0B       		.uleb128 0xb
 3835 0275 3B       		.uleb128 0x3b
 3836 0276 0B       		.uleb128 0xb
 3837 0277 49       		.uleb128 0x49
 3838 0278 13       		.uleb128 0x13
 3839 0279 3F       		.uleb128 0x3f
 3840 027a 19       		.uleb128 0x19
 3841 027b 3C       		.uleb128 0x3c
 3842 027c 19       		.uleb128 0x19
 3843 027d 00       		.byte	0
 3844 027e 00       		.byte	0
 3845 027f 2E       		.uleb128 0x2e
 3846 0280 2E       		.uleb128 0x2e
 3847 0281 01       		.byte	0x1
 3848 0282 3F       		.uleb128 0x3f
 3849 0283 19       		.uleb128 0x19
 3850 0284 03       		.uleb128 0x3
 3851 0285 0E       		.uleb128 0xe
 3852 0286 3A       		.uleb128 0x3a
 3853 0287 0B       		.uleb128 0xb
 3854 0288 3B       		.uleb128 0x3b
 3855 0289 0B       		.uleb128 0xb
 3856 028a 27       		.uleb128 0x27
 3857 028b 19       		.uleb128 0x19
 3858 028c 3C       		.uleb128 0x3c
 3859 028d 19       		.uleb128 0x19
 3860 028e 01       		.uleb128 0x1
 3861 028f 13       		.uleb128 0x13
 3862 0290 00       		.byte	0
 3863 0291 00       		.byte	0
 3864 0292 2F       		.uleb128 0x2f
 3865 0293 2E       		.uleb128 0x2e
 3866 0294 00       		.byte	0
 3867 0295 3F       		.uleb128 0x3f
 3868 0296 19       		.uleb128 0x19
 3869 0297 03       		.uleb128 0x3
 3870 0298 0E       		.uleb128 0xe
 3871 0299 3A       		.uleb128 0x3a
 3872 029a 0B       		.uleb128 0xb
 3873 029b 3B       		.uleb128 0x3b
 3874 029c 0B       		.uleb128 0xb
 3875 029d 27       		.uleb128 0x27
 3876 029e 19       		.uleb128 0x19
 3877 029f 3C       		.uleb128 0x3c
 3878 02a0 19       		.uleb128 0x19
 3879 02a1 00       		.byte	0
 3880 02a2 00       		.byte	0
 3881 02a3 30       		.uleb128 0x30
 3882 02a4 2E       		.uleb128 0x2e
 3883 02a5 01       		.byte	0x1
 3884 02a6 3F       		.uleb128 0x3f
ARM GAS  /tmp/ccc7VhL9.s 			page 70


 3885 02a7 19       		.uleb128 0x19
 3886 02a8 03       		.uleb128 0x3
 3887 02a9 0E       		.uleb128 0xe
 3888 02aa 3A       		.uleb128 0x3a
 3889 02ab 0B       		.uleb128 0xb
 3890 02ac 3B       		.uleb128 0x3b
 3891 02ad 0B       		.uleb128 0xb
 3892 02ae 27       		.uleb128 0x27
 3893 02af 19       		.uleb128 0x19
 3894 02b0 49       		.uleb128 0x49
 3895 02b1 13       		.uleb128 0x13
 3896 02b2 3C       		.uleb128 0x3c
 3897 02b3 19       		.uleb128 0x19
 3898 02b4 01       		.uleb128 0x1
 3899 02b5 13       		.uleb128 0x13
 3900 02b6 00       		.byte	0
 3901 02b7 00       		.byte	0
 3902 02b8 31       		.uleb128 0x31
 3903 02b9 2E       		.uleb128 0x2e
 3904 02ba 01       		.byte	0x1
 3905 02bb 3F       		.uleb128 0x3f
 3906 02bc 19       		.uleb128 0x19
 3907 02bd 03       		.uleb128 0x3
 3908 02be 0E       		.uleb128 0xe
 3909 02bf 3A       		.uleb128 0x3a
 3910 02c0 0B       		.uleb128 0xb
 3911 02c1 3B       		.uleb128 0x3b
 3912 02c2 0B       		.uleb128 0xb
 3913 02c3 27       		.uleb128 0x27
 3914 02c4 19       		.uleb128 0x19
 3915 02c5 49       		.uleb128 0x49
 3916 02c6 13       		.uleb128 0x13
 3917 02c7 3C       		.uleb128 0x3c
 3918 02c8 19       		.uleb128 0x19
 3919 02c9 00       		.byte	0
 3920 02ca 00       		.byte	0
 3921 02cb 00       		.byte	0
 3922              		.section	.debug_loc,"",%progbits
 3923              	.Ldebug_loc0:
 3924              	.LLST0:
 3925 0000 00000000 		.4byte	.LVL0
 3926 0004 14000000 		.4byte	.LVL1
 3927 0008 0100     		.2byte	0x1
 3928 000a 50       		.byte	0x50
 3929 000b 14000000 		.4byte	.LVL1
 3930 000f 4A000000 		.4byte	.LFE7
 3931 0013 0100     		.2byte	0x1
 3932 0015 55       		.byte	0x55
 3933 0016 00000000 		.4byte	0
 3934 001a 00000000 		.4byte	0
 3935              	.LLST1:
 3936 001e 00000000 		.4byte	.LVL0
 3937 0022 1B000000 		.4byte	.LVL2-1
 3938 0026 0100     		.2byte	0x1
 3939 0028 51       		.byte	0x51
 3940 0029 1B000000 		.4byte	.LVL2-1
 3941 002d 4A000000 		.4byte	.LFE7
ARM GAS  /tmp/ccc7VhL9.s 			page 71


 3942 0031 0100     		.2byte	0x1
 3943 0033 54       		.byte	0x54
 3944 0034 00000000 		.4byte	0
 3945 0038 00000000 		.4byte	0
 3946              	.LLST2:
 3947 003c 00000000 		.4byte	.LVL0
 3948 0040 1B000000 		.4byte	.LVL2-1
 3949 0044 0100     		.2byte	0x1
 3950 0046 52       		.byte	0x52
 3951 0047 1B000000 		.4byte	.LVL2-1
 3952 004b 4A000000 		.4byte	.LFE7
 3953 004f 0100     		.2byte	0x1
 3954 0051 57       		.byte	0x57
 3955 0052 00000000 		.4byte	0
 3956 0056 00000000 		.4byte	0
 3957              	.LLST3:
 3958 005a 00000000 		.4byte	.LVL5
 3959 005e 0E000000 		.4byte	.LVL6
 3960 0062 0100     		.2byte	0x1
 3961 0064 50       		.byte	0x50
 3962 0065 0E000000 		.4byte	.LVL6
 3963 0069 44000000 		.4byte	.LVL13
 3964 006d 0100     		.2byte	0x1
 3965 006f 54       		.byte	0x54
 3966 0070 44000000 		.4byte	.LVL13
 3967 0074 48000000 		.4byte	.LVL14
 3968 0078 0100     		.2byte	0x1
 3969 007a 50       		.byte	0x50
 3970 007b 48000000 		.4byte	.LVL14
 3971 007f 52000000 		.4byte	.LFE8
 3972 0083 0100     		.2byte	0x1
 3973 0085 54       		.byte	0x54
 3974 0086 00000000 		.4byte	0
 3975 008a 00000000 		.4byte	0
 3976              	.LLST4:
 3977 008e 00000000 		.4byte	.LVL5
 3978 0092 0E000000 		.4byte	.LVL6
 3979 0096 0100     		.2byte	0x1
 3980 0098 51       		.byte	0x51
 3981 0099 0E000000 		.4byte	.LVL6
 3982 009d 44000000 		.4byte	.LVL13
 3983 00a1 0100     		.2byte	0x1
 3984 00a3 55       		.byte	0x55
 3985 00a4 44000000 		.4byte	.LVL13
 3986 00a8 4F000000 		.4byte	.LVL15-1
 3987 00ac 0100     		.2byte	0x1
 3988 00ae 51       		.byte	0x51
 3989 00af 4F000000 		.4byte	.LVL15-1
 3990 00b3 52000000 		.4byte	.LFE8
 3991 00b7 0100     		.2byte	0x1
 3992 00b9 55       		.byte	0x55
 3993 00ba 00000000 		.4byte	0
 3994 00be 00000000 		.4byte	0
 3995              	.LLST5:
 3996 00c2 0E000000 		.4byte	.LVL6
 3997 00c6 1C000000 		.4byte	.LVL8
 3998 00ca 0100     		.2byte	0x1
ARM GAS  /tmp/ccc7VhL9.s 			page 72


 3999 00cc 54       		.byte	0x54
 4000 00cd 1C000000 		.4byte	.LVL8
 4001 00d1 2B000000 		.4byte	.LVL10-1
 4002 00d5 0100     		.2byte	0x1
 4003 00d7 52       		.byte	0x52
 4004 00d8 34000000 		.4byte	.LVL11
 4005 00dc 3B000000 		.4byte	.LVL12-1
 4006 00e0 0100     		.2byte	0x1
 4007 00e2 52       		.byte	0x52
 4008 00e3 00000000 		.4byte	0
 4009 00e7 00000000 		.4byte	0
 4010              	.LLST6:
 4011 00eb 00000000 		.4byte	.LVL16
 4012 00ef 0D000000 		.4byte	.LVL17-1
 4013 00f3 0100     		.2byte	0x1
 4014 00f5 50       		.byte	0x50
 4015 00f6 0D000000 		.4byte	.LVL17-1
 4016 00fa 22000000 		.4byte	.LVL18
 4017 00fe 0100     		.2byte	0x1
 4018 0100 54       		.byte	0x54
 4019 0101 22000000 		.4byte	.LVL18
 4020 0105 30000000 		.4byte	.LFE9
 4021 0109 0400     		.2byte	0x4
 4022 010b F3       		.byte	0xf3
 4023 010c 01       		.uleb128 0x1
 4024 010d 50       		.byte	0x50
 4025 010e 9F       		.byte	0x9f
 4026 010f 00000000 		.4byte	0
 4027 0113 00000000 		.4byte	0
 4028              	.LLST7:
 4029 0117 00000000 		.4byte	.LVL20
 4030 011b 0D000000 		.4byte	.LVL21-1
 4031 011f 0100     		.2byte	0x1
 4032 0121 50       		.byte	0x50
 4033 0122 0D000000 		.4byte	.LVL21-1
 4034 0126 1C000000 		.4byte	.LVL22
 4035 012a 0100     		.2byte	0x1
 4036 012c 54       		.byte	0x54
 4037 012d 1C000000 		.4byte	.LVL22
 4038 0131 1E000000 		.4byte	.LVL23
 4039 0135 0400     		.2byte	0x4
 4040 0137 F3       		.byte	0xf3
 4041 0138 01       		.uleb128 0x1
 4042 0139 50       		.byte	0x50
 4043 013a 9F       		.byte	0x9f
 4044 013b 1E000000 		.4byte	.LVL23
 4045 013f 2C000000 		.4byte	.LFE10
 4046 0143 0100     		.2byte	0x1
 4047 0145 54       		.byte	0x54
 4048 0146 00000000 		.4byte	0
 4049 014a 00000000 		.4byte	0
 4050              	.LLST8:
 4051 014e 00000000 		.4byte	.LVL25
 4052 0152 0F000000 		.4byte	.LVL26-1
 4053 0156 0100     		.2byte	0x1
 4054 0158 50       		.byte	0x50
 4055 0159 0F000000 		.4byte	.LVL26-1
ARM GAS  /tmp/ccc7VhL9.s 			page 73


 4056 015d 22000000 		.4byte	.LFE12
 4057 0161 0100     		.2byte	0x1
 4058 0163 55       		.byte	0x55
 4059 0164 00000000 		.4byte	0
 4060 0168 00000000 		.4byte	0
 4061              	.LLST9:
 4062 016c 00000000 		.4byte	.LVL29
 4063 0170 09000000 		.4byte	.LVL30-1
 4064 0174 0100     		.2byte	0x1
 4065 0176 50       		.byte	0x50
 4066 0177 09000000 		.4byte	.LVL30-1
 4067 017b 4C000000 		.4byte	.LFE14
 4068 017f 0100     		.2byte	0x1
 4069 0181 54       		.byte	0x54
 4070 0182 00000000 		.4byte	0
 4071 0186 00000000 		.4byte	0
 4072              	.LLST10:
 4073 018a 00000000 		.4byte	.LVL29
 4074 018e 09000000 		.4byte	.LVL30-1
 4075 0192 0100     		.2byte	0x1
 4076 0194 51       		.byte	0x51
 4077 0195 09000000 		.4byte	.LVL30-1
 4078 0199 4C000000 		.4byte	.LFE14
 4079 019d 0100     		.2byte	0x1
 4080 019f 55       		.byte	0x55
 4081 01a0 00000000 		.4byte	0
 4082 01a4 00000000 		.4byte	0
 4083              	.LLST11:
 4084 01a8 2A000000 		.4byte	.LVL32
 4085 01ac 36000000 		.4byte	.LVL34
 4086 01b0 0100     		.2byte	0x1
 4087 01b2 55       		.byte	0x55
 4088 01b3 00000000 		.4byte	0
 4089 01b7 00000000 		.4byte	0
 4090              	.LLST12:
 4091 01bb 2A000000 		.4byte	.LVL32
 4092 01bf 36000000 		.4byte	.LVL34
 4093 01c3 0100     		.2byte	0x1
 4094 01c5 54       		.byte	0x54
 4095 01c6 00000000 		.4byte	0
 4096 01ca 00000000 		.4byte	0
 4097              	.LLST13:
 4098 01ce 00000000 		.4byte	.LVL37
 4099 01d2 09000000 		.4byte	.LVL38-1
 4100 01d6 0100     		.2byte	0x1
 4101 01d8 50       		.byte	0x50
 4102 01d9 09000000 		.4byte	.LVL38-1
 4103 01dd 34000000 		.4byte	.LFE11
 4104 01e1 0100     		.2byte	0x1
 4105 01e3 55       		.byte	0x55
 4106 01e4 00000000 		.4byte	0
 4107 01e8 00000000 		.4byte	0
 4108              	.LLST14:
 4109 01ec 00000000 		.4byte	.LVL37
 4110 01f0 09000000 		.4byte	.LVL38-1
 4111 01f4 0100     		.2byte	0x1
 4112 01f6 51       		.byte	0x51
ARM GAS  /tmp/ccc7VhL9.s 			page 74


 4113 01f7 09000000 		.4byte	.LVL38-1
 4114 01fb 34000000 		.4byte	.LFE11
 4115 01ff 0100     		.2byte	0x1
 4116 0201 56       		.byte	0x56
 4117 0202 00000000 		.4byte	0
 4118 0206 00000000 		.4byte	0
 4119              	.LLST15:
 4120 020a 0E000000 		.4byte	.LVL39
 4121 020e 26000000 		.4byte	.LVL42
 4122 0212 0100     		.2byte	0x1
 4123 0214 54       		.byte	0x54
 4124 0215 00000000 		.4byte	0
 4125 0219 00000000 		.4byte	0
 4126              	.LLST16:
 4127 021d 00000000 		.4byte	.LVL44
 4128 0221 08000000 		.4byte	.LVL45
 4129 0225 0100     		.2byte	0x1
 4130 0227 50       		.byte	0x50
 4131 0228 08000000 		.4byte	.LVL45
 4132 022c 2A000000 		.4byte	.LVL50
 4133 0230 0100     		.2byte	0x1
 4134 0232 54       		.byte	0x54
 4135 0233 2A000000 		.4byte	.LVL50
 4136 0237 2E000000 		.4byte	.LVL51
 4137 023b 0100     		.2byte	0x1
 4138 023d 50       		.byte	0x50
 4139 023e 2E000000 		.4byte	.LVL51
 4140 0242 38000000 		.4byte	.LFE13
 4141 0246 0100     		.2byte	0x1
 4142 0248 54       		.byte	0x54
 4143 0249 00000000 		.4byte	0
 4144 024d 00000000 		.4byte	0
 4145              	.LLST17:
 4146 0251 00000000 		.4byte	.LVL44
 4147 0255 08000000 		.4byte	.LVL45
 4148 0259 0100     		.2byte	0x1
 4149 025b 51       		.byte	0x51
 4150 025c 08000000 		.4byte	.LVL45
 4151 0260 2A000000 		.4byte	.LVL50
 4152 0264 0100     		.2byte	0x1
 4153 0266 55       		.byte	0x55
 4154 0267 2A000000 		.4byte	.LVL50
 4155 026b 35000000 		.4byte	.LVL52-1
 4156 026f 0100     		.2byte	0x1
 4157 0271 51       		.byte	0x51
 4158 0272 35000000 		.4byte	.LVL52-1
 4159 0276 38000000 		.4byte	.LFE13
 4160 027a 0100     		.2byte	0x1
 4161 027c 55       		.byte	0x55
 4162 027d 00000000 		.4byte	0
 4163 0281 00000000 		.4byte	0
 4164              	.LLST18:
 4165 0285 00000000 		.4byte	.LVL53
 4166 0289 0F000000 		.4byte	.LVL54-1
 4167 028d 0100     		.2byte	0x1
 4168 028f 50       		.byte	0x50
 4169 0290 0F000000 		.4byte	.LVL54-1
ARM GAS  /tmp/ccc7VhL9.s 			page 75


 4170 0294 28000000 		.4byte	.LFE15
 4171 0298 0100     		.2byte	0x1
 4172 029a 55       		.byte	0x55
 4173 029b 00000000 		.4byte	0
 4174 029f 00000000 		.4byte	0
 4175              	.LLST19:
 4176 02a3 00000000 		.4byte	.LVL53
 4177 02a7 0F000000 		.4byte	.LVL54-1
 4178 02ab 0100     		.2byte	0x1
 4179 02ad 51       		.byte	0x51
 4180 02ae 0F000000 		.4byte	.LVL54-1
 4181 02b2 28000000 		.4byte	.LFE15
 4182 02b6 0100     		.2byte	0x1
 4183 02b8 54       		.byte	0x54
 4184 02b9 00000000 		.4byte	0
 4185 02bd 00000000 		.4byte	0
 4186              	.LLST20:
 4187 02c1 00000000 		.4byte	.LVL58
 4188 02c5 06000000 		.4byte	.LVL59
 4189 02c9 0100     		.2byte	0x1
 4190 02cb 50       		.byte	0x50
 4191 02cc 06000000 		.4byte	.LVL59
 4192 02d0 0A000000 		.4byte	.LFE16
 4193 02d4 0100     		.2byte	0x1
 4194 02d6 53       		.byte	0x53
 4195 02d7 00000000 		.4byte	0
 4196 02db 00000000 		.4byte	0
 4197              	.LLST21:
 4198 02df 00000000 		.4byte	.LVL60
 4199 02e3 0A000000 		.4byte	.LVL61
 4200 02e7 0100     		.2byte	0x1
 4201 02e9 50       		.byte	0x50
 4202 02ea 0A000000 		.4byte	.LVL61
 4203 02ee 48000000 		.4byte	.LVL69
 4204 02f2 0100     		.2byte	0x1
 4205 02f4 59       		.byte	0x59
 4206 02f5 48000000 		.4byte	.LVL69
 4207 02f9 4C000000 		.4byte	.LVL70
 4208 02fd 0100     		.2byte	0x1
 4209 02ff 50       		.byte	0x50
 4210 0300 4C000000 		.4byte	.LVL70
 4211 0304 56000000 		.4byte	.LFE17
 4212 0308 0100     		.2byte	0x1
 4213 030a 59       		.byte	0x59
 4214 030b 00000000 		.4byte	0
 4215 030f 00000000 		.4byte	0
 4216              	.LLST22:
 4217 0313 00000000 		.4byte	.LVL60
 4218 0317 0A000000 		.4byte	.LVL61
 4219 031b 0100     		.2byte	0x1
 4220 031d 51       		.byte	0x51
 4221 031e 0A000000 		.4byte	.LVL61
 4222 0322 48000000 		.4byte	.LVL69
 4223 0326 0100     		.2byte	0x1
 4224 0328 55       		.byte	0x55
 4225 0329 48000000 		.4byte	.LVL69
 4226 032d 53000000 		.4byte	.LVL71-1
ARM GAS  /tmp/ccc7VhL9.s 			page 76


 4227 0331 0100     		.2byte	0x1
 4228 0333 51       		.byte	0x51
 4229 0334 53000000 		.4byte	.LVL71-1
 4230 0338 56000000 		.4byte	.LFE17
 4231 033c 0100     		.2byte	0x1
 4232 033e 55       		.byte	0x55
 4233 033f 00000000 		.4byte	0
 4234 0343 00000000 		.4byte	0
 4235              	.LLST23:
 4236 0347 0A000000 		.4byte	.LVL61
 4237 034b 14000000 		.4byte	.LVL62
 4238 034f 0200     		.2byte	0x2
 4239 0351 30       		.byte	0x30
 4240 0352 9F       		.byte	0x9f
 4241 0353 14000000 		.4byte	.LVL62
 4242 0357 32000000 		.4byte	.LVL66
 4243 035b 0100     		.2byte	0x1
 4244 035d 54       		.byte	0x54
 4245 035e 36000000 		.4byte	.LVL67
 4246 0362 48000000 		.4byte	.LVL69
 4247 0366 0100     		.2byte	0x1
 4248 0368 54       		.byte	0x54
 4249 0369 00000000 		.4byte	0
 4250 036d 00000000 		.4byte	0
 4251              	.LLST24:
 4252 0371 00000000 		.4byte	.LVL72
 4253 0375 17000000 		.4byte	.LVL74-1
 4254 0379 0100     		.2byte	0x1
 4255 037b 50       		.byte	0x50
 4256 037c 17000000 		.4byte	.LVL74-1
 4257 0380 30000000 		.4byte	.LVL79
 4258 0384 0100     		.2byte	0x1
 4259 0386 54       		.byte	0x54
 4260 0387 30000000 		.4byte	.LVL79
 4261 038b 46000000 		.4byte	.LFE18
 4262 038f 0400     		.2byte	0x4
 4263 0391 F3       		.byte	0xf3
 4264 0392 01       		.uleb128 0x1
 4265 0393 50       		.byte	0x50
 4266 0394 9F       		.byte	0x9f
 4267 0395 00000000 		.4byte	0
 4268 0399 00000000 		.4byte	0
 4269              	.LLST25:
 4270 039d 1A000000 		.4byte	.LVL75
 4271 03a1 1E000000 		.4byte	.LVL76
 4272 03a5 0600     		.2byte	0x6
 4273 03a7 74       		.byte	0x74
 4274 03a8 00       		.sleb128 0
 4275 03a9 73       		.byte	0x73
 4276 03aa 00       		.sleb128 0
 4277 03ab 1A       		.byte	0x1a
 4278 03ac 9F       		.byte	0x9f
 4279 03ad 1E000000 		.4byte	.LVL76
 4280 03b1 27000000 		.4byte	.LVL77-1
 4281 03b5 0100     		.2byte	0x1
 4282 03b7 52       		.byte	0x52
 4283 03b8 2E000000 		.4byte	.LVL78
ARM GAS  /tmp/ccc7VhL9.s 			page 77


 4284 03bc 32000000 		.4byte	.LVL80
 4285 03c0 0100     		.2byte	0x1
 4286 03c2 52       		.byte	0x52
 4287 03c3 32000000 		.4byte	.LVL80
 4288 03c7 46000000 		.4byte	.LFE18
 4289 03cb 0100     		.2byte	0x1
 4290 03cd 54       		.byte	0x54
 4291 03ce 00000000 		.4byte	0
 4292 03d2 00000000 		.4byte	0
 4293              	.LLST26:
 4294 03d6 00000000 		.4byte	.LVL82
 4295 03da 17000000 		.4byte	.LVL84-1
 4296 03de 0100     		.2byte	0x1
 4297 03e0 50       		.byte	0x50
 4298 03e1 17000000 		.4byte	.LVL84-1
 4299 03e5 42000000 		.4byte	.LFE19
 4300 03e9 0100     		.2byte	0x1
 4301 03eb 54       		.byte	0x54
 4302 03ec 00000000 		.4byte	0
 4303 03f0 00000000 		.4byte	0
 4304              	.LLST27:
 4305 03f4 1A000000 		.4byte	.LVL85
 4306 03f8 1E000000 		.4byte	.LVL86
 4307 03fc 0600     		.2byte	0x6
 4308 03fe 74       		.byte	0x74
 4309 03ff 00       		.sleb128 0
 4310 0400 73       		.byte	0x73
 4311 0401 00       		.sleb128 0
 4312 0402 1A       		.byte	0x1a
 4313 0403 9F       		.byte	0x9f
 4314 0404 1E000000 		.4byte	.LVL86
 4315 0408 42000000 		.4byte	.LFE19
 4316 040c 0100     		.2byte	0x1
 4317 040e 56       		.byte	0x56
 4318 040f 00000000 		.4byte	0
 4319 0413 00000000 		.4byte	0
 4320              	.LLST28:
 4321 0417 00000000 		.4byte	.LVL90
 4322 041b 17000000 		.4byte	.LVL92-1
 4323 041f 0100     		.2byte	0x1
 4324 0421 50       		.byte	0x50
 4325 0422 17000000 		.4byte	.LVL92-1
 4326 0426 40000000 		.4byte	.LFE20
 4327 042a 0100     		.2byte	0x1
 4328 042c 54       		.byte	0x54
 4329 042d 00000000 		.4byte	0
 4330 0431 00000000 		.4byte	0
 4331              	.LLST29:
 4332 0435 00000000 		.4byte	.LVL95
 4333 0439 19000000 		.4byte	.LVL97-1
 4334 043d 0100     		.2byte	0x1
 4335 043f 50       		.byte	0x50
 4336 0440 19000000 		.4byte	.LVL97-1
 4337 0444 6E000000 		.4byte	.LFE21
 4338 0448 0100     		.2byte	0x1
 4339 044a 54       		.byte	0x54
 4340 044b 00000000 		.4byte	0
ARM GAS  /tmp/ccc7VhL9.s 			page 78


 4341 044f 00000000 		.4byte	0
 4342              	.LLST30:
 4343 0453 00000000 		.4byte	.LVL95
 4344 0457 19000000 		.4byte	.LVL97-1
 4345 045b 0100     		.2byte	0x1
 4346 045d 51       		.byte	0x51
 4347 045e 19000000 		.4byte	.LVL97-1
 4348 0462 6E000000 		.4byte	.LFE21
 4349 0466 0100     		.2byte	0x1
 4350 0468 57       		.byte	0x57
 4351 0469 00000000 		.4byte	0
 4352 046d 00000000 		.4byte	0
 4353              	.LLST31:
 4354 0471 1C000000 		.4byte	.LVL98
 4355 0475 20000000 		.4byte	.LVL99
 4356 0479 0600     		.2byte	0x6
 4357 047b 74       		.byte	0x74
 4358 047c 00       		.sleb128 0
 4359 047d 72       		.byte	0x72
 4360 047e 00       		.sleb128 0
 4361 047f 1A       		.byte	0x1a
 4362 0480 9F       		.byte	0x9f
 4363 0481 20000000 		.4byte	.LVL99
 4364 0485 38000000 		.4byte	.LVL101
 4365 0489 0100     		.2byte	0x1
 4366 048b 56       		.byte	0x56
 4367 048c 3A000000 		.4byte	.LVL102
 4368 0490 60000000 		.4byte	.LVL107
 4369 0494 0100     		.2byte	0x1
 4370 0496 56       		.byte	0x56
 4371 0497 00000000 		.4byte	0
 4372 049b 00000000 		.4byte	0
 4373              	.LLST32:
 4374 049f 00000000 		.4byte	.LVL109
 4375 04a3 19000000 		.4byte	.LVL111-1
 4376 04a7 0100     		.2byte	0x1
 4377 04a9 50       		.byte	0x50
 4378 04aa 19000000 		.4byte	.LVL111-1
 4379 04ae 6A000000 		.4byte	.LFE22
 4380 04b2 0100     		.2byte	0x1
 4381 04b4 54       		.byte	0x54
 4382 04b5 00000000 		.4byte	0
 4383 04b9 00000000 		.4byte	0
 4384              	.LLST33:
 4385 04bd 00000000 		.4byte	.LVL109
 4386 04c1 19000000 		.4byte	.LVL111-1
 4387 04c5 0100     		.2byte	0x1
 4388 04c7 51       		.byte	0x51
 4389 04c8 19000000 		.4byte	.LVL111-1
 4390 04cc 6A000000 		.4byte	.LFE22
 4391 04d0 0100     		.2byte	0x1
 4392 04d2 57       		.byte	0x57
 4393 04d3 00000000 		.4byte	0
 4394 04d7 00000000 		.4byte	0
 4395              	.LLST34:
 4396 04db 1C000000 		.4byte	.LVL112
 4397 04df 20000000 		.4byte	.LVL113
ARM GAS  /tmp/ccc7VhL9.s 			page 79


 4398 04e3 0600     		.2byte	0x6
 4399 04e5 74       		.byte	0x74
 4400 04e6 00       		.sleb128 0
 4401 04e7 72       		.byte	0x72
 4402 04e8 00       		.sleb128 0
 4403 04e9 1A       		.byte	0x1a
 4404 04ea 9F       		.byte	0x9f
 4405 04eb 20000000 		.4byte	.LVL113
 4406 04ef 38000000 		.4byte	.LVL115
 4407 04f3 0100     		.2byte	0x1
 4408 04f5 56       		.byte	0x56
 4409 04f6 3A000000 		.4byte	.LVL116
 4410 04fa 5C000000 		.4byte	.LVL120
 4411 04fe 0100     		.2byte	0x1
 4412 0500 56       		.byte	0x56
 4413 0501 00000000 		.4byte	0
 4414 0505 00000000 		.4byte	0
 4415              	.LLST35:
 4416 0509 00000000 		.4byte	.LVL122
 4417 050d 19000000 		.4byte	.LVL124-1
 4418 0511 0100     		.2byte	0x1
 4419 0513 50       		.byte	0x50
 4420 0514 19000000 		.4byte	.LVL124-1
 4421 0518 66000000 		.4byte	.LFE23
 4422 051c 0100     		.2byte	0x1
 4423 051e 54       		.byte	0x54
 4424 051f 00000000 		.4byte	0
 4425 0523 00000000 		.4byte	0
 4426              	.LLST36:
 4427 0527 00000000 		.4byte	.LVL122
 4428 052b 19000000 		.4byte	.LVL124-1
 4429 052f 0100     		.2byte	0x1
 4430 0531 51       		.byte	0x51
 4431 0532 19000000 		.4byte	.LVL124-1
 4432 0536 66000000 		.4byte	.LFE23
 4433 053a 0100     		.2byte	0x1
 4434 053c 56       		.byte	0x56
 4435 053d 00000000 		.4byte	0
 4436 0541 00000000 		.4byte	0
 4437              		.section	.debug_aranges,"",%progbits
 4438 0000 9C000000 		.4byte	0x9c
 4439 0004 0200     		.2byte	0x2
 4440 0006 00000000 		.4byte	.Ldebug_info0
 4441 000a 04       		.byte	0x4
 4442 000b 00       		.byte	0
 4443 000c 0000     		.2byte	0
 4444 000e 0000     		.2byte	0
 4445 0010 00000000 		.4byte	.LFB7
 4446 0014 4A000000 		.4byte	.LFE7-.LFB7
 4447 0018 00000000 		.4byte	.LFB8
 4448 001c 52000000 		.4byte	.LFE8-.LFB8
 4449 0020 00000000 		.4byte	.LFB9
 4450 0024 30000000 		.4byte	.LFE9-.LFB9
 4451 0028 00000000 		.4byte	.LFB10
 4452 002c 2C000000 		.4byte	.LFE10-.LFB10
 4453 0030 00000000 		.4byte	.LFB12
 4454 0034 22000000 		.4byte	.LFE12-.LFB12
ARM GAS  /tmp/ccc7VhL9.s 			page 80


 4455 0038 00000000 		.4byte	.LFB14
 4456 003c 4C000000 		.4byte	.LFE14-.LFB14
 4457 0040 00000000 		.4byte	.LFB11
 4458 0044 34000000 		.4byte	.LFE11-.LFB11
 4459 0048 00000000 		.4byte	.LFB13
 4460 004c 38000000 		.4byte	.LFE13-.LFB13
 4461 0050 00000000 		.4byte	.LFB15
 4462 0054 28000000 		.4byte	.LFE15-.LFB15
 4463 0058 00000000 		.4byte	.LFB16
 4464 005c 0A000000 		.4byte	.LFE16-.LFB16
 4465 0060 00000000 		.4byte	.LFB17
 4466 0064 56000000 		.4byte	.LFE17-.LFB17
 4467 0068 00000000 		.4byte	.LFB18
 4468 006c 46000000 		.4byte	.LFE18-.LFB18
 4469 0070 00000000 		.4byte	.LFB19
 4470 0074 42000000 		.4byte	.LFE19-.LFB19
 4471 0078 00000000 		.4byte	.LFB20
 4472 007c 40000000 		.4byte	.LFE20-.LFB20
 4473 0080 00000000 		.4byte	.LFB21
 4474 0084 6E000000 		.4byte	.LFE21-.LFB21
 4475 0088 00000000 		.4byte	.LFB22
 4476 008c 6A000000 		.4byte	.LFE22-.LFB22
 4477 0090 00000000 		.4byte	.LFB23
 4478 0094 66000000 		.4byte	.LFE23-.LFB23
 4479 0098 00000000 		.4byte	0
 4480 009c 00000000 		.4byte	0
 4481              		.section	.debug_ranges,"",%progbits
 4482              	.Ldebug_ranges0:
 4483 0000 2C000000 		.4byte	.LBB5
 4484 0004 34000000 		.4byte	.LBE5
 4485 0008 3C000000 		.4byte	.LBB6
 4486 000c 44000000 		.4byte	.LBE6
 4487 0010 00000000 		.4byte	0
 4488 0014 00000000 		.4byte	0
 4489 0018 02000000 		.4byte	.LBB7
 4490 001c 04000000 		.4byte	.LBE7
 4491 0020 06000000 		.4byte	.LBB8
 4492 0024 0A000000 		.4byte	.LBE8
 4493 0028 00000000 		.4byte	0
 4494 002c 00000000 		.4byte	0
 4495 0030 02000000 		.4byte	.LBB10
 4496 0034 04000000 		.4byte	.LBE10
 4497 0038 06000000 		.4byte	.LBB11
 4498 003c 0A000000 		.4byte	.LBE11
 4499 0040 00000000 		.4byte	0
 4500 0044 00000000 		.4byte	0
 4501 0048 02000000 		.4byte	.LBB13
 4502 004c 04000000 		.4byte	.LBE13
 4503 0050 06000000 		.4byte	.LBB14
 4504 0054 0A000000 		.4byte	.LBE14
 4505 0058 00000000 		.4byte	0
 4506 005c 00000000 		.4byte	0
 4507 0060 0A000000 		.4byte	.LBB38
 4508 0064 0C000000 		.4byte	.LBE38
 4509 0068 12000000 		.4byte	.LBB39
 4510 006c 16000000 		.4byte	.LBE39
 4511 0070 00000000 		.4byte	0
ARM GAS  /tmp/ccc7VhL9.s 			page 81


 4512 0074 00000000 		.4byte	0
 4513 0078 00000000 		.4byte	.LFB7
 4514 007c 4A000000 		.4byte	.LFE7
 4515 0080 00000000 		.4byte	.LFB8
 4516 0084 52000000 		.4byte	.LFE8
 4517 0088 00000000 		.4byte	.LFB9
 4518 008c 30000000 		.4byte	.LFE9
 4519 0090 00000000 		.4byte	.LFB10
 4520 0094 2C000000 		.4byte	.LFE10
 4521 0098 00000000 		.4byte	.LFB12
 4522 009c 22000000 		.4byte	.LFE12
 4523 00a0 00000000 		.4byte	.LFB14
 4524 00a4 4C000000 		.4byte	.LFE14
 4525 00a8 00000000 		.4byte	.LFB11
 4526 00ac 34000000 		.4byte	.LFE11
 4527 00b0 00000000 		.4byte	.LFB13
 4528 00b4 38000000 		.4byte	.LFE13
 4529 00b8 00000000 		.4byte	.LFB15
 4530 00bc 28000000 		.4byte	.LFE15
 4531 00c0 00000000 		.4byte	.LFB16
 4532 00c4 0A000000 		.4byte	.LFE16
 4533 00c8 00000000 		.4byte	.LFB17
 4534 00cc 56000000 		.4byte	.LFE17
 4535 00d0 00000000 		.4byte	.LFB18
 4536 00d4 46000000 		.4byte	.LFE18
 4537 00d8 00000000 		.4byte	.LFB19
 4538 00dc 42000000 		.4byte	.LFE19
 4539 00e0 00000000 		.4byte	.LFB20
 4540 00e4 40000000 		.4byte	.LFE20
 4541 00e8 00000000 		.4byte	.LFB21
 4542 00ec 6E000000 		.4byte	.LFE21
 4543 00f0 00000000 		.4byte	.LFB22
 4544 00f4 6A000000 		.4byte	.LFE22
 4545 00f8 00000000 		.4byte	.LFB23
 4546 00fc 66000000 		.4byte	.LFE23
 4547 0100 00000000 		.4byte	0
 4548 0104 00000000 		.4byte	0
 4549              		.section	.debug_line,"",%progbits
 4550              	.Ldebug_line0:
 4551 0000 44030000 		.section	.debug_str,"MS",%progbits,1
 4551      02002B01 
 4551      00000201 
 4551      FB0E0D00 
 4551      01010101 
 4552              	.LASF44:
 4553 0000 705F6D73 		.ascii	"p_msg\000"
 4553      6700
 4554              	.LASF101:
 4555 0006 63684462 		.ascii	"chDbgPanic\000"
 4555      6750616E 
 4555      696300
 4556              	.LASF75:
 4557 0011 7264796D 		.ascii	"rdymsg\000"
 4557      736700
 4558              	.LASF16:
 4559 0018 75696E74 		.ascii	"uint64_t\000"
 4559      36345F74 
ARM GAS  /tmp/ccc7VhL9.s 			page 82


 4559      00
 4560              	.LASF5:
 4561 0021 5F5F7569 		.ascii	"__uint8_t\000"
 4561      6E74385F 
 4561      7400
 4562              	.LASF88:
 4563 002b 63684576 		.ascii	"chEvtSignal\000"
 4563      74536967 
 4563      6E616C00 
 4564              	.LASF108:
 4565 0037 474E5520 		.ascii	"GNU C 4.8.2 -mcpu=cortex-m4 -mno-thumb-interwork -m"
 4565      4320342E 
 4565      382E3220 
 4565      2D6D6370 
 4565      753D636F 
 4566 006a 7468756D 		.ascii	"thumb -ggdb -O2 -fomit-frame-pointer -falign-functi"
 4566      62202D67 
 4566      67646220 
 4566      2D4F3220 
 4566      2D666F6D 
 4567 009d 6F6E733D 		.ascii	"ons=16 -ffunction-sections -fdata-sections -fno-com"
 4567      3136202D 
 4567      6666756E 
 4567      6374696F 
 4567      6E2D7365 
 4568 00d0 6D6F6E00 		.ascii	"mon\000"
 4569              	.LASF12:
 4570 00d4 6C6F6E67 		.ascii	"long long unsigned int\000"
 4570      206C6F6E 
 4570      6720756E 
 4570      7369676E 
 4570      65642069 
 4571              	.LASF84:
 4572 00eb 63684576 		.ascii	"chEvtAddEvents\000"
 4572      74416464 
 4572      4576656E 
 4572      747300
 4573              	.LASF76:
 4574 00fa 65786974 		.ascii	"exitcode\000"
 4574      636F6465 
 4574      00
 4575              	.LASF98:
 4576 0103 63684576 		.ascii	"chEvtWaitAnyTimeout\000"
 4576      74576169 
 4576      74416E79 
 4576      54696D65 
 4576      6F757400 
 4577              	.LASF31:
 4578 0117 705F7072 		.ascii	"p_prio\000"
 4578      696F00
 4579              	.LASF10:
 4580 011e 6C6F6E67 		.ascii	"long long int\000"
 4580      206C6F6E 
 4580      6720696E 
 4580      7400
 4581              	.LASF1:
 4582 012c 7369676E 		.ascii	"signed char\000"
ARM GAS  /tmp/ccc7VhL9.s 			page 83


 4582      65642063 
 4582      68617200 
 4583              	.LASF99:
 4584 0138 63684576 		.ascii	"chEvtWaitAllTimeout\000"
 4584      74576169 
 4584      74416C6C 
 4584      54696D65 
 4584      6F757400 
 4585              	.LASF48:
 4586 014c 705F6D70 		.ascii	"p_mpool\000"
 4586      6F6F6C00 
 4587              	.LASF64:
 4588 0154 6D5F7175 		.ascii	"m_queue\000"
 4588      65756500 
 4589              	.LASF21:
 4590 015c 74736C69 		.ascii	"tslices_t\000"
 4590      6365735F 
 4590      7400
 4591              	.LASF7:
 4592 0166 6C6F6E67 		.ascii	"long int\000"
 4592      20696E74 
 4592      00
 4593              	.LASF19:
 4594 016f 74737461 		.ascii	"tstate_t\000"
 4594      74655F74 
 4594      00
 4595              	.LASF94:
 4596 0178 63684576 		.ascii	"chEvtWaitAny\000"
 4596      74576169 
 4596      74416E79 
 4596      00
 4597              	.LASF107:
 4598 0185 63685363 		.ascii	"chSchGoSleepTimeoutS\000"
 4598      68476F53 
 4598      6C656570 
 4598      54696D65 
 4598      6F757453 
 4599              	.LASF87:
 4600 019a 63684576 		.ascii	"chEvtBroadcastFlagsI\000"
 4600      7442726F 
 4600      61646361 
 4600      7374466C 
 4600      61677349 
 4601              	.LASF33:
 4602 01af 705F6E65 		.ascii	"p_newer\000"
 4602      77657200 
 4603              	.LASF105:
 4604 01b7 63685363 		.ascii	"chSchRescheduleS\000"
 4604      68526573 
 4604      63686564 
 4604      756C6553 
 4604      00
 4605              	.LASF8:
 4606 01c8 5F5F7569 		.ascii	"__uint32_t\000"
 4606      6E743332 
 4606      5F7400
 4607              	.LASF80:
ARM GAS  /tmp/ccc7VhL9.s 			page 84


 4608 01d3 6D61736B 		.ascii	"mask\000"
 4608      00
 4609              	.LASF51:
 4610 01d8 72656761 		.ascii	"regarm_t\000"
 4610      726D5F74 
 4610      00
 4611              	.LASF89:
 4612 01e1 63684576 		.ascii	"chEvtBroadcastFlags\000"
 4612      7442726F 
 4612      61646361 
 4612      7374466C 
 4612      61677300 
 4613              	.LASF24:
 4614 01f5 6576656E 		.ascii	"eventid_t\000"
 4614      7469645F 
 4614      7400
 4615              	.LASF72:
 4616 01ff 4576656E 		.ascii	"EventSource\000"
 4616      74536F75 
 4616      72636500 
 4617              	.LASF74:
 4618 020b 65766861 		.ascii	"evhandler_t\000"
 4618      6E646C65 
 4618      725F7400 
 4619              	.LASF36:
 4620 0217 705F7374 		.ascii	"p_stklimit\000"
 4620      6B6C696D 
 4620      697400
 4621              	.LASF0:
 4622 0222 756E7369 		.ascii	"unsigned int\000"
 4622      676E6564 
 4622      20696E74 
 4622      00
 4623              	.LASF9:
 4624 022f 6C6F6E67 		.ascii	"long unsigned int\000"
 4624      20756E73 
 4624      69676E65 
 4624      6420696E 
 4624      7400
 4625              	.LASF83:
 4626 0241 63684576 		.ascii	"chEvtGetAndClearEvents\000"
 4626      74476574 
 4626      416E6443 
 4626      6C656172 
 4626      4576656E 
 4627              	.LASF109:
 4628 0258 2E2E2F2E 		.ascii	"../../../os/kernel/src/chevents.c\000"
 4628      2E2F2E2E 
 4628      2F6F732F 
 4628      6B65726E 
 4628      656C2F73 
 4629              	.LASF54:
 4630 027a 636F6E74 		.ascii	"context\000"
 4630      65787400 
 4631              	.LASF4:
 4632 0282 73686F72 		.ascii	"short unsigned int\000"
 4632      7420756E 
ARM GAS  /tmp/ccc7VhL9.s 			page 85


 4632      7369676E 
 4632      65642069 
 4632      6E7400
 4633              	.LASF81:
 4634 0295 63684576 		.ascii	"chEvtRegisterMask\000"
 4634      74526567 
 4634      69737465 
 4634      724D6173 
 4634      6B00
 4635              	.LASF23:
 4636 02a7 6D73675F 		.ascii	"msg_t\000"
 4636      7400
 4637              	.LASF59:
 4638 02ad 725F6E65 		.ascii	"r_newer\000"
 4638      77657200 
 4639              	.LASF68:
 4640 02b5 656C5F6E 		.ascii	"el_next\000"
 4640      65787400 
 4641              	.LASF82:
 4642 02bd 63684576 		.ascii	"chEvtUnregister\000"
 4642      74556E72 
 4642      65676973 
 4642      74657200 
 4643              	.LASF18:
 4644 02cd 746D6F64 		.ascii	"tmode_t\000"
 4644      655F7400 
 4645              	.LASF50:
 4646 02d5 54687265 		.ascii	"ThreadsList\000"
 4646      6164734C 
 4646      69737400 
 4647              	.LASF25:
 4648 02e1 6576656E 		.ascii	"eventmask_t\000"
 4648      746D6173 
 4648      6B5F7400 
 4649              	.LASF63:
 4650 02ed 4D757465 		.ascii	"Mutex\000"
 4650      7800
 4651              	.LASF52:
 4652 02f3 73746B61 		.ascii	"stkalign_t\000"
 4652      6C69676E 
 4652      5F7400
 4653              	.LASF103:
 4654 02fe 6462675F 		.ascii	"dbg_check_unlock\000"
 4654      63686563 
 4654      6B5F756E 
 4654      6C6F636B 
 4654      00
 4655              	.LASF55:
 4656 030f 73697A65 		.ascii	"sizetype\000"
 4656      74797065 
 4656      00
 4657              	.LASF91:
 4658 0318 63684576 		.ascii	"chEvtDispatch\000"
 4658      74446973 
 4658      70617463 
 4658      6800
 4659              	.LASF34:
ARM GAS  /tmp/ccc7VhL9.s 			page 86


 4660 0326 705F6F6C 		.ascii	"p_older\000"
 4660      64657200 
 4661              	.LASF58:
 4662 032e 725F6374 		.ascii	"r_ctx\000"
 4662      7800
 4663              	.LASF49:
 4664 0334 54687265 		.ascii	"ThreadsQueue\000"
 4664      61647351 
 4664      75657565 
 4664      00
 4665              	.LASF110:
 4666 0341 2F686F6D 		.ascii	"/home/mo/ARMProjects/ChibiOS_Sample/ChibiOS_2.6.5/t"
 4666      652F6D6F 
 4666      2F41524D 
 4666      50726F6A 
 4666      65637473 
 4667 0374 65737468 		.ascii	"esthal/STM32F4xx/ADC\000"
 4667      616C2F53 
 4667      544D3332 
 4667      46347878 
 4667      2F414443 
 4668              	.LASF97:
 4669 0389 74696D65 		.ascii	"time\000"
 4669      00
 4670              	.LASF95:
 4671 038e 63684576 		.ascii	"chEvtWaitAll\000"
 4671      74576169 
 4671      74416C6C 
 4671      00
 4672              	.LASF61:
 4673 039b 725F6375 		.ascii	"r_current\000"
 4673      7272656E 
 4673      7400
 4674              	.LASF60:
 4675 03a5 725F6F6C 		.ascii	"r_older\000"
 4675      64657200 
 4676              	.LASF70:
 4677 03ad 656C5F6D 		.ascii	"el_mask\000"
 4677      61736B00 
 4678              	.LASF11:
 4679 03b5 5F5F7569 		.ascii	"__uint64_t\000"
 4679      6E743634 
 4679      5F7400
 4680              	.LASF92:
 4681 03c0 68616E64 		.ascii	"handlers\000"
 4681      6C657273 
 4681      00
 4682              	.LASF20:
 4683 03c9 74726566 		.ascii	"trefs_t\000"
 4683      735F7400 
 4684              	.LASF30:
 4685 03d1 705F7072 		.ascii	"p_prev\000"
 4685      657600
 4686              	.LASF22:
 4687 03d8 74707269 		.ascii	"tprio_t\000"
 4687      6F5F7400 
 4688              	.LASF17:
ARM GAS  /tmp/ccc7VhL9.s 			page 87


 4689 03e0 5F426F6F 		.ascii	"_Bool\000"
 4689      6C00
 4690              	.LASF14:
 4691 03e6 696E7433 		.ascii	"int32_t\000"
 4691      325F7400 
 4692              	.LASF2:
 4693 03ee 756E7369 		.ascii	"unsigned char\000"
 4693      676E6564 
 4693      20636861 
 4693      7200
 4694              	.LASF93:
 4695 03fc 63684576 		.ascii	"chEvtWaitOne\000"
 4695      74576169 
 4695      744F6E65 
 4695      00
 4696              	.LASF69:
 4697 0409 656C5F6C 		.ascii	"el_listener\000"
 4697      69737465 
 4697      6E657200 
 4698              	.LASF71:
 4699 0415 656C5F66 		.ascii	"el_flags\000"
 4699      6C616773 
 4699      00
 4700              	.LASF46:
 4701 041e 705F6D74 		.ascii	"p_mtxlist\000"
 4701      786C6973 
 4701      7400
 4702              	.LASF3:
 4703 0428 73686F72 		.ascii	"short int\000"
 4703      7420696E 
 4703      7400
 4704              	.LASF37:
 4705 0432 705F7374 		.ascii	"p_state\000"
 4705      61746500 
 4706              	.LASF40:
 4707 043a 705F7072 		.ascii	"p_preempt\000"
 4707      65656D70 
 4707      7400
 4708              	.LASF57:
 4709 0444 725F7072 		.ascii	"r_prio\000"
 4709      696F00
 4710              	.LASF90:
 4711 044b 63684576 		.ascii	"chEvtGetAndClearFlagsI\000"
 4711      74476574 
 4711      416E6443 
 4711      6C656172 
 4711      466C6167 
 4712              	.LASF78:
 4713 0462 65776D61 		.ascii	"ewmask\000"
 4713      736B00
 4714              	.LASF29:
 4715 0469 705F6E65 		.ascii	"p_next\000"
 4715      787400
 4716              	.LASF38:
 4717 0470 705F666C 		.ascii	"p_flags\000"
 4717      61677300 
 4718              	.LASF28:
ARM GAS  /tmp/ccc7VhL9.s 			page 88


 4719 0478 54687265 		.ascii	"Thread\000"
 4719      616400
 4720              	.LASF106:
 4721 047f 63685363 		.ascii	"chSchGoSleepS\000"
 4721      68476F53 
 4721      6C656570 
 4721      5300
 4722              	.LASF45:
 4723 048d 705F6570 		.ascii	"p_epending\000"
 4723      656E6469 
 4723      6E6700
 4724              	.LASF15:
 4725 0498 75696E74 		.ascii	"uint32_t\000"
 4725      33325F74 
 4725      00
 4726              	.LASF56:
 4727 04a1 725F7175 		.ascii	"r_queue\000"
 4727      65756500 
 4728              	.LASF112:
 4729 04a9 63685363 		.ascii	"chSchReadyI\000"
 4729      68526561 
 4729      64794900 
 4730              	.LASF79:
 4731 04b5 63686172 		.ascii	"char\000"
 4731      00
 4732              	.LASF66:
 4733 04ba 6D5F6E65 		.ascii	"m_next\000"
 4733      787400
 4734              	.LASF27:
 4735 04c1 73797374 		.ascii	"systime_t\000"
 4735      696D655F 
 4735      7400
 4736              	.LASF47:
 4737 04cb 705F7265 		.ascii	"p_realprio\000"
 4737      616C7072 
 4737      696F00
 4738              	.LASF6:
 4739 04d6 5F5F696E 		.ascii	"__int32_t\000"
 4739      7433325F 
 4739      7400
 4740              	.LASF41:
 4741 04e0 705F7469 		.ascii	"p_time\000"
 4741      6D6500
 4742              	.LASF53:
 4743 04e7 696E7463 		.ascii	"intctx\000"
 4743      747800
 4744              	.LASF43:
 4745 04ee 705F6D73 		.ascii	"p_msgqueue\000"
 4745      67717565 
 4745      756500
 4746              	.LASF26:
 4747 04f9 666C6167 		.ascii	"flagsmask_t\000"
 4747      736D6173 
 4747      6B5F7400 
 4748              	.LASF39:
 4749 0505 705F7265 		.ascii	"p_refs\000"
 4749      667300
ARM GAS  /tmp/ccc7VhL9.s 			page 89


 4750              	.LASF62:
 4751 050c 52656164 		.ascii	"ReadyList\000"
 4751      794C6973 
 4751      7400
 4752              	.LASF111:
 4753 0516 726C6973 		.ascii	"rlist\000"
 4753      7400
 4754              	.LASF13:
 4755 051c 75696E74 		.ascii	"uint8_t\000"
 4755      385F7400 
 4756              	.LASF86:
 4757 0524 666C6167 		.ascii	"flags\000"
 4757      7300
 4758              	.LASF67:
 4759 052a 4576656E 		.ascii	"EventListener\000"
 4759      744C6973 
 4759      74656E65 
 4759      7200
 4760              	.LASF96:
 4761 0538 63684576 		.ascii	"chEvtWaitOneTimeout\000"
 4761      74576169 
 4761      744F6E65 
 4761      54696D65 
 4761      6F757400 
 4762              	.LASF77:
 4763 054c 77746F62 		.ascii	"wtobjp\000"
 4763      6A7000
 4764              	.LASF35:
 4765 0553 705F6E61 		.ascii	"p_name\000"
 4765      6D6500
 4766              	.LASF73:
 4767 055a 65735F6E 		.ascii	"es_next\000"
 4767      65787400 
 4768              	.LASF85:
 4769 0562 63684576 		.ascii	"chEvtGetAndClearFlags\000"
 4769      74476574 
 4769      416E6443 
 4769      6C656172 
 4769      466C6167 
 4770              	.LASF104:
 4771 0578 63684462 		.ascii	"chDbgCheckClassI\000"
 4771      67436865 
 4771      636B436C 
 4771      61737349 
 4771      00
 4772              	.LASF65:
 4773 0589 6D5F6F77 		.ascii	"m_owner\000"
 4773      6E657200 
 4774              	.LASF102:
 4775 0591 6462675F 		.ascii	"dbg_check_lock\000"
 4775      63686563 
 4775      6B5F6C6F 
 4775      636B00
 4776              	.LASF32:
 4777 05a0 705F6374 		.ascii	"p_ctx\000"
 4777      7800
 4778              	.LASF42:
ARM GAS  /tmp/ccc7VhL9.s 			page 90


 4779 05a6 705F7761 		.ascii	"p_waiting\000"
 4779      6974696E 
 4779      6700
 4780              	.LASF100:
 4781 05b0 63684576 		.ascii	"chEvtSignalI\000"
 4781      74536967 
 4781      6E616C49 
 4781      00
 4782              		.ident	"GCC: (4.8.2-14ubuntu1+6) 4.8.2"
ARM GAS  /tmp/ccc7VhL9.s 			page 91


DEFINED SYMBOLS
                            *ABS*:0000000000000000 chevents.c
     /tmp/ccc7VhL9.s:19     .text.chEvtRegisterMask:0000000000000000 $t
     /tmp/ccc7VhL9.s:25     .text.chEvtRegisterMask:0000000000000000 chEvtRegisterMask
     /tmp/ccc7VhL9.s:1341   .rodata.str1.4:0000000000000000 .LC0
     /tmp/ccc7VhL9.s:104    .text.chEvtUnregister:0000000000000000 $t
     /tmp/ccc7VhL9.s:110    .text.chEvtUnregister:0000000000000000 chEvtUnregister
     /tmp/ccc7VhL9.s:1344   .rodata.str1.4:0000000000000018 .LC1
     /tmp/ccc7VhL9.s:199    .text.chEvtGetAndClearEvents:0000000000000000 $t
     /tmp/ccc7VhL9.s:205    .text.chEvtGetAndClearEvents:0000000000000000 chEvtGetAndClearEvents
     /tmp/ccc7VhL9.s:259    .text.chEvtAddEvents:0000000000000000 $t
     /tmp/ccc7VhL9.s:265    .text.chEvtAddEvents:0000000000000000 chEvtAddEvents
     /tmp/ccc7VhL9.s:317    .text.chEvtGetAndClearFlags:0000000000000000 $t
     /tmp/ccc7VhL9.s:323    .text.chEvtGetAndClearFlags:0000000000000000 chEvtGetAndClearFlags
     /tmp/ccc7VhL9.s:376    .text.chEvtSignalI:0000000000000000 $t
     /tmp/ccc7VhL9.s:382    .text.chEvtSignalI:0000000000000000 chEvtSignalI
     /tmp/ccc7VhL9.s:1346   .rodata.str1.4:000000000000002c .LC2
     /tmp/ccc7VhL9.s:462    .text.chEvtBroadcastFlagsI:0000000000000000 $t
     /tmp/ccc7VhL9.s:468    .text.chEvtBroadcastFlagsI:0000000000000000 chEvtBroadcastFlagsI
     /tmp/ccc7VhL9.s:1349   .rodata.str1.4:0000000000000040 .LC3
     /tmp/ccc7VhL9.s:526    .text.chEvtSignal:0000000000000000 $t
     /tmp/ccc7VhL9.s:532    .text.chEvtSignal:0000000000000000 chEvtSignal
     /tmp/ccc7VhL9.s:1351   .rodata.str1.4:0000000000000058 .LC4
     /tmp/ccc7VhL9.s:595    .text.chEvtBroadcastFlags:0000000000000000 $t
     /tmp/ccc7VhL9.s:601    .text.chEvtBroadcastFlags:0000000000000000 chEvtBroadcastFlags
     /tmp/ccc7VhL9.s:650    .text.chEvtGetAndClearFlagsI:0000000000000000 $t
     /tmp/ccc7VhL9.s:656    .text.chEvtGetAndClearFlagsI:0000000000000000 chEvtGetAndClearFlagsI
     /tmp/ccc7VhL9.s:679    .text.chEvtDispatch:0000000000000000 $t
     /tmp/ccc7VhL9.s:685    .text.chEvtDispatch:0000000000000000 chEvtDispatch
     /tmp/ccc7VhL9.s:1356   .rodata.str1.4:000000000000007c .LC6
     /tmp/ccc7VhL9.s:1353   .rodata.str1.4:0000000000000068 .LC5
     /tmp/ccc7VhL9.s:767    .text.chEvtWaitOne:0000000000000000 $t
     /tmp/ccc7VhL9.s:773    .text.chEvtWaitOne:0000000000000000 chEvtWaitOne
     /tmp/ccc7VhL9.s:846    .text.chEvtWaitAny:0000000000000000 $t
     /tmp/ccc7VhL9.s:852    .text.chEvtWaitAny:0000000000000000 chEvtWaitAny
     /tmp/ccc7VhL9.s:921    .text.chEvtWaitAll:0000000000000000 $t
     /tmp/ccc7VhL9.s:927    .text.chEvtWaitAll:0000000000000000 chEvtWaitAll
     /tmp/ccc7VhL9.s:991    .text.chEvtWaitOneTimeout:0000000000000000 $t
     /tmp/ccc7VhL9.s:997    .text.chEvtWaitOneTimeout:0000000000000000 chEvtWaitOneTimeout
     /tmp/ccc7VhL9.s:1112   .text.chEvtWaitAnyTimeout:0000000000000000 $t
     /tmp/ccc7VhL9.s:1118   .text.chEvtWaitAnyTimeout:0000000000000000 chEvtWaitAnyTimeout
     /tmp/ccc7VhL9.s:1229   .text.chEvtWaitAllTimeout:0000000000000000 $t
     /tmp/ccc7VhL9.s:1235   .text.chEvtWaitAllTimeout:0000000000000000 chEvtWaitAllTimeout
     /tmp/ccc7VhL9.s:1340   .rodata.str1.4:0000000000000000 $d
                     .debug_frame:0000000000000010 $d

UNDEFINED SYMBOLS
chDbgPanic
dbg_check_lock
rlist
dbg_check_unlock
chDbgCheckClassI
chSchReadyI
chSchRescheduleS
chSchGoSleepS
chSchGoSleepTimeoutS
