ARM GAS  /tmp/ccc7VhL9.s 			page 1


   1              		.syntax unified
   2              		.cpu cortex-m4
   3              		.fpu softvfp
   4              		.eabi_attribute 20, 1
   5              		.eabi_attribute 21, 1
   6              		.eabi_attribute 23, 3
   7              		.eabi_attribute 24, 1
   8              		.eabi_attribute 25, 1
   9              		.eabi_attribute 26, 1
  10              		.eabi_attribute 30, 2
  11              		.eabi_attribute 34, 1
  12              		.eabi_attribute 18, 4
  13              		.thumb
  14              		.file	"chevents.c"
  15              		.text
  16              	.Ltext0:
  17              		.cfi_sections	.debug_frame
  18              		.section	.text.chEvtRegisterMask,"ax",%progbits
  19              		.align	2
  20              		.p2align 4,,15
  21              		.global	chEvtRegisterMask
  22              		.thumb
  23              		.thumb_func
  24              		.type	chEvtRegisterMask, %function
  25              	chEvtRegisterMask:
  26              	.LFB7:
  27              		.file 1 "../../../os/kernel/src/chevents.c"
  28              		.loc 1 85 0
  29              		.cfi_startproc
  30              		@ args = 0, pretend = 0, frame = 0
  31              		@ frame_needed = 0, uses_anonymous_args = 0
  32              	.LVL0:
  33              		.loc 1 87 0
  34 0000 0029     		cmp	r1, #0
  35 0002 18BF     		it	ne
  36 0004 0028     		cmpne	r0, #0
  37              		.loc 1 85 0
  38 0006 F8B5     		push	{r3, r4, r5, r6, r7, lr}
  39              		.cfi_def_cfa_offset 24
  40              		.cfi_offset 3, -24
  41              		.cfi_offset 4, -20
  42              		.cfi_offset 5, -16
  43              		.cfi_offset 6, -12
  44              		.cfi_offset 7, -8
  45              		.cfi_offset 14, -4
  46              		.loc 1 87 0
  47 0008 0546     		mov	r5, r0
  48 000a 0C46     		mov	r4, r1
  49              		.loc 1 85 0
  50 000c 1746     		mov	r7, r2
  51              		.loc 1 87 0
  52 000e 05D1     		bne	.L2
  53              		.loc 1 87 0 is_stmt 0 discriminator 1
  54 0010 40F20000 		movw	r0, #:lower16:.LC0
  55              	.LVL1:
  56 0014 C0F20000 		movt	r0, #:upper16:.LC0
  57 0018 FFF7FEFF 		bl	chDbgPanic
ARM GAS  /tmp/ccc7VhL9.s 			page 2


  58              	.LVL2:
  59              	.L2:
  60              	.LBB2:
  61              		.loc 1 89 0 is_stmt 1
  62 001c 2023     		movs	r3, #32
  63              	@ 89 "../../../os/kernel/src/chevents.c" 1
  64 001e 83F31188 		msr     BASEPRI, r3
  65              	@ 0 "" 2
  66              		.thumb
  67              	.LBE2:
  68 0022 FFF7FEFF 		bl	dbg_check_lock
  69              	.LVL3:
  70              		.loc 1 92 0
  71 0026 40F20003 		movw	r3, #:lower16:rlist
  72 002a C0F20003 		movt	r3, #:upper16:rlist
  73              		.loc 1 90 0
  74 002e 2A68     		ldr	r2, [r5]
  75              		.loc 1 92 0
  76 0030 9B69     		ldr	r3, [r3, #24]
  77              		.loc 1 90 0
  78 0032 2260     		str	r2, [r4]
  79              		.loc 1 94 0
  80 0034 0026     		movs	r6, #0
  81              		.loc 1 91 0
  82 0036 2C60     		str	r4, [r5]
  83              		.loc 1 92 0
  84 0038 6360     		str	r3, [r4, #4]
  85              		.loc 1 93 0
  86 003a A760     		str	r7, [r4, #8]
  87              		.loc 1 94 0
  88 003c E660     		str	r6, [r4, #12]
  89              		.loc 1 95 0
  90 003e FFF7FEFF 		bl	dbg_check_unlock
  91              	.LVL4:
  92              	.LBB3:
  93 0042 3346     		mov	r3, r6
  94              	@ 95 "../../../os/kernel/src/chevents.c" 1
  95 0044 83F31188 		msr     BASEPRI, r3
  96              	@ 0 "" 2
  97              		.thumb
  98 0048 F8BD     		pop	{r3, r4, r5, r6, r7, pc}
  99              	.LBE3:
 100              		.cfi_endproc
 101              	.LFE7:
 102              		.size	chEvtRegisterMask, .-chEvtRegisterMask
 103 004a 00BFAFF3 		.section	.text.chEvtUnregister,"ax",%progbits
 103      0080
 104              		.align	2
 105              		.p2align 4,,15
 106              		.global	chEvtUnregister
 107              		.thumb
 108              		.thumb_func
 109              		.type	chEvtUnregister, %function
 110              	chEvtUnregister:
 111              	.LFB8:
 112              		.loc 1 111 0
 113              		.cfi_startproc
ARM GAS  /tmp/ccc7VhL9.s 			page 3


 114              		@ args = 0, pretend = 0, frame = 0
 115              		@ frame_needed = 0, uses_anonymous_args = 0
 116              	.LVL5:
 117              		.loc 1 114 0
 118 0000 0029     		cmp	r1, #0
 119 0002 18BF     		it	ne
 120 0004 0028     		cmpne	r0, #0
 121              		.loc 1 111 0
 122 0006 38B5     		push	{r3, r4, r5, lr}
 123              		.cfi_def_cfa_offset 16
 124              		.cfi_offset 3, -16
 125              		.cfi_offset 4, -12
 126              		.cfi_offset 5, -8
 127              		.cfi_offset 14, -4
 128              		.loc 1 114 0
 129 0008 0446     		mov	r4, r0
 130 000a 0D46     		mov	r5, r1
 131 000c 1AD0     		beq	.L16
 132              	.LVL6:
 133              	.L8:
 134              	.LBB4:
 135              		.loc 1 117 0
 136 000e 2023     		movs	r3, #32
 137              	@ 117 "../../../os/kernel/src/chevents.c" 1
 138 0010 83F31188 		msr     BASEPRI, r3
 139              	@ 0 "" 2
 140              		.thumb
 141              	.LBE4:
 142 0014 FFF7FEFF 		bl	dbg_check_lock
 143              	.LVL7:
 144              		.loc 1 118 0
 145 0018 2246     		mov	r2, r4
 146 001a 02E0     		b	.L9
 147              	.LVL8:
 148              	.L12:
 149              		.loc 1 119 0
 150 001c 9D42     		cmp	r5, r3
 151 001e 09D0     		beq	.L17
 152 0020 1A46     		mov	r2, r3
 153              	.LVL9:
 154              	.L9:
 155              		.loc 1 118 0 discriminator 1
 156 0022 1368     		ldr	r3, [r2]
 157 0024 A342     		cmp	r3, r4
 158 0026 F9D1     		bne	.L12
 159              		.loc 1 125 0
 160 0028 FFF7FEFF 		bl	dbg_check_unlock
 161              	.LVL10:
 162              	.LBB5:
 163 002c 0023     		movs	r3, #0
 164              	@ 125 "../../../os/kernel/src/chevents.c" 1
 165 002e 83F31188 		msr     BASEPRI, r3
 166              	@ 0 "" 2
 167              		.thumb
 168 0032 38BD     		pop	{r3, r4, r5, pc}
 169              	.LVL11:
 170              	.L17:
ARM GAS  /tmp/ccc7VhL9.s 			page 4


 171              	.LBE5:
 172              		.loc 1 120 0
 173 0034 2B68     		ldr	r3, [r5]
 174 0036 1360     		str	r3, [r2]
 175              		.loc 1 125 0
 176 0038 FFF7FEFF 		bl	dbg_check_unlock
 177              	.LVL12:
 178              	.LBB6:
 179 003c 0023     		movs	r3, #0
 180              	@ 125 "../../../os/kernel/src/chevents.c" 1
 181 003e 83F31188 		msr     BASEPRI, r3
 182              	@ 0 "" 2
 183              		.thumb
 184 0042 38BD     		pop	{r3, r4, r5, pc}
 185              	.LVL13:
 186              	.L16:
 187              	.LBE6:
 188              		.loc 1 114 0 discriminator 1
 189 0044 40F20000 		movw	r0, #:lower16:.LC1
 190              	.LVL14:
 191 0048 C0F20000 		movt	r0, #:upper16:.LC1
 192 004c FFF7FEFF 		bl	chDbgPanic
 193              	.LVL15:
 194 0050 DDE7     		b	.L8
 195              		.cfi_endproc
 196              	.LFE8:
 197              		.size	chEvtUnregister, .-chEvtUnregister
 198 0052 00BFAFF3 		.section	.text.chEvtGetAndClearEvents,"ax",%progbits
 198      0080AFF3 
 198      0080AFF3 
 198      0080
 199              		.align	2
 200              		.p2align 4,,15
 201              		.global	chEvtGetAndClearEvents
 202              		.thumb
 203              		.thumb_func
 204              		.type	chEvtGetAndClearEvents, %function
 205              	chEvtGetAndClearEvents:
 206              	.LFB9:
 207              		.loc 1 136 0
 208              		.cfi_startproc
 209              		@ args = 0, pretend = 0, frame = 0
 210              		@ frame_needed = 0, uses_anonymous_args = 0
 211              	.LVL16:
 212 0000 10B5     		push	{r4, lr}
 213              		.cfi_def_cfa_offset 8
 214              		.cfi_offset 4, -8
 215              		.cfi_offset 14, -4
 216              	.LBB7:
 217              		.loc 1 139 0
 218 0002 2023     		movs	r3, #32
 219              	.LBE7:
 220              		.loc 1 136 0
 221 0004 0446     		mov	r4, r0
 222              	.LBB8:
 223              		.loc 1 139 0
 224              	@ 139 "../../../os/kernel/src/chevents.c" 1
ARM GAS  /tmp/ccc7VhL9.s 			page 5


 225 0006 83F31188 		msr     BASEPRI, r3
 226              	@ 0 "" 2
 227              		.thumb
 228              	.LBE8:
 229 000a FFF7FEFF 		bl	dbg_check_lock
 230              	.LVL17:
 231              		.loc 1 141 0
 232 000e 40F20003 		movw	r3, #:lower16:rlist
 233 0012 C0F20003 		movt	r3, #:upper16:rlist
 234 0016 9B69     		ldr	r3, [r3, #24]
 235 0018 D86B     		ldr	r0, [r3, #60]
 236              		.loc 1 142 0
 237 001a 20EA0402 		bic	r2, r0, r4
 238 001e DA63     		str	r2, [r3, #60]
 239              		.loc 1 141 0
 240 0020 0440     		ands	r4, r4, r0
 241              	.LVL18:
 242              		.loc 1 144 0
 243 0022 FFF7FEFF 		bl	dbg_check_unlock
 244              	.LVL19:
 245              	.LBB9:
 246 0026 0023     		movs	r3, #0
 247              	@ 144 "../../../os/kernel/src/chevents.c" 1
 248 0028 83F31188 		msr     BASEPRI, r3
 249              	@ 0 "" 2
 250              		.thumb
 251              	.LBE9:
 252              		.loc 1 146 0
 253 002c 2046     		mov	r0, r4
 254 002e 10BD     		pop	{r4, pc}
 255              		.cfi_endproc
 256              	.LFE9:
 257              		.size	chEvtGetAndClearEvents, .-chEvtGetAndClearEvents
 258              		.section	.text.chEvtAddEvents,"ax",%progbits
 259              		.align	2
 260              		.p2align 4,,15
 261              		.global	chEvtAddEvents
 262              		.thumb
 263              		.thumb_func
 264              		.type	chEvtAddEvents, %function
 265              	chEvtAddEvents:
 266              	.LFB10:
 267              		.loc 1 157 0
 268              		.cfi_startproc
 269              		@ args = 0, pretend = 0, frame = 0
 270              		@ frame_needed = 0, uses_anonymous_args = 0
 271              	.LVL20:
 272 0000 10B5     		push	{r4, lr}
 273              		.cfi_def_cfa_offset 8
 274              		.cfi_offset 4, -8
 275              		.cfi_offset 14, -4
 276              	.LBB10:
 277              		.loc 1 159 0
 278 0002 2023     		movs	r3, #32
 279              	.LBE10:
 280              		.loc 1 157 0
 281 0004 0446     		mov	r4, r0
ARM GAS  /tmp/ccc7VhL9.s 			page 6


 282              	.LBB11:
 283              		.loc 1 159 0
 284              	@ 159 "../../../os/kernel/src/chevents.c" 1
 285 0006 83F31188 		msr     BASEPRI, r3
 286              	@ 0 "" 2
 287              		.thumb
 288              	.LBE11:
 289 000a FFF7FEFF 		bl	dbg_check_lock
 290              	.LVL21:
 291              		.loc 1 161 0
 292 000e 40F20003 		movw	r3, #:lower16:rlist
 293 0012 C0F20003 		movt	r3, #:upper16:rlist
 294 0016 9B69     		ldr	r3, [r3, #24]
 295 0018 DA6B     		ldr	r2, [r3, #60]
 296 001a 1443     		orrs	r4, r4, r2
 297              	.LVL22:
 298 001c DC63     		str	r4, [r3, #60]
 299              	.LVL23:
 300              		.loc 1 163 0
 301 001e FFF7FEFF 		bl	dbg_check_unlock
 302              	.LVL24:
 303              	.LBB12:
 304 0022 0023     		movs	r3, #0
 305              	@ 163 "../../../os/kernel/src/chevents.c" 1
 306 0024 83F31188 		msr     BASEPRI, r3
 307              	@ 0 "" 2
 308              		.thumb
 309              	.LBE12:
 310              		.loc 1 165 0
 311 0028 2046     		mov	r0, r4
 312 002a 10BD     		pop	{r4, pc}
 313              		.cfi_endproc
 314              	.LFE10:
 315              		.size	chEvtAddEvents, .-chEvtAddEvents
 316 002c AFF30080 		.section	.text.chEvtGetAndClearFlags,"ax",%progbits
 317              		.align	2
 318              		.p2align 4,,15
 319              		.global	chEvtGetAndClearFlags
 320              		.thumb
 321              		.thumb_func
 322              		.type	chEvtGetAndClearFlags, %function
 323              	chEvtGetAndClearFlags:
 324              	.LFB12:
 325              		.loc 1 209 0
 326              		.cfi_startproc
 327              		@ args = 0, pretend = 0, frame = 0
 328              		@ frame_needed = 0, uses_anonymous_args = 0
 329              	.LVL25:
 330 0000 70B5     		push	{r4, r5, r6, lr}
 331              		.cfi_def_cfa_offset 16
 332              		.cfi_offset 4, -16
 333              		.cfi_offset 5, -12
 334              		.cfi_offset 6, -8
 335              		.cfi_offset 14, -4
 336              	.LBB13:
 337              		.loc 1 212 0
 338 0002 2023     		movs	r3, #32
ARM GAS  /tmp/ccc7VhL9.s 			page 7


 339              	.LBE13:
 340              		.loc 1 209 0
 341 0004 0546     		mov	r5, r0
 342              	.LBB14:
 343              		.loc 1 212 0
 344              	@ 212 "../../../os/kernel/src/chevents.c" 1
 345 0006 83F31188 		msr     BASEPRI, r3
 346              	@ 0 "" 2
 347              		.thumb
 348              	.LBE14:
 349              		.loc 1 215 0
 350 000a 0024     		movs	r4, #0
 351              		.loc 1 212 0
 352 000c FFF7FEFF 		bl	dbg_check_lock
 353              	.LVL26:
 354              		.loc 1 214 0
 355 0010 EE68     		ldr	r6, [r5, #12]
 356              	.LVL27:
 357              		.loc 1 215 0
 358 0012 EC60     		str	r4, [r5, #12]
 359              		.loc 1 217 0
 360 0014 FFF7FEFF 		bl	dbg_check_unlock
 361              	.LVL28:
 362              	.LBB15:
 363 0018 2346     		mov	r3, r4
 364              	@ 217 "../../../os/kernel/src/chevents.c" 1
 365 001a 83F31188 		msr     BASEPRI, r3
 366              	@ 0 "" 2
 367              		.thumb
 368              	.LBE15:
 369              		.loc 1 219 0
 370 001e 3046     		mov	r0, r6
 371 0020 70BD     		pop	{r4, r5, r6, pc}
 372              		.cfi_endproc
 373              	.LFE12:
 374              		.size	chEvtGetAndClearFlags, .-chEvtGetAndClearFlags
 375 0022 00BFAFF3 		.section	.text.chEvtSignalI,"ax",%progbits
 375      0080AFF3 
 375      0080AFF3 
 375      0080
 376              		.align	2
 377              		.p2align 4,,15
 378              		.global	chEvtSignalI
 379              		.thumb
 380              		.thumb_func
 381              		.type	chEvtSignalI, %function
 382              	chEvtSignalI:
 383              	.LFB14:
 384              		.loc 1 251 0
 385              		.cfi_startproc
 386              		@ args = 0, pretend = 0, frame = 0
 387              		@ frame_needed = 0, uses_anonymous_args = 0
 388              	.LVL29:
 389 0000 38B5     		push	{r3, r4, r5, lr}
 390              		.cfi_def_cfa_offset 16
 391              		.cfi_offset 3, -16
 392              		.cfi_offset 4, -12
ARM GAS  /tmp/ccc7VhL9.s 			page 8


 393              		.cfi_offset 5, -8
 394              		.cfi_offset 14, -4
 395              		.loc 1 251 0
 396 0002 0446     		mov	r4, r0
 397 0004 0D46     		mov	r5, r1
 398              		.loc 1 253 0
 399 0006 FFF7FEFF 		bl	chDbgCheckClassI
 400              	.LVL30:
 401              		.loc 1 254 0
 402 000a C4B1     		cbz	r4, .L26
 403              	.L22:
 404              		.loc 1 256 0
 405 000c E26B     		ldr	r2, [r4, #60]
 406              		.loc 1 258 0
 407 000e 94F82030 		ldrb	r3, [r4, #32]	@ zero_extendqisi2
 408              		.loc 1 256 0
 409 0012 45EA0201 		orr	r1, r5, r2
 410              		.loc 1 258 0
 411 0016 082B     		cmp	r3, #8
 412              		.loc 1 256 0
 413 0018 E163     		str	r1, [r4, #60]
 414              		.loc 1 258 0
 415 001a 0CD0     		beq	.L27
 416              		.loc 1 259 0
 417 001c 092B     		cmp	r3, #9
 418 001e 00D0     		beq	.L28
 419              	.L21:
 420 0020 38BD     		pop	{r3, r4, r5, pc}
 421              	.LVL31:
 422              	.L28:
 423              		.loc 1 261 0
 424 0022 A36A     		ldr	r3, [r4, #40]
 425 0024 1940     		ands	r1, r1, r3
 426              		.loc 1 260 0
 427 0026 8B42     		cmp	r3, r1
 428 0028 FAD1     		bne	.L21
 429              	.L24:
 430              	.LVL32:
 431              	.LBB18:
 432              	.LBB19:
 433              		.loc 1 262 0
 434 002a 2046     		mov	r0, r4
 435 002c FFF7FEFF 		bl	chSchReadyI
 436              	.LVL33:
 437 0030 0023     		movs	r3, #0
 438 0032 8362     		str	r3, [r0, #40]
 439 0034 38BD     		pop	{r3, r4, r5, pc}
 440              	.LVL34:
 441              	.L27:
 442              	.LBE19:
 443              	.LBE18:
 444              		.loc 1 259 0 discriminator 1
 445 0036 A36A     		ldr	r3, [r4, #40]
 446              		.loc 1 258 0 discriminator 1
 447 0038 1942     		tst	r1, r3
 448 003a F6D1     		bne	.L24
 449 003c 38BD     		pop	{r3, r4, r5, pc}
ARM GAS  /tmp/ccc7VhL9.s 			page 9


 450              	.LVL35:
 451              	.L26:
 452              		.loc 1 254 0 discriminator 1
 453 003e 40F20000 		movw	r0, #:lower16:.LC2
 454 0042 C0F20000 		movt	r0, #:upper16:.LC2
 455 0046 FFF7FEFF 		bl	chDbgPanic
 456              	.LVL36:
 457 004a DFE7     		b	.L22
 458              		.cfi_endproc
 459              	.LFE14:
 460              		.size	chEvtSignalI, .-chEvtSignalI
 461 004c AFF30080 		.section	.text.chEvtBroadcastFlagsI,"ax",%progbits
 462              		.align	2
 463              		.p2align 4,,15
 464              		.global	chEvtBroadcastFlagsI
 465              		.thumb
 466              		.thumb_func
 467              		.type	chEvtBroadcastFlagsI, %function
 468              	chEvtBroadcastFlagsI:
 469              	.LFB11:
 470              		.loc 1 184 0
 471              		.cfi_startproc
 472              		@ args = 0, pretend = 0, frame = 0
 473              		@ frame_needed = 0, uses_anonymous_args = 0
 474              	.LVL37:
 475 0000 70B5     		push	{r4, r5, r6, lr}
 476              		.cfi_def_cfa_offset 16
 477              		.cfi_offset 4, -16
 478              		.cfi_offset 5, -12
 479              		.cfi_offset 6, -8
 480              		.cfi_offset 14, -4
 481              		.loc 1 184 0
 482 0002 0546     		mov	r5, r0
 483 0004 0E46     		mov	r6, r1
 484              		.loc 1 187 0
 485 0006 FFF7FEFF 		bl	chDbgCheckClassI
 486              	.LVL38:
 487              		.loc 1 188 0
 488 000a 65B1     		cbz	r5, .L34
 489              	.L30:
 490              		.loc 1 190 0
 491 000c 2C68     		ldr	r4, [r5]
 492              	.LVL39:
 493              		.loc 1 191 0
 494 000e A542     		cmp	r5, r4
 495 0010 08D0     		beq	.L29
 496              	.L33:
 497              		.loc 1 193 0
 498 0012 201D     		adds	r0, r4, #4
 499 0014 0BC8     		ldmia	r0, {r0, r1, r3}
 500              		.loc 1 192 0
 501 0016 3343     		orrs	r3, r3, r6
 502 0018 E360     		str	r3, [r4, #12]
 503              		.loc 1 193 0
 504 001a FFF7FEFF 		bl	chEvtSignalI
 505              	.LVL40:
 506              		.loc 1 194 0
ARM GAS  /tmp/ccc7VhL9.s 			page 10


 507 001e 2468     		ldr	r4, [r4]
 508              	.LVL41:
 509              		.loc 1 191 0
 510 0020 A542     		cmp	r5, r4
 511 0022 F6D1     		bne	.L33
 512              	.L29:
 513 0024 70BD     		pop	{r4, r5, r6, pc}
 514              	.LVL42:
 515              	.L34:
 516              		.loc 1 188 0 discriminator 1
 517 0026 40F20000 		movw	r0, #:lower16:.LC3
 518 002a C0F20000 		movt	r0, #:upper16:.LC3
 519 002e FFF7FEFF 		bl	chDbgPanic
 520              	.LVL43:
 521 0032 EBE7     		b	.L30
 522              		.cfi_endproc
 523              	.LFE11:
 524              		.size	chEvtBroadcastFlagsI, .-chEvtBroadcastFlagsI
 525 0034 AFF30080 		.section	.text.chEvtSignal,"ax",%progbits
 525      AFF30080 
 525      AFF30080 
 526              		.align	2
 527              		.p2align 4,,15
 528              		.global	chEvtSignal
 529              		.thumb
 530              		.thumb_func
 531              		.type	chEvtSignal, %function
 532              	chEvtSignal:
 533              	.LFB13:
 534              		.loc 1 229 0
 535              		.cfi_startproc
 536              		@ args = 0, pretend = 0, frame = 0
 537              		@ frame_needed = 0, uses_anonymous_args = 0
 538              	.LVL44:
 539 0000 38B5     		push	{r3, r4, r5, lr}
 540              		.cfi_def_cfa_offset 16
 541              		.cfi_offset 3, -16
 542              		.cfi_offset 4, -12
 543              		.cfi_offset 5, -8
 544              		.cfi_offset 14, -4
 545              		.loc 1 231 0
 546 0002 0446     		mov	r4, r0
 547              		.loc 1 229 0
 548 0004 0D46     		mov	r5, r1
 549              		.loc 1 231 0
 550 0006 80B1     		cbz	r0, .L37
 551              	.LVL45:
 552              	.L36:
 553              	.LBB20:
 554              		.loc 1 233 0
 555 0008 2023     		movs	r3, #32
 556              	@ 233 "../../../os/kernel/src/chevents.c" 1
 557 000a 83F31188 		msr     BASEPRI, r3
 558              	@ 0 "" 2
 559              		.thumb
 560              	.LBE20:
 561 000e FFF7FEFF 		bl	dbg_check_lock
ARM GAS  /tmp/ccc7VhL9.s 			page 11


 562              	.LVL46:
 563              		.loc 1 234 0
 564 0012 2046     		mov	r0, r4
 565 0014 2946     		mov	r1, r5
 566 0016 FFF7FEFF 		bl	chEvtSignalI
 567              	.LVL47:
 568              		.loc 1 235 0
 569 001a FFF7FEFF 		bl	chSchRescheduleS
 570              	.LVL48:
 571              		.loc 1 236 0
 572 001e FFF7FEFF 		bl	dbg_check_unlock
 573              	.LVL49:
 574              	.LBB21:
 575 0022 0023     		movs	r3, #0
 576              	@ 236 "../../../os/kernel/src/chevents.c" 1
 577 0024 83F31188 		msr     BASEPRI, r3
 578              	@ 0 "" 2
 579              		.thumb
 580 0028 38BD     		pop	{r3, r4, r5, pc}
 581              	.LVL50:
 582              	.L37:
 583              	.LBE21:
 584              		.loc 1 231 0 discriminator 1
 585 002a 40F20000 		movw	r0, #:lower16:.LC4
 586              	.LVL51:
 587 002e C0F20000 		movt	r0, #:upper16:.LC4
 588 0032 FFF7FEFF 		bl	chDbgPanic
 589              	.LVL52:
 590 0036 E7E7     		b	.L36
 591              		.cfi_endproc
 592              	.LFE13:
 593              		.size	chEvtSignal, .-chEvtSignal
 594 0038 AFF30080 		.section	.text.chEvtBroadcastFlags,"ax",%progbits
 594      AFF30080 
 595              		.align	2
 596              		.p2align 4,,15
 597              		.global	chEvtBroadcastFlags
 598              		.thumb
 599              		.thumb_func
 600              		.type	chEvtBroadcastFlags, %function
 601              	chEvtBroadcastFlags:
 602              	.LFB15:
 603              		.loc 1 278 0
 604              		.cfi_startproc
 605              		@ args = 0, pretend = 0, frame = 0
 606              		@ frame_needed = 0, uses_anonymous_args = 0
 607              	.LVL53:
 608 0000 38B5     		push	{r3, r4, r5, lr}
 609              		.cfi_def_cfa_offset 16
 610              		.cfi_offset 3, -16
 611              		.cfi_offset 4, -12
 612              		.cfi_offset 5, -8
 613              		.cfi_offset 14, -4
 614              		.loc 1 278 0
 615 0002 0546     		mov	r5, r0
 616 0004 0C46     		mov	r4, r1
 617              	.LBB22:
ARM GAS  /tmp/ccc7VhL9.s 			page 12


 618              		.loc 1 280 0
 619 0006 2023     		movs	r3, #32
 620              	@ 280 "../../../os/kernel/src/chevents.c" 1
 621 0008 83F31188 		msr     BASEPRI, r3
 622              	@ 0 "" 2
 623              		.thumb
 624              	.LBE22:
 625 000c FFF7FEFF 		bl	dbg_check_lock
 626              	.LVL54:
 627              		.loc 1 281 0
 628 0010 2846     		mov	r0, r5
 629 0012 2146     		mov	r1, r4
 630 0014 FFF7FEFF 		bl	chEvtBroadcastFlagsI
 631              	.LVL55:
 632              		.loc 1 282 0
 633 0018 FFF7FEFF 		bl	chSchRescheduleS
 634              	.LVL56:
 635              		.loc 1 283 0
 636 001c FFF7FEFF 		bl	dbg_check_unlock
 637              	.LVL57:
 638              	.LBB23:
 639 0020 0023     		movs	r3, #0
 640              	@ 283 "../../../os/kernel/src/chevents.c" 1
 641 0022 83F31188 		msr     BASEPRI, r3
 642              	@ 0 "" 2
 643              		.thumb
 644 0026 38BD     		pop	{r3, r4, r5, pc}
 645              	.LBE23:
 646              		.cfi_endproc
 647              	.LFE15:
 648              		.size	chEvtBroadcastFlags, .-chEvtBroadcastFlags
 649 0028 AFF30080 		.section	.text.chEvtGetAndClearFlagsI,"ax",%progbits
 649      AFF30080 
 650              		.align	2
 651              		.p2align 4,,15
 652              		.global	chEvtGetAndClearFlagsI
 653              		.thumb
 654              		.thumb_func
 655              		.type	chEvtGetAndClearFlagsI, %function
 656              	chEvtGetAndClearFlagsI:
 657              	.LFB16:
 658              		.loc 1 297 0
 659              		.cfi_startproc
 660              		@ args = 0, pretend = 0, frame = 0
 661              		@ frame_needed = 0, uses_anonymous_args = 0
 662              		@ link register save eliminated.
 663              	.LVL58:
 664              		.loc 1 297 0
 665 0000 0346     		mov	r3, r0
 666              		.loc 1 301 0
 667 0002 0022     		movs	r2, #0
 668              		.loc 1 300 0
 669 0004 C068     		ldr	r0, [r0, #12]
 670              	.LVL59:
 671              		.loc 1 301 0
 672 0006 DA60     		str	r2, [r3, #12]
 673              		.loc 1 304 0
ARM GAS  /tmp/ccc7VhL9.s 			page 13


 674 0008 7047     		bx	lr
 675              		.cfi_endproc
 676              	.LFE16:
 677              		.size	chEvtGetAndClearFlagsI, .-chEvtGetAndClearFlagsI
 678 000a 00BFAFF3 		.section	.text.chEvtDispatch,"ax",%progbits
 678      0080
 679              		.align	2
 680              		.p2align 4,,15
 681              		.global	chEvtDispatch
 682              		.thumb
 683              		.thumb_func
 684              		.type	chEvtDispatch, %function
 685              	chEvtDispatch:
 686              	.LFB17:
 687              		.loc 1 315 0
 688              		.cfi_startproc
 689              		@ args = 0, pretend = 0, frame = 0
 690              		@ frame_needed = 0, uses_anonymous_args = 0
 691              	.LVL60:
 692 0000 2DE9F843 		push	{r3, r4, r5, r6, r7, r8, r9, lr}
 693              		.cfi_def_cfa_offset 32
 694              		.cfi_offset 3, -32
 695              		.cfi_offset 4, -28
 696              		.cfi_offset 5, -24
 697              		.cfi_offset 6, -20
 698              		.cfi_offset 7, -16
 699              		.cfi_offset 8, -12
 700              		.cfi_offset 9, -8
 701              		.cfi_offset 14, -4
 702              		.loc 1 318 0
 703 0004 8146     		mov	r9, r0
 704              		.loc 1 315 0
 705 0006 0D46     		mov	r5, r1
 706              		.loc 1 318 0
 707 0008 F0B1     		cbz	r0, .L54
 708              	.LVL61:
 709              	.L41:
 710              		.loc 1 321 0 discriminator 1
 711 000a 95B1     		cbz	r5, .L40
 712              		.loc 1 321 0 is_stmt 0
 713 000c 0026     		movs	r6, #0
 714 000e 3446     		mov	r4, r6
 715              		.loc 1 322 0 is_stmt 1
 716 0010 4FF00108 		mov	r8, #1
 717              	.LVL62:
 718              	.L46:
 719 0014 08FA04F7 		lsl	r7, r8, r4
 720 0018 2F42     		tst	r7, r5
 721 001a 06D0     		beq	.L43
 722              		.loc 1 323 0
 723 001c 59F80630 		ldr	r3, [r9, r6]
 724 0020 4BB1     		cbz	r3, .L55
 725              	.L44:
 726              		.loc 1 327 0
 727 0022 2046     		mov	r0, r4
 728              		.loc 1 326 0
 729 0024 25EA0705 		bic	r5, r5, r7
ARM GAS  /tmp/ccc7VhL9.s 			page 14


 730              	.LVL63:
 731              		.loc 1 327 0
 732 0028 9847     		blx	r3
 733              	.LVL64:
 734              	.L43:
 735              		.loc 1 329 0
 736 002a 0134     		adds	r4, r4, #1
 737              	.LVL65:
 738 002c 0436     		adds	r6, r6, #4
 739              		.loc 1 321 0
 740 002e 002D     		cmp	r5, #0
 741 0030 F0D1     		bne	.L46
 742              	.LVL66:
 743              	.L40:
 744 0032 BDE8F883 		pop	{r3, r4, r5, r6, r7, r8, r9, pc}
 745              	.LVL67:
 746              	.L55:
 747              		.loc 1 323 0 discriminator 1
 748 0036 40F20000 		movw	r0, #:lower16:.LC6
 749 003a C0F20000 		movt	r0, #:upper16:.LC6
 750 003e FFF7FEFF 		bl	chDbgPanic
 751              	.LVL68:
 752 0042 59F80630 		ldr	r3, [r9, r6]
 753 0046 ECE7     		b	.L44
 754              	.LVL69:
 755              	.L54:
 756              		.loc 1 318 0 discriminator 1
 757 0048 40F20000 		movw	r0, #:lower16:.LC5
 758              	.LVL70:
 759 004c C0F20000 		movt	r0, #:upper16:.LC5
 760 0050 FFF7FEFF 		bl	chDbgPanic
 761              	.LVL71:
 762 0054 D9E7     		b	.L41
 763              		.cfi_endproc
 764              	.LFE17:
 765              		.size	chEvtDispatch, .-chEvtDispatch
 766 0056 00BFAFF3 		.section	.text.chEvtWaitOne,"ax",%progbits
 766      0080AFF3 
 766      0080
 767              		.align	2
 768              		.p2align 4,,15
 769              		.global	chEvtWaitOne
 770              		.thumb
 771              		.thumb_func
 772              		.type	chEvtWaitOne, %function
 773              	chEvtWaitOne:
 774              	.LFB18:
 775              		.loc 1 350 0
 776              		.cfi_startproc
 777              		@ args = 0, pretend = 0, frame = 0
 778              		@ frame_needed = 0, uses_anonymous_args = 0
 779              	.LVL72:
 780 0000 38B5     		push	{r3, r4, r5, lr}
 781              		.cfi_def_cfa_offset 16
 782              		.cfi_offset 3, -16
 783              		.cfi_offset 4, -12
 784              		.cfi_offset 5, -8
ARM GAS  /tmp/ccc7VhL9.s 			page 15


 785              		.cfi_offset 14, -4
 786              		.loc 1 351 0
 787 0002 40F20003 		movw	r3, #:lower16:rlist
 788 0006 C0F20003 		movt	r3, #:upper16:rlist
 789              		.loc 1 350 0
 790 000a 0446     		mov	r4, r0
 791              		.loc 1 351 0
 792 000c 9D69     		ldr	r5, [r3, #24]
 793              	.LVL73:
 794              	.LBB24:
 795              		.loc 1 354 0
 796 000e 2023     		movs	r3, #32
 797              	@ 354 "../../../os/kernel/src/chevents.c" 1
 798 0010 83F31188 		msr     BASEPRI, r3
 799              	@ 0 "" 2
 800              		.thumb
 801              	.LBE24:
 802 0014 FFF7FEFF 		bl	dbg_check_lock
 803              	.LVL74:
 804              		.loc 1 356 0
 805 0018 EB6B     		ldr	r3, [r5, #60]
 806              	.LVL75:
 807 001a 14EA0302 		ands	r2, r4, r3
 808              	.LVL76:
 809 001e 06D1     		bne	.L57
 810              		.loc 1 357 0
 811 0020 AC62     		str	r4, [r5, #40]
 812              		.loc 1 358 0
 813 0022 0820     		movs	r0, #8
 814 0024 FFF7FEFF 		bl	chSchGoSleepS
 815              	.LVL77:
 816              		.loc 1 359 0
 817 0028 EB6B     		ldr	r3, [r5, #60]
 818 002a 04EA0302 		and	r2, r4, r3
 819              	.LVL78:
 820              	.L57:
 821              		.loc 1 361 0
 822 002e 5442     		negs	r4, r2
 823              	.LVL79:
 824 0030 1440     		ands	r4, r4, r2
 825              	.LVL80:
 826              		.loc 1 362 0
 827 0032 23EA0403 		bic	r3, r3, r4
 828 0036 EB63     		str	r3, [r5, #60]
 829              		.loc 1 364 0
 830 0038 FFF7FEFF 		bl	dbg_check_unlock
 831              	.LVL81:
 832              	.LBB25:
 833 003c 0023     		movs	r3, #0
 834              	@ 364 "../../../os/kernel/src/chevents.c" 1
 835 003e 83F31188 		msr     BASEPRI, r3
 836              	@ 0 "" 2
 837              		.thumb
 838              	.LBE25:
 839              		.loc 1 366 0
 840 0042 2046     		mov	r0, r4
 841 0044 38BD     		pop	{r3, r4, r5, pc}
ARM GAS  /tmp/ccc7VhL9.s 			page 16


 842              		.cfi_endproc
 843              	.LFE18:
 844              		.size	chEvtWaitOne, .-chEvtWaitOne
 845 0046 00BFAFF3 		.section	.text.chEvtWaitAny,"ax",%progbits
 845      0080AFF3 
 845      0080
 846              		.align	2
 847              		.p2align 4,,15
 848              		.global	chEvtWaitAny
 849              		.thumb
 850              		.thumb_func
 851              		.type	chEvtWaitAny, %function
 852              	chEvtWaitAny:
 853              	.LFB19:
 854              		.loc 1 379 0
 855              		.cfi_startproc
 856              		@ args = 0, pretend = 0, frame = 0
 857              		@ frame_needed = 0, uses_anonymous_args = 0
 858              	.LVL82:
 859              		.loc 1 380 0
 860 0000 40F20003 		movw	r3, #:lower16:rlist
 861 0004 C0F20003 		movt	r3, #:upper16:rlist
 862              		.loc 1 379 0
 863 0008 70B5     		push	{r4, r5, r6, lr}
 864              		.cfi_def_cfa_offset 16
 865              		.cfi_offset 4, -16
 866              		.cfi_offset 5, -12
 867              		.cfi_offset 6, -8
 868              		.cfi_offset 14, -4
 869              		.loc 1 380 0
 870 000a 9D69     		ldr	r5, [r3, #24]
 871              	.LVL83:
 872              		.loc 1 379 0
 873 000c 0446     		mov	r4, r0
 874              	.LBB26:
 875              		.loc 1 383 0
 876 000e 2023     		movs	r3, #32
 877              	@ 383 "../../../os/kernel/src/chevents.c" 1
 878 0010 83F31188 		msr     BASEPRI, r3
 879              	@ 0 "" 2
 880              		.thumb
 881              	.LBE26:
 882 0014 FFF7FEFF 		bl	dbg_check_lock
 883              	.LVL84:
 884              		.loc 1 385 0
 885 0018 EB6B     		ldr	r3, [r5, #60]
 886              	.LVL85:
 887 001a 14EA0306 		ands	r6, r4, r3
 888              	.LVL86:
 889 001e 06D1     		bne	.L60
 890              		.loc 1 386 0
 891 0020 AC62     		str	r4, [r5, #40]
 892              		.loc 1 387 0
 893 0022 0820     		movs	r0, #8
 894 0024 FFF7FEFF 		bl	chSchGoSleepS
 895              	.LVL87:
 896              		.loc 1 388 0
ARM GAS  /tmp/ccc7VhL9.s 			page 17


 897 0028 EB6B     		ldr	r3, [r5, #60]
 898 002a 04EA0306 		and	r6, r4, r3
 899              	.LVL88:
 900              	.L60:
 901              		.loc 1 390 0
 902 002e 23EA0603 		bic	r3, r3, r6
 903 0032 EB63     		str	r3, [r5, #60]
 904              		.loc 1 392 0
 905 0034 FFF7FEFF 		bl	dbg_check_unlock
 906              	.LVL89:
 907              	.LBB27:
 908 0038 0023     		movs	r3, #0
 909              	@ 392 "../../../os/kernel/src/chevents.c" 1
 910 003a 83F31188 		msr     BASEPRI, r3
 911              	@ 0 "" 2
 912              		.thumb
 913              	.LBE27:
 914              		.loc 1 394 0
 915 003e 3046     		mov	r0, r6
 916 0040 70BD     		pop	{r4, r5, r6, pc}
 917              		.cfi_endproc
 918              	.LFE19:
 919              		.size	chEvtWaitAny, .-chEvtWaitAny
 920 0042 00BFAFF3 		.section	.text.chEvtWaitAll,"ax",%progbits
 920      0080AFF3 
 920      0080AFF3 
 920      0080
 921              		.align	2
 922              		.p2align 4,,15
 923              		.global	chEvtWaitAll
 924              		.thumb
 925              		.thumb_func
 926              		.type	chEvtWaitAll, %function
 927              	chEvtWaitAll:
 928              	.LFB20:
 929              		.loc 1 407 0
 930              		.cfi_startproc
 931              		@ args = 0, pretend = 0, frame = 0
 932              		@ frame_needed = 0, uses_anonymous_args = 0
 933              	.LVL90:
 934 0000 38B5     		push	{r3, r4, r5, lr}
 935              		.cfi_def_cfa_offset 16
 936              		.cfi_offset 3, -16
 937              		.cfi_offset 4, -12
 938              		.cfi_offset 5, -8
 939              		.cfi_offset 14, -4
 940              		.loc 1 408 0
 941 0002 40F20003 		movw	r3, #:lower16:rlist
 942 0006 C0F20003 		movt	r3, #:upper16:rlist
 943              		.loc 1 407 0
 944 000a 0446     		mov	r4, r0
 945              		.loc 1 408 0
 946 000c 9D69     		ldr	r5, [r3, #24]
 947              	.LVL91:
 948              	.LBB28:
 949              		.loc 1 410 0
 950 000e 2023     		movs	r3, #32
ARM GAS  /tmp/ccc7VhL9.s 			page 18


 951              	@ 410 "../../../os/kernel/src/chevents.c" 1
 952 0010 83F31188 		msr     BASEPRI, r3
 953              	@ 0 "" 2
 954              		.thumb
 955              	.LBE28:
 956 0014 FFF7FEFF 		bl	dbg_check_lock
 957              	.LVL92:
 958              		.loc 1 412 0
 959 0018 EB6B     		ldr	r3, [r5, #60]
 960 001a 04EA0302 		and	r2, r4, r3
 961 001e A242     		cmp	r2, r4
 962 0020 04D0     		beq	.L63
 963              		.loc 1 413 0
 964 0022 AC62     		str	r4, [r5, #40]
 965              		.loc 1 414 0
 966 0024 0920     		movs	r0, #9
 967 0026 FFF7FEFF 		bl	chSchGoSleepS
 968              	.LVL93:
 969 002a EB6B     		ldr	r3, [r5, #60]
 970              	.L63:
 971              		.loc 1 416 0
 972 002c 23EA0403 		bic	r3, r3, r4
 973 0030 EB63     		str	r3, [r5, #60]
 974              		.loc 1 418 0
 975 0032 FFF7FEFF 		bl	dbg_check_unlock
 976              	.LVL94:
 977              	.LBB29:
 978 0036 0023     		movs	r3, #0
 979              	@ 418 "../../../os/kernel/src/chevents.c" 1
 980 0038 83F31188 		msr     BASEPRI, r3
 981              	@ 0 "" 2
 982              		.thumb
 983              	.LBE29:
 984              		.loc 1 420 0
 985 003c 2046     		mov	r0, r4
 986 003e 38BD     		pop	{r3, r4, r5, pc}
 987              		.cfi_endproc
 988              	.LFE20:
 989              		.size	chEvtWaitAll, .-chEvtWaitAll
 990              		.section	.text.chEvtWaitOneTimeout,"ax",%progbits
 991              		.align	2
 992              		.p2align 4,,15
 993              		.global	chEvtWaitOneTimeout
 994              		.thumb
 995              		.thumb_func
 996              		.type	chEvtWaitOneTimeout, %function
 997              	chEvtWaitOneTimeout:
 998              	.LFB21:
 999              		.loc 1 446 0
 1000              		.cfi_startproc
 1001              		@ args = 0, pretend = 0, frame = 0
 1002              		@ frame_needed = 0, uses_anonymous_args = 0
 1003              	.LVL95:
 1004              		.loc 1 447 0
 1005 0000 40F20002 		movw	r2, #:lower16:rlist
 1006 0004 C0F20002 		movt	r2, #:upper16:rlist
 1007              		.loc 1 446 0
ARM GAS  /tmp/ccc7VhL9.s 			page 19


 1008 0008 F8B5     		push	{r3, r4, r5, r6, r7, lr}
 1009              		.cfi_def_cfa_offset 24
 1010              		.cfi_offset 3, -24
 1011              		.cfi_offset 4, -20
 1012              		.cfi_offset 5, -16
 1013              		.cfi_offset 6, -12
 1014              		.cfi_offset 7, -8
 1015              		.cfi_offset 14, -4
 1016              		.loc 1 446 0
 1017 000a 0446     		mov	r4, r0
 1018 000c 0F46     		mov	r7, r1
 1019              		.loc 1 447 0
 1020 000e 9569     		ldr	r5, [r2, #24]
 1021              	.LVL96:
 1022              	.LBB30:
 1023              		.loc 1 450 0
 1024 0010 2023     		movs	r3, #32
 1025              	@ 450 "../../../os/kernel/src/chevents.c" 1
 1026 0012 83F31188 		msr     BASEPRI, r3
 1027              	@ 0 "" 2
 1028              		.thumb
 1029              	.LBE30:
 1030 0016 FFF7FEFF 		bl	dbg_check_lock
 1031              	.LVL97:
 1032              		.loc 1 452 0
 1033 001a EA6B     		ldr	r2, [r5, #60]
 1034              	.LVL98:
 1035 001c 14EA0206 		ands	r6, r4, r2
 1036              	.LVL99:
 1037 0020 0BD1     		bne	.L66
 1038              		.loc 1 453 0
 1039 0022 B7B1     		cbz	r7, .L71
 1040              		.loc 1 457 0
 1041 0024 AC62     		str	r4, [r5, #40]
 1042              		.loc 1 458 0
 1043 0026 3946     		mov	r1, r7
 1044 0028 0820     		movs	r0, #8
 1045 002a FFF7FEFF 		bl	chSchGoSleepTimeoutS
 1046              	.LVL100:
 1047 002e 0028     		cmp	r0, #0
 1048              		.loc 1 462 0
 1049 0030 A4BF     		itt	ge
 1050 0032 EA6B     		ldrge	r2, [r5, #60]
 1051 0034 04EA0206 		andge	r6, r4, r2
 1052              	.LVL101:
 1053              		.loc 1 458 0
 1054 0038 12DB     		blt	.L72
 1055              	.L66:
 1056              	.LVL102:
 1057              		.loc 1 464 0
 1058 003a 7342     		negs	r3, r6
 1059 003c 1E40     		ands	r6, r6, r3
 1060              	.LVL103:
 1061              		.loc 1 465 0
 1062 003e 22EA0602 		bic	r2, r2, r6
 1063 0042 EA63     		str	r2, [r5, #60]
 1064              		.loc 1 467 0
ARM GAS  /tmp/ccc7VhL9.s 			page 20


 1065 0044 FFF7FEFF 		bl	dbg_check_unlock
 1066              	.LVL104:
 1067              	.LBB31:
 1068 0048 0023     		movs	r3, #0
 1069              	@ 467 "../../../os/kernel/src/chevents.c" 1
 1070 004a 83F31188 		msr     BASEPRI, r3
 1071              	@ 0 "" 2
 1072              		.thumb
 1073              	.LBE31:
 1074              		.loc 1 468 0
 1075 004e 3046     		mov	r0, r6
 1076              		.loc 1 469 0
 1077 0050 F8BD     		pop	{r3, r4, r5, r6, r7, pc}
 1078              	.LVL105:
 1079              	.L71:
 1080              		.loc 1 454 0
 1081 0052 FFF7FEFF 		bl	dbg_check_unlock
 1082              	.LVL106:
 1083              	.LBB32:
 1084 0056 3B46     		mov	r3, r7
 1085              	@ 454 "../../../os/kernel/src/chevents.c" 1
 1086 0058 83F31188 		msr     BASEPRI, r3
 1087              	@ 0 "" 2
 1088              		.thumb
 1089              	.LBE32:
 1090              		.loc 1 455 0
 1091 005c 0020     		movs	r0, #0
 1092 005e F8BD     		pop	{r3, r4, r5, r6, r7, pc}
 1093              	.LVL107:
 1094              	.L72:
 1095              		.loc 1 459 0
 1096 0060 FFF7FEFF 		bl	dbg_check_unlock
 1097              	.LVL108:
 1098              	.LBB33:
 1099 0064 3346     		mov	r3, r6
 1100              	@ 459 "../../../os/kernel/src/chevents.c" 1
 1101 0066 83F31188 		msr     BASEPRI, r3
 1102              	@ 0 "" 2
 1103              		.thumb
 1104              	.LBE33:
 1105              		.loc 1 460 0
 1106 006a 0020     		movs	r0, #0
 1107 006c F8BD     		pop	{r3, r4, r5, r6, r7, pc}
 1108              		.cfi_endproc
 1109              	.LFE21:
 1110              		.size	chEvtWaitOneTimeout, .-chEvtWaitOneTimeout
 1111 006e 00BF     		.section	.text.chEvtWaitAnyTimeout,"ax",%progbits
 1112              		.align	2
 1113              		.p2align 4,,15
 1114              		.global	chEvtWaitAnyTimeout
 1115              		.thumb
 1116              		.thumb_func
 1117              		.type	chEvtWaitAnyTimeout, %function
 1118              	chEvtWaitAnyTimeout:
 1119              	.LFB22:
 1120              		.loc 1 489 0
 1121              		.cfi_startproc
ARM GAS  /tmp/ccc7VhL9.s 			page 21


 1122              		@ args = 0, pretend = 0, frame = 0
 1123              		@ frame_needed = 0, uses_anonymous_args = 0
 1124              	.LVL109:
 1125              		.loc 1 490 0
 1126 0000 40F20002 		movw	r2, #:lower16:rlist
 1127 0004 C0F20002 		movt	r2, #:upper16:rlist
 1128              		.loc 1 489 0
 1129 0008 F8B5     		push	{r3, r4, r5, r6, r7, lr}
 1130              		.cfi_def_cfa_offset 24
 1131              		.cfi_offset 3, -24
 1132              		.cfi_offset 4, -20
 1133              		.cfi_offset 5, -16
 1134              		.cfi_offset 6, -12
 1135              		.cfi_offset 7, -8
 1136              		.cfi_offset 14, -4
 1137              		.loc 1 489 0
 1138 000a 0446     		mov	r4, r0
 1139 000c 0F46     		mov	r7, r1
 1140              		.loc 1 490 0
 1141 000e 9569     		ldr	r5, [r2, #24]
 1142              	.LVL110:
 1143              	.LBB34:
 1144              		.loc 1 493 0
 1145 0010 2023     		movs	r3, #32
 1146              	@ 493 "../../../os/kernel/src/chevents.c" 1
 1147 0012 83F31188 		msr     BASEPRI, r3
 1148              	@ 0 "" 2
 1149              		.thumb
 1150              	.LBE34:
 1151 0016 FFF7FEFF 		bl	dbg_check_lock
 1152              	.LVL111:
 1153              		.loc 1 495 0
 1154 001a EA6B     		ldr	r2, [r5, #60]
 1155              	.LVL112:
 1156 001c 14EA0206 		ands	r6, r4, r2
 1157              	.LVL113:
 1158 0020 0BD1     		bne	.L74
 1159              		.loc 1 496 0
 1160 0022 A7B1     		cbz	r7, .L79
 1161              		.loc 1 500 0
 1162 0024 AC62     		str	r4, [r5, #40]
 1163              		.loc 1 501 0
 1164 0026 3946     		mov	r1, r7
 1165 0028 0820     		movs	r0, #8
 1166 002a FFF7FEFF 		bl	chSchGoSleepTimeoutS
 1167              	.LVL114:
 1168 002e 0028     		cmp	r0, #0
 1169              		.loc 1 505 0
 1170 0030 A4BF     		itt	ge
 1171 0032 EA6B     		ldrge	r2, [r5, #60]
 1172 0034 04EA0206 		andge	r6, r4, r2
 1173              	.LVL115:
 1174              		.loc 1 501 0
 1175 0038 10DB     		blt	.L80
 1176              	.L74:
 1177              	.LVL116:
 1178              		.loc 1 507 0
ARM GAS  /tmp/ccc7VhL9.s 			page 22


 1179 003a 22EA0602 		bic	r2, r2, r6
 1180 003e EA63     		str	r2, [r5, #60]
 1181              		.loc 1 509 0
 1182 0040 FFF7FEFF 		bl	dbg_check_unlock
 1183              	.LVL117:
 1184              	.LBB35:
 1185 0044 0023     		movs	r3, #0
 1186              	@ 509 "../../../os/kernel/src/chevents.c" 1
 1187 0046 83F31188 		msr     BASEPRI, r3
 1188              	@ 0 "" 2
 1189              		.thumb
 1190              	.LBE35:
 1191              		.loc 1 510 0
 1192 004a 3046     		mov	r0, r6
 1193              		.loc 1 511 0
 1194 004c F8BD     		pop	{r3, r4, r5, r6, r7, pc}
 1195              	.LVL118:
 1196              	.L79:
 1197              		.loc 1 497 0
 1198 004e FFF7FEFF 		bl	dbg_check_unlock
 1199              	.LVL119:
 1200              	.LBB36:
 1201 0052 3B46     		mov	r3, r7
 1202              	@ 497 "../../../os/kernel/src/chevents.c" 1
 1203 0054 83F31188 		msr     BASEPRI, r3
 1204              	@ 0 "" 2
 1205              		.thumb
 1206              	.LBE36:
 1207              		.loc 1 498 0
 1208 0058 0020     		movs	r0, #0
 1209 005a F8BD     		pop	{r3, r4, r5, r6, r7, pc}
 1210              	.LVL120:
 1211              	.L80:
 1212              		.loc 1 502 0
 1213 005c FFF7FEFF 		bl	dbg_check_unlock
 1214              	.LVL121:
 1215              	.LBB37:
 1216 0060 3346     		mov	r3, r6
 1217              	@ 502 "../../../os/kernel/src/chevents.c" 1
 1218 0062 83F31188 		msr     BASEPRI, r3
 1219              	@ 0 "" 2
 1220              		.thumb
 1221              	.LBE37:
 1222              		.loc 1 503 0
 1223 0066 0020     		movs	r0, #0
 1224 0068 F8BD     		pop	{r3, r4, r5, r6, r7, pc}
 1225              		.cfi_endproc
 1226              	.LFE22:
 1227              		.size	chEvtWaitAnyTimeout, .-chEvtWaitAnyTimeout
 1228 006a 00BFAFF3 		.section	.text.chEvtWaitAllTimeout,"ax",%progbits
 1228      0080
 1229              		.align	2
 1230              		.p2align 4,,15
 1231              		.global	chEvtWaitAllTimeout
 1232              		.thumb
 1233              		.thumb_func
 1234              		.type	chEvtWaitAllTimeout, %function
ARM GAS  /tmp/ccc7VhL9.s 			page 23


 1235              	chEvtWaitAllTimeout:
 1236              	.LFB23:
 1237              		.loc 1 530 0
 1238              		.cfi_startproc
 1239              		@ args = 0, pretend = 0, frame = 0
 1240              		@ frame_needed = 0, uses_anonymous_args = 0
 1241              	.LVL122:
 1242              		.loc 1 531 0
 1243 0000 40F20002 		movw	r2, #:lower16:rlist
 1244 0004 C0F20002 		movt	r2, #:upper16:rlist
 1245              		.loc 1 530 0
 1246 0008 70B5     		push	{r4, r5, r6, lr}
 1247              		.cfi_def_cfa_offset 16
 1248              		.cfi_offset 4, -16
 1249              		.cfi_offset 5, -12
 1250              		.cfi_offset 6, -8
 1251              		.cfi_offset 14, -4
 1252              	.LBB38:
 1253              		.loc 1 533 0
 1254 000a 2023     		movs	r3, #32
 1255              	.LBE38:
 1256              		.loc 1 530 0
 1257 000c 0446     		mov	r4, r0
 1258 000e 0E46     		mov	r6, r1
 1259              		.loc 1 531 0
 1260 0010 9569     		ldr	r5, [r2, #24]
 1261              	.LVL123:
 1262              	.LBB39:
 1263              		.loc 1 533 0
 1264              	@ 533 "../../../os/kernel/src/chevents.c" 1
 1265 0012 83F31188 		msr     BASEPRI, r3
 1266              	@ 0 "" 2
 1267              		.thumb
 1268              	.LBE39:
 1269 0016 FFF7FEFF 		bl	dbg_check_lock
 1270              	.LVL124:
 1271              		.loc 1 535 0
 1272 001a EB6B     		ldr	r3, [r5, #60]
 1273 001c 04EA0302 		and	r2, r4, r3
 1274 0020 A242     		cmp	r2, r4
 1275 0022 08D0     		beq	.L82
 1276              		.loc 1 536 0
 1277 0024 8EB1     		cbz	r6, .L87
 1278              		.loc 1 540 0
 1279 0026 AC62     		str	r4, [r5, #40]
 1280              		.loc 1 541 0
 1281 0028 3146     		mov	r1, r6
 1282 002a 0920     		movs	r0, #9
 1283 002c FFF7FEFF 		bl	chSchGoSleepTimeoutS
 1284              	.LVL125:
 1285 0030 0028     		cmp	r0, #0
 1286 0032 11DB     		blt	.L85
 1287 0034 EB6B     		ldr	r3, [r5, #60]
 1288              	.L82:
 1289              		.loc 1 546 0
 1290 0036 23EA0403 		bic	r3, r3, r4
 1291 003a EB63     		str	r3, [r5, #60]
ARM GAS  /tmp/ccc7VhL9.s 			page 24


 1292              		.loc 1 548 0
 1293 003c FFF7FEFF 		bl	dbg_check_unlock
 1294              	.LVL126:
 1295              	.LBB40:
 1296 0040 0023     		movs	r3, #0
 1297              	@ 548 "../../../os/kernel/src/chevents.c" 1
 1298 0042 83F31188 		msr     BASEPRI, r3
 1299              	@ 0 "" 2
 1300              		.thumb
 1301              	.LBE40:
 1302              		.loc 1 549 0
 1303 0046 2046     		mov	r0, r4
 1304              		.loc 1 550 0
 1305 0048 70BD     		pop	{r4, r5, r6, pc}
 1306              	.LVL127:
 1307              	.L87:
 1308              		.loc 1 537 0
 1309 004a FFF7FEFF 		bl	dbg_check_unlock
 1310              	.LVL128:
 1311              	.LBB41:
 1312 004e 3346     		mov	r3, r6
 1313              	@ 537 "../../../os/kernel/src/chevents.c" 1
 1314 0050 83F31188 		msr     BASEPRI, r3
 1315              	@ 0 "" 2
 1316              		.thumb
 1317              	.LBE41:
 1318              		.loc 1 538 0
 1319 0054 0020     		movs	r0, #0
 1320 0056 70BD     		pop	{r4, r5, r6, pc}
 1321              	.LVL129:
 1322              	.L85:
 1323              		.loc 1 542 0
 1324 0058 FFF7FEFF 		bl	dbg_check_unlock
 1325              	.LVL130:
 1326              	.LBB42:
 1327 005c 0023     		movs	r3, #0
 1328              	@ 542 "../../../os/kernel/src/chevents.c" 1
 1329 005e 83F31188 		msr     BASEPRI, r3
 1330              	@ 0 "" 2
 1331              		.thumb
 1332              	.LBE42:
 1333              		.loc 1 543 0
 1334 0062 0020     		movs	r0, #0
 1335 0064 70BD     		pop	{r4, r5, r6, pc}
 1336              		.cfi_endproc
 1337              	.LFE23:
 1338              		.size	chEvtWaitAllTimeout, .-chEvtWaitAllTimeout
 1339 0066 00BFAFF3 		.section	.rodata.str1.4,"aMS",%progbits,1
 1339      0080AFF3 
 1339      0080
 1340              		.align	2
 1341              	.LC0:
 1342 0000 22636845 		.ascii	"\"chEvtRegisterMask\"()\000"
 1342      76745265 
 1342      67697374 
 1342      65724D61 
 1342      736B2228 
ARM GAS  /tmp/ccc7VhL9.s 			page 25


 1343 0016 0000     		.space	2
 1344              	.LC1:
 1345 0018 22636845 		.ascii	"\"chEvtUnregister\"()\000"
 1345      7674556E 
 1345      72656769 
 1345      73746572 
 1345      22282900 
 1346              	.LC2:
 1347 002c 22636845 		.ascii	"\"chEvtSignalI\"()\000"
 1347      76745369 
 1347      676E616C 
 1347      49222829 
 1347      00
 1348 003d 000000   		.space	3
 1349              	.LC3:
 1350 0040 22636845 		.ascii	"\"chEvtBroadcastMaskI\"()\000"
 1350      76744272 
 1350      6F616463 
 1350      6173744D 
 1350      61736B49 
 1351              	.LC4:
 1352 0058 22636845 		.ascii	"\"chEvtSignal\"()\000"
 1352      76745369 
 1352      676E616C 
 1352      22282900 
 1353              	.LC5:
 1354 0068 22636845 		.ascii	"\"chEvtDispatch\"()\000"
 1354      76744469 
 1354      73706174 
 1354      63682228 
 1354      2900
 1355 007a 0000     		.space	2
 1356              	.LC6:
 1357 007c 63684576 		.ascii	"chEvtDispatch(), #1\000"
 1357      74446973 
 1357      70617463 
 1357      6828292C 
 1357      20233100 
 1358              		.text
 1359              	.Letext0:
 1360              		.file 2 "/usr/include/newlib/machine/_default_types.h"
 1361              		.file 3 "/usr/include/newlib/stdint.h"
 1362              		.file 4 "../../../os/ports/GCC/ARMCMx/chtypes.h"
 1363              		.file 5 "../../../os/kernel/include/chlists.h"
 1364              		.file 6 "../../../os/kernel/include/chthreads.h"
 1365              		.file 7 "../../../os/ports/GCC/ARMCMx/chcore_v7m.h"
 1366              		.file 8 "../../../os/kernel/include/chschd.h"
 1367              		.file 9 "../../../os/kernel/include/chmtx.h"
 1368              		.file 10 "../../../os/kernel/include/chevents.h"
 1369              		.file 11 "../../../os/kernel/include/chdebug.h"