ARM GAS  /tmp/ccISgukG.s 			page 1


   1              		.syntax unified
   2              		.cpu cortex-m4
   3              		.fpu softvfp
   4              		.eabi_attribute 20, 1
   5              		.eabi_attribute 21, 1
   6              		.eabi_attribute 23, 3
   7              		.eabi_attribute 24, 1
   8              		.eabi_attribute 25, 1
   9              		.eabi_attribute 26, 1
  10              		.eabi_attribute 30, 2
  11              		.eabi_attribute 34, 1
  12              		.eabi_attribute 18, 4
  13              		.thumb
  14              		.file	"chmempools.c"
  15              		.text
  16              	.Ltext0:
  17              		.cfi_sections	.debug_frame
  18              		.section	.text.chPoolInit,"ax",%progbits
  19              		.align	2
  20              		.p2align 4,,15
  21              		.global	chPoolInit
  22              		.thumb
  23              		.thumb_func
  24              		.type	chPoolInit, %function
  25              	chPoolInit:
  26              	.LFB7:
  27              		.file 1 "../../../os/kernel/src/chmempools.c"
  28              		.loc 1 62 0
  29              		.cfi_startproc
  30              		@ args = 0, pretend = 0, frame = 0
  31              		@ frame_needed = 0, uses_anonymous_args = 0
  32              	.LVL0:
  33              		.loc 1 64 0
  34 0000 0028     		cmp	r0, #0
  35 0002 18BF     		it	ne
  36 0004 0329     		cmpne	r1, #3
  37              		.loc 1 62 0
  38 0006 70B5     		push	{r4, r5, r6, lr}
  39              		.cfi_def_cfa_offset 16
  40              		.cfi_offset 4, -16
  41              		.cfi_offset 5, -12
  42              		.cfi_offset 6, -8
  43              		.cfi_offset 14, -4
  44              		.loc 1 62 0
  45 0008 0D46     		mov	r5, r1
  46              		.loc 1 64 0
  47 000a 0446     		mov	r4, r0
  48              		.loc 1 62 0
  49 000c 1646     		mov	r6, r2
  50              		.loc 1 64 0
  51 000e 05D8     		bhi	.L2
  52              		.loc 1 64 0 is_stmt 0 discriminator 1
  53 0010 40F20000 		movw	r0, #:lower16:.LC0
  54              	.LVL1:
  55 0014 C0F20000 		movt	r0, #:upper16:.LC0
  56 0018 FFF7FEFF 		bl	chDbgPanic
  57              	.LVL2:
ARM GAS  /tmp/ccISgukG.s 			page 2


  58              	.L2:
  59              		.loc 1 66 0 is_stmt 1
  60 001c 0023     		movs	r3, #0
  61 001e 84E86800 		stmia	r4, {r3, r5, r6}
  62 0022 70BD     		pop	{r4, r5, r6, pc}
  63              		.cfi_endproc
  64              	.LFE7:
  65              		.size	chPoolInit, .-chPoolInit
  66 0024 AFF30080 		.section	.text.chPoolAllocI,"ax",%progbits
  66      AFF30080 
  66      AFF30080 
  67              		.align	2
  68              		.p2align 4,,15
  69              		.global	chPoolAllocI
  70              		.thumb
  71              		.thumb_func
  72              		.type	chPoolAllocI, %function
  73              	chPoolAllocI:
  74              	.LFB9:
  75              		.loc 1 105 0
  76              		.cfi_startproc
  77              		@ args = 0, pretend = 0, frame = 0
  78              		@ frame_needed = 0, uses_anonymous_args = 0
  79              	.LVL3:
  80 0000 10B5     		push	{r4, lr}
  81              		.cfi_def_cfa_offset 8
  82              		.cfi_offset 4, -8
  83              		.cfi_offset 14, -4
  84              		.loc 1 105 0
  85 0002 0446     		mov	r4, r0
  86              		.loc 1 108 0
  87 0004 FFF7FEFF 		bl	chDbgCheckClassI
  88              	.LVL4:
  89              		.loc 1 109 0
  90 0008 4CB1     		cbz	r4, .L14
  91              	.L8:
  92              		.loc 1 111 0
  93 000a 2068     		ldr	r0, [r4]
  94              	.LVL5:
  95 000c 10B1     		cbz	r0, .L9
  96              		.loc 1 112 0
  97 000e 0368     		ldr	r3, [r0]
  98 0010 2360     		str	r3, [r4]
  99 0012 10BD     		pop	{r4, pc}
 100              	.LVL6:
 101              	.L9:
 102              		.loc 1 113 0
 103 0014 A368     		ldr	r3, [r4, #8]
 104 0016 0BB1     		cbz	r3, .L10
 105              		.loc 1 114 0
 106 0018 6068     		ldr	r0, [r4, #4]
 107              	.LVL7:
 108 001a 9847     		blx	r3
 109              	.LVL8:
 110              	.L10:
 111              		.loc 1 116 0
 112 001c 10BD     		pop	{r4, pc}
ARM GAS  /tmp/ccISgukG.s 			page 3


 113              	.LVL9:
 114              	.L14:
 115              		.loc 1 109 0 discriminator 1
 116 001e 40F20000 		movw	r0, #:lower16:.LC1
 117 0022 C0F20000 		movt	r0, #:upper16:.LC1
 118 0026 FFF7FEFF 		bl	chDbgPanic
 119              	.LVL10:
 120 002a EEE7     		b	.L8
 121              		.cfi_endproc
 122              	.LFE9:
 123              		.size	chPoolAllocI, .-chPoolAllocI
 124 002c AFF30080 		.section	.text.chPoolAlloc,"ax",%progbits
 125              		.align	2
 126              		.p2align 4,,15
 127              		.global	chPoolAlloc
 128              		.thumb
 129              		.thumb_func
 130              		.type	chPoolAlloc, %function
 131              	chPoolAlloc:
 132              	.LFB10:
 133              		.loc 1 128 0
 134              		.cfi_startproc
 135              		@ args = 0, pretend = 0, frame = 0
 136              		@ frame_needed = 0, uses_anonymous_args = 0
 137              	.LVL11:
 138 0000 10B5     		push	{r4, lr}
 139              		.cfi_def_cfa_offset 8
 140              		.cfi_offset 4, -8
 141              		.cfi_offset 14, -4
 142              	.LBB2:
 143              		.loc 1 131 0
 144 0002 2023     		movs	r3, #32
 145              	.LBE2:
 146              		.loc 1 128 0
 147 0004 0446     		mov	r4, r0
 148              	.LBB3:
 149              		.loc 1 131 0
 150              	@ 131 "../../../os/kernel/src/chmempools.c" 1
 151 0006 83F31188 		msr     BASEPRI, r3
 152              	@ 0 "" 2
 153              		.thumb
 154              	.LBE3:
 155 000a FFF7FEFF 		bl	dbg_check_lock
 156              	.LVL12:
 157              		.loc 1 132 0
 158 000e 2046     		mov	r0, r4
 159 0010 FFF7FEFF 		bl	chPoolAllocI
 160              	.LVL13:
 161 0014 0446     		mov	r4, r0
 162              	.LVL14:
 163              		.loc 1 133 0
 164 0016 FFF7FEFF 		bl	dbg_check_unlock
 165              	.LVL15:
 166              	.LBB4:
 167 001a 0023     		movs	r3, #0
 168              	@ 133 "../../../os/kernel/src/chmempools.c" 1
 169 001c 83F31188 		msr     BASEPRI, r3
ARM GAS  /tmp/ccISgukG.s 			page 4


 170              	@ 0 "" 2
 171              		.thumb
 172              	.LBE4:
 173              		.loc 1 135 0
 174 0020 2046     		mov	r0, r4
 175 0022 10BD     		pop	{r4, pc}
 176              		.cfi_endproc
 177              	.LFE10:
 178              		.size	chPoolAlloc, .-chPoolAlloc
 179 0024 AFF30080 		.section	.text.chPoolFreeI,"ax",%progbits
 179      AFF30080 
 179      AFF30080 
 180              		.align	2
 181              		.p2align 4,,15
 182              		.global	chPoolFreeI
 183              		.thumb
 184              		.thumb_func
 185              		.type	chPoolFreeI, %function
 186              	chPoolFreeI:
 187              	.LFB11:
 188              		.loc 1 149 0
 189              		.cfi_startproc
 190              		@ args = 0, pretend = 0, frame = 0
 191              		@ frame_needed = 0, uses_anonymous_args = 0
 192              	.LVL16:
 193 0000 38B5     		push	{r3, r4, r5, lr}
 194              		.cfi_def_cfa_offset 16
 195              		.cfi_offset 3, -16
 196              		.cfi_offset 4, -12
 197              		.cfi_offset 5, -8
 198              		.cfi_offset 14, -4
 199              		.loc 1 149 0
 200 0002 0446     		mov	r4, r0
 201 0004 0D46     		mov	r5, r1
 202              	.LVL17:
 203              		.loc 1 152 0
 204 0006 FFF7FEFF 		bl	chDbgCheckClassI
 205              	.LVL18:
 206              		.loc 1 153 0
 207 000a 002C     		cmp	r4, #0
 208 000c 18BF     		it	ne
 209 000e 002D     		cmpne	r5, #0
 210 0010 05D1     		bne	.L17
 211              		.loc 1 153 0 is_stmt 0 discriminator 1
 212 0012 40F20000 		movw	r0, #:lower16:.LC2
 213 0016 C0F20000 		movt	r0, #:upper16:.LC2
 214 001a FFF7FEFF 		bl	chDbgPanic
 215              	.LVL19:
 216              	.L17:
 217              		.loc 1 155 0 is_stmt 1
 218 001e 2368     		ldr	r3, [r4]
 219 0020 2B60     		str	r3, [r5]
 220              		.loc 1 156 0
 221 0022 2560     		str	r5, [r4]
 222 0024 38BD     		pop	{r3, r4, r5, pc}
 223              		.cfi_endproc
 224              	.LFE11:
ARM GAS  /tmp/ccISgukG.s 			page 5


 225              		.size	chPoolFreeI, .-chPoolFreeI
 226 0026 00BFAFF3 		.section	.text.chPoolFree,"ax",%progbits
 226      0080AFF3 
 226      0080
 227              		.align	2
 228              		.p2align 4,,15
 229              		.global	chPoolFree
 230              		.thumb
 231              		.thumb_func
 232              		.type	chPoolFree, %function
 233              	chPoolFree:
 234              	.LFB12:
 235              		.loc 1 171 0
 236              		.cfi_startproc
 237              		@ args = 0, pretend = 0, frame = 0
 238              		@ frame_needed = 0, uses_anonymous_args = 0
 239              	.LVL20:
 240 0000 38B5     		push	{r3, r4, r5, lr}
 241              		.cfi_def_cfa_offset 16
 242              		.cfi_offset 3, -16
 243              		.cfi_offset 4, -12
 244              		.cfi_offset 5, -8
 245              		.cfi_offset 14, -4
 246              		.loc 1 171 0
 247 0002 0546     		mov	r5, r0
 248 0004 0C46     		mov	r4, r1
 249              	.LBB5:
 250              		.loc 1 173 0
 251 0006 2023     		movs	r3, #32
 252              	@ 173 "../../../os/kernel/src/chmempools.c" 1
 253 0008 83F31188 		msr     BASEPRI, r3
 254              	@ 0 "" 2
 255              		.thumb
 256              	.LBE5:
 257 000c FFF7FEFF 		bl	dbg_check_lock
 258              	.LVL21:
 259              		.loc 1 174 0
 260 0010 2846     		mov	r0, r5
 261 0012 2146     		mov	r1, r4
 262 0014 FFF7FEFF 		bl	chPoolFreeI
 263              	.LVL22:
 264              		.loc 1 175 0
 265 0018 FFF7FEFF 		bl	dbg_check_unlock
 266              	.LVL23:
 267              	.LBB6:
 268 001c 0023     		movs	r3, #0
 269              	@ 175 "../../../os/kernel/src/chmempools.c" 1
 270 001e 83F31188 		msr     BASEPRI, r3
 271              	@ 0 "" 2
 272              		.thumb
 273 0022 38BD     		pop	{r3, r4, r5, pc}
 274              	.LBE6:
 275              		.cfi_endproc
 276              	.LFE12:
 277              		.size	chPoolFree, .-chPoolFree
 278 0024 AFF30080 		.section	.text.chPoolLoadArray,"ax",%progbits
 278      AFF30080 
ARM GAS  /tmp/ccISgukG.s 			page 6


 278      AFF30080 
 279              		.align	2
 280              		.p2align 4,,15
 281              		.global	chPoolLoadArray
 282              		.thumb
 283              		.thumb_func
 284              		.type	chPoolLoadArray, %function
 285              	chPoolLoadArray:
 286              	.LFB8:
 287              		.loc 1 84 0
 288              		.cfi_startproc
 289              		@ args = 0, pretend = 0, frame = 0
 290              		@ frame_needed = 0, uses_anonymous_args = 0
 291              	.LVL24:
 292              		.loc 1 86 0
 293 0000 002A     		cmp	r2, #0
 294 0002 18BF     		it	ne
 295 0004 0028     		cmpne	r0, #0
 296              		.loc 1 84 0
 297 0006 70B5     		push	{r4, r5, r6, lr}
 298              		.cfi_def_cfa_offset 16
 299              		.cfi_offset 4, -16
 300              		.cfi_offset 5, -12
 301              		.cfi_offset 6, -8
 302              		.cfi_offset 14, -4
 303              		.loc 1 86 0
 304 0008 0646     		mov	r6, r0
 305 000a 1446     		mov	r4, r2
 306              		.loc 1 84 0
 307 000c 0D46     		mov	r5, r1
 308              		.loc 1 86 0
 309 000e 08D0     		beq	.L32
 310              	.LVL25:
 311              	.L25:
 312              		.loc 1 89 0
 313 0010 2946     		mov	r1, r5
 314 0012 3046     		mov	r0, r6
 315 0014 FFF7FEFF 		bl	chPoolFree
 316              	.LVL26:
 317              		.loc 1 90 0
 318 0018 7368     		ldr	r3, [r6, #4]
 319              		.loc 1 88 0
 320 001a 013C     		subs	r4, r4, #1
 321              	.LVL27:
 322              		.loc 1 90 0
 323 001c 1D44     		add	r5, r5, r3
 324              	.LVL28:
 325              		.loc 1 88 0
 326 001e F7D1     		bne	.L25
 327              	.L22:
 328 0020 70BD     		pop	{r4, r5, r6, pc}
 329              	.LVL29:
 330              	.L32:
 331              		.loc 1 86 0 discriminator 1
 332 0022 40F20000 		movw	r0, #:lower16:.LC3
 333              	.LVL30:
 334 0026 C0F20000 		movt	r0, #:upper16:.LC3
ARM GAS  /tmp/ccISgukG.s 			page 7


 335 002a FFF7FEFF 		bl	chDbgPanic
 336              	.LVL31:
 337              		.loc 1 88 0 discriminator 1
 338 002e 002C     		cmp	r4, #0
 339 0030 EED1     		bne	.L25
 340 0032 F5E7     		b	.L22
 341              		.cfi_endproc
 342              	.LFE8:
 343              		.size	chPoolLoadArray, .-chPoolLoadArray
 344 0034 AFF30080 		.section	.rodata.str1.4,"aMS",%progbits,1
 344      AFF30080 
 344      AFF30080 
 345              		.align	2
 346              	.LC0:
 347 0000 22636850 		.ascii	"\"chPoolInit\"()\000"
 347      6F6F6C49 
 347      6E697422 
 347      282900
 348 000f 00       		.space	1
 349              	.LC1:
 350 0010 22636850 		.ascii	"\"chPoolAllocI\"()\000"
 350      6F6F6C41 
 350      6C6C6F63 
 350      49222829 
 350      00
 351 0021 000000   		.space	3
 352              	.LC2:
 353 0024 22636850 		.ascii	"\"chPoolFreeI\"()\000"
 353      6F6F6C46 
 353      72656549 
 353      22282900 
 354              	.LC3:
 355 0034 22636850 		.ascii	"\"chPoolLoadArray\"()\000"
 355      6F6F6C4C 
 355      6F616441 
 355      72726179 
 355      22282900 
 356              		.text
 357              	.Letext0:
 358              		.file 2 "/usr/lib/gcc/arm-none-eabi/4.8.2/include/stddef.h"
 359              		.file 3 "/usr/include/newlib/machine/_default_types.h"
 360              		.file 4 "/usr/include/newlib/stdint.h"
 361              		.file 5 "../../../os/kernel/include/chmemcore.h"
 362              		.file 6 "../../../os/kernel/include/chmempools.h"
 363              		.file 7 "../../../os/kernel/include/chdebug.h"