ARM GAS  /tmp/ccYo7KOg.s 			page 1


   1              		.syntax unified
   2              		.cpu cortex-m4
   3              		.fpu softvfp
   4              		.eabi_attribute 20, 1
   5              		.eabi_attribute 21, 1
   6              		.eabi_attribute 23, 3
   7              		.eabi_attribute 24, 1
   8              		.eabi_attribute 25, 1
   9              		.eabi_attribute 26, 1
  10              		.eabi_attribute 30, 2
  11              		.eabi_attribute 34, 1
  12              		.eabi_attribute 18, 4
  13              		.thumb
  14              		.file	"chmsg.c"
  15              		.text
  16              	.Ltext0:
  17              		.cfi_sections	.debug_frame
  18              		.section	.text.chMsgSend,"ax",%progbits
  19              		.align	2
  20              		.p2align 4,,15
  21              		.global	chMsgSend
  22              		.thumb
  23              		.thumb_func
  24              		.type	chMsgSend, %function
  25              	chMsgSend:
  26              	.LFB7:
  27              		.file 1 "../../../os/kernel/src/chmsg.c"
  28              		.loc 1 75 0
  29              		.cfi_startproc
  30              		@ args = 0, pretend = 0, frame = 0
  31              		@ frame_needed = 0, uses_anonymous_args = 0
  32              	.LVL0:
  33              		.loc 1 76 0
  34 0000 40F20003 		movw	r3, #:lower16:rlist
  35 0004 C0F20003 		movt	r3, #:upper16:rlist
  36              		.loc 1 75 0
  37 0008 70B5     		push	{r4, r5, r6, lr}
  38              		.cfi_def_cfa_offset 16
  39              		.cfi_offset 4, -16
  40              		.cfi_offset 5, -12
  41              		.cfi_offset 6, -8
  42              		.cfi_offset 14, -4
  43              		.loc 1 78 0
  44 000a 0546     		mov	r5, r0
  45              		.loc 1 75 0
  46 000c 0E46     		mov	r6, r1
  47              		.loc 1 76 0
  48 000e 9C69     		ldr	r4, [r3, #24]
  49              	.LVL1:
  50              		.loc 1 78 0
  51 0010 00B3     		cbz	r0, .L5
  52              	.LVL2:
  53              	.L2:
  54              	.LBB10:
  55              		.loc 1 80 0
  56 0012 2023     		movs	r3, #32
  57              	@ 80 "../../../os/kernel/src/chmsg.c" 1
ARM GAS  /tmp/ccYo7KOg.s 			page 2


  58 0014 83F31188 		msr     BASEPRI, r3
  59              	@ 0 "" 2
  60              		.thumb
  61              	.LBE10:
  62 0018 FFF7FEFF 		bl	dbg_check_lock
  63              	.LVL3:
  64              		.loc 1 82 0
  65 001c 05F13002 		add	r2, r5, #48
  66              		.loc 1 84 0
  67 0020 95F82010 		ldrb	r1, [r5, #32]	@ zero_extendqisi2
  68              		.loc 1 82 0
  69 0024 A262     		str	r2, [r4, #40]
  70              	.LVL4:
  71              	.LBB11:
  72              	.LBB12:
  73              		.file 2 "../../../os/kernel/include/chinline.h"
  74              		.loc 2 55 0
  75 0026 6B6B     		ldr	r3, [r5, #52]
  76              	.LBE12:
  77              	.LBE11:
  78              		.loc 1 81 0
  79 0028 A663     		str	r6, [r4, #56]
  80              		.loc 1 84 0
  81 002a 0C29     		cmp	r1, #12
  82              	.LBB14:
  83              	.LBB13:
  84              		.loc 2 55 0
  85 002c 84E80C00 		stmia	r4, {r2, r3}
  86              		.loc 2 56 0
  87 0030 6C63     		str	r4, [r5, #52]
  88 0032 1C60     		str	r4, [r3]
  89              	.LBE13:
  90              	.LBE14:
  91              		.loc 1 84 0
  92 0034 0AD0     		beq	.L6
  93              	.LVL5:
  94              	.L3:
  95              		.loc 1 86 0
  96 0036 0A20     		movs	r0, #10
  97 0038 FFF7FEFF 		bl	chSchGoSleepS
  98              	.LVL6:
  99              		.loc 1 87 0
 100 003c A46A     		ldr	r4, [r4, #40]
 101              	.LVL7:
 102              		.loc 1 88 0
 103 003e FFF7FEFF 		bl	dbg_check_unlock
 104              	.LVL8:
 105              	.LBB15:
 106 0042 0023     		movs	r3, #0
 107              	@ 88 "../../../os/kernel/src/chmsg.c" 1
 108 0044 83F31188 		msr     BASEPRI, r3
 109              	@ 0 "" 2
 110              		.thumb
 111              	.LBE15:
 112              		.loc 1 90 0
 113 0048 2046     		mov	r0, r4
 114 004a 70BD     		pop	{r4, r5, r6, pc}
ARM GAS  /tmp/ccYo7KOg.s 			page 3


 115              	.LVL9:
 116              	.L6:
 117              		.loc 1 85 0
 118 004c 2846     		mov	r0, r5
 119 004e FFF7FEFF 		bl	chSchReadyI
 120              	.LVL10:
 121 0052 F0E7     		b	.L3
 122              	.LVL11:
 123              	.L5:
 124              		.loc 1 78 0 discriminator 1
 125 0054 40F20000 		movw	r0, #:lower16:.LC0
 126              	.LVL12:
 127 0058 C0F20000 		movt	r0, #:upper16:.LC0
 128 005c FFF7FEFF 		bl	chDbgPanic
 129              	.LVL13:
 130 0060 D7E7     		b	.L2
 131              		.cfi_endproc
 132              	.LFE7:
 133              		.size	chMsgSend, .-chMsgSend
 134 0062 00BFAFF3 		.section	.text.chMsgWait,"ax",%progbits
 134      0080AFF3 
 134      0080AFF3 
 134      0080
 135              		.align	2
 136              		.p2align 4,,15
 137              		.global	chMsgWait
 138              		.thumb
 139              		.thumb_func
 140              		.type	chMsgWait, %function
 141              	chMsgWait:
 142              	.LFB8:
 143              		.loc 1 106 0
 144              		.cfi_startproc
 145              		@ args = 0, pretend = 0, frame = 0
 146              		@ frame_needed = 0, uses_anonymous_args = 0
 147 0000 38B5     		push	{r3, r4, r5, lr}
 148              		.cfi_def_cfa_offset 16
 149              		.cfi_offset 3, -16
 150              		.cfi_offset 4, -12
 151              		.cfi_offset 5, -8
 152              		.cfi_offset 14, -4
 153              	.LBB16:
 154              		.loc 1 109 0
 155 0002 2023     		movs	r3, #32
 156              	@ 109 "../../../os/kernel/src/chmsg.c" 1
 157 0004 83F31188 		msr     BASEPRI, r3
 158              	@ 0 "" 2
 159              		.thumb
 160              	.LBE16:
 161              		.loc 1 110 0
 162 0008 40F20005 		movw	r5, #:lower16:rlist
 163 000c C0F20005 		movt	r5, #:upper16:rlist
 164              		.loc 1 109 0
 165 0010 FFF7FEFF 		bl	dbg_check_lock
 166              	.LVL14:
 167              		.loc 1 110 0
 168 0014 AA69     		ldr	r2, [r5, #24]
ARM GAS  /tmp/ccYo7KOg.s 			page 4


 169 0016 1346     		mov	r3, r2
 170 0018 53F8304F 		ldr	r4, [r3, #48]!
 171 001c 9C42     		cmp	r4, r3
 172 001e 0CD0     		beq	.L9
 173              	.L8:
 174              	.LVL15:
 175              	.LBB17:
 176              	.LBB18:
 177              		.loc 2 62 0
 178 0020 2168     		ldr	r1, [r4]
 179              	.LBE18:
 180              	.LBE17:
 181              		.loc 1 113 0
 182 0022 0B20     		movs	r0, #11
 183              	.LBB20:
 184              	.LBB19:
 185              		.loc 2 62 0
 186 0024 1163     		str	r1, [r2, #48]
 187 0026 4B60     		str	r3, [r1, #4]
 188              	.LBE19:
 189              	.LBE20:
 190              		.loc 1 113 0
 191 0028 84F82000 		strb	r0, [r4, #32]
 192              		.loc 1 114 0
 193 002c FFF7FEFF 		bl	dbg_check_unlock
 194              	.LVL16:
 195              	.LBB21:
 196 0030 0023     		movs	r3, #0
 197              	@ 114 "../../../os/kernel/src/chmsg.c" 1
 198 0032 83F31188 		msr     BASEPRI, r3
 199              	@ 0 "" 2
 200              		.thumb
 201              	.LBE21:
 202              		.loc 1 116 0
 203 0036 2046     		mov	r0, r4
 204 0038 38BD     		pop	{r3, r4, r5, pc}
 205              	.LVL17:
 206              	.L9:
 207              		.loc 1 111 0
 208 003a 0C20     		movs	r0, #12
 209 003c FFF7FEFF 		bl	chSchGoSleepS
 210              	.LVL18:
 211 0040 AA69     		ldr	r2, [r5, #24]
 212 0042 146B     		ldr	r4, [r2, #48]
 213 0044 02F13003 		add	r3, r2, #48
 214 0048 EAE7     		b	.L8
 215              		.cfi_endproc
 216              	.LFE8:
 217              		.size	chMsgWait, .-chMsgWait
 218 004a 00BFAFF3 		.section	.text.chMsgRelease,"ax",%progbits
 218      0080
 219              		.align	2
 220              		.p2align 4,,15
 221              		.global	chMsgRelease
 222              		.thumb
 223              		.thumb_func
 224              		.type	chMsgRelease, %function
ARM GAS  /tmp/ccYo7KOg.s 			page 5


 225              	chMsgRelease:
 226              	.LFB9:
 227              		.loc 1 128 0
 228              		.cfi_startproc
 229              		@ args = 0, pretend = 0, frame = 0
 230              		@ frame_needed = 0, uses_anonymous_args = 0
 231              	.LVL19:
 232 0000 38B5     		push	{r3, r4, r5, lr}
 233              		.cfi_def_cfa_offset 16
 234              		.cfi_offset 3, -16
 235              		.cfi_offset 4, -12
 236              		.cfi_offset 5, -8
 237              		.cfi_offset 14, -4
 238              		.loc 1 128 0
 239 0002 0446     		mov	r4, r0
 240 0004 0D46     		mov	r5, r1
 241              	.LBB22:
 242              		.loc 1 130 0
 243 0006 2023     		movs	r3, #32
 244              	@ 130 "../../../os/kernel/src/chmsg.c" 1
 245 0008 83F31188 		msr     BASEPRI, r3
 246              	@ 0 "" 2
 247              		.thumb
 248              	.LBE22:
 249 000c FFF7FEFF 		bl	dbg_check_lock
 250              	.LVL20:
 251              		.loc 1 131 0
 252 0010 94F82030 		ldrb	r3, [r4, #32]	@ zero_extendqisi2
 253 0014 0B2B     		cmp	r3, #11
 254 0016 05D0     		beq	.L11
 255              		.loc 1 131 0 is_stmt 0 discriminator 1
 256 0018 40F20000 		movw	r0, #:lower16:.LC1
 257 001c C0F20000 		movt	r0, #:upper16:.LC1
 258 0020 FFF7FEFF 		bl	chDbgPanic
 259              	.LVL21:
 260              	.L11:
 261              		.loc 1 133 0 is_stmt 1
 262 0024 2046     		mov	r0, r4
 263 0026 2946     		mov	r1, r5
 264 0028 FFF7FEFF 		bl	chSchWakeupS
 265              	.LVL22:
 266              		.loc 1 134 0
 267 002c FFF7FEFF 		bl	dbg_check_unlock
 268              	.LVL23:
 269              	.LBB23:
 270 0030 0023     		movs	r3, #0
 271              	@ 134 "../../../os/kernel/src/chmsg.c" 1
 272 0032 83F31188 		msr     BASEPRI, r3
 273              	@ 0 "" 2
 274              		.thumb
 275 0036 38BD     		pop	{r3, r4, r5, pc}
 276              	.LBE23:
 277              		.cfi_endproc
 278              	.LFE9:
 279              		.size	chMsgRelease, .-chMsgRelease
 280 0038 AFF30080 		.section	.rodata.str1.4,"aMS",%progbits,1
 280      AFF30080 
ARM GAS  /tmp/ccYo7KOg.s 			page 6


 281              		.align	2
 282              	.LC0:
 283 0000 2263684D 		.ascii	"\"chMsgSend\"()\000"
 283      73675365 
 283      6E642228 
 283      2900
 284 000e 0000     		.space	2
 285              	.LC1:
 286 0010 63684D73 		.ascii	"chMsgRelease(), #1\000"
 286      6752656C 
 286      65617365 
 286      28292C20 
 286      233100
 287 0023 00       		.text
 288              	.Letext0:
 289              		.file 3 "/usr/include/newlib/machine/_default_types.h"
 290              		.file 4 "/usr/include/newlib/stdint.h"
 291              		.file 5 "../../../os/ports/GCC/ARMCMx/chtypes.h"
 292              		.file 6 "../../../os/kernel/include/chlists.h"
 293              		.file 7 "../../../os/kernel/include/chthreads.h"
 294              		.file 8 "../../../os/ports/GCC/ARMCMx/chcore_v7m.h"
 295              		.file 9 "../../../os/kernel/include/chschd.h"
 296              		.file 10 "../../../os/kernel/include/chmtx.h"
 297              		.file 11 "../../../os/kernel/include/chdebug.h"