ARM GAS  /tmp/ccYo7KOg.s 			page 1


   1              		.syntax unified
   2              		.cpu cortex-m4
   3              		.fpu softvfp
   4              		.eabi_attribute 20, 1
   5              		.eabi_attribute 21, 1
   6              		.eabi_attribute 23, 3
   7              		.eabi_attribute 24, 1
   8              		.eabi_attribute 25, 1
   9              		.eabi_attribute 26, 1
  10              		.eabi_attribute 30, 2
  11              		.eabi_attribute 34, 1
  12              		.eabi_attribute 18, 4
  13              		.thumb
  14              		.file	"chmsg.c"
  15              		.text
  16              	.Ltext0:
  17              		.cfi_sections	.debug_frame
  18              		.section	.text.chMsgSend,"ax",%progbits
  19              		.align	2
  20              		.p2align 4,,15
  21              		.global	chMsgSend
  22              		.thumb
  23              		.thumb_func
  24              		.type	chMsgSend, %function
  25              	chMsgSend:
  26              	.LFB7:
  27              		.file 1 "../../../os/kernel/src/chmsg.c"
  28              		.loc 1 75 0
  29              		.cfi_startproc
  30              		@ args = 0, pretend = 0, frame = 0
  31              		@ frame_needed = 0, uses_anonymous_args = 0
  32              	.LVL0:
  33              		.loc 1 76 0
  34 0000 40F20003 		movw	r3, #:lower16:rlist
  35 0004 C0F20003 		movt	r3, #:upper16:rlist
  36              		.loc 1 75 0
  37 0008 70B5     		push	{r4, r5, r6, lr}
  38              		.cfi_def_cfa_offset 16
  39              		.cfi_offset 4, -16
  40              		.cfi_offset 5, -12
  41              		.cfi_offset 6, -8
  42              		.cfi_offset 14, -4
  43              		.loc 1 78 0
  44 000a 0546     		mov	r5, r0
  45              		.loc 1 75 0
  46 000c 0E46     		mov	r6, r1
  47              		.loc 1 76 0
  48 000e 9C69     		ldr	r4, [r3, #24]
  49              	.LVL1:
  50              		.loc 1 78 0
  51 0010 00B3     		cbz	r0, .L5
  52              	.LVL2:
  53              	.L2:
  54              	.LBB10:
  55              		.loc 1 80 0
  56 0012 2023     		movs	r3, #32
  57              	@ 80 "../../../os/kernel/src/chmsg.c" 1
ARM GAS  /tmp/ccYo7KOg.s 			page 2


  58 0014 83F31188 		msr     BASEPRI, r3
  59              	@ 0 "" 2
  60              		.thumb
  61              	.LBE10:
  62 0018 FFF7FEFF 		bl	dbg_check_lock
  63              	.LVL3:
  64              		.loc 1 82 0
  65 001c 05F13002 		add	r2, r5, #48
  66              		.loc 1 84 0
  67 0020 95F82010 		ldrb	r1, [r5, #32]	@ zero_extendqisi2
  68              		.loc 1 82 0
  69 0024 A262     		str	r2, [r4, #40]
  70              	.LVL4:
  71              	.LBB11:
  72              	.LBB12:
  73              		.file 2 "../../../os/kernel/include/chinline.h"
  74              		.loc 2 55 0
  75 0026 6B6B     		ldr	r3, [r5, #52]
  76              	.LBE12:
  77              	.LBE11:
  78              		.loc 1 81 0
  79 0028 A663     		str	r6, [r4, #56]
  80              		.loc 1 84 0
  81 002a 0C29     		cmp	r1, #12
  82              	.LBB14:
  83              	.LBB13:
  84              		.loc 2 55 0
  85 002c 84E80C00 		stmia	r4, {r2, r3}
  86              		.loc 2 56 0
  87 0030 6C63     		str	r4, [r5, #52]
  88 0032 1C60     		str	r4, [r3]
  89              	.LBE13:
  90              	.LBE14:
  91              		.loc 1 84 0
  92 0034 0AD0     		beq	.L6
  93              	.LVL5:
  94              	.L3:
  95              		.loc 1 86 0
  96 0036 0A20     		movs	r0, #10
  97 0038 FFF7FEFF 		bl	chSchGoSleepS
  98              	.LVL6:
  99              		.loc 1 87 0
 100 003c A46A     		ldr	r4, [r4, #40]
 101              	.LVL7:
 102              		.loc 1 88 0
 103 003e FFF7FEFF 		bl	dbg_check_unlock
 104              	.LVL8:
 105              	.LBB15:
 106 0042 0023     		movs	r3, #0
 107              	@ 88 "../../../os/kernel/src/chmsg.c" 1
 108 0044 83F31188 		msr     BASEPRI, r3
 109              	@ 0 "" 2
 110              		.thumb
 111              	.LBE15:
 112              		.loc 1 90 0
 113 0048 2046     		mov	r0, r4
 114 004a 70BD     		pop	{r4, r5, r6, pc}
ARM GAS  /tmp/ccYo7KOg.s 			page 3


 115              	.LVL9:
 116              	.L6:
 117              		.loc 1 85 0
 118 004c 2846     		mov	r0, r5
 119 004e FFF7FEFF 		bl	chSchReadyI
 120              	.LVL10:
 121 0052 F0E7     		b	.L3
 122              	.LVL11:
 123              	.L5:
 124              		.loc 1 78 0 discriminator 1
 125 0054 40F20000 		movw	r0, #:lower16:.LC0
 126              	.LVL12:
 127 0058 C0F20000 		movt	r0, #:upper16:.LC0
 128 005c FFF7FEFF 		bl	chDbgPanic
 129              	.LVL13:
 130 0060 D7E7     		b	.L2
 131              		.cfi_endproc
 132              	.LFE7:
 133              		.size	chMsgSend, .-chMsgSend
 134 0062 00BFAFF3 		.section	.text.chMsgWait,"ax",%progbits
 134      0080AFF3 
 134      0080AFF3 
 134      0080
 135              		.align	2
 136              		.p2align 4,,15
 137              		.global	chMsgWait
 138              		.thumb
 139              		.thumb_func
 140              		.type	chMsgWait, %function
 141              	chMsgWait:
 142              	.LFB8:
 143              		.loc 1 106 0
 144              		.cfi_startproc
 145              		@ args = 0, pretend = 0, frame = 0
 146              		@ frame_needed = 0, uses_anonymous_args = 0
 147 0000 38B5     		push	{r3, r4, r5, lr}
 148              		.cfi_def_cfa_offset 16
 149              		.cfi_offset 3, -16
 150              		.cfi_offset 4, -12
 151              		.cfi_offset 5, -8
 152              		.cfi_offset 14, -4
 153              	.LBB16:
 154              		.loc 1 109 0
 155 0002 2023     		movs	r3, #32
 156              	@ 109 "../../../os/kernel/src/chmsg.c" 1
 157 0004 83F31188 		msr     BASEPRI, r3
 158              	@ 0 "" 2
 159              		.thumb
 160              	.LBE16:
 161              		.loc 1 110 0
 162 0008 40F20005 		movw	r5, #:lower16:rlist
 163 000c C0F20005 		movt	r5, #:upper16:rlist
 164              		.loc 1 109 0
 165 0010 FFF7FEFF 		bl	dbg_check_lock
 166              	.LVL14:
 167              		.loc 1 110 0
 168 0014 AA69     		ldr	r2, [r5, #24]
ARM GAS  /tmp/ccYo7KOg.s 			page 4


 169 0016 1346     		mov	r3, r2
 170 0018 53F8304F 		ldr	r4, [r3, #48]!
 171 001c 9C42     		cmp	r4, r3
 172 001e 0CD0     		beq	.L9
 173              	.L8:
 174              	.LVL15:
 175              	.LBB17:
 176              	.LBB18:
 177              		.loc 2 62 0
 178 0020 2168     		ldr	r1, [r4]
 179              	.LBE18:
 180              	.LBE17:
 181              		.loc 1 113 0
 182 0022 0B20     		movs	r0, #11
 183              	.LBB20:
 184              	.LBB19:
 185              		.loc 2 62 0
 186 0024 1163     		str	r1, [r2, #48]
 187 0026 4B60     		str	r3, [r1, #4]
 188              	.LBE19:
 189              	.LBE20:
 190              		.loc 1 113 0
 191 0028 84F82000 		strb	r0, [r4, #32]
 192              		.loc 1 114 0
 193 002c FFF7FEFF 		bl	dbg_check_unlock
 194              	.LVL16:
 195              	.LBB21:
 196 0030 0023     		movs	r3, #0
 197              	@ 114 "../../../os/kernel/src/chmsg.c" 1
 198 0032 83F31188 		msr     BASEPRI, r3
 199              	@ 0 "" 2
 200              		.thumb
 201              	.LBE21:
 202              		.loc 1 116 0
 203 0036 2046     		mov	r0, r4
 204 0038 38BD     		pop	{r3, r4, r5, pc}
 205              	.LVL17:
 206              	.L9:
 207              		.loc 1 111 0
 208 003a 0C20     		movs	r0, #12
 209 003c FFF7FEFF 		bl	chSchGoSleepS
 210              	.LVL18:
 211 0040 AA69     		ldr	r2, [r5, #24]
 212 0042 146B     		ldr	r4, [r2, #48]
 213 0044 02F13003 		add	r3, r2, #48
 214 0048 EAE7     		b	.L8
 215              		.cfi_endproc
 216              	.LFE8:
 217              		.size	chMsgWait, .-chMsgWait
 218 004a 00BFAFF3 		.section	.text.chMsgRelease,"ax",%progbits
 218      0080
 219              		.align	2
 220              		.p2align 4,,15
 221              		.global	chMsgRelease
 222              		.thumb
 223              		.thumb_func
 224              		.type	chMsgRelease, %function
ARM GAS  /tmp/ccYo7KOg.s 			page 5


 225              	chMsgRelease:
 226              	.LFB9:
 227              		.loc 1 128 0
 228              		.cfi_startproc
 229              		@ args = 0, pretend = 0, frame = 0
 230              		@ frame_needed = 0, uses_anonymous_args = 0
 231              	.LVL19:
 232 0000 38B5     		push	{r3, r4, r5, lr}
 233              		.cfi_def_cfa_offset 16
 234              		.cfi_offset 3, -16
 235              		.cfi_offset 4, -12
 236              		.cfi_offset 5, -8
 237              		.cfi_offset 14, -4
 238              		.loc 1 128 0
 239 0002 0446     		mov	r4, r0
 240 0004 0D46     		mov	r5, r1
 241              	.LBB22:
 242              		.loc 1 130 0
 243 0006 2023     		movs	r3, #32
 244              	@ 130 "../../../os/kernel/src/chmsg.c" 1
 245 0008 83F31188 		msr     BASEPRI, r3
 246              	@ 0 "" 2
 247              		.thumb
 248              	.LBE22:
 249 000c FFF7FEFF 		bl	dbg_check_lock
 250              	.LVL20:
 251              		.loc 1 131 0
 252 0010 94F82030 		ldrb	r3, [r4, #32]	@ zero_extendqisi2
 253 0014 0B2B     		cmp	r3, #11
 254 0016 05D0     		beq	.L11
 255              		.loc 1 131 0 is_stmt 0 discriminator 1
 256 0018 40F20000 		movw	r0, #:lower16:.LC1
 257 001c C0F20000 		movt	r0, #:upper16:.LC1
 258 0020 FFF7FEFF 		bl	chDbgPanic
 259              	.LVL21:
 260              	.L11:
 261              		.loc 1 133 0 is_stmt 1
 262 0024 2046     		mov	r0, r4
 263 0026 2946     		mov	r1, r5
 264 0028 FFF7FEFF 		bl	chSchWakeupS
 265              	.LVL22:
 266              		.loc 1 134 0
 267 002c FFF7FEFF 		bl	dbg_check_unlock
 268              	.LVL23:
 269              	.LBB23:
 270 0030 0023     		movs	r3, #0
 271              	@ 134 "../../../os/kernel/src/chmsg.c" 1
 272 0032 83F31188 		msr     BASEPRI, r3
 273              	@ 0 "" 2
 274              		.thumb
 275 0036 38BD     		pop	{r3, r4, r5, pc}
 276              	.LBE23:
 277              		.cfi_endproc
 278              	.LFE9:
 279              		.size	chMsgRelease, .-chMsgRelease
 280 0038 AFF30080 		.section	.rodata.str1.4,"aMS",%progbits,1
 280      AFF30080 
ARM GAS  /tmp/ccYo7KOg.s 			page 6


 281              		.align	2
 282              	.LC0:
 283 0000 2263684D 		.ascii	"\"chMsgSend\"()\000"
 283      73675365 
 283      6E642228 
 283      2900
 284 000e 0000     		.space	2
 285              	.LC1:
 286 0010 63684D73 		.ascii	"chMsgRelease(), #1\000"
 286      6752656C 
 286      65617365 
 286      28292C20 
 286      233100
 287 0023 00       		.text
 288              	.Letext0:
 289              		.file 3 "/usr/include/newlib/machine/_default_types.h"
 290              		.file 4 "/usr/include/newlib/stdint.h"
 291              		.file 5 "../../../os/ports/GCC/ARMCMx/chtypes.h"
 292              		.file 6 "../../../os/kernel/include/chlists.h"
 293              		.file 7 "../../../os/kernel/include/chthreads.h"
 294              		.file 8 "../../../os/ports/GCC/ARMCMx/chcore_v7m.h"
 295              		.file 9 "../../../os/kernel/include/chschd.h"
 296              		.file 10 "../../../os/kernel/include/chmtx.h"
 297              		.file 11 "../../../os/kernel/include/chdebug.h"
 298              		.section	.debug_info,"",%progbits
 299              	.Ldebug_info0:
 300 0000 28070000 		.4byte	0x728
 301 0004 0400     		.2byte	0x4
 302 0006 00000000 		.4byte	.Ldebug_abbrev0
 303 000a 04       		.byte	0x4
 304 000b 01       		.uleb128 0x1
 305 000c 38000000 		.4byte	.LASF76
 306 0010 01       		.byte	0x1
 307 0011 39010000 		.4byte	.LASF77
 308 0015 3E020000 		.4byte	.LASF78
 309 0019 30000000 		.4byte	.Ldebug_ranges0+0x30
 310 001d 00000000 		.4byte	0
 311 0021 00000000 		.4byte	.Ldebug_line0
 312 0025 02       		.uleb128 0x2
 313 0026 04       		.byte	0x4
 314 0027 05       		.byte	0x5
 315 0028 696E7400 		.ascii	"int\000"
 316 002c 03       		.uleb128 0x3
 317 002d 04       		.byte	0x4
 318 002e 07       		.byte	0x7
 319 002f 92010000 		.4byte	.LASF0
 320 0033 03       		.uleb128 0x3
 321 0034 01       		.byte	0x1
 322 0035 06       		.byte	0x6
 323 0036 0A010000 		.4byte	.LASF1
 324 003a 04       		.uleb128 0x4
 325 003b 2E000000 		.4byte	.LASF5
 326 003f 03       		.byte	0x3
 327 0040 1C       		.byte	0x1c
 328 0041 45000000 		.4byte	0x45
 329 0045 03       		.uleb128 0x3
 330 0046 01       		.byte	0x1
ARM GAS  /tmp/ccYo7KOg.s 			page 7


 331 0047 08       		.byte	0x8
 332 0048 D9020000 		.4byte	.LASF2
 333 004c 03       		.uleb128 0x3
 334 004d 02       		.byte	0x2
 335 004e 05       		.byte	0x5
 336 004f F1020000 		.4byte	.LASF3
 337 0053 03       		.uleb128 0x3
 338 0054 02       		.byte	0x2
 339 0055 07       		.byte	0x7
 340 0056 B9010000 		.4byte	.LASF4
 341 005a 04       		.uleb128 0x4
 342 005b A1030000 		.4byte	.LASF6
 343 005f 03       		.byte	0x3
 344 0060 37       		.byte	0x37
 345 0061 65000000 		.4byte	0x65
 346 0065 03       		.uleb128 0x3
 347 0066 04       		.byte	0x4
 348 0067 05       		.byte	0x5
 349 0068 30010000 		.4byte	.LASF7
 350 006c 04       		.uleb128 0x4
 351 006d 73010000 		.4byte	.LASF8
 352 0071 03       		.byte	0x3
 353 0072 38       		.byte	0x38
 354 0073 77000000 		.4byte	0x77
 355 0077 03       		.uleb128 0x3
 356 0078 04       		.byte	0x4
 357 0079 07       		.byte	0x7
 358 007a 9F010000 		.4byte	.LASF9
 359 007e 03       		.uleb128 0x3
 360 007f 08       		.byte	0x8
 361 0080 05       		.byte	0x5
 362 0081 FC000000 		.4byte	.LASF10
 363 0085 04       		.uleb128 0x4
 364 0086 A9020000 		.4byte	.LASF11
 365 008a 03       		.byte	0x3
 366 008b 4E       		.byte	0x4e
 367 008c 90000000 		.4byte	0x90
 368 0090 03       		.uleb128 0x3
 369 0091 08       		.byte	0x8
 370 0092 07       		.byte	0x7
 371 0093 D5000000 		.4byte	.LASF12
 372 0097 04       		.uleb128 0x4
 373 0098 F2030000 		.4byte	.LASF13
 374 009c 04       		.byte	0x4
 375 009d 2A       		.byte	0x2a
 376 009e 3A000000 		.4byte	0x3a
 377 00a2 04       		.uleb128 0x4
 378 00a3 D1020000 		.4byte	.LASF14
 379 00a7 04       		.byte	0x4
 380 00a8 41       		.byte	0x41
 381 00a9 5A000000 		.4byte	0x5a
 382 00ad 04       		.uleb128 0x4
 383 00ae 57030000 		.4byte	.LASF15
 384 00b2 04       		.byte	0x4
 385 00b3 42       		.byte	0x42
 386 00b4 6C000000 		.4byte	0x6c
 387 00b8 04       		.uleb128 0x4
ARM GAS  /tmp/ccYo7KOg.s 			page 8


 388 00b9 25000000 		.4byte	.LASF16
 389 00bd 04       		.byte	0x4
 390 00be 4E       		.byte	0x4e
 391 00bf 85000000 		.4byte	0x85
 392 00c3 03       		.uleb128 0x3
 393 00c4 01       		.byte	0x1
 394 00c5 02       		.byte	0x2
 395 00c6 CB020000 		.4byte	.LASF17
 396 00ca 04       		.uleb128 0x4
 397 00cb DA010000 		.4byte	.LASF18
 398 00cf 05       		.byte	0x5
 399 00d0 2C       		.byte	0x2c
 400 00d1 97000000 		.4byte	0x97
 401 00d5 04       		.uleb128 0x4
 402 00d6 62010000 		.4byte	.LASF19
 403 00da 05       		.byte	0x5
 404 00db 2D       		.byte	0x2d
 405 00dc 97000000 		.4byte	0x97
 406 00e0 04       		.uleb128 0x4
 407 00e1 B4020000 		.4byte	.LASF20
 408 00e5 05       		.byte	0x5
 409 00e6 2E       		.byte	0x2e
 410 00e7 97000000 		.4byte	0x97
 411 00eb 04       		.uleb128 0x4
 412 00ec 26010000 		.4byte	.LASF21
 413 00f0 05       		.byte	0x5
 414 00f1 2F       		.byte	0x2f
 415 00f2 97000000 		.4byte	0x97
 416 00f6 04       		.uleb128 0x4
 417 00f7 C3020000 		.4byte	.LASF22
 418 00fb 05       		.byte	0x5
 419 00fc 30       		.byte	0x30
 420 00fd AD000000 		.4byte	0xad
 421 0101 04       		.uleb128 0x4
 422 0102 CC010000 		.4byte	.LASF23
 423 0106 05       		.byte	0x5
 424 0107 31       		.byte	0x31
 425 0108 A2000000 		.4byte	0xa2
 426 010c 04       		.uleb128 0x4
 427 010d EE010000 		.4byte	.LASF24
 428 0111 05       		.byte	0x5
 429 0112 33       		.byte	0x33
 430 0113 AD000000 		.4byte	0xad
 431 0117 04       		.uleb128 0x4
 432 0118 8C030000 		.4byte	.LASF25
 433 011c 05       		.byte	0x5
 434 011d 35       		.byte	0x35
 435 011e AD000000 		.4byte	0xad
 436 0122 04       		.uleb128 0x4
 437 0123 2A030000 		.4byte	.LASF26
 438 0127 06       		.byte	0x6
 439 0128 2A       		.byte	0x2a
 440 0129 2D010000 		.4byte	0x12d
 441 012d 05       		.uleb128 0x5
 442 012e 2A030000 		.4byte	.LASF26
 443 0132 4C       		.byte	0x4c
 444 0133 07       		.byte	0x7
ARM GAS  /tmp/ccYo7KOg.s 			page 9


 445 0134 5E       		.byte	0x5e
 446 0135 36020000 		.4byte	0x236
 447 0139 06       		.uleb128 0x6
 448 013a 1B030000 		.4byte	.LASF27
 449 013e 07       		.byte	0x7
 450 013f 5F       		.byte	0x5f
 451 0140 57020000 		.4byte	0x257
 452 0144 00       		.byte	0
 453 0145 06       		.uleb128 0x6
 454 0146 BC020000 		.4byte	.LASF28
 455 014a 07       		.byte	0x7
 456 014b 61       		.byte	0x61
 457 014c 57020000 		.4byte	0x257
 458 0150 04       		.byte	0x4
 459 0151 06       		.uleb128 0x6
 460 0152 F5000000 		.4byte	.LASF29
 461 0156 07       		.byte	0x7
 462 0157 63       		.byte	0x63
 463 0158 F6000000 		.4byte	0xf6
 464 015c 08       		.byte	0x8
 465 015d 06       		.uleb128 0x6
 466 015e 10040000 		.4byte	.LASF30
 467 0162 07       		.byte	0x7
 468 0163 64       		.byte	0x64
 469 0164 1C030000 		.4byte	0x31c
 470 0168 0C       		.byte	0xc
 471 0169 06       		.uleb128 0x6
 472 016a 6B010000 		.4byte	.LASF31
 473 016e 07       		.byte	0x7
 474 016f 66       		.byte	0x66
 475 0170 57020000 		.4byte	0x257
 476 0174 10       		.byte	0x10
 477 0175 06       		.uleb128 0x6
 478 0176 23020000 		.4byte	.LASF32
 479 017a 07       		.byte	0x7
 480 017b 67       		.byte	0x67
 481 017c 57020000 		.4byte	0x257
 482 0180 14       		.byte	0x14
 483 0181 06       		.uleb128 0x6
 484 0182 01040000 		.4byte	.LASF33
 485 0186 07       		.byte	0x7
 486 0187 6E       		.byte	0x6e
 487 0188 1C040000 		.4byte	0x41c
 488 018c 18       		.byte	0x18
 489 018d 06       		.uleb128 0x6
 490 018e 87010000 		.4byte	.LASF34
 491 0192 07       		.byte	0x7
 492 0193 74       		.byte	0x74
 493 0194 2E040000 		.4byte	0x42e
 494 0198 1C       		.byte	0x1c
 495 0199 06       		.uleb128 0x6
 496 019a FB020000 		.4byte	.LASF35
 497 019e 07       		.byte	0x7
 498 019f 79       		.byte	0x79
 499 01a0 D5000000 		.4byte	0xd5
 500 01a4 20       		.byte	0x20
 501 01a5 06       		.uleb128 0x6
ARM GAS  /tmp/ccYo7KOg.s 			page 10


 502 01a6 22030000 		.4byte	.LASF36
 503 01aa 07       		.byte	0x7
 504 01ab 7D       		.byte	0x7d
 505 01ac CA000000 		.4byte	0xca
 506 01b0 21       		.byte	0x21
 507 01b1 06       		.uleb128 0x6
 508 01b2 DB030000 		.4byte	.LASF37
 509 01b6 07       		.byte	0x7
 510 01b7 82       		.byte	0x82
 511 01b8 E0000000 		.4byte	0xe0
 512 01bc 22       		.byte	0x22
 513 01bd 06       		.uleb128 0x6
 514 01be 03030000 		.4byte	.LASF38
 515 01c2 07       		.byte	0x7
 516 01c3 88       		.byte	0x88
 517 01c4 EB000000 		.4byte	0xeb
 518 01c8 23       		.byte	0x23
 519 01c9 06       		.uleb128 0x6
 520 01ca AB030000 		.4byte	.LASF39
 521 01ce 07       		.byte	0x7
 522 01cf 8F       		.byte	0x8f
 523 01d0 44030000 		.4byte	0x344
 524 01d4 24       		.byte	0x24
 525 01d5 07       		.uleb128 0x7
 526 01d6 705F7500 		.ascii	"p_u\000"
 527 01da 07       		.byte	0x7
 528 01db B4       		.byte	0xb4
 529 01dc E7030000 		.4byte	0x3e7
 530 01e0 28       		.byte	0x28
 531 01e1 06       		.uleb128 0x6
 532 01e2 16040000 		.4byte	.LASF40
 533 01e6 07       		.byte	0x7
 534 01e7 B9       		.byte	0xb9
 535 01e8 7D020000 		.4byte	0x27d
 536 01ec 2C       		.byte	0x2c
 537 01ed 06       		.uleb128 0x6
 538 01ee B9030000 		.4byte	.LASF41
 539 01f2 07       		.byte	0x7
 540 01f3 BF       		.byte	0xbf
 541 01f4 5D020000 		.4byte	0x25d
 542 01f8 30       		.byte	0x30
 543 01f9 06       		.uleb128 0x6
 544 01fa 00000000 		.4byte	.LASF42
 545 01fe 07       		.byte	0x7
 546 01ff C3       		.byte	0xc3
 547 0200 01010000 		.4byte	0x101
 548 0204 38       		.byte	0x38
 549 0205 06       		.uleb128 0x6
 550 0206 4C030000 		.4byte	.LASF43
 551 020a 07       		.byte	0x7
 552 020b C9       		.byte	0xc9
 553 020c 0C010000 		.4byte	0x10c
 554 0210 3C       		.byte	0x3c
 555 0211 06       		.uleb128 0x6
 556 0212 E7020000 		.4byte	.LASF44
 557 0216 07       		.byte	0x7
 558 0217 D0       		.byte	0xd0
ARM GAS  /tmp/ccYo7KOg.s 			page 11


 559 0218 34040000 		.4byte	0x434
 560 021c 40       		.byte	0x40
 561 021d 06       		.uleb128 0x6
 562 021e 96030000 		.4byte	.LASF45
 563 0222 07       		.byte	0x7
 564 0223 D4       		.byte	0xd4
 565 0224 F6000000 		.4byte	0xf6
 566 0228 44       		.byte	0x44
 567 0229 06       		.uleb128 0x6
 568 022a 16010000 		.4byte	.LASF46
 569 022e 07       		.byte	0x7
 570 022f DA       		.byte	0xda
 571 0230 93020000 		.4byte	0x293
 572 0234 48       		.byte	0x48
 573 0235 00       		.byte	0
 574 0236 08       		.uleb128 0x8
 575 0237 08       		.byte	0x8
 576 0238 06       		.byte	0x6
 577 0239 61       		.byte	0x61
 578 023a 57020000 		.4byte	0x257
 579 023e 06       		.uleb128 0x6
 580 023f 1B030000 		.4byte	.LASF27
 581 0243 06       		.byte	0x6
 582 0244 62       		.byte	0x62
 583 0245 57020000 		.4byte	0x257
 584 0249 00       		.byte	0
 585 024a 06       		.uleb128 0x6
 586 024b BC020000 		.4byte	.LASF28
 587 024f 06       		.byte	0x6
 588 0250 64       		.byte	0x64
 589 0251 57020000 		.4byte	0x257
 590 0255 04       		.byte	0x4
 591 0256 00       		.byte	0
 592 0257 09       		.uleb128 0x9
 593 0258 04       		.byte	0x4
 594 0259 22010000 		.4byte	0x122
 595 025d 04       		.uleb128 0x4
 596 025e 31020000 		.4byte	.LASF47
 597 0262 06       		.byte	0x6
 598 0263 66       		.byte	0x66
 599 0264 36020000 		.4byte	0x236
 600 0268 08       		.uleb128 0x8
 601 0269 04       		.byte	0x4
 602 026a 06       		.byte	0x6
 603 026b 6B       		.byte	0x6b
 604 026c 7D020000 		.4byte	0x27d
 605 0270 06       		.uleb128 0x6
 606 0271 1B030000 		.4byte	.LASF27
 607 0275 06       		.byte	0x6
 608 0276 6D       		.byte	0x6d
 609 0277 57020000 		.4byte	0x257
 610 027b 00       		.byte	0
 611 027c 00       		.byte	0
 612 027d 04       		.uleb128 0x4
 613 027e E2010000 		.4byte	.LASF48
 614 0282 06       		.byte	0x6
 615 0283 70       		.byte	0x70
ARM GAS  /tmp/ccYo7KOg.s 			page 12


 616 0284 68020000 		.4byte	0x268
 617 0288 04       		.uleb128 0x4
 618 0289 7E010000 		.4byte	.LASF49
 619 028d 08       		.byte	0x8
 620 028e E5       		.byte	0xe5
 621 028f 93020000 		.4byte	0x293
 622 0293 0A       		.uleb128 0xa
 623 0294 04       		.byte	0x4
 624 0295 04       		.uleb128 0x4
 625 0296 00020000 		.4byte	.LASF50
 626 029a 08       		.byte	0x8
 627 029b EB       		.byte	0xeb
 628 029c B8000000 		.4byte	0xb8
 629 02a0 0B       		.uleb128 0xb
 630 02a1 B2030000 		.4byte	.LASF51
 631 02a5 24       		.byte	0x24
 632 02a6 08       		.byte	0x8
 633 02a7 0C01     		.2byte	0x10c
 634 02a9 1C030000 		.4byte	0x31c
 635 02ad 0C       		.uleb128 0xc
 636 02ae 723400   		.ascii	"r4\000"
 637 02b1 08       		.byte	0x8
 638 02b2 1F01     		.2byte	0x11f
 639 02b4 88020000 		.4byte	0x288
 640 02b8 00       		.byte	0
 641 02b9 0C       		.uleb128 0xc
 642 02ba 723500   		.ascii	"r5\000"
 643 02bd 08       		.byte	0x8
 644 02be 2001     		.2byte	0x120
 645 02c0 88020000 		.4byte	0x288
 646 02c4 04       		.byte	0x4
 647 02c5 0C       		.uleb128 0xc
 648 02c6 723600   		.ascii	"r6\000"
 649 02c9 08       		.byte	0x8
 650 02ca 2101     		.2byte	0x121
 651 02cc 88020000 		.4byte	0x288
 652 02d0 08       		.byte	0x8
 653 02d1 0C       		.uleb128 0xc
 654 02d2 723700   		.ascii	"r7\000"
 655 02d5 08       		.byte	0x8
 656 02d6 2201     		.2byte	0x122
 657 02d8 88020000 		.4byte	0x288
 658 02dc 0C       		.byte	0xc
 659 02dd 0C       		.uleb128 0xc
 660 02de 723800   		.ascii	"r8\000"
 661 02e1 08       		.byte	0x8
 662 02e2 2301     		.2byte	0x123
 663 02e4 88020000 		.4byte	0x288
 664 02e8 10       		.byte	0x10
 665 02e9 0C       		.uleb128 0xc
 666 02ea 723900   		.ascii	"r9\000"
 667 02ed 08       		.byte	0x8
 668 02ee 2401     		.2byte	0x124
 669 02f0 88020000 		.4byte	0x288
 670 02f4 14       		.byte	0x14
 671 02f5 0C       		.uleb128 0xc
 672 02f6 72313000 		.ascii	"r10\000"
ARM GAS  /tmp/ccYo7KOg.s 			page 13


 673 02fa 08       		.byte	0x8
 674 02fb 2501     		.2byte	0x125
 675 02fd 88020000 		.4byte	0x288
 676 0301 18       		.byte	0x18
 677 0302 0C       		.uleb128 0xc
 678 0303 72313100 		.ascii	"r11\000"
 679 0307 08       		.byte	0x8
 680 0308 2601     		.2byte	0x126
 681 030a 88020000 		.4byte	0x288
 682 030e 1C       		.byte	0x1c
 683 030f 0C       		.uleb128 0xc
 684 0310 6C7200   		.ascii	"lr\000"
 685 0313 08       		.byte	0x8
 686 0314 2701     		.2byte	0x127
 687 0316 88020000 		.4byte	0x288
 688 031a 20       		.byte	0x20
 689 031b 00       		.byte	0
 690 031c 0B       		.uleb128 0xb
 691 031d B1010000 		.4byte	.LASF52
 692 0321 04       		.byte	0x4
 693 0322 08       		.byte	0x8
 694 0323 3101     		.2byte	0x131
 695 0325 37030000 		.4byte	0x337
 696 0329 0C       		.uleb128 0xc
 697 032a 72313300 		.ascii	"r13\000"
 698 032e 08       		.byte	0x8
 699 032f 3201     		.2byte	0x132
 700 0331 37030000 		.4byte	0x337
 701 0335 00       		.byte	0
 702 0336 00       		.byte	0
 703 0337 09       		.uleb128 0x9
 704 0338 04       		.byte	0x4
 705 0339 A0020000 		.4byte	0x2a0
 706 033d 03       		.uleb128 0x3
 707 033e 04       		.byte	0x4
 708 033f 07       		.byte	0x7
 709 0340 0B020000 		.4byte	.LASF53
 710 0344 0D       		.uleb128 0xd
 711 0345 17010000 		.4byte	0x117
 712 0349 08       		.uleb128 0x8
 713 034a 1C       		.byte	0x1c
 714 034b 09       		.byte	0x9
 715 034c 5E       		.byte	0x5e
 716 034d 9A030000 		.4byte	0x39a
 717 0351 06       		.uleb128 0x6
 718 0352 60030000 		.4byte	.LASF54
 719 0356 09       		.byte	0x9
 720 0357 5F       		.byte	0x5f
 721 0358 5D020000 		.4byte	0x25d
 722 035c 00       		.byte	0
 723 035d 06       		.uleb128 0x6
 724 035e 0D030000 		.4byte	.LASF55
 725 0362 09       		.byte	0x9
 726 0363 60       		.byte	0x60
 727 0364 F6000000 		.4byte	0xf6
 728 0368 08       		.byte	0x8
 729 0369 06       		.uleb128 0x6
ARM GAS  /tmp/ccYo7KOg.s 			page 14


 730 036a 2B020000 		.4byte	.LASF56
 731 036e 09       		.byte	0x9
 732 036f 62       		.byte	0x62
 733 0370 1C030000 		.4byte	0x31c
 734 0374 0C       		.byte	0xc
 735 0375 06       		.uleb128 0x6
 736 0376 D2010000 		.4byte	.LASF57
 737 037a 09       		.byte	0x9
 738 037b 65       		.byte	0x65
 739 037c 57020000 		.4byte	0x257
 740 0380 10       		.byte	0x10
 741 0381 06       		.uleb128 0x6
 742 0382 90020000 		.4byte	.LASF58
 743 0386 09       		.byte	0x9
 744 0387 66       		.byte	0x66
 745 0388 57020000 		.4byte	0x257
 746 038c 14       		.byte	0x14
 747 038d 06       		.uleb128 0x6
 748 038e 86020000 		.4byte	.LASF59
 749 0392 09       		.byte	0x9
 750 0393 69       		.byte	0x69
 751 0394 57020000 		.4byte	0x257
 752 0398 18       		.byte	0x18
 753 0399 00       		.byte	0
 754 039a 04       		.uleb128 0x4
 755 039b E2030000 		.4byte	.LASF60
 756 039f 09       		.byte	0x9
 757 03a0 6B       		.byte	0x6b
 758 03a1 49030000 		.4byte	0x349
 759 03a5 05       		.uleb128 0x5
 760 03a6 FA010000 		.4byte	.LASF61
 761 03aa 10       		.byte	0x10
 762 03ab 0A       		.byte	0xa
 763 03ac 2C       		.byte	0x2c
 764 03ad D6030000 		.4byte	0x3d6
 765 03b1 06       		.uleb128 0x6
 766 03b2 1E010000 		.4byte	.LASF62
 767 03b6 0A       		.byte	0xa
 768 03b7 2D       		.byte	0x2d
 769 03b8 5D020000 		.4byte	0x25d
 770 03bc 00       		.byte	0
 771 03bd 06       		.uleb128 0x6
 772 03be 08040000 		.4byte	.LASF63
 773 03c2 0A       		.byte	0xa
 774 03c3 2F       		.byte	0x2f
 775 03c4 57020000 		.4byte	0x257
 776 03c8 08       		.byte	0x8
 777 03c9 06       		.uleb128 0x6
 778 03ca 85030000 		.4byte	.LASF64
 779 03ce 0A       		.byte	0xa
 780 03cf 31       		.byte	0x31
 781 03d0 D6030000 		.4byte	0x3d6
 782 03d4 0C       		.byte	0xc
 783 03d5 00       		.byte	0
 784 03d6 09       		.uleb128 0x9
 785 03d7 04       		.byte	0x4
 786 03d8 A5030000 		.4byte	0x3a5
ARM GAS  /tmp/ccYo7KOg.s 			page 15


 787 03dc 04       		.uleb128 0x4
 788 03dd FA010000 		.4byte	.LASF61
 789 03e1 0A       		.byte	0xa
 790 03e2 33       		.byte	0x33
 791 03e3 A5030000 		.4byte	0x3a5
 792 03e7 0E       		.uleb128 0xe
 793 03e8 04       		.byte	0x4
 794 03e9 07       		.byte	0x7
 795 03ea 96       		.byte	0x96
 796 03eb 1C040000 		.4byte	0x41c
 797 03ef 0F       		.uleb128 0xf
 798 03f0 1E000000 		.4byte	.LASF65
 799 03f4 07       		.byte	0x7
 800 03f5 9D       		.byte	0x9d
 801 03f6 01010000 		.4byte	0x101
 802 03fa 0F       		.uleb128 0xf
 803 03fb EC000000 		.4byte	.LASF66
 804 03ff 07       		.byte	0x7
 805 0400 A4       		.byte	0xa4
 806 0401 01010000 		.4byte	0x101
 807 0405 0F       		.uleb128 0xf
 808 0406 FA030000 		.4byte	.LASF67
 809 040a 07       		.byte	0x7
 810 040b AB       		.byte	0xab
 811 040c 93020000 		.4byte	0x293
 812 0410 0F       		.uleb128 0xf
 813 0411 14030000 		.4byte	.LASF68
 814 0415 07       		.byte	0x7
 815 0416 B2       		.byte	0xb2
 816 0417 0C010000 		.4byte	0x10c
 817 041b 00       		.byte	0
 818 041c 09       		.uleb128 0x9
 819 041d 04       		.byte	0x4
 820 041e 22040000 		.4byte	0x422
 821 0422 10       		.uleb128 0x10
 822 0423 27040000 		.4byte	0x427
 823 0427 03       		.uleb128 0x3
 824 0428 01       		.byte	0x1
 825 0429 08       		.byte	0x8
 826 042a 74030000 		.4byte	.LASF69
 827 042e 09       		.uleb128 0x9
 828 042f 04       		.byte	0x4
 829 0430 95020000 		.4byte	0x295
 830 0434 09       		.uleb128 0x9
 831 0435 04       		.byte	0x4
 832 0436 DC030000 		.4byte	0x3dc
 833 043a 11       		.uleb128 0x11
 834 043b 06000000 		.4byte	.LASF79
 835 043f 02       		.byte	0x2
 836 0440 34       		.byte	0x34
 837 0441 03       		.byte	0x3
 838 0442 5C040000 		.4byte	0x45c
 839 0446 12       		.uleb128 0x12
 840 0447 747000   		.ascii	"tp\000"
 841 044a 02       		.byte	0x2
 842 044b 34       		.byte	0x34
 843 044c 57020000 		.4byte	0x257
ARM GAS  /tmp/ccYo7KOg.s 			page 16


 844 0450 12       		.uleb128 0x12
 845 0451 74717000 		.ascii	"tqp\000"
 846 0455 02       		.byte	0x2
 847 0456 34       		.byte	0x34
 848 0457 5C040000 		.4byte	0x45c
 849 045b 00       		.byte	0
 850 045c 09       		.uleb128 0x9
 851 045d 04       		.byte	0x4
 852 045e 5D020000 		.4byte	0x25d
 853 0462 13       		.uleb128 0x13
 854 0463 79030000 		.4byte	.LASF80
 855 0467 02       		.byte	0x2
 856 0468 3B       		.byte	0x3b
 857 0469 57020000 		.4byte	0x257
 858 046d 03       		.byte	0x3
 859 046e 88040000 		.4byte	0x488
 860 0472 12       		.uleb128 0x12
 861 0473 74717000 		.ascii	"tqp\000"
 862 0477 02       		.byte	0x2
 863 0478 3B       		.byte	0x3b
 864 0479 5C040000 		.4byte	0x45c
 865 047d 14       		.uleb128 0x14
 866 047e 747000   		.ascii	"tp\000"
 867 0481 02       		.byte	0x2
 868 0482 3C       		.byte	0x3c
 869 0483 57020000 		.4byte	0x257
 870 0487 00       		.byte	0
 871 0488 15       		.uleb128 0x15
 872 0489 58010000 		.4byte	.LASF70
 873 048d 01       		.byte	0x1
 874 048e 4B       		.byte	0x4b
 875 048f 01010000 		.4byte	0x101
 876 0493 00000000 		.4byte	.LFB7
 877 0497 62000000 		.4byte	.LFE7-.LFB7
 878 049b 01       		.uleb128 0x1
 879 049c 9C       		.byte	0x9c
 880 049d 76050000 		.4byte	0x576
 881 04a1 16       		.uleb128 0x16
 882 04a2 747000   		.ascii	"tp\000"
 883 04a5 01       		.byte	0x1
 884 04a6 4B       		.byte	0x4b
 885 04a7 57020000 		.4byte	0x257
 886 04ab 00000000 		.4byte	.LLST0
 887 04af 16       		.uleb128 0x16
 888 04b0 6D736700 		.ascii	"msg\000"
 889 04b4 01       		.byte	0x1
 890 04b5 4B       		.byte	0x4b
 891 04b6 01010000 		.4byte	0x101
 892 04ba 34000000 		.4byte	.LLST1
 893 04be 17       		.uleb128 0x17
 894 04bf 63747000 		.ascii	"ctp\000"
 895 04c3 01       		.byte	0x1
 896 04c4 4C       		.byte	0x4c
 897 04c5 57020000 		.4byte	0x257
 898 04c9 7E000000 		.4byte	.LLST2
 899 04cd 18       		.uleb128 0x18
 900 04ce 12000000 		.4byte	.LBB10
ARM GAS  /tmp/ccYo7KOg.s 			page 17


 901 04d2 06000000 		.4byte	.LBE10-.LBB10
 902 04d6 E8040000 		.4byte	0x4e8
 903 04da 19       		.uleb128 0x19
 904 04db 746D7000 		.ascii	"tmp\000"
 905 04df 01       		.byte	0x1
 906 04e0 50       		.byte	0x50
 907 04e1 AD000000 		.4byte	0xad
 908 04e5 01       		.uleb128 0x1
 909 04e6 53       		.byte	0x53
 910 04e7 00       		.byte	0
 911 04e8 1A       		.uleb128 0x1a
 912 04e9 3A040000 		.4byte	0x43a
 913 04ed 26000000 		.4byte	.LBB11
 914 04f1 00000000 		.4byte	.Ldebug_ranges0+0
 915 04f5 01       		.byte	0x1
 916 04f6 53       		.byte	0x53
 917 04f7 0E050000 		.4byte	0x50e
 918 04fb 1B       		.uleb128 0x1b
 919 04fc 50040000 		.4byte	0x450
 920 0500 9C000000 		.4byte	.LLST3
 921 0504 1B       		.uleb128 0x1b
 922 0505 46040000 		.4byte	0x446
 923 0509 D4000000 		.4byte	.LLST4
 924 050d 00       		.byte	0
 925 050e 18       		.uleb128 0x18
 926 050f 42000000 		.4byte	.LBB15
 927 0513 06000000 		.4byte	.LBE15-.LBB15
 928 0517 29050000 		.4byte	0x529
 929 051b 19       		.uleb128 0x19
 930 051c 746D7000 		.ascii	"tmp\000"
 931 0520 01       		.byte	0x1
 932 0521 58       		.byte	0x58
 933 0522 AD000000 		.4byte	0xad
 934 0526 01       		.uleb128 0x1
 935 0527 53       		.byte	0x53
 936 0528 00       		.byte	0
 937 0529 1C       		.uleb128 0x1c
 938 052a 1C000000 		.4byte	.LVL3
 939 052e D4060000 		.4byte	0x6d4
 940 0532 1D       		.uleb128 0x1d
 941 0533 3C000000 		.4byte	.LVL6
 942 0537 DB060000 		.4byte	0x6db
 943 053b 45050000 		.4byte	0x545
 944 053f 1E       		.uleb128 0x1e
 945 0540 01       		.uleb128 0x1
 946 0541 50       		.byte	0x50
 947 0542 01       		.uleb128 0x1
 948 0543 3A       		.byte	0x3a
 949 0544 00       		.byte	0
 950 0545 1C       		.uleb128 0x1c
 951 0546 42000000 		.4byte	.LVL8
 952 054a EC060000 		.4byte	0x6ec
 953 054e 1D       		.uleb128 0x1d
 954 054f 52000000 		.4byte	.LVL10
 955 0553 F3060000 		.4byte	0x6f3
 956 0557 62050000 		.4byte	0x562
 957 055b 1E       		.uleb128 0x1e
ARM GAS  /tmp/ccYo7KOg.s 			page 18


 958 055c 01       		.uleb128 0x1
 959 055d 50       		.byte	0x50
 960 055e 02       		.uleb128 0x2
 961 055f 75       		.byte	0x75
 962 0560 00       		.sleb128 0
 963 0561 00       		.byte	0
 964 0562 1F       		.uleb128 0x1f
 965 0563 60000000 		.4byte	.LVL13
 966 0567 08070000 		.4byte	0x708
 967 056b 1E       		.uleb128 0x1e
 968 056c 01       		.uleb128 0x1
 969 056d 50       		.byte	0x50
 970 056e 05       		.uleb128 0x5
 971 056f 03       		.byte	0x3
 972 0570 00000000 		.4byte	.LC0
 973 0574 00       		.byte	0
 974 0575 00       		.byte	0
 975 0576 15       		.uleb128 0x15
 976 0577 D1030000 		.4byte	.LASF71
 977 057b 01       		.byte	0x1
 978 057c 6A       		.byte	0x6a
 979 057d 57020000 		.4byte	0x257
 980 0581 00000000 		.4byte	.LFB8
 981 0585 4A000000 		.4byte	.LFE8-.LFB8
 982 0589 01       		.uleb128 0x1
 983 058a 9C       		.byte	0x9c
 984 058b 1D060000 		.4byte	0x61d
 985 058f 14       		.uleb128 0x14
 986 0590 747000   		.ascii	"tp\000"
 987 0593 01       		.byte	0x1
 988 0594 6B       		.byte	0x6b
 989 0595 57020000 		.4byte	0x257
 990 0599 18       		.uleb128 0x18
 991 059a 02000000 		.4byte	.LBB16
 992 059e 06000000 		.4byte	.LBE16-.LBB16
 993 05a2 B4050000 		.4byte	0x5b4
 994 05a6 19       		.uleb128 0x19
 995 05a7 746D7000 		.ascii	"tmp\000"
 996 05ab 01       		.byte	0x1
 997 05ac 6D       		.byte	0x6d
 998 05ad AD000000 		.4byte	0xad
 999 05b1 01       		.uleb128 0x1
 1000 05b2 53       		.byte	0x53
 1001 05b3 00       		.byte	0
 1002 05b4 1A       		.uleb128 0x1a
 1003 05b5 62040000 		.4byte	0x462
 1004 05b9 20000000 		.4byte	.LBB17
 1005 05bd 18000000 		.4byte	.Ldebug_ranges0+0x18
 1006 05c1 01       		.byte	0x1
 1007 05c2 70       		.byte	0x70
 1008 05c3 E0050000 		.4byte	0x5e0
 1009 05c7 1B       		.uleb128 0x1b
 1010 05c8 72040000 		.4byte	0x472
 1011 05cc F2000000 		.4byte	.LLST5
 1012 05d0 20       		.uleb128 0x20
 1013 05d1 18000000 		.4byte	.Ldebug_ranges0+0x18
 1014 05d5 21       		.uleb128 0x21
ARM GAS  /tmp/ccYo7KOg.s 			page 19


 1015 05d6 7D040000 		.4byte	0x47d
 1016 05da 05010000 		.4byte	.LLST6
 1017 05de 00       		.byte	0
 1018 05df 00       		.byte	0
 1019 05e0 18       		.uleb128 0x18
 1020 05e1 30000000 		.4byte	.LBB21
 1021 05e5 06000000 		.4byte	.LBE21-.LBB21
 1022 05e9 FB050000 		.4byte	0x5fb
 1023 05ed 19       		.uleb128 0x19
 1024 05ee 746D7000 		.ascii	"tmp\000"
 1025 05f2 01       		.byte	0x1
 1026 05f3 72       		.byte	0x72
 1027 05f4 AD000000 		.4byte	0xad
 1028 05f8 01       		.uleb128 0x1
 1029 05f9 53       		.byte	0x53
 1030 05fa 00       		.byte	0
 1031 05fb 1C       		.uleb128 0x1c
 1032 05fc 14000000 		.4byte	.LVL14
 1033 0600 D4060000 		.4byte	0x6d4
 1034 0604 1C       		.uleb128 0x1c
 1035 0605 30000000 		.4byte	.LVL16
 1036 0609 EC060000 		.4byte	0x6ec
 1037 060d 1F       		.uleb128 0x1f
 1038 060e 40000000 		.4byte	.LVL18
 1039 0612 DB060000 		.4byte	0x6db
 1040 0616 1E       		.uleb128 0x1e
 1041 0617 01       		.uleb128 0x1
 1042 0618 50       		.byte	0x50
 1043 0619 01       		.uleb128 0x1
 1044 061a 3C       		.byte	0x3c
 1045 061b 00       		.byte	0
 1046 061c 00       		.byte	0
 1047 061d 22       		.uleb128 0x22
 1048 061e 31030000 		.4byte	.LASF81
 1049 0622 01       		.byte	0x1
 1050 0623 80       		.byte	0x80
 1051 0624 00000000 		.4byte	.LFB9
 1052 0628 38000000 		.4byte	.LFE9-.LFB9
 1053 062c 01       		.uleb128 0x1
 1054 062d 9C       		.byte	0x9c
 1055 062e C9060000 		.4byte	0x6c9
 1056 0632 16       		.uleb128 0x16
 1057 0633 747000   		.ascii	"tp\000"
 1058 0636 01       		.byte	0x1
 1059 0637 80       		.byte	0x80
 1060 0638 57020000 		.4byte	0x257
 1061 063c 18010000 		.4byte	.LLST7
 1062 0640 16       		.uleb128 0x16
 1063 0641 6D736700 		.ascii	"msg\000"
 1064 0645 01       		.byte	0x1
 1065 0646 80       		.byte	0x80
 1066 0647 01010000 		.4byte	0x101
 1067 064b 36010000 		.4byte	.LLST8
 1068 064f 18       		.uleb128 0x18
 1069 0650 06000000 		.4byte	.LBB22
 1070 0654 06000000 		.4byte	.LBE22-.LBB22
 1071 0658 6A060000 		.4byte	0x66a
ARM GAS  /tmp/ccYo7KOg.s 			page 20


 1072 065c 19       		.uleb128 0x19
 1073 065d 746D7000 		.ascii	"tmp\000"
 1074 0661 01       		.byte	0x1
 1075 0662 82       		.byte	0x82
 1076 0663 AD000000 		.4byte	0xad
 1077 0667 01       		.uleb128 0x1
 1078 0668 53       		.byte	0x53
 1079 0669 00       		.byte	0
 1080 066a 18       		.uleb128 0x18
 1081 066b 30000000 		.4byte	.LBB23
 1082 066f 08000000 		.4byte	.LBE23-.LBB23
 1083 0673 85060000 		.4byte	0x685
 1084 0677 19       		.uleb128 0x19
 1085 0678 746D7000 		.ascii	"tmp\000"
 1086 067c 01       		.byte	0x1
 1087 067d 86       		.byte	0x86
 1088 067e AD000000 		.4byte	0xad
 1089 0682 01       		.uleb128 0x1
 1090 0683 53       		.byte	0x53
 1091 0684 00       		.byte	0
 1092 0685 1C       		.uleb128 0x1c
 1093 0686 10000000 		.4byte	.LVL20
 1094 068a D4060000 		.4byte	0x6d4
 1095 068e 1D       		.uleb128 0x1d
 1096 068f 24000000 		.4byte	.LVL21
 1097 0693 08070000 		.4byte	0x708
 1098 0697 A5060000 		.4byte	0x6a5
 1099 069b 1E       		.uleb128 0x1e
 1100 069c 01       		.uleb128 0x1
 1101 069d 50       		.byte	0x50
 1102 069e 05       		.uleb128 0x5
 1103 069f 03       		.byte	0x3
 1104 06a0 10000000 		.4byte	.LC1
 1105 06a4 00       		.byte	0
 1106 06a5 1D       		.uleb128 0x1d
 1107 06a6 2C000000 		.4byte	.LVL22
 1108 06aa 19070000 		.4byte	0x719
 1109 06ae BF060000 		.4byte	0x6bf
 1110 06b2 1E       		.uleb128 0x1e
 1111 06b3 01       		.uleb128 0x1
 1112 06b4 51       		.byte	0x51
 1113 06b5 02       		.uleb128 0x2
 1114 06b6 75       		.byte	0x75
 1115 06b7 00       		.sleb128 0
 1116 06b8 1E       		.uleb128 0x1e
 1117 06b9 01       		.uleb128 0x1
 1118 06ba 50       		.byte	0x50
 1119 06bb 02       		.uleb128 0x2
 1120 06bc 74       		.byte	0x74
 1121 06bd 00       		.sleb128 0
 1122 06be 00       		.byte	0
 1123 06bf 1C       		.uleb128 0x1c
 1124 06c0 30000000 		.4byte	.LVL23
 1125 06c4 EC060000 		.4byte	0x6ec
 1126 06c8 00       		.byte	0
 1127 06c9 23       		.uleb128 0x23
 1128 06ca EC030000 		.4byte	.LASF82
ARM GAS  /tmp/ccYo7KOg.s 			page 21


 1129 06ce 09       		.byte	0x9
 1130 06cf 6F       		.byte	0x6f
 1131 06d0 9A030000 		.4byte	0x39a
 1132 06d4 24       		.uleb128 0x24
 1133 06d5 14020000 		.4byte	.LASF72
 1134 06d9 0B       		.byte	0xb
 1135 06da E7       		.byte	0xe7
 1136 06db 25       		.uleb128 0x25
 1137 06dc 3E030000 		.4byte	.LASF74
 1138 06e0 09       		.byte	0x9
 1139 06e1 93       		.byte	0x93
 1140 06e2 EC060000 		.4byte	0x6ec
 1141 06e6 26       		.uleb128 0x26
 1142 06e7 D5000000 		.4byte	0xd5
 1143 06eb 00       		.byte	0
 1144 06ec 24       		.uleb128 0x24
 1145 06ed 98020000 		.4byte	.LASF73
 1146 06f1 0B       		.byte	0xb
 1147 06f2 E8       		.byte	0xe8
 1148 06f3 27       		.uleb128 0x27
 1149 06f4 68030000 		.4byte	.LASF83
 1150 06f8 09       		.byte	0x9
 1151 06f9 90       		.byte	0x90
 1152 06fa 57020000 		.4byte	0x257
 1153 06fe 08070000 		.4byte	0x708
 1154 0702 26       		.uleb128 0x26
 1155 0703 57020000 		.4byte	0x257
 1156 0707 00       		.byte	0
 1157 0708 25       		.uleb128 0x25
 1158 0709 13000000 		.4byte	.LASF75
 1159 070d 0B       		.byte	0xb
 1160 070e F6       		.byte	0xf6
 1161 070f 19070000 		.4byte	0x719
 1162 0713 26       		.uleb128 0x26
 1163 0714 1C040000 		.4byte	0x41c
 1164 0718 00       		.byte	0
 1165 0719 28       		.uleb128 0x28
 1166 071a C4030000 		.4byte	.LASF84
 1167 071e 09       		.byte	0x9
 1168 071f 99       		.byte	0x99
 1169 0720 26       		.uleb128 0x26
 1170 0721 57020000 		.4byte	0x257
 1171 0725 26       		.uleb128 0x26
 1172 0726 01010000 		.4byte	0x101
 1173 072a 00       		.byte	0
 1174 072b 00       		.byte	0
 1175              		.section	.debug_abbrev,"",%progbits
 1176              	.Ldebug_abbrev0:
 1177 0000 01       		.uleb128 0x1
 1178 0001 11       		.uleb128 0x11
 1179 0002 01       		.byte	0x1
 1180 0003 25       		.uleb128 0x25
 1181 0004 0E       		.uleb128 0xe
 1182 0005 13       		.uleb128 0x13
 1183 0006 0B       		.uleb128 0xb
 1184 0007 03       		.uleb128 0x3
 1185 0008 0E       		.uleb128 0xe
ARM GAS  /tmp/ccYo7KOg.s 			page 22


 1186 0009 1B       		.uleb128 0x1b
 1187 000a 0E       		.uleb128 0xe
 1188 000b 55       		.uleb128 0x55
 1189 000c 17       		.uleb128 0x17
 1190 000d 11       		.uleb128 0x11
 1191 000e 01       		.uleb128 0x1
 1192 000f 10       		.uleb128 0x10
 1193 0010 17       		.uleb128 0x17
 1194 0011 00       		.byte	0
 1195 0012 00       		.byte	0
 1196 0013 02       		.uleb128 0x2
 1197 0014 24       		.uleb128 0x24
 1198 0015 00       		.byte	0
 1199 0016 0B       		.uleb128 0xb
 1200 0017 0B       		.uleb128 0xb
 1201 0018 3E       		.uleb128 0x3e
 1202 0019 0B       		.uleb128 0xb
 1203 001a 03       		.uleb128 0x3
 1204 001b 08       		.uleb128 0x8
 1205 001c 00       		.byte	0
 1206 001d 00       		.byte	0
 1207 001e 03       		.uleb128 0x3
 1208 001f 24       		.uleb128 0x24
 1209 0020 00       		.byte	0
 1210 0021 0B       		.uleb128 0xb
 1211 0022 0B       		.uleb128 0xb
 1212 0023 3E       		.uleb128 0x3e
 1213 0024 0B       		.uleb128 0xb
 1214 0025 03       		.uleb128 0x3
 1215 0026 0E       		.uleb128 0xe
 1216 0027 00       		.byte	0
 1217 0028 00       		.byte	0
 1218 0029 04       		.uleb128 0x4
 1219 002a 16       		.uleb128 0x16
 1220 002b 00       		.byte	0
 1221 002c 03       		.uleb128 0x3
 1222 002d 0E       		.uleb128 0xe
 1223 002e 3A       		.uleb128 0x3a
 1224 002f 0B       		.uleb128 0xb
 1225 0030 3B       		.uleb128 0x3b
 1226 0031 0B       		.uleb128 0xb
 1227 0032 49       		.uleb128 0x49
 1228 0033 13       		.uleb128 0x13
 1229 0034 00       		.byte	0
 1230 0035 00       		.byte	0
 1231 0036 05       		.uleb128 0x5
 1232 0037 13       		.uleb128 0x13
 1233 0038 01       		.byte	0x1
 1234 0039 03       		.uleb128 0x3
 1235 003a 0E       		.uleb128 0xe
 1236 003b 0B       		.uleb128 0xb
 1237 003c 0B       		.uleb128 0xb
 1238 003d 3A       		.uleb128 0x3a
 1239 003e 0B       		.uleb128 0xb
 1240 003f 3B       		.uleb128 0x3b
 1241 0040 0B       		.uleb128 0xb
 1242 0041 01       		.uleb128 0x1
ARM GAS  /tmp/ccYo7KOg.s 			page 23


 1243 0042 13       		.uleb128 0x13
 1244 0043 00       		.byte	0
 1245 0044 00       		.byte	0
 1246 0045 06       		.uleb128 0x6
 1247 0046 0D       		.uleb128 0xd
 1248 0047 00       		.byte	0
 1249 0048 03       		.uleb128 0x3
 1250 0049 0E       		.uleb128 0xe
 1251 004a 3A       		.uleb128 0x3a
 1252 004b 0B       		.uleb128 0xb
 1253 004c 3B       		.uleb128 0x3b
 1254 004d 0B       		.uleb128 0xb
 1255 004e 49       		.uleb128 0x49
 1256 004f 13       		.uleb128 0x13
 1257 0050 38       		.uleb128 0x38
 1258 0051 0B       		.uleb128 0xb
 1259 0052 00       		.byte	0
 1260 0053 00       		.byte	0
 1261 0054 07       		.uleb128 0x7
 1262 0055 0D       		.uleb128 0xd
 1263 0056 00       		.byte	0
 1264 0057 03       		.uleb128 0x3
 1265 0058 08       		.uleb128 0x8
 1266 0059 3A       		.uleb128 0x3a
 1267 005a 0B       		.uleb128 0xb
 1268 005b 3B       		.uleb128 0x3b
 1269 005c 0B       		.uleb128 0xb
 1270 005d 49       		.uleb128 0x49
 1271 005e 13       		.uleb128 0x13
 1272 005f 38       		.uleb128 0x38
 1273 0060 0B       		.uleb128 0xb
 1274 0061 00       		.byte	0
 1275 0062 00       		.byte	0
 1276 0063 08       		.uleb128 0x8
 1277 0064 13       		.uleb128 0x13
 1278 0065 01       		.byte	0x1
 1279 0066 0B       		.uleb128 0xb
 1280 0067 0B       		.uleb128 0xb
 1281 0068 3A       		.uleb128 0x3a
 1282 0069 0B       		.uleb128 0xb
 1283 006a 3B       		.uleb128 0x3b
 1284 006b 0B       		.uleb128 0xb
 1285 006c 01       		.uleb128 0x1
 1286 006d 13       		.uleb128 0x13
 1287 006e 00       		.byte	0
 1288 006f 00       		.byte	0
 1289 0070 09       		.uleb128 0x9
 1290 0071 0F       		.uleb128 0xf
 1291 0072 00       		.byte	0
 1292 0073 0B       		.uleb128 0xb
 1293 0074 0B       		.uleb128 0xb
 1294 0075 49       		.uleb128 0x49
 1295 0076 13       		.uleb128 0x13
 1296 0077 00       		.byte	0
 1297 0078 00       		.byte	0
 1298 0079 0A       		.uleb128 0xa
 1299 007a 0F       		.uleb128 0xf
ARM GAS  /tmp/ccYo7KOg.s 			page 24


 1300 007b 00       		.byte	0
 1301 007c 0B       		.uleb128 0xb
 1302 007d 0B       		.uleb128 0xb
 1303 007e 00       		.byte	0
 1304 007f 00       		.byte	0
 1305 0080 0B       		.uleb128 0xb
 1306 0081 13       		.uleb128 0x13
 1307 0082 01       		.byte	0x1
 1308 0083 03       		.uleb128 0x3
 1309 0084 0E       		.uleb128 0xe
 1310 0085 0B       		.uleb128 0xb
 1311 0086 0B       		.uleb128 0xb
 1312 0087 3A       		.uleb128 0x3a
 1313 0088 0B       		.uleb128 0xb
 1314 0089 3B       		.uleb128 0x3b
 1315 008a 05       		.uleb128 0x5
 1316 008b 01       		.uleb128 0x1
 1317 008c 13       		.uleb128 0x13
 1318 008d 00       		.byte	0
 1319 008e 00       		.byte	0
 1320 008f 0C       		.uleb128 0xc
 1321 0090 0D       		.uleb128 0xd
 1322 0091 00       		.byte	0
 1323 0092 03       		.uleb128 0x3
 1324 0093 08       		.uleb128 0x8
 1325 0094 3A       		.uleb128 0x3a
 1326 0095 0B       		.uleb128 0xb
 1327 0096 3B       		.uleb128 0x3b
 1328 0097 05       		.uleb128 0x5
 1329 0098 49       		.uleb128 0x49
 1330 0099 13       		.uleb128 0x13
 1331 009a 38       		.uleb128 0x38
 1332 009b 0B       		.uleb128 0xb
 1333 009c 00       		.byte	0
 1334 009d 00       		.byte	0
 1335 009e 0D       		.uleb128 0xd
 1336 009f 35       		.uleb128 0x35
 1337 00a0 00       		.byte	0
 1338 00a1 49       		.uleb128 0x49
 1339 00a2 13       		.uleb128 0x13
 1340 00a3 00       		.byte	0
 1341 00a4 00       		.byte	0
 1342 00a5 0E       		.uleb128 0xe
 1343 00a6 17       		.uleb128 0x17
 1344 00a7 01       		.byte	0x1
 1345 00a8 0B       		.uleb128 0xb
 1346 00a9 0B       		.uleb128 0xb
 1347 00aa 3A       		.uleb128 0x3a
 1348 00ab 0B       		.uleb128 0xb
 1349 00ac 3B       		.uleb128 0x3b
 1350 00ad 0B       		.uleb128 0xb
 1351 00ae 01       		.uleb128 0x1
 1352 00af 13       		.uleb128 0x13
 1353 00b0 00       		.byte	0
 1354 00b1 00       		.byte	0
 1355 00b2 0F       		.uleb128 0xf
 1356 00b3 0D       		.uleb128 0xd
ARM GAS  /tmp/ccYo7KOg.s 			page 25


 1357 00b4 00       		.byte	0
 1358 00b5 03       		.uleb128 0x3
 1359 00b6 0E       		.uleb128 0xe
 1360 00b7 3A       		.uleb128 0x3a
 1361 00b8 0B       		.uleb128 0xb
 1362 00b9 3B       		.uleb128 0x3b
 1363 00ba 0B       		.uleb128 0xb
 1364 00bb 49       		.uleb128 0x49
 1365 00bc 13       		.uleb128 0x13
 1366 00bd 00       		.byte	0
 1367 00be 00       		.byte	0
 1368 00bf 10       		.uleb128 0x10
 1369 00c0 26       		.uleb128 0x26
 1370 00c1 00       		.byte	0
 1371 00c2 49       		.uleb128 0x49
 1372 00c3 13       		.uleb128 0x13
 1373 00c4 00       		.byte	0
 1374 00c5 00       		.byte	0
 1375 00c6 11       		.uleb128 0x11
 1376 00c7 2E       		.uleb128 0x2e
 1377 00c8 01       		.byte	0x1
 1378 00c9 03       		.uleb128 0x3
 1379 00ca 0E       		.uleb128 0xe
 1380 00cb 3A       		.uleb128 0x3a
 1381 00cc 0B       		.uleb128 0xb
 1382 00cd 3B       		.uleb128 0x3b
 1383 00ce 0B       		.uleb128 0xb
 1384 00cf 27       		.uleb128 0x27
 1385 00d0 19       		.uleb128 0x19
 1386 00d1 20       		.uleb128 0x20
 1387 00d2 0B       		.uleb128 0xb
 1388 00d3 01       		.uleb128 0x1
 1389 00d4 13       		.uleb128 0x13
 1390 00d5 00       		.byte	0
 1391 00d6 00       		.byte	0
 1392 00d7 12       		.uleb128 0x12
 1393 00d8 05       		.uleb128 0x5
 1394 00d9 00       		.byte	0
 1395 00da 03       		.uleb128 0x3
 1396 00db 08       		.uleb128 0x8
 1397 00dc 3A       		.uleb128 0x3a
 1398 00dd 0B       		.uleb128 0xb
 1399 00de 3B       		.uleb128 0x3b
 1400 00df 0B       		.uleb128 0xb
 1401 00e0 49       		.uleb128 0x49
 1402 00e1 13       		.uleb128 0x13
 1403 00e2 00       		.byte	0
 1404 00e3 00       		.byte	0
 1405 00e4 13       		.uleb128 0x13
 1406 00e5 2E       		.uleb128 0x2e
 1407 00e6 01       		.byte	0x1
 1408 00e7 03       		.uleb128 0x3
 1409 00e8 0E       		.uleb128 0xe
 1410 00e9 3A       		.uleb128 0x3a
 1411 00ea 0B       		.uleb128 0xb
 1412 00eb 3B       		.uleb128 0x3b
 1413 00ec 0B       		.uleb128 0xb
ARM GAS  /tmp/ccYo7KOg.s 			page 26


 1414 00ed 27       		.uleb128 0x27
 1415 00ee 19       		.uleb128 0x19
 1416 00ef 49       		.uleb128 0x49
 1417 00f0 13       		.uleb128 0x13
 1418 00f1 20       		.uleb128 0x20
 1419 00f2 0B       		.uleb128 0xb
 1420 00f3 01       		.uleb128 0x1
 1421 00f4 13       		.uleb128 0x13
 1422 00f5 00       		.byte	0
 1423 00f6 00       		.byte	0
 1424 00f7 14       		.uleb128 0x14
 1425 00f8 34       		.uleb128 0x34
 1426 00f9 00       		.byte	0
 1427 00fa 03       		.uleb128 0x3
 1428 00fb 08       		.uleb128 0x8
 1429 00fc 3A       		.uleb128 0x3a
 1430 00fd 0B       		.uleb128 0xb
 1431 00fe 3B       		.uleb128 0x3b
 1432 00ff 0B       		.uleb128 0xb
 1433 0100 49       		.uleb128 0x49
 1434 0101 13       		.uleb128 0x13
 1435 0102 00       		.byte	0
 1436 0103 00       		.byte	0
 1437 0104 15       		.uleb128 0x15
 1438 0105 2E       		.uleb128 0x2e
 1439 0106 01       		.byte	0x1
 1440 0107 3F       		.uleb128 0x3f
 1441 0108 19       		.uleb128 0x19
 1442 0109 03       		.uleb128 0x3
 1443 010a 0E       		.uleb128 0xe
 1444 010b 3A       		.uleb128 0x3a
 1445 010c 0B       		.uleb128 0xb
 1446 010d 3B       		.uleb128 0x3b
 1447 010e 0B       		.uleb128 0xb
 1448 010f 27       		.uleb128 0x27
 1449 0110 19       		.uleb128 0x19
 1450 0111 49       		.uleb128 0x49
 1451 0112 13       		.uleb128 0x13
 1452 0113 11       		.uleb128 0x11
 1453 0114 01       		.uleb128 0x1
 1454 0115 12       		.uleb128 0x12
 1455 0116 06       		.uleb128 0x6
 1456 0117 40       		.uleb128 0x40
 1457 0118 18       		.uleb128 0x18
 1458 0119 9742     		.uleb128 0x2117
 1459 011b 19       		.uleb128 0x19
 1460 011c 01       		.uleb128 0x1
 1461 011d 13       		.uleb128 0x13
 1462 011e 00       		.byte	0
 1463 011f 00       		.byte	0
 1464 0120 16       		.uleb128 0x16
 1465 0121 05       		.uleb128 0x5
 1466 0122 00       		.byte	0
 1467 0123 03       		.uleb128 0x3
 1468 0124 08       		.uleb128 0x8
 1469 0125 3A       		.uleb128 0x3a
 1470 0126 0B       		.uleb128 0xb
ARM GAS  /tmp/ccYo7KOg.s 			page 27


 1471 0127 3B       		.uleb128 0x3b
 1472 0128 0B       		.uleb128 0xb
 1473 0129 49       		.uleb128 0x49
 1474 012a 13       		.uleb128 0x13
 1475 012b 02       		.uleb128 0x2
 1476 012c 17       		.uleb128 0x17
 1477 012d 00       		.byte	0
 1478 012e 00       		.byte	0
 1479 012f 17       		.uleb128 0x17
 1480 0130 34       		.uleb128 0x34
 1481 0131 00       		.byte	0
 1482 0132 03       		.uleb128 0x3
 1483 0133 08       		.uleb128 0x8
 1484 0134 3A       		.uleb128 0x3a
 1485 0135 0B       		.uleb128 0xb
 1486 0136 3B       		.uleb128 0x3b
 1487 0137 0B       		.uleb128 0xb
 1488 0138 49       		.uleb128 0x49
 1489 0139 13       		.uleb128 0x13
 1490 013a 02       		.uleb128 0x2
 1491 013b 17       		.uleb128 0x17
 1492 013c 00       		.byte	0
 1493 013d 00       		.byte	0
 1494 013e 18       		.uleb128 0x18
 1495 013f 0B       		.uleb128 0xb
 1496 0140 01       		.byte	0x1
 1497 0141 11       		.uleb128 0x11
 1498 0142 01       		.uleb128 0x1
 1499 0143 12       		.uleb128 0x12
 1500 0144 06       		.uleb128 0x6
 1501 0145 01       		.uleb128 0x1
 1502 0146 13       		.uleb128 0x13
 1503 0147 00       		.byte	0
 1504 0148 00       		.byte	0
 1505 0149 19       		.uleb128 0x19
 1506 014a 34       		.uleb128 0x34
 1507 014b 00       		.byte	0
 1508 014c 03       		.uleb128 0x3
 1509 014d 08       		.uleb128 0x8
 1510 014e 3A       		.uleb128 0x3a
 1511 014f 0B       		.uleb128 0xb
 1512 0150 3B       		.uleb128 0x3b
 1513 0151 0B       		.uleb128 0xb
 1514 0152 49       		.uleb128 0x49
 1515 0153 13       		.uleb128 0x13
 1516 0154 02       		.uleb128 0x2
 1517 0155 18       		.uleb128 0x18
 1518 0156 00       		.byte	0
 1519 0157 00       		.byte	0
 1520 0158 1A       		.uleb128 0x1a
 1521 0159 1D       		.uleb128 0x1d
 1522 015a 01       		.byte	0x1
 1523 015b 31       		.uleb128 0x31
 1524 015c 13       		.uleb128 0x13
 1525 015d 52       		.uleb128 0x52
 1526 015e 01       		.uleb128 0x1
 1527 015f 55       		.uleb128 0x55
ARM GAS  /tmp/ccYo7KOg.s 			page 28


 1528 0160 17       		.uleb128 0x17
 1529 0161 58       		.uleb128 0x58
 1530 0162 0B       		.uleb128 0xb
 1531 0163 59       		.uleb128 0x59
 1532 0164 0B       		.uleb128 0xb
 1533 0165 01       		.uleb128 0x1
 1534 0166 13       		.uleb128 0x13
 1535 0167 00       		.byte	0
 1536 0168 00       		.byte	0
 1537 0169 1B       		.uleb128 0x1b
 1538 016a 05       		.uleb128 0x5
 1539 016b 00       		.byte	0
 1540 016c 31       		.uleb128 0x31
 1541 016d 13       		.uleb128 0x13
 1542 016e 02       		.uleb128 0x2
 1543 016f 17       		.uleb128 0x17
 1544 0170 00       		.byte	0
 1545 0171 00       		.byte	0
 1546 0172 1C       		.uleb128 0x1c
 1547 0173 898201   		.uleb128 0x4109
 1548 0176 00       		.byte	0
 1549 0177 11       		.uleb128 0x11
 1550 0178 01       		.uleb128 0x1
 1551 0179 31       		.uleb128 0x31
 1552 017a 13       		.uleb128 0x13
 1553 017b 00       		.byte	0
 1554 017c 00       		.byte	0
 1555 017d 1D       		.uleb128 0x1d
 1556 017e 898201   		.uleb128 0x4109
 1557 0181 01       		.byte	0x1
 1558 0182 11       		.uleb128 0x11
 1559 0183 01       		.uleb128 0x1
 1560 0184 31       		.uleb128 0x31
 1561 0185 13       		.uleb128 0x13
 1562 0186 01       		.uleb128 0x1
 1563 0187 13       		.uleb128 0x13
 1564 0188 00       		.byte	0
 1565 0189 00       		.byte	0
 1566 018a 1E       		.uleb128 0x1e
 1567 018b 8A8201   		.uleb128 0x410a
 1568 018e 00       		.byte	0
 1569 018f 02       		.uleb128 0x2
 1570 0190 18       		.uleb128 0x18
 1571 0191 9142     		.uleb128 0x2111
 1572 0193 18       		.uleb128 0x18
 1573 0194 00       		.byte	0
 1574 0195 00       		.byte	0
 1575 0196 1F       		.uleb128 0x1f
 1576 0197 898201   		.uleb128 0x4109
 1577 019a 01       		.byte	0x1
 1578 019b 11       		.uleb128 0x11
 1579 019c 01       		.uleb128 0x1
 1580 019d 31       		.uleb128 0x31
 1581 019e 13       		.uleb128 0x13
 1582 019f 00       		.byte	0
 1583 01a0 00       		.byte	0
 1584 01a1 20       		.uleb128 0x20
ARM GAS  /tmp/ccYo7KOg.s 			page 29


 1585 01a2 0B       		.uleb128 0xb
 1586 01a3 01       		.byte	0x1
 1587 01a4 55       		.uleb128 0x55
 1588 01a5 17       		.uleb128 0x17
 1589 01a6 00       		.byte	0
 1590 01a7 00       		.byte	0
 1591 01a8 21       		.uleb128 0x21
 1592 01a9 34       		.uleb128 0x34
 1593 01aa 00       		.byte	0
 1594 01ab 31       		.uleb128 0x31
 1595 01ac 13       		.uleb128 0x13
 1596 01ad 02       		.uleb128 0x2
 1597 01ae 17       		.uleb128 0x17
 1598 01af 00       		.byte	0
 1599 01b0 00       		.byte	0
 1600 01b1 22       		.uleb128 0x22
 1601 01b2 2E       		.uleb128 0x2e
 1602 01b3 01       		.byte	0x1
 1603 01b4 3F       		.uleb128 0x3f
 1604 01b5 19       		.uleb128 0x19
 1605 01b6 03       		.uleb128 0x3
 1606 01b7 0E       		.uleb128 0xe
 1607 01b8 3A       		.uleb128 0x3a
 1608 01b9 0B       		.uleb128 0xb
 1609 01ba 3B       		.uleb128 0x3b
 1610 01bb 0B       		.uleb128 0xb
 1611 01bc 27       		.uleb128 0x27
 1612 01bd 19       		.uleb128 0x19
 1613 01be 11       		.uleb128 0x11
 1614 01bf 01       		.uleb128 0x1
 1615 01c0 12       		.uleb128 0x12
 1616 01c1 06       		.uleb128 0x6
 1617 01c2 40       		.uleb128 0x40
 1618 01c3 18       		.uleb128 0x18
 1619 01c4 9742     		.uleb128 0x2117
 1620 01c6 19       		.uleb128 0x19
 1621 01c7 01       		.uleb128 0x1
 1622 01c8 13       		.uleb128 0x13
 1623 01c9 00       		.byte	0
 1624 01ca 00       		.byte	0
 1625 01cb 23       		.uleb128 0x23
 1626 01cc 34       		.uleb128 0x34
 1627 01cd 00       		.byte	0
 1628 01ce 03       		.uleb128 0x3
 1629 01cf 0E       		.uleb128 0xe
 1630 01d0 3A       		.uleb128 0x3a
 1631 01d1 0B       		.uleb128 0xb
 1632 01d2 3B       		.uleb128 0x3b
 1633 01d3 0B       		.uleb128 0xb
 1634 01d4 49       		.uleb128 0x49
 1635 01d5 13       		.uleb128 0x13
 1636 01d6 3F       		.uleb128 0x3f
 1637 01d7 19       		.uleb128 0x19
 1638 01d8 3C       		.uleb128 0x3c
 1639 01d9 19       		.uleb128 0x19
 1640 01da 00       		.byte	0
 1641 01db 00       		.byte	0
ARM GAS  /tmp/ccYo7KOg.s 			page 30


 1642 01dc 24       		.uleb128 0x24
 1643 01dd 2E       		.uleb128 0x2e
 1644 01de 00       		.byte	0
 1645 01df 3F       		.uleb128 0x3f
 1646 01e0 19       		.uleb128 0x19
 1647 01e1 03       		.uleb128 0x3
 1648 01e2 0E       		.uleb128 0xe
 1649 01e3 3A       		.uleb128 0x3a
 1650 01e4 0B       		.uleb128 0xb
 1651 01e5 3B       		.uleb128 0x3b
 1652 01e6 0B       		.uleb128 0xb
 1653 01e7 27       		.uleb128 0x27
 1654 01e8 19       		.uleb128 0x19
 1655 01e9 3C       		.uleb128 0x3c
 1656 01ea 19       		.uleb128 0x19
 1657 01eb 00       		.byte	0
 1658 01ec 00       		.byte	0
 1659 01ed 25       		.uleb128 0x25
 1660 01ee 2E       		.uleb128 0x2e
 1661 01ef 01       		.byte	0x1
 1662 01f0 3F       		.uleb128 0x3f
 1663 01f1 19       		.uleb128 0x19
 1664 01f2 03       		.uleb128 0x3
 1665 01f3 0E       		.uleb128 0xe
 1666 01f4 3A       		.uleb128 0x3a
 1667 01f5 0B       		.uleb128 0xb
 1668 01f6 3B       		.uleb128 0x3b
 1669 01f7 0B       		.uleb128 0xb
 1670 01f8 27       		.uleb128 0x27
 1671 01f9 19       		.uleb128 0x19
 1672 01fa 3C       		.uleb128 0x3c
 1673 01fb 19       		.uleb128 0x19
 1674 01fc 01       		.uleb128 0x1
 1675 01fd 13       		.uleb128 0x13
 1676 01fe 00       		.byte	0
 1677 01ff 00       		.byte	0
 1678 0200 26       		.uleb128 0x26
 1679 0201 05       		.uleb128 0x5
 1680 0202 00       		.byte	0
 1681 0203 49       		.uleb128 0x49
 1682 0204 13       		.uleb128 0x13
 1683 0205 00       		.byte	0
 1684 0206 00       		.byte	0
 1685 0207 27       		.uleb128 0x27
 1686 0208 2E       		.uleb128 0x2e
 1687 0209 01       		.byte	0x1
 1688 020a 3F       		.uleb128 0x3f
 1689 020b 19       		.uleb128 0x19
 1690 020c 03       		.uleb128 0x3
 1691 020d 0E       		.uleb128 0xe
 1692 020e 3A       		.uleb128 0x3a
 1693 020f 0B       		.uleb128 0xb
 1694 0210 3B       		.uleb128 0x3b
 1695 0211 0B       		.uleb128 0xb
 1696 0212 27       		.uleb128 0x27
 1697 0213 19       		.uleb128 0x19
 1698 0214 49       		.uleb128 0x49
ARM GAS  /tmp/ccYo7KOg.s 			page 31


 1699 0215 13       		.uleb128 0x13
 1700 0216 3C       		.uleb128 0x3c
 1701 0217 19       		.uleb128 0x19
 1702 0218 01       		.uleb128 0x1
 1703 0219 13       		.uleb128 0x13
 1704 021a 00       		.byte	0
 1705 021b 00       		.byte	0
 1706 021c 28       		.uleb128 0x28
 1707 021d 2E       		.uleb128 0x2e
 1708 021e 01       		.byte	0x1
 1709 021f 3F       		.uleb128 0x3f
 1710 0220 19       		.uleb128 0x19
 1711 0221 03       		.uleb128 0x3
 1712 0222 0E       		.uleb128 0xe
 1713 0223 3A       		.uleb128 0x3a
 1714 0224 0B       		.uleb128 0xb
 1715 0225 3B       		.uleb128 0x3b
 1716 0226 0B       		.uleb128 0xb
 1717 0227 27       		.uleb128 0x27
 1718 0228 19       		.uleb128 0x19
 1719 0229 3C       		.uleb128 0x3c
 1720 022a 19       		.uleb128 0x19
 1721 022b 00       		.byte	0
 1722 022c 00       		.byte	0
 1723 022d 00       		.byte	0
 1724              		.section	.debug_loc,"",%progbits
 1725              	.Ldebug_loc0:
 1726              	.LLST0:
 1727 0000 00000000 		.4byte	.LVL0
 1728 0004 12000000 		.4byte	.LVL2
 1729 0008 0100     		.2byte	0x1
 1730 000a 50       		.byte	0x50
 1731 000b 12000000 		.4byte	.LVL2
 1732 000f 54000000 		.4byte	.LVL11
 1733 0013 0100     		.2byte	0x1
 1734 0015 55       		.byte	0x55
 1735 0016 54000000 		.4byte	.LVL11
 1736 001a 58000000 		.4byte	.LVL12
 1737 001e 0100     		.2byte	0x1
 1738 0020 50       		.byte	0x50
 1739 0021 58000000 		.4byte	.LVL12
 1740 0025 62000000 		.4byte	.LFE7
 1741 0029 0100     		.2byte	0x1
 1742 002b 55       		.byte	0x55
 1743 002c 00000000 		.4byte	0
 1744 0030 00000000 		.4byte	0
 1745              	.LLST1:
 1746 0034 00000000 		.4byte	.LVL0
 1747 0038 12000000 		.4byte	.LVL2
 1748 003c 0100     		.2byte	0x1
 1749 003e 51       		.byte	0x51
 1750 003f 12000000 		.4byte	.LVL2
 1751 0043 3E000000 		.4byte	.LVL7
 1752 0047 0100     		.2byte	0x1
 1753 0049 56       		.byte	0x56
 1754 004a 3E000000 		.4byte	.LVL7
 1755 004e 4C000000 		.4byte	.LVL9
ARM GAS  /tmp/ccYo7KOg.s 			page 32


 1756 0052 0100     		.2byte	0x1
 1757 0054 54       		.byte	0x54
 1758 0055 4C000000 		.4byte	.LVL9
 1759 0059 54000000 		.4byte	.LVL11
 1760 005d 0100     		.2byte	0x1
 1761 005f 56       		.byte	0x56
 1762 0060 54000000 		.4byte	.LVL11
 1763 0064 5F000000 		.4byte	.LVL13-1
 1764 0068 0100     		.2byte	0x1
 1765 006a 51       		.byte	0x51
 1766 006b 5F000000 		.4byte	.LVL13-1
 1767 006f 62000000 		.4byte	.LFE7
 1768 0073 0100     		.2byte	0x1
 1769 0075 56       		.byte	0x56
 1770 0076 00000000 		.4byte	0
 1771 007a 00000000 		.4byte	0
 1772              	.LLST2:
 1773 007e 10000000 		.4byte	.LVL1
 1774 0082 3E000000 		.4byte	.LVL7
 1775 0086 0100     		.2byte	0x1
 1776 0088 54       		.byte	0x54
 1777 0089 4C000000 		.4byte	.LVL9
 1778 008d 62000000 		.4byte	.LFE7
 1779 0091 0100     		.2byte	0x1
 1780 0093 54       		.byte	0x54
 1781 0094 00000000 		.4byte	0
 1782 0098 00000000 		.4byte	0
 1783              	.LLST3:
 1784 009c 26000000 		.4byte	.LVL4
 1785 00a0 36000000 		.4byte	.LVL5
 1786 00a4 0100     		.2byte	0x1
 1787 00a6 52       		.byte	0x52
 1788 00a7 36000000 		.4byte	.LVL5
 1789 00ab 4C000000 		.4byte	.LVL9
 1790 00af 0300     		.2byte	0x3
 1791 00b1 75       		.byte	0x75
 1792 00b2 30       		.sleb128 48
 1793 00b3 9F       		.byte	0x9f
 1794 00b4 4C000000 		.4byte	.LVL9
 1795 00b8 51000000 		.4byte	.LVL10-1
 1796 00bc 0100     		.2byte	0x1
 1797 00be 52       		.byte	0x52
 1798 00bf 51000000 		.4byte	.LVL10-1
 1799 00c3 54000000 		.4byte	.LVL11
 1800 00c7 0300     		.2byte	0x3
 1801 00c9 75       		.byte	0x75
 1802 00ca 30       		.sleb128 48
 1803 00cb 9F       		.byte	0x9f
 1804 00cc 00000000 		.4byte	0
 1805 00d0 00000000 		.4byte	0
 1806              	.LLST4:
 1807 00d4 26000000 		.4byte	.LVL4
 1808 00d8 3E000000 		.4byte	.LVL7
 1809 00dc 0100     		.2byte	0x1
 1810 00de 54       		.byte	0x54
 1811 00df 4C000000 		.4byte	.LVL9
 1812 00e3 54000000 		.4byte	.LVL11
ARM GAS  /tmp/ccYo7KOg.s 			page 33


 1813 00e7 0100     		.2byte	0x1
 1814 00e9 54       		.byte	0x54
 1815 00ea 00000000 		.4byte	0
 1816 00ee 00000000 		.4byte	0
 1817              	.LLST5:
 1818 00f2 20000000 		.4byte	.LVL15
 1819 00f6 2F000000 		.4byte	.LVL16-1
 1820 00fa 0100     		.2byte	0x1
 1821 00fc 53       		.byte	0x53
 1822 00fd 00000000 		.4byte	0
 1823 0101 00000000 		.4byte	0
 1824              	.LLST6:
 1825 0105 20000000 		.4byte	.LVL15
 1826 0109 3A000000 		.4byte	.LVL17
 1827 010d 0100     		.2byte	0x1
 1828 010f 54       		.byte	0x54
 1829 0110 00000000 		.4byte	0
 1830 0114 00000000 		.4byte	0
 1831              	.LLST7:
 1832 0118 00000000 		.4byte	.LVL19
 1833 011c 0F000000 		.4byte	.LVL20-1
 1834 0120 0100     		.2byte	0x1
 1835 0122 50       		.byte	0x50
 1836 0123 0F000000 		.4byte	.LVL20-1
 1837 0127 38000000 		.4byte	.LFE9
 1838 012b 0100     		.2byte	0x1
 1839 012d 54       		.byte	0x54
 1840 012e 00000000 		.4byte	0
 1841 0132 00000000 		.4byte	0
 1842              	.LLST8:
 1843 0136 00000000 		.4byte	.LVL19
 1844 013a 0F000000 		.4byte	.LVL20-1
 1845 013e 0100     		.2byte	0x1
 1846 0140 51       		.byte	0x51
 1847 0141 0F000000 		.4byte	.LVL20-1
 1848 0145 38000000 		.4byte	.LFE9
 1849 0149 0100     		.2byte	0x1
 1850 014b 55       		.byte	0x55
 1851 014c 00000000 		.4byte	0
 1852 0150 00000000 		.4byte	0
 1853              		.section	.debug_aranges,"",%progbits
 1854 0000 2C000000 		.4byte	0x2c
 1855 0004 0200     		.2byte	0x2
 1856 0006 00000000 		.4byte	.Ldebug_info0
 1857 000a 04       		.byte	0x4
 1858 000b 00       		.byte	0
 1859 000c 0000     		.2byte	0
 1860 000e 0000     		.2byte	0
 1861 0010 00000000 		.4byte	.LFB7
 1862 0014 62000000 		.4byte	.LFE7-.LFB7
 1863 0018 00000000 		.4byte	.LFB8
 1864 001c 4A000000 		.4byte	.LFE8-.LFB8
 1865 0020 00000000 		.4byte	.LFB9
 1866 0024 38000000 		.4byte	.LFE9-.LFB9
 1867 0028 00000000 		.4byte	0
 1868 002c 00000000 		.4byte	0
 1869              		.section	.debug_ranges,"",%progbits
ARM GAS  /tmp/ccYo7KOg.s 			page 34


 1870              	.Ldebug_ranges0:
 1871 0000 26000000 		.4byte	.LBB11
 1872 0004 28000000 		.4byte	.LBE11
 1873 0008 2C000000 		.4byte	.LBB14
 1874 000c 34000000 		.4byte	.LBE14
 1875 0010 00000000 		.4byte	0
 1876 0014 00000000 		.4byte	0
 1877 0018 20000000 		.4byte	.LBB17
 1878 001c 22000000 		.4byte	.LBE17
 1879 0020 24000000 		.4byte	.LBB20
 1880 0024 28000000 		.4byte	.LBE20
 1881 0028 00000000 		.4byte	0
 1882 002c 00000000 		.4byte	0
 1883 0030 00000000 		.4byte	.LFB7
 1884 0034 62000000 		.4byte	.LFE7
 1885 0038 00000000 		.4byte	.LFB8
 1886 003c 4A000000 		.4byte	.LFE8
 1887 0040 00000000 		.4byte	.LFB9
 1888 0044 38000000 		.4byte	.LFE9
 1889 0048 00000000 		.4byte	0
 1890 004c 00000000 		.4byte	0
 1891              		.section	.debug_line,"",%progbits
 1892              	.Ldebug_line0:
 1893 0000 B1010000 		.section	.debug_str,"MS",%progbits,1
 1893      02002801 
 1893      00000201 
 1893      FB0E0D00 
 1893      01010101 
 1894              	.LASF42:
 1895 0000 705F6D73 		.ascii	"p_msg\000"
 1895      6700
 1896              	.LASF79:
 1897 0006 71756575 		.ascii	"queue_insert\000"
 1897      655F696E 
 1897      73657274 
 1897      00
 1898              	.LASF75:
 1899 0013 63684462 		.ascii	"chDbgPanic\000"
 1899      6750616E 
 1899      696300
 1900              	.LASF65:
 1901 001e 7264796D 		.ascii	"rdymsg\000"
 1901      736700
 1902              	.LASF16:
 1903 0025 75696E74 		.ascii	"uint64_t\000"
 1903      36345F74 
 1903      00
 1904              	.LASF5:
 1905 002e 5F5F7569 		.ascii	"__uint8_t\000"
 1905      6E74385F 
 1905      7400
 1906              	.LASF76:
 1907 0038 474E5520 		.ascii	"GNU C 4.8.2 -mcpu=cortex-m4 -mno-thumb-interwork -m"
 1907      4320342E 
 1907      382E3220 
 1907      2D6D6370 
 1907      753D636F 
ARM GAS  /tmp/ccYo7KOg.s 			page 35


 1908 006b 7468756D 		.ascii	"thumb -ggdb -O2 -fomit-frame-pointer -falign-functi"
 1908      62202D67 
 1908      67646220 
 1908      2D4F3220 
 1908      2D666F6D 
 1909 009e 6F6E733D 		.ascii	"ons=16 -ffunction-sections -fdata-sections -fno-com"
 1909      3136202D 
 1909      6666756E 
 1909      6374696F 
 1909      6E2D7365 
 1910 00d1 6D6F6E00 		.ascii	"mon\000"
 1911              	.LASF12:
 1912 00d5 6C6F6E67 		.ascii	"long long unsigned int\000"
 1912      206C6F6E 
 1912      6720756E 
 1912      7369676E 
 1912      65642069 
 1913              	.LASF66:
 1914 00ec 65786974 		.ascii	"exitcode\000"
 1914      636F6465 
 1914      00
 1915              	.LASF29:
 1916 00f5 705F7072 		.ascii	"p_prio\000"
 1916      696F00
 1917              	.LASF10:
 1918 00fc 6C6F6E67 		.ascii	"long long int\000"
 1918      206C6F6E 
 1918      6720696E 
 1918      7400
 1919              	.LASF1:
 1920 010a 7369676E 		.ascii	"signed char\000"
 1920      65642063 
 1920      68617200 
 1921              	.LASF46:
 1922 0116 705F6D70 		.ascii	"p_mpool\000"
 1922      6F6F6C00 
 1923              	.LASF62:
 1924 011e 6D5F7175 		.ascii	"m_queue\000"
 1924      65756500 
 1925              	.LASF21:
 1926 0126 74736C69 		.ascii	"tslices_t\000"
 1926      6365735F 
 1926      7400
 1927              	.LASF7:
 1928 0130 6C6F6E67 		.ascii	"long int\000"
 1928      20696E74 
 1928      00
 1929              	.LASF77:
 1930 0139 2E2E2F2E 		.ascii	"../../../os/kernel/src/chmsg.c\000"
 1930      2E2F2E2E 
 1930      2F6F732F 
 1930      6B65726E 
 1930      656C2F73 
 1931              	.LASF70:
 1932 0158 63684D73 		.ascii	"chMsgSend\000"
 1932      6753656E 
 1932      6400
ARM GAS  /tmp/ccYo7KOg.s 			page 36


 1933              	.LASF19:
 1934 0162 74737461 		.ascii	"tstate_t\000"
 1934      74655F74 
 1934      00
 1935              	.LASF31:
 1936 016b 705F6E65 		.ascii	"p_newer\000"
 1936      77657200 
 1937              	.LASF8:
 1938 0173 5F5F7569 		.ascii	"__uint32_t\000"
 1938      6E743332 
 1938      5F7400
 1939              	.LASF49:
 1940 017e 72656761 		.ascii	"regarm_t\000"
 1940      726D5F74 
 1940      00
 1941              	.LASF34:
 1942 0187 705F7374 		.ascii	"p_stklimit\000"
 1942      6B6C696D 
 1942      697400
 1943              	.LASF0:
 1944 0192 756E7369 		.ascii	"unsigned int\000"
 1944      676E6564 
 1944      20696E74 
 1944      00
 1945              	.LASF9:
 1946 019f 6C6F6E67 		.ascii	"long unsigned int\000"
 1946      20756E73 
 1946      69676E65 
 1946      6420696E 
 1946      7400
 1947              	.LASF52:
 1948 01b1 636F6E74 		.ascii	"context\000"
 1948      65787400 
 1949              	.LASF4:
 1950 01b9 73686F72 		.ascii	"short unsigned int\000"
 1950      7420756E 
 1950      7369676E 
 1950      65642069 
 1950      6E7400
 1951              	.LASF23:
 1952 01cc 6D73675F 		.ascii	"msg_t\000"
 1952      7400
 1953              	.LASF57:
 1954 01d2 725F6E65 		.ascii	"r_newer\000"
 1954      77657200 
 1955              	.LASF18:
 1956 01da 746D6F64 		.ascii	"tmode_t\000"
 1956      655F7400 
 1957              	.LASF48:
 1958 01e2 54687265 		.ascii	"ThreadsList\000"
 1958      6164734C 
 1958      69737400 
 1959              	.LASF24:
 1960 01ee 6576656E 		.ascii	"eventmask_t\000"
 1960      746D6173 
 1960      6B5F7400 
 1961              	.LASF61:
ARM GAS  /tmp/ccYo7KOg.s 			page 37


 1962 01fa 4D757465 		.ascii	"Mutex\000"
 1962      7800
 1963              	.LASF50:
 1964 0200 73746B61 		.ascii	"stkalign_t\000"
 1964      6C69676E 
 1964      5F7400
 1965              	.LASF53:
 1966 020b 73697A65 		.ascii	"sizetype\000"
 1966      74797065 
 1966      00
 1967              	.LASF72:
 1968 0214 6462675F 		.ascii	"dbg_check_lock\000"
 1968      63686563 
 1968      6B5F6C6F 
 1968      636B00
 1969              	.LASF32:
 1970 0223 705F6F6C 		.ascii	"p_older\000"
 1970      64657200 
 1971              	.LASF56:
 1972 022b 725F6374 		.ascii	"r_ctx\000"
 1972      7800
 1973              	.LASF47:
 1974 0231 54687265 		.ascii	"ThreadsQueue\000"
 1974      61647351 
 1974      75657565 
 1974      00
 1975              	.LASF78:
 1976 023e 2F686F6D 		.ascii	"/home/mo/ARMProjects/ChibiOS_Sample/ChibiOS_2.6.5/t"
 1976      652F6D6F 
 1976      2F41524D 
 1976      50726F6A 
 1976      65637473 
 1977 0271 65737468 		.ascii	"esthal/STM32F4xx/ADC\000"
 1977      616C2F53 
 1977      544D3332 
 1977      46347878 
 1977      2F414443 
 1978              	.LASF59:
 1979 0286 725F6375 		.ascii	"r_current\000"
 1979      7272656E 
 1979      7400
 1980              	.LASF58:
 1981 0290 725F6F6C 		.ascii	"r_older\000"
 1981      64657200 
 1982              	.LASF73:
 1983 0298 6462675F 		.ascii	"dbg_check_unlock\000"
 1983      63686563 
 1983      6B5F756E 
 1983      6C6F636B 
 1983      00
 1984              	.LASF11:
 1985 02a9 5F5F7569 		.ascii	"__uint64_t\000"
 1985      6E743634 
 1985      5F7400
 1986              	.LASF20:
 1987 02b4 74726566 		.ascii	"trefs_t\000"
 1987      735F7400 
ARM GAS  /tmp/ccYo7KOg.s 			page 38


 1988              	.LASF28:
 1989 02bc 705F7072 		.ascii	"p_prev\000"
 1989      657600
 1990              	.LASF22:
 1991 02c3 74707269 		.ascii	"tprio_t\000"
 1991      6F5F7400 
 1992              	.LASF17:
 1993 02cb 5F426F6F 		.ascii	"_Bool\000"
 1993      6C00
 1994              	.LASF14:
 1995 02d1 696E7433 		.ascii	"int32_t\000"
 1995      325F7400 
 1996              	.LASF2:
 1997 02d9 756E7369 		.ascii	"unsigned char\000"
 1997      676E6564 
 1997      20636861 
 1997      7200
 1998              	.LASF44:
 1999 02e7 705F6D74 		.ascii	"p_mtxlist\000"
 1999      786C6973 
 1999      7400
 2000              	.LASF3:
 2001 02f1 73686F72 		.ascii	"short int\000"
 2001      7420696E 
 2001      7400
 2002              	.LASF35:
 2003 02fb 705F7374 		.ascii	"p_state\000"
 2003      61746500 
 2004              	.LASF38:
 2005 0303 705F7072 		.ascii	"p_preempt\000"
 2005      65656D70 
 2005      7400
 2006              	.LASF55:
 2007 030d 725F7072 		.ascii	"r_prio\000"
 2007      696F00
 2008              	.LASF68:
 2009 0314 65776D61 		.ascii	"ewmask\000"
 2009      736B00
 2010              	.LASF27:
 2011 031b 705F6E65 		.ascii	"p_next\000"
 2011      787400
 2012              	.LASF36:
 2013 0322 705F666C 		.ascii	"p_flags\000"
 2013      61677300 
 2014              	.LASF26:
 2015 032a 54687265 		.ascii	"Thread\000"
 2015      616400
 2016              	.LASF81:
 2017 0331 63684D73 		.ascii	"chMsgRelease\000"
 2017      6752656C 
 2017      65617365 
 2017      00
 2018              	.LASF74:
 2019 033e 63685363 		.ascii	"chSchGoSleepS\000"
 2019      68476F53 
 2019      6C656570 
 2019      5300
ARM GAS  /tmp/ccYo7KOg.s 			page 39


 2020              	.LASF43:
 2021 034c 705F6570 		.ascii	"p_epending\000"
 2021      656E6469 
 2021      6E6700
 2022              	.LASF15:
 2023 0357 75696E74 		.ascii	"uint32_t\000"
 2023      33325F74 
 2023      00
 2024              	.LASF54:
 2025 0360 725F7175 		.ascii	"r_queue\000"
 2025      65756500 
 2026              	.LASF83:
 2027 0368 63685363 		.ascii	"chSchReadyI\000"
 2027      68526561 
 2027      64794900 
 2028              	.LASF69:
 2029 0374 63686172 		.ascii	"char\000"
 2029      00
 2030              	.LASF80:
 2031 0379 6669666F 		.ascii	"fifo_remove\000"
 2031      5F72656D 
 2031      6F766500 
 2032              	.LASF64:
 2033 0385 6D5F6E65 		.ascii	"m_next\000"
 2033      787400
 2034              	.LASF25:
 2035 038c 73797374 		.ascii	"systime_t\000"
 2035      696D655F 
 2035      7400
 2036              	.LASF45:
 2037 0396 705F7265 		.ascii	"p_realprio\000"
 2037      616C7072 
 2037      696F00
 2038              	.LASF6:
 2039 03a1 5F5F696E 		.ascii	"__int32_t\000"
 2039      7433325F 
 2039      7400
 2040              	.LASF39:
 2041 03ab 705F7469 		.ascii	"p_time\000"
 2041      6D6500
 2042              	.LASF51:
 2043 03b2 696E7463 		.ascii	"intctx\000"
 2043      747800
 2044              	.LASF41:
 2045 03b9 705F6D73 		.ascii	"p_msgqueue\000"
 2045      67717565 
 2045      756500
 2046              	.LASF84:
 2047 03c4 63685363 		.ascii	"chSchWakeupS\000"
 2047      6857616B 
 2047      65757053 
 2047      00
 2048              	.LASF71:
 2049 03d1 63684D73 		.ascii	"chMsgWait\000"
 2049      67576169 
 2049      7400
 2050              	.LASF37:
ARM GAS  /tmp/ccYo7KOg.s 			page 40


 2051 03db 705F7265 		.ascii	"p_refs\000"
 2051      667300
 2052              	.LASF60:
 2053 03e2 52656164 		.ascii	"ReadyList\000"
 2053      794C6973 
 2053      7400
 2054              	.LASF82:
 2055 03ec 726C6973 		.ascii	"rlist\000"
 2055      7400
 2056              	.LASF13:
 2057 03f2 75696E74 		.ascii	"uint8_t\000"
 2057      385F7400 
 2058              	.LASF67:
 2059 03fa 77746F62 		.ascii	"wtobjp\000"
 2059      6A7000
 2060              	.LASF33:
 2061 0401 705F6E61 		.ascii	"p_name\000"
 2061      6D6500
 2062              	.LASF63:
 2063 0408 6D5F6F77 		.ascii	"m_owner\000"
 2063      6E657200 
 2064              	.LASF30:
 2065 0410 705F6374 		.ascii	"p_ctx\000"
 2065      7800
 2066              	.LASF40:
 2067 0416 705F7761 		.ascii	"p_waiting\000"
 2067      6974696E 
 2067      6700
 2068              		.ident	"GCC: (4.8.2-14ubuntu1+6) 4.8.2"
ARM GAS  /tmp/ccYo7KOg.s 			page 41


DEFINED SYMBOLS
                            *ABS*:0000000000000000 chmsg.c
     /tmp/ccYo7KOg.s:19     .text.chMsgSend:0000000000000000 $t
     /tmp/ccYo7KOg.s:25     .text.chMsgSend:0000000000000000 chMsgSend
     /tmp/ccYo7KOg.s:282    .rodata.str1.4:0000000000000000 .LC0
     /tmp/ccYo7KOg.s:135    .text.chMsgWait:0000000000000000 $t
     /tmp/ccYo7KOg.s:141    .text.chMsgWait:0000000000000000 chMsgWait
     /tmp/ccYo7KOg.s:219    .text.chMsgRelease:0000000000000000 $t
     /tmp/ccYo7KOg.s:225    .text.chMsgRelease:0000000000000000 chMsgRelease
     /tmp/ccYo7KOg.s:285    .rodata.str1.4:0000000000000010 .LC1
     /tmp/ccYo7KOg.s:281    .rodata.str1.4:0000000000000000 $d
                     .debug_frame:0000000000000010 $d

UNDEFINED SYMBOLS
rlist
dbg_check_lock
chSchGoSleepS
dbg_check_unlock
chSchReadyI
chDbgPanic
chSchWakeupS
