ARM GAS  /tmp/ccwQM1Rs.s 			page 1


   1              		.syntax unified
   2              		.cpu cortex-m4
   3              		.fpu softvfp
   4              		.eabi_attribute 20, 1
   5              		.eabi_attribute 21, 1
   6              		.eabi_attribute 23, 3
   7              		.eabi_attribute 24, 1
   8              		.eabi_attribute 25, 1
   9              		.eabi_attribute 26, 1
  10              		.eabi_attribute 30, 2
  11              		.eabi_attribute 34, 1
  12              		.eabi_attribute 18, 4
  13              		.thumb
  14              		.file	"chqueues.c"
  15              		.text
  16              	.Ltext0:
  17              		.cfi_sections	.debug_frame
  18              		.section	.text.qwait,"ax",%progbits
  19              		.align	2
  20              		.p2align 4,,15
  21              		.thumb
  22              		.thumb_func
  23              		.type	qwait, %function
  24              	qwait:
  25              	.LFB7:
  26              		.file 1 "../../../os/kernel/src/chqueues.c"
  27              		.loc 1 70 0
  28              		.cfi_startproc
  29              		@ args = 0, pretend = 0, frame = 0
  30              		@ frame_needed = 0, uses_anonymous_args = 0
  31              		@ link register save eliminated.
  32              	.LVL0:
  33 0000 10B4     		push	{r4}
  34              		.cfi_def_cfa_offset 4
  35              		.cfi_offset 4, -4
  36              		.loc 1 70 0
  37 0002 0246     		mov	r2, r0
  38              		.loc 1 72 0
  39 0004 79B1     		cbz	r1, .L2
  40              		.loc 1 74 0
  41 0006 40F20003 		movw	r3, #:lower16:rlist
  42 000a C0F20003 		movt	r3, #:upper16:rlist
  43              		.loc 1 76 0
  44 000e 0D20     		movs	r0, #13
  45              	.LVL1:
  46              		.loc 1 74 0
  47 0010 9B69     		ldr	r3, [r3, #24]
  48 0012 9A62     		str	r2, [r3, #40]
  49              	.LVL2:
  50              	.LBB12:
  51              	.LBB13:
  52              		.file 2 "../../../os/kernel/include/chinline.h"
  53              		.loc 2 55 0
  54 0014 5468     		ldr	r4, [r2, #4]
  55 0016 83E81400 		stmia	r3, {r2, r4}
  56              		.loc 2 56 0
  57 001a 5360     		str	r3, [r2, #4]
ARM GAS  /tmp/ccwQM1Rs.s 			page 2


  58 001c 2360     		str	r3, [r4]
  59              	.LBE13:
  60              	.LBE12:
  61              		.loc 1 77 0
  62 001e 5DF8044B 		ldr	r4, [sp], #4
  63              		.loc 1 76 0
  64 0022 FFF7FEBF 		b	chSchGoSleepTimeoutS
  65              	.LVL3:
  66              	.L2:
  67              		.loc 1 77 0
  68 0026 4FF0FF30 		mov	r0, #-1
  69              	.LVL4:
  70 002a 5DF8044B 		ldr	r4, [sp], #4
  71 002e 7047     		bx	lr
  72              		.cfi_endproc
  73              	.LFE7:
  74              		.size	qwait, .-qwait
  75              		.section	.text.chIQInit,"ax",%progbits
  76              		.align	2
  77              		.p2align 4,,15
  78              		.global	chIQInit
  79              		.thumb
  80              		.thumb_func
  81              		.type	chIQInit, %function
  82              	chIQInit:
  83              	.LFB8:
  84              		.loc 1 96 0
  85              		.cfi_startproc
  86              		@ args = 4, pretend = 0, frame = 0
  87              		@ frame_needed = 0, uses_anonymous_args = 0
  88              		@ link register save eliminated.
  89              	.LVL5:
  90 0000 30B4     		push	{r4, r5}
  91              		.cfi_def_cfa_offset 8
  92              		.cfi_offset 4, -8
  93              		.cfi_offset 5, -4
  94              		.loc 1 96 0
  95 0002 029C     		ldr	r4, [sp, #8]
  96              		.loc 1 98 0
  97 0004 4060     		str	r0, [r0, #4]
  98              		.loc 1 99 0
  99 0006 0025     		movs	r5, #0
 100              		.loc 1 101 0
 101 0008 0A44     		add	r2, r2, r1
 102              	.LVL6:
 103              		.loc 1 99 0
 104 000a 8560     		str	r5, [r0, #8]
 105              		.loc 1 103 0
 106 000c 0462     		str	r4, [r0, #32]
 107              		.loc 1 101 0
 108 000e 0261     		str	r2, [r0, #16]
 109              		.loc 1 98 0
 110 0010 0060     		str	r0, [r0]
 111              		.loc 1 100 0
 112 0012 4161     		str	r1, [r0, #20]
 113 0014 8161     		str	r1, [r0, #24]
 114 0016 C160     		str	r1, [r0, #12]
ARM GAS  /tmp/ccwQM1Rs.s 			page 3


 115              		.loc 1 102 0
 116 0018 C361     		str	r3, [r0, #28]
 117              		.loc 1 104 0
 118 001a 30BC     		pop	{r4, r5}
 119              	.LVL7:
 120 001c 7047     		bx	lr
 121              		.cfi_endproc
 122              	.LFE8:
 123              		.size	chIQInit, .-chIQInit
 124 001e 00BF     		.section	.text.chIQResetI,"ax",%progbits
 125              		.align	2
 126              		.p2align 4,,15
 127              		.global	chIQResetI
 128              		.thumb
 129              		.thumb_func
 130              		.type	chIQResetI, %function
 131              	chIQResetI:
 132              	.LFB9:
 133              		.loc 1 117 0
 134              		.cfi_startproc
 135              		@ args = 0, pretend = 0, frame = 0
 136              		@ frame_needed = 0, uses_anonymous_args = 0
 137              	.LVL8:
 138 0000 38B5     		push	{r3, r4, r5, lr}
 139              		.cfi_def_cfa_offset 16
 140              		.cfi_offset 3, -16
 141              		.cfi_offset 4, -12
 142              		.cfi_offset 5, -8
 143              		.cfi_offset 14, -4
 144              		.loc 1 117 0
 145 0002 0446     		mov	r4, r0
 146              		.loc 1 119 0
 147 0004 FFF7FEFF 		bl	chDbgCheckClassI
 148              	.LVL9:
 149              		.loc 1 123 0
 150 0008 2068     		ldr	r0, [r4]
 151              		.loc 1 121 0
 152 000a E368     		ldr	r3, [r4, #12]
 153              		.loc 1 122 0
 154 000c 0022     		movs	r2, #0
 155              		.loc 1 123 0
 156 000e A042     		cmp	r0, r4
 157              		.loc 1 121 0
 158 0010 6361     		str	r3, [r4, #20]
 159              		.loc 1 122 0
 160 0012 A260     		str	r2, [r4, #8]
 161              		.loc 1 121 0
 162 0014 A361     		str	r3, [r4, #24]
 163              		.loc 1 123 0
 164 0016 0AD0     		beq	.L5
 165              		.loc 1 124 0
 166 0018 6FF00105 		mvn	r5, #1
 167              	.L8:
 168              	.LVL10:
 169              	.LBB14:
 170              	.LBB15:
 171              		.loc 2 62 0
ARM GAS  /tmp/ccwQM1Rs.s 			page 4


 172 001c 0368     		ldr	r3, [r0]
 173 001e 2360     		str	r3, [r4]
 174 0020 5C60     		str	r4, [r3, #4]
 175              	.LBE15:
 176              	.LBE14:
 177              		.loc 1 124 0
 178 0022 FFF7FEFF 		bl	chSchReadyI
 179              	.LVL11:
 180 0026 8562     		str	r5, [r0, #40]
 181              		.loc 1 123 0
 182 0028 2068     		ldr	r0, [r4]
 183 002a A042     		cmp	r0, r4
 184 002c F6D1     		bne	.L8
 185              	.LVL12:
 186              	.L5:
 187 002e 38BD     		pop	{r3, r4, r5, pc}
 188              		.cfi_endproc
 189              	.LFE9:
 190              		.size	chIQResetI, .-chIQResetI
 191              		.section	.text.chIQPutI,"ax",%progbits
 192              		.align	2
 193              		.p2align 4,,15
 194              		.global	chIQPutI
 195              		.thumb
 196              		.thumb_func
 197              		.type	chIQPutI, %function
 198              	chIQPutI:
 199              	.LFB10:
 200              		.loc 1 140 0
 201              		.cfi_startproc
 202              		@ args = 0, pretend = 0, frame = 0
 203              		@ frame_needed = 0, uses_anonymous_args = 0
 204              	.LVL13:
 205 0000 38B5     		push	{r3, r4, r5, lr}
 206              		.cfi_def_cfa_offset 16
 207              		.cfi_offset 3, -16
 208              		.cfi_offset 4, -12
 209              		.cfi_offset 5, -8
 210              		.cfi_offset 14, -4
 211              		.loc 1 140 0
 212 0002 0446     		mov	r4, r0
 213 0004 0D46     		mov	r5, r1
 214              		.loc 1 142 0
 215 0006 FFF7FEFF 		bl	chDbgCheckClassI
 216              	.LVL14:
 217              		.loc 1 144 0
 218 000a 6369     		ldr	r3, [r4, #20]
 219 000c A269     		ldr	r2, [r4, #24]
 220 000e A168     		ldr	r1, [r4, #8]
 221 0010 9342     		cmp	r3, r2
 222 0012 1BD0     		beq	.L18
 223              	.L12:
 224              		.loc 1 148 0
 225 0014 5A1C     		adds	r2, r3, #1
 226              		.loc 1 147 0
 227 0016 0131     		adds	r1, r1, #1
 228              		.loc 1 148 0
ARM GAS  /tmp/ccwQM1Rs.s 			page 5


 229 0018 6261     		str	r2, [r4, #20]
 230              		.loc 1 147 0
 231 001a A160     		str	r1, [r4, #8]
 232              		.loc 1 148 0
 233 001c 1D70     		strb	r5, [r3]
 234              		.loc 1 149 0
 235 001e 6269     		ldr	r2, [r4, #20]
 236 0020 2369     		ldr	r3, [r4, #16]
 237 0022 9A42     		cmp	r2, r3
 238 0024 0BD2     		bcs	.L13
 239              		.loc 1 152 0
 240 0026 2068     		ldr	r0, [r4]
 241 0028 A042     		cmp	r0, r4
 242 002a 0DD0     		beq	.L16
 243              	.L19:
 244              	.LVL15:
 245              	.LBB16:
 246              	.LBB17:
 247              		.loc 2 62 0
 248 002c 0368     		ldr	r3, [r0]
 249 002e 2360     		str	r3, [r4]
 250 0030 5C60     		str	r4, [r3, #4]
 251              	.LBE17:
 252              	.LBE16:
 253              		.loc 1 153 0
 254 0032 FFF7FEFF 		bl	chSchReadyI
 255              	.LVL16:
 256 0036 0023     		movs	r3, #0
 257 0038 8362     		str	r3, [r0, #40]
 258              		.loc 1 155 0
 259 003a 1846     		mov	r0, r3
 260 003c 38BD     		pop	{r3, r4, r5, pc}
 261              	.LVL17:
 262              	.L13:
 263              		.loc 1 152 0
 264 003e 2068     		ldr	r0, [r4]
 265              		.loc 1 150 0
 266 0040 E368     		ldr	r3, [r4, #12]
 267              		.loc 1 152 0
 268 0042 A042     		cmp	r0, r4
 269              		.loc 1 150 0
 270 0044 6361     		str	r3, [r4, #20]
 271              		.loc 1 152 0
 272 0046 F1D1     		bne	.L19
 273              	.L16:
 274              		.loc 1 155 0
 275 0048 0020     		movs	r0, #0
 276 004a 38BD     		pop	{r3, r4, r5, pc}
 277              	.LVL18:
 278              	.L18:
 279              		.loc 1 144 0 discriminator 1
 280 004c 0029     		cmp	r1, #0
 281 004e E1D0     		beq	.L12
 282              		.loc 1 145 0
 283 0050 6FF00300 		mvn	r0, #3
 284 0054 38BD     		pop	{r3, r4, r5, pc}
 285              		.cfi_endproc
ARM GAS  /tmp/ccwQM1Rs.s 			page 6


 286              	.LFE10:
 287              		.size	chIQPutI, .-chIQPutI
 288 0056 00BFAFF3 		.section	.text.chIQGetTimeout,"ax",%progbits
 288      0080AFF3 
 288      0080
 289              		.align	2
 290              		.p2align 4,,15
 291              		.global	chIQGetTimeout
 292              		.thumb
 293              		.thumb_func
 294              		.type	chIQGetTimeout, %function
 295              	chIQGetTimeout:
 296              	.LFB11:
 297              		.loc 1 178 0
 298              		.cfi_startproc
 299              		@ args = 0, pretend = 0, frame = 0
 300              		@ frame_needed = 0, uses_anonymous_args = 0
 301              	.LVL19:
 302 0000 F8B5     		push	{r3, r4, r5, r6, r7, lr}
 303              		.cfi_def_cfa_offset 24
 304              		.cfi_offset 3, -24
 305              		.cfi_offset 4, -20
 306              		.cfi_offset 5, -16
 307              		.cfi_offset 6, -12
 308              		.cfi_offset 7, -8
 309              		.cfi_offset 14, -4
 310              		.loc 1 178 0
 311 0002 0446     		mov	r4, r0
 312 0004 0E46     		mov	r6, r1
 313              	.LBB18:
 314              		.loc 1 181 0
 315 0006 2023     		movs	r3, #32
 316              	@ 181 "../../../os/kernel/src/chqueues.c" 1
 317 0008 83F31188 		msr     BASEPRI, r3
 318              	@ 0 "" 2
 319              		.thumb
 320              	.LBE18:
 321 000c FFF7FEFF 		bl	dbg_check_lock
 322              	.LVL20:
 323              		.loc 1 182 0
 324 0010 E369     		ldr	r3, [r4, #28]
 325 0012 33B1     		cbz	r3, .L23
 326              		.loc 1 183 0
 327 0014 2046     		mov	r0, r4
 328 0016 9847     		blx	r3
 329              	.LVL21:
 330 0018 03E0     		b	.L23
 331              	.LVL22:
 332              	.L25:
 333              	.LBB19:
 334              		.loc 1 187 0
 335 001a FFF7FEFF 		bl	qwait
 336              	.LVL23:
 337 001e 071E     		subs	r7, r0, #0
 338 0020 18DB     		blt	.L30
 339              	.LVL24:
 340              	.L23:
ARM GAS  /tmp/ccwQM1Rs.s 			page 7


 341              	.LBE19:
 342              		.loc 1 185 0 discriminator 1
 343 0022 A568     		ldr	r5, [r4, #8]
 344              	.LBB21:
 345              		.loc 1 187 0 discriminator 1
 346 0024 2046     		mov	r0, r4
 347 0026 3146     		mov	r1, r6
 348              	.LBE21:
 349              		.loc 1 185 0 discriminator 1
 350 0028 002D     		cmp	r5, #0
 351 002a F6D0     		beq	.L25
 352              	.LVL25:
 353              		.loc 1 194 0
 354 002c A269     		ldr	r2, [r4, #24]
 355              		.loc 1 195 0
 356 002e 2169     		ldr	r1, [r4, #16]
 357              	.LVL26:
 358              		.loc 1 194 0
 359 0030 531C     		adds	r3, r2, #1
 360              		.loc 1 195 0
 361 0032 8B42     		cmp	r3, r1
 362              		.loc 1 194 0
 363 0034 A361     		str	r3, [r4, #24]
 364              		.loc 1 193 0
 365 0036 05F1FF35 		add	r5, r5, #-1
 366              		.loc 1 196 0
 367 003a 28BF     		it	cs
 368 003c E368     		ldrcs	r3, [r4, #12]
 369              		.loc 1 193 0
 370 003e A560     		str	r5, [r4, #8]
 371              		.loc 1 194 0
 372 0040 1778     		ldrb	r7, [r2]	@ zero_extendqisi2
 373              	.LVL27:
 374              		.loc 1 196 0
 375 0042 28BF     		it	cs
 376 0044 A361     		strcs	r3, [r4, #24]
 377              	.LVL28:
 378              		.loc 1 198 0
 379 0046 FFF7FEFF 		bl	dbg_check_unlock
 380              	.LVL29:
 381              	.LBB22:
 382 004a 0023     		movs	r3, #0
 383              	@ 198 "../../../os/kernel/src/chqueues.c" 1
 384 004c 83F31188 		msr     BASEPRI, r3
 385              	@ 0 "" 2
 386              		.thumb
 387              	.LBE22:
 388              		.loc 1 199 0
 389 0050 3846     		mov	r0, r7
 390              		.loc 1 200 0
 391 0052 F8BD     		pop	{r3, r4, r5, r6, r7, pc}
 392              	.LVL30:
 393              	.L30:
 394              	.LBB23:
 395              		.loc 1 188 0
 396 0054 FFF7FEFF 		bl	dbg_check_unlock
 397              	.LVL31:
ARM GAS  /tmp/ccwQM1Rs.s 			page 8


 398              	.LBB20:
 399 0058 2B46     		mov	r3, r5
 400              	@ 188 "../../../os/kernel/src/chqueues.c" 1
 401 005a 83F31188 		msr     BASEPRI, r3
 402              	@ 0 "" 2
 403              		.thumb
 404              	.LBE20:
 405              		.loc 1 187 0
 406 005e 3846     		mov	r0, r7
 407              		.loc 1 189 0
 408 0060 F8BD     		pop	{r3, r4, r5, r6, r7, pc}
 409              	.LBE23:
 410              		.cfi_endproc
 411              	.LFE11:
 412              		.size	chIQGetTimeout, .-chIQGetTimeout
 413 0062 00BFAFF3 		.section	.text.chIQReadTimeout,"ax",%progbits
 413      0080AFF3 
 413      0080AFF3 
 413      0080
 414              		.align	2
 415              		.p2align 4,,15
 416              		.global	chIQReadTimeout
 417              		.thumb
 418              		.thumb_func
 419              		.type	chIQReadTimeout, %function
 420              	chIQReadTimeout:
 421              	.LFB12:
 422              		.loc 1 227 0
 423              		.cfi_startproc
 424              		@ args = 0, pretend = 0, frame = 0
 425              		@ frame_needed = 0, uses_anonymous_args = 0
 426              	.LVL32:
 427 0000 2DE9F047 		push	{r4, r5, r6, r7, r8, r9, r10, lr}
 428              		.cfi_def_cfa_offset 32
 429              		.cfi_offset 4, -32
 430              		.cfi_offset 5, -28
 431              		.cfi_offset 6, -24
 432              		.cfi_offset 7, -20
 433              		.cfi_offset 8, -16
 434              		.cfi_offset 9, -12
 435              		.cfi_offset 10, -8
 436              		.cfi_offset 14, -4
 437              		.loc 1 227 0
 438 0004 0446     		mov	r4, r0
 439              		.loc 1 231 0
 440 0006 1546     		mov	r5, r2
 441              		.loc 1 227 0
 442 0008 0F46     		mov	r7, r1
 443 000a 1E46     		mov	r6, r3
 444              		.loc 1 228 0
 445 000c D0F81C80 		ldr	r8, [r0, #28]
 446              	.LVL33:
 447              		.loc 1 231 0
 448 0010 002A     		cmp	r2, #0
 449 0012 3DD0     		beq	.L43
 450              	.LVL34:
 451              	.L32:
ARM GAS  /tmp/ccwQM1Rs.s 			page 9


 452              	.LBB24:
 453              		.loc 1 233 0
 454 0014 2023     		movs	r3, #32
 455              	@ 233 "../../../os/kernel/src/chqueues.c" 1
 456 0016 83F31188 		msr     BASEPRI, r3
 457              	@ 0 "" 2
 458              		.thumb
 459              	.LBE24:
 460 001a FFF7FEFF 		bl	dbg_check_lock
 461              	.LVL35:
 462 001e 07EB050A 		add	r10, r7, r5
 463              		.loc 1 229 0
 464 0022 4FF00009 		mov	r9, #0
 465 0026 0137     		adds	r7, r7, #1
 466              	.LVL36:
 467              	.L39:
 468              		.loc 1 235 0
 469 0028 B8F1000F 		cmp	r8, #0
 470 002c 05D0     		beq	.L35
 471              		.loc 1 236 0
 472 002e 2046     		mov	r0, r4
 473 0030 C047     		blx	r8
 474              	.LVL37:
 475 0032 02E0     		b	.L35
 476              	.LVL38:
 477              	.L37:
 478              		.loc 1 239 0
 479 0034 FFF7FEFF 		bl	qwait
 480              	.LVL39:
 481 0038 10BB     		cbnz	r0, .L44
 482              	.L35:
 483              		.loc 1 238 0 discriminator 1
 484 003a A568     		ldr	r5, [r4, #8]
 485              		.loc 1 239 0 discriminator 1
 486 003c 2046     		mov	r0, r4
 487 003e 3146     		mov	r1, r6
 488              		.loc 1 238 0 discriminator 1
 489 0040 002D     		cmp	r5, #0
 490 0042 F7D0     		beq	.L37
 491              	.LVL40:
 492              		.loc 1 246 0
 493 0044 A369     		ldr	r3, [r4, #24]
 494              		.loc 1 245 0
 495 0046 013D     		subs	r5, r5, #1
 496              		.loc 1 246 0
 497 0048 5A1C     		adds	r2, r3, #1
 498 004a A261     		str	r2, [r4, #24]
 499              		.loc 1 245 0
 500 004c A560     		str	r5, [r4, #8]
 501              	.LVL41:
 502              		.loc 1 246 0
 503 004e 1B78     		ldrb	r3, [r3]	@ zero_extendqisi2
 504 0050 07F8013C 		strb	r3, [r7, #-1]
 505              		.loc 1 247 0
 506 0054 2369     		ldr	r3, [r4, #16]
 507 0056 A269     		ldr	r2, [r4, #24]
 508 0058 9A42     		cmp	r2, r3
ARM GAS  /tmp/ccwQM1Rs.s 			page 10


 509              		.loc 1 248 0
 510 005a 24BF     		itt	cs
 511 005c E368     		ldrcs	r3, [r4, #12]
 512 005e A361     		strcs	r3, [r4, #24]
 513              		.loc 1 250 0
 514 0060 FFF7FEFF 		bl	dbg_check_unlock
 515              	.LVL42:
 516              	.LBB25:
 517 0064 0023     		movs	r3, #0
 518              	@ 250 "../../../os/kernel/src/chqueues.c" 1
 519 0066 83F31188 		msr     BASEPRI, r3
 520              	@ 0 "" 2
 521              		.thumb
 522              	.LBE25:
 523              		.loc 1 252 0
 524 006a 5745     		cmp	r7, r10
 525              		.loc 1 251 0
 526 006c 09F10109 		add	r9, r9, #1
 527              	.LVL43:
 528              		.loc 1 252 0
 529 0070 0BD0     		beq	.L36
 530              	.LBB26:
 531              		.loc 1 255 0
 532 0072 2023     		movs	r3, #32
 533              	@ 255 "../../../os/kernel/src/chqueues.c" 1
 534 0074 83F31188 		msr     BASEPRI, r3
 535              	@ 0 "" 2
 536              		.thumb
 537              	.LBE26:
 538 0078 FFF7FEFF 		bl	dbg_check_lock
 539              	.LVL44:
 540 007c 0137     		adds	r7, r7, #1
 541              		.loc 1 256 0
 542 007e D3E7     		b	.L39
 543              	.LVL45:
 544              	.L44:
 545              		.loc 1 240 0
 546 0080 FFF7FEFF 		bl	dbg_check_unlock
 547              	.LVL46:
 548              	.LBB27:
 549 0084 2B46     		mov	r3, r5
 550              	@ 240 "../../../os/kernel/src/chqueues.c" 1
 551 0086 83F31188 		msr     BASEPRI, r3
 552              	@ 0 "" 2
 553              	.LVL47:
 554              		.thumb
 555              	.L36:
 556              	.LBE27:
 557              		.loc 1 257 0
 558 008a 4846     		mov	r0, r9
 559 008c BDE8F087 		pop	{r4, r5, r6, r7, r8, r9, r10, pc}
 560              	.LVL48:
 561              	.L43:
 562              		.loc 1 231 0 discriminator 1
 563 0090 40F20000 		movw	r0, #:lower16:.LC0
 564              	.LVL49:
 565 0094 C0F20000 		movt	r0, #:upper16:.LC0
ARM GAS  /tmp/ccwQM1Rs.s 			page 11


 566 0098 FFF7FEFF 		bl	chDbgPanic
 567              	.LVL50:
 568 009c BAE7     		b	.L32
 569              		.cfi_endproc
 570              	.LFE12:
 571              		.size	chIQReadTimeout, .-chIQReadTimeout
 572 009e 00BF     		.section	.text.chOQInit,"ax",%progbits
 573              		.align	2
 574              		.p2align 4,,15
 575              		.global	chOQInit
 576              		.thumb
 577              		.thumb_func
 578              		.type	chOQInit, %function
 579              	chOQInit:
 580              	.LFB13:
 581              		.loc 1 276 0
 582              		.cfi_startproc
 583              		@ args = 4, pretend = 0, frame = 0
 584              		@ frame_needed = 0, uses_anonymous_args = 0
 585              		@ link register save eliminated.
 586              	.LVL51:
 587 0000 30B4     		push	{r4, r5}
 588              		.cfi_def_cfa_offset 8
 589              		.cfi_offset 4, -8
 590              		.cfi_offset 5, -4
 591              		.loc 1 276 0
 592 0002 029C     		ldr	r4, [sp, #8]
 593              		.loc 1 278 0
 594 0004 4060     		str	r0, [r0, #4]
 595              		.loc 1 281 0
 596 0006 8D18     		adds	r5, r1, r2
 597 0008 0561     		str	r5, [r0, #16]
 598              		.loc 1 283 0
 599 000a 0462     		str	r4, [r0, #32]
 600              		.loc 1 278 0
 601 000c 0060     		str	r0, [r0]
 602              		.loc 1 279 0
 603 000e 8260     		str	r2, [r0, #8]
 604              		.loc 1 280 0
 605 0010 4161     		str	r1, [r0, #20]
 606 0012 8161     		str	r1, [r0, #24]
 607 0014 C160     		str	r1, [r0, #12]
 608              		.loc 1 282 0
 609 0016 C361     		str	r3, [r0, #28]
 610              		.loc 1 284 0
 611 0018 30BC     		pop	{r4, r5}
 612              	.LVL52:
 613 001a 7047     		bx	lr
 614              		.cfi_endproc
 615              	.LFE13:
 616              		.size	chOQInit, .-chOQInit
 617              		.section	.text.chOQResetI,"ax",%progbits
 618              		.align	2
 619              		.p2align 4,,15
 620              		.global	chOQResetI
 621              		.thumb
 622              		.thumb_func
ARM GAS  /tmp/ccwQM1Rs.s 			page 12


 623              		.type	chOQResetI, %function
 624              	chOQResetI:
 625              	.LFB14:
 626              		.loc 1 297 0
 627              		.cfi_startproc
 628              		@ args = 0, pretend = 0, frame = 0
 629              		@ frame_needed = 0, uses_anonymous_args = 0
 630              	.LVL53:
 631 0000 38B5     		push	{r3, r4, r5, lr}
 632              		.cfi_def_cfa_offset 16
 633              		.cfi_offset 3, -16
 634              		.cfi_offset 4, -12
 635              		.cfi_offset 5, -8
 636              		.cfi_offset 14, -4
 637              		.loc 1 297 0
 638 0002 0446     		mov	r4, r0
 639              		.loc 1 299 0
 640 0004 FFF7FEFF 		bl	chDbgCheckClassI
 641              	.LVL54:
 642              		.loc 1 301 0
 643 0008 E368     		ldr	r3, [r4, #12]
 644              		.loc 1 302 0
 645 000a 2269     		ldr	r2, [r4, #16]
 646              		.loc 1 303 0
 647 000c 2068     		ldr	r0, [r4]
 648              		.loc 1 301 0
 649 000e 6361     		str	r3, [r4, #20]
 650              		.loc 1 302 0
 651 0010 D21A     		subs	r2, r2, r3
 652              		.loc 1 303 0
 653 0012 A042     		cmp	r0, r4
 654              		.loc 1 301 0
 655 0014 A361     		str	r3, [r4, #24]
 656              		.loc 1 302 0
 657 0016 A260     		str	r2, [r4, #8]
 658              		.loc 1 303 0
 659 0018 0AD0     		beq	.L46
 660              		.loc 1 304 0
 661 001a 6FF00105 		mvn	r5, #1
 662              	.L49:
 663              	.LVL55:
 664              	.LBB28:
 665              	.LBB29:
 666              		.loc 2 62 0
 667 001e 0368     		ldr	r3, [r0]
 668 0020 2360     		str	r3, [r4]
 669 0022 5C60     		str	r4, [r3, #4]
 670              	.LBE29:
 671              	.LBE28:
 672              		.loc 1 304 0
 673 0024 FFF7FEFF 		bl	chSchReadyI
 674              	.LVL56:
 675 0028 8562     		str	r5, [r0, #40]
 676              		.loc 1 303 0
 677 002a 2068     		ldr	r0, [r4]
 678 002c A042     		cmp	r0, r4
 679 002e F6D1     		bne	.L49
ARM GAS  /tmp/ccwQM1Rs.s 			page 13


 680              	.LVL57:
 681              	.L46:
 682 0030 38BD     		pop	{r3, r4, r5, pc}
 683              		.cfi_endproc
 684              	.LFE14:
 685              		.size	chOQResetI, .-chOQResetI
 686 0032 00BFAFF3 		.section	.text.chOQPutTimeout,"ax",%progbits
 686      0080AFF3 
 686      0080AFF3 
 686      0080
 687              		.align	2
 688              		.p2align 4,,15
 689              		.global	chOQPutTimeout
 690              		.thumb
 691              		.thumb_func
 692              		.type	chOQPutTimeout, %function
 693              	chOQPutTimeout:
 694              	.LFB15:
 695              		.loc 1 329 0
 696              		.cfi_startproc
 697              		@ args = 0, pretend = 0, frame = 0
 698              		@ frame_needed = 0, uses_anonymous_args = 0
 699              	.LVL58:
 700 0000 2DE9F041 		push	{r4, r5, r6, r7, r8, lr}
 701              		.cfi_def_cfa_offset 24
 702              		.cfi_offset 4, -24
 703              		.cfi_offset 5, -20
 704              		.cfi_offset 6, -16
 705              		.cfi_offset 7, -12
 706              		.cfi_offset 8, -8
 707              		.cfi_offset 14, -4
 708              	.LBB30:
 709              		.loc 1 331 0
 710 0004 2023     		movs	r3, #32
 711              	.LBE30:
 712              		.loc 1 329 0
 713 0006 0446     		mov	r4, r0
 714 0008 8846     		mov	r8, r1
 715 000a 1646     		mov	r6, r2
 716              	.LBB31:
 717              		.loc 1 331 0
 718              	@ 331 "../../../os/kernel/src/chqueues.c" 1
 719 000c 83F31188 		msr     BASEPRI, r3
 720              	@ 0 "" 2
 721              		.thumb
 722              	.LBE31:
 723 0010 FFF7FEFF 		bl	dbg_check_lock
 724              	.LVL59:
 725              		.loc 1 332 0
 726 0014 03E0     		b	.L51
 727              	.LVL60:
 728              	.L54:
 729              	.LBB32:
 730              		.loc 1 335 0
 731 0016 FFF7FEFF 		bl	qwait
 732              	.LVL61:
 733 001a 071E     		subs	r7, r0, #0
ARM GAS  /tmp/ccwQM1Rs.s 			page 14


 734 001c 1DDB     		blt	.L60
 735              	.LVL62:
 736              	.L51:
 737              	.LBE32:
 738              		.loc 1 332 0 discriminator 1
 739 001e A568     		ldr	r5, [r4, #8]
 740              	.LBB34:
 741              		.loc 1 335 0 discriminator 1
 742 0020 2046     		mov	r0, r4
 743 0022 3146     		mov	r1, r6
 744              	.LBE34:
 745              		.loc 1 332 0 discriminator 1
 746 0024 002D     		cmp	r5, #0
 747 0026 F6D0     		beq	.L54
 748              	.LVL63:
 749              		.loc 1 342 0
 750 0028 6369     		ldr	r3, [r4, #20]
 751              		.loc 1 341 0
 752 002a 013D     		subs	r5, r5, #1
 753              		.loc 1 342 0
 754 002c 5A1C     		adds	r2, r3, #1
 755 002e 6261     		str	r2, [r4, #20]
 756              		.loc 1 341 0
 757 0030 A560     		str	r5, [r4, #8]
 758              		.loc 1 342 0
 759 0032 83F80080 		strb	r8, [r3]
 760              		.loc 1 343 0
 761 0036 2369     		ldr	r3, [r4, #16]
 762 0038 6269     		ldr	r2, [r4, #20]
 763 003a 9A42     		cmp	r2, r3
 764              		.loc 1 344 0
 765 003c 24BF     		itt	cs
 766 003e E368     		ldrcs	r3, [r4, #12]
 767 0040 6361     		strcs	r3, [r4, #20]
 768              		.loc 1 346 0
 769 0042 E369     		ldr	r3, [r4, #28]
 770 0044 0BB1     		cbz	r3, .L56
 771              		.loc 1 347 0
 772 0046 2046     		mov	r0, r4
 773              	.LVL64:
 774 0048 9847     		blx	r3
 775              	.LVL65:
 776              	.L56:
 777              		.loc 1 349 0
 778 004a FFF7FEFF 		bl	dbg_check_unlock
 779              	.LVL66:
 780              	.LBB35:
 781 004e 0023     		movs	r3, #0
 782              	@ 349 "../../../os/kernel/src/chqueues.c" 1
 783 0050 83F31188 		msr     BASEPRI, r3
 784              	@ 0 "" 2
 785              		.thumb
 786              	.LBE35:
 787              		.loc 1 350 0
 788 0054 0020     		movs	r0, #0
 789              		.loc 1 351 0
 790 0056 BDE8F081 		pop	{r4, r5, r6, r7, r8, pc}
ARM GAS  /tmp/ccwQM1Rs.s 			page 15


 791              	.LVL67:
 792              	.L60:
 793              	.LBB36:
 794              		.loc 1 336 0
 795 005a FFF7FEFF 		bl	dbg_check_unlock
 796              	.LVL68:
 797              	.LBB33:
 798 005e 2B46     		mov	r3, r5
 799              	@ 336 "../../../os/kernel/src/chqueues.c" 1
 800 0060 83F31188 		msr     BASEPRI, r3
 801              	@ 0 "" 2
 802              		.thumb
 803              	.LBE33:
 804              		.loc 1 335 0
 805 0064 3846     		mov	r0, r7
 806              		.loc 1 337 0
 807 0066 BDE8F081 		pop	{r4, r5, r6, r7, r8, pc}
 808              	.LBE36:
 809              		.cfi_endproc
 810              	.LFE15:
 811              		.size	chOQPutTimeout, .-chOQPutTimeout
 812 006a 00BFAFF3 		.section	.text.chOQGetI,"ax",%progbits
 812      0080
 813              		.align	2
 814              		.p2align 4,,15
 815              		.global	chOQGetI
 816              		.thumb
 817              		.thumb_func
 818              		.type	chOQGetI, %function
 819              	chOQGetI:
 820              	.LFB16:
 821              		.loc 1 363 0
 822              		.cfi_startproc
 823              		@ args = 0, pretend = 0, frame = 0
 824              		@ frame_needed = 0, uses_anonymous_args = 0
 825              	.LVL69:
 826 0000 38B5     		push	{r3, r4, r5, lr}
 827              		.cfi_def_cfa_offset 16
 828              		.cfi_offset 3, -16
 829              		.cfi_offset 4, -12
 830              		.cfi_offset 5, -8
 831              		.cfi_offset 14, -4
 832              		.loc 1 363 0
 833 0002 0446     		mov	r4, r0
 834              		.loc 1 366 0
 835 0004 FFF7FEFF 		bl	chDbgCheckClassI
 836              	.LVL70:
 837              		.loc 1 368 0
 838 0008 A369     		ldr	r3, [r4, #24]
 839 000a 6269     		ldr	r2, [r4, #20]
 840 000c A068     		ldr	r0, [r4, #8]
 841 000e 9A42     		cmp	r2, r3
 842 0010 16D0     		beq	.L70
 843              	.L64:
 844              		.loc 1 373 0
 845 0012 2169     		ldr	r1, [r4, #16]
 846              		.loc 1 372 0
ARM GAS  /tmp/ccwQM1Rs.s 			page 16


 847 0014 5A1C     		adds	r2, r3, #1
 848              		.loc 1 371 0
 849 0016 0130     		adds	r0, r0, #1
 850 0018 A060     		str	r0, [r4, #8]
 851              		.loc 1 372 0
 852 001a A261     		str	r2, [r4, #24]
 853              		.loc 1 373 0
 854 001c 8A42     		cmp	r2, r1
 855              		.loc 1 372 0
 856 001e 1D78     		ldrb	r5, [r3]	@ zero_extendqisi2
 857              	.LVL71:
 858              		.loc 1 373 0
 859 0020 0BD2     		bcs	.L66
 860              	.LVL72:
 861              	.L67:
 862              		.loc 1 376 0
 863 0022 2068     		ldr	r0, [r4]
 864 0024 A042     		cmp	r0, r4
 865 0026 06D0     		beq	.L65
 866              	.LVL73:
 867              	.LBB37:
 868              	.LBB38:
 869              		.loc 2 62 0
 870 0028 0368     		ldr	r3, [r0]
 871 002a 2360     		str	r3, [r4]
 872 002c 5C60     		str	r4, [r3, #4]
 873              	.LBE38:
 874              	.LBE37:
 875              		.loc 1 377 0
 876 002e FFF7FEFF 		bl	chSchReadyI
 877              	.LVL74:
 878 0032 0023     		movs	r3, #0
 879 0034 8362     		str	r3, [r0, #40]
 880              	.LVL75:
 881              	.L65:
 882              		.loc 1 379 0
 883 0036 2846     		mov	r0, r5
 884 0038 38BD     		pop	{r3, r4, r5, pc}
 885              	.LVL76:
 886              	.L66:
 887              		.loc 1 374 0
 888 003a E368     		ldr	r3, [r4, #12]
 889              	.LVL77:
 890 003c A361     		str	r3, [r4, #24]
 891              	.LVL78:
 892 003e F0E7     		b	.L67
 893              	.LVL79:
 894              	.L70:
 895              		.loc 1 368 0 discriminator 1
 896 0040 0028     		cmp	r0, #0
 897 0042 E6D0     		beq	.L64
 898              		.loc 1 369 0
 899 0044 6FF00200 		mvn	r0, #2
 900 0048 38BD     		pop	{r3, r4, r5, pc}
 901              		.cfi_endproc
 902              	.LFE16:
 903              		.size	chOQGetI, .-chOQGetI
ARM GAS  /tmp/ccwQM1Rs.s 			page 17


 904 004a 00BFAFF3 		.section	.text.chOQWriteTimeout,"ax",%progbits
 904      0080
 905              		.align	2
 906              		.p2align 4,,15
 907              		.global	chOQWriteTimeout
 908              		.thumb
 909              		.thumb_func
 910              		.type	chOQWriteTimeout, %function
 911              	chOQWriteTimeout:
 912              	.LFB17:
 913              		.loc 1 407 0
 914              		.cfi_startproc
 915              		@ args = 0, pretend = 0, frame = 0
 916              		@ frame_needed = 0, uses_anonymous_args = 0
 917              	.LVL80:
 918 0000 2DE9F84F 		push	{r3, r4, r5, r6, r7, r8, r9, r10, fp, lr}
 919              		.cfi_def_cfa_offset 40
 920              		.cfi_offset 3, -40
 921              		.cfi_offset 4, -36
 922              		.cfi_offset 5, -32
 923              		.cfi_offset 6, -28
 924              		.cfi_offset 7, -24
 925              		.cfi_offset 8, -20
 926              		.cfi_offset 9, -16
 927              		.cfi_offset 10, -12
 928              		.cfi_offset 11, -8
 929              		.cfi_offset 14, -4
 930              		.loc 1 407 0
 931 0004 0446     		mov	r4, r0
 932              		.loc 1 411 0
 933 0006 1746     		mov	r7, r2
 934              		.loc 1 407 0
 935 0008 0E46     		mov	r6, r1
 936 000a 9B46     		mov	fp, r3
 937              		.loc 1 408 0
 938 000c D0F81CA0 		ldr	r10, [r0, #28]
 939              	.LVL81:
 940              		.loc 1 411 0
 941 0010 002A     		cmp	r2, #0
 942 0012 3AD0     		beq	.L88
 943              	.LVL82:
 944              	.L72:
 945              	.LBB39:
 946              		.loc 1 413 0
 947 0014 2023     		movs	r3, #32
 948              	@ 413 "../../../os/kernel/src/chqueues.c" 1
 949 0016 83F31188 		msr     BASEPRI, r3
 950              	@ 0 "" 2
 951              		.thumb
 952              	.LBE39:
 953 001a FFF7FEFF 		bl	dbg_check_lock
 954              	.LVL83:
 955              		.loc 1 409 0
 956 001e 4FF00009 		mov	r9, #0
 957              	.LVL84:
 958              	.L73:
 959              		.loc 1 415 0 discriminator 1
ARM GAS  /tmp/ccwQM1Rs.s 			page 18


 960 0022 A568     		ldr	r5, [r4, #8]
 961              		.loc 1 422 0 discriminator 1
 962 0024 06F10108 		add	r8, r6, #1
 963              	.LVL85:
 964              		.loc 1 427 0 discriminator 1
 965 0028 2046     		mov	r0, r4
 966              		.loc 1 421 0 discriminator 1
 967 002a 6A1E     		subs	r2, r5, #1
 968              		.loc 1 415 0 discriminator 1
 969 002c FDB1     		cbz	r5, .L76
 970              	.LVL86:
 971              		.loc 1 422 0
 972 002e 6369     		ldr	r3, [r4, #20]
 973              		.loc 1 421 0
 974 0030 A260     		str	r2, [r4, #8]
 975              		.loc 1 422 0
 976 0032 5A1C     		adds	r2, r3, #1
 977 0034 6261     		str	r2, [r4, #20]
 978 0036 3278     		ldrb	r2, [r6]	@ zero_extendqisi2
 979 0038 1A70     		strb	r2, [r3]
 980              		.loc 1 423 0
 981 003a 2369     		ldr	r3, [r4, #16]
 982 003c 6269     		ldr	r2, [r4, #20]
 983 003e 9A42     		cmp	r2, r3
 984              		.loc 1 424 0
 985 0040 24BF     		itt	cs
 986 0042 E368     		ldrcs	r3, [r4, #12]
 987 0044 6361     		strcs	r3, [r4, #20]
 988              		.loc 1 426 0
 989 0046 BAF1000F 		cmp	r10, #0
 990 004a 00D0     		beq	.L78
 991              		.loc 1 427 0
 992 004c D047     		blx	r10
 993              	.LVL87:
 994              	.L78:
 995              		.loc 1 429 0
 996 004e FFF7FEFF 		bl	dbg_check_unlock
 997              	.LVL88:
 998              	.LBB40:
 999 0052 0023     		movs	r3, #0
 1000              	@ 429 "../../../os/kernel/src/chqueues.c" 1
 1001 0054 83F31188 		msr     BASEPRI, r3
 1002              	@ 0 "" 2
 1003              		.thumb
 1004              	.LBE40:
 1005              		.loc 1 431 0
 1006 0058 013F     		subs	r7, r7, #1
 1007              	.LVL89:
 1008              		.loc 1 430 0
 1009 005a 09F10109 		add	r9, r9, #1
 1010              	.LVL90:
 1011              		.loc 1 431 0
 1012 005e 11D0     		beq	.L75
 1013              	.LBB41:
 1014              		.loc 1 433 0
 1015 0060 2023     		movs	r3, #32
 1016              	@ 433 "../../../os/kernel/src/chqueues.c" 1
ARM GAS  /tmp/ccwQM1Rs.s 			page 19


 1017 0062 83F31188 		msr     BASEPRI, r3
 1018              	@ 0 "" 2
 1019              		.thumb
 1020              	.LBE41:
 1021 0066 FFF7FEFF 		bl	dbg_check_lock
 1022              	.LVL91:
 1023              		.loc 1 422 0
 1024 006a 4646     		mov	r6, r8
 1025              		.loc 1 434 0
 1026 006c D9E7     		b	.L73
 1027              	.LVL92:
 1028              	.L76:
 1029              		.loc 1 416 0
 1030 006e 2046     		mov	r0, r4
 1031              	.LVL93:
 1032 0070 5946     		mov	r1, fp
 1033 0072 FFF7FEFF 		bl	qwait
 1034              	.LVL94:
 1035 0076 0028     		cmp	r0, #0
 1036 0078 D3D0     		beq	.L73
 1037              		.loc 1 417 0
 1038 007a FFF7FEFF 		bl	dbg_check_unlock
 1039              	.LVL95:
 1040              	.LBB42:
 1041 007e 2B46     		mov	r3, r5
 1042              	@ 417 "../../../os/kernel/src/chqueues.c" 1
 1043 0080 83F31188 		msr     BASEPRI, r3
 1044              	@ 0 "" 2
 1045              	.LVL96:
 1046              		.thumb
 1047              	.L75:
 1048              	.LBE42:
 1049              		.loc 1 435 0
 1050 0084 4846     		mov	r0, r9
 1051 0086 BDE8F88F 		pop	{r3, r4, r5, r6, r7, r8, r9, r10, fp, pc}
 1052              	.LVL97:
 1053              	.L88:
 1054              		.loc 1 411 0 discriminator 1
 1055 008a 40F20000 		movw	r0, #:lower16:.LC1
 1056              	.LVL98:
 1057 008e C0F20000 		movt	r0, #:upper16:.LC1
 1058 0092 FFF7FEFF 		bl	chDbgPanic
 1059              	.LVL99:
 1060 0096 BDE7     		b	.L72
 1061              		.cfi_endproc
 1062              	.LFE17:
 1063              		.size	chOQWriteTimeout, .-chOQWriteTimeout
 1064 0098 AFF30080 		.section	.rodata.str1.4,"aMS",%progbits,1
 1064      AFF30080 
 1065              		.align	2
 1066              	.LC0:
 1067 0000 22636849 		.ascii	"\"chIQReadTimeout\"()\000"
 1067      51526561 
 1067      6454696D 
 1067      656F7574 
 1067      22282900 
 1068              	.LC1:
ARM GAS  /tmp/ccwQM1Rs.s 			page 20


 1069 0014 2263684F 		.ascii	"\"chOQWriteTimeout\"()\000"
 1069      51577269 
 1069      74655469 
 1069      6D656F75 
 1069      74222829 
 1070 0029 000000   		.text
 1071              	.Letext0:
 1072              		.file 3 "/usr/lib/gcc/arm-none-eabi/4.8.2/include/stddef.h"
 1073              		.file 4 "/usr/include/newlib/machine/_default_types.h"
 1074              		.file 5 "/usr/include/newlib/stdint.h"
 1075              		.file 6 "../../../os/ports/GCC/ARMCMx/chtypes.h"
 1076              		.file 7 "../../../os/kernel/include/chlists.h"
 1077              		.file 8 "../../../os/kernel/include/chthreads.h"
 1078              		.file 9 "../../../os/ports/GCC/ARMCMx/chcore_v7m.h"
 1079              		.file 10 "../../../os/kernel/include/chschd.h"
 1080              		.file 11 "../../../os/kernel/include/chmtx.h"
 1081              		.file 12 "../../../os/kernel/include/chqueues.h"
 1082              		.file 13 "../../../os/kernel/include/chdebug.h"
 1083              		.section	.debug_info,"",%progbits
 1084              	.Ldebug_info0:
 1085 0000 EC0C0000 		.4byte	0xcec
 1086 0004 0400     		.2byte	0x4
 1087 0006 00000000 		.4byte	.Ldebug_abbrev0
 1088 000a 04       		.byte	0x4
 1089 000b 01       		.uleb128 0x1
 1090 000c 67000000 		.4byte	.LASF104
 1091 0010 01       		.byte	0x1
 1092 0011 83040000 		.4byte	.LASF105
 1093 0015 02030000 		.4byte	.LASF106
 1094 0019 58000000 		.4byte	.Ldebug_ranges0+0x58
 1095 001d 00000000 		.4byte	0
 1096 0021 00000000 		.4byte	.Ldebug_line0
 1097 0025 02       		.uleb128 0x2
 1098 0026 04       		.byte	0x4
 1099 0027 05       		.byte	0x5
 1100 0028 696E7400 		.ascii	"int\000"
 1101 002c 03       		.uleb128 0x3
 1102 002d 21000000 		.4byte	.LASF2
 1103 0031 03       		.byte	0x3
 1104 0032 D4       		.byte	0xd4
 1105 0033 37000000 		.4byte	0x37
 1106 0037 04       		.uleb128 0x4
 1107 0038 04       		.byte	0x4
 1108 0039 07       		.byte	0x7
 1109 003a F1010000 		.4byte	.LASF0
 1110 003e 04       		.uleb128 0x4
 1111 003f 01       		.byte	0x1
 1112 0040 06       		.byte	0x6
 1113 0041 4E010000 		.4byte	.LASF1
 1114 0045 03       		.uleb128 0x3
 1115 0046 4D000000 		.4byte	.LASF3
 1116 004a 04       		.byte	0x4
 1117 004b 1C       		.byte	0x1c
 1118 004c 50000000 		.4byte	0x50
 1119 0050 04       		.uleb128 0x4
 1120 0051 01       		.byte	0x1
 1121 0052 08       		.byte	0x8
ARM GAS  /tmp/ccwQM1Rs.s 			page 21


 1122 0053 A3030000 		.4byte	.LASF4
 1123 0057 04       		.uleb128 0x4
 1124 0058 02       		.byte	0x2
 1125 0059 05       		.byte	0x5
 1126 005a BB030000 		.4byte	.LASF5
 1127 005e 04       		.uleb128 0x4
 1128 005f 02       		.byte	0x2
 1129 0060 07       		.byte	0x7
 1130 0061 28020000 		.4byte	.LASF6
 1131 0065 03       		.uleb128 0x3
 1132 0066 55040000 		.4byte	.LASF7
 1133 006a 04       		.byte	0x4
 1134 006b 37       		.byte	0x37
 1135 006c 70000000 		.4byte	0x70
 1136 0070 04       		.uleb128 0x4
 1137 0071 04       		.byte	0x4
 1138 0072 05       		.byte	0x5
 1139 0073 81010000 		.4byte	.LASF8
 1140 0077 03       		.uleb128 0x3
 1141 0078 B5010000 		.4byte	.LASF9
 1142 007c 04       		.byte	0x4
 1143 007d 38       		.byte	0x38
 1144 007e 82000000 		.4byte	0x82
 1145 0082 04       		.uleb128 0x4
 1146 0083 04       		.byte	0x4
 1147 0084 07       		.byte	0x7
 1148 0085 09020000 		.4byte	.LASF10
 1149 0089 04       		.uleb128 0x4
 1150 008a 08       		.byte	0x8
 1151 008b 05       		.byte	0x5
 1152 008c 40010000 		.4byte	.LASF11
 1153 0090 03       		.uleb128 0x3
 1154 0091 61030000 		.4byte	.LASF12
 1155 0095 04       		.byte	0x4
 1156 0096 4E       		.byte	0x4e
 1157 0097 9B000000 		.4byte	0x9b
 1158 009b 04       		.uleb128 0x4
 1159 009c 08       		.byte	0x8
 1160 009d 07       		.byte	0x7
 1161 009e 04010000 		.4byte	.LASF13
 1162 00a2 03       		.uleb128 0x3
 1163 00a3 CB040000 		.4byte	.LASF14
 1164 00a7 05       		.byte	0x5
 1165 00a8 2A       		.byte	0x2a
 1166 00a9 45000000 		.4byte	0x45
 1167 00ad 03       		.uleb128 0x3
 1168 00ae 9B030000 		.4byte	.LASF15
 1169 00b2 05       		.byte	0x5
 1170 00b3 41       		.byte	0x41
 1171 00b4 65000000 		.4byte	0x65
 1172 00b8 03       		.uleb128 0x3
 1173 00b9 0B040000 		.4byte	.LASF16
 1174 00bd 05       		.byte	0x5
 1175 00be 42       		.byte	0x42
 1176 00bf 77000000 		.4byte	0x77
 1177 00c3 03       		.uleb128 0x3
 1178 00c4 38000000 		.4byte	.LASF17
ARM GAS  /tmp/ccwQM1Rs.s 			page 22


 1179 00c8 05       		.byte	0x5
 1180 00c9 4E       		.byte	0x4e
 1181 00ca 90000000 		.4byte	0x90
 1182 00ce 03       		.uleb128 0x3
 1183 00cf 62010000 		.4byte	.LASF18
 1184 00d3 06       		.byte	0x6
 1185 00d4 2B       		.byte	0x2b
 1186 00d5 D9000000 		.4byte	0xd9
 1187 00d9 04       		.uleb128 0x4
 1188 00da 01       		.byte	0x1
 1189 00db 02       		.byte	0x2
 1190 00dc 95030000 		.4byte	.LASF19
 1191 00e0 03       		.uleb128 0x3
 1192 00e1 5A020000 		.4byte	.LASF20
 1193 00e5 06       		.byte	0x6
 1194 00e6 2C       		.byte	0x2c
 1195 00e7 A2000000 		.4byte	0xa2
 1196 00eb 03       		.uleb128 0x3
 1197 00ec 8A010000 		.4byte	.LASF21
 1198 00f0 06       		.byte	0x6
 1199 00f1 2D       		.byte	0x2d
 1200 00f2 A2000000 		.4byte	0xa2
 1201 00f6 03       		.uleb128 0x3
 1202 00f7 6C030000 		.4byte	.LASF22
 1203 00fb 06       		.byte	0x6
 1204 00fc 2E       		.byte	0x2e
 1205 00fd A2000000 		.4byte	0xa2
 1206 0101 03       		.uleb128 0x3
 1207 0102 71010000 		.4byte	.LASF23
 1208 0106 06       		.byte	0x6
 1209 0107 2F       		.byte	0x2f
 1210 0108 A2000000 		.4byte	0xa2
 1211 010c 03       		.uleb128 0x3
 1212 010d 85030000 		.4byte	.LASF24
 1213 0111 06       		.byte	0x6
 1214 0112 30       		.byte	0x30
 1215 0113 B8000000 		.4byte	0xb8
 1216 0117 03       		.uleb128 0x3
 1217 0118 3B020000 		.4byte	.LASF25
 1218 011c 06       		.byte	0x6
 1219 011d 31       		.byte	0x31
 1220 011e AD000000 		.4byte	0xad
 1221 0122 03       		.uleb128 0x3
 1222 0123 6E020000 		.4byte	.LASF26
 1223 0127 06       		.byte	0x6
 1224 0128 33       		.byte	0x33
 1225 0129 B8000000 		.4byte	0xb8
 1226 012d 03       		.uleb128 0x3
 1227 012e 40040000 		.4byte	.LASF27
 1228 0132 06       		.byte	0x6
 1229 0133 35       		.byte	0x35
 1230 0134 B8000000 		.4byte	0xb8
 1231 0138 03       		.uleb128 0x3
 1232 0139 F9030000 		.4byte	.LASF28
 1233 013d 07       		.byte	0x7
 1234 013e 2A       		.byte	0x2a
 1235 013f 43010000 		.4byte	0x143
ARM GAS  /tmp/ccwQM1Rs.s 			page 23


 1236 0143 05       		.uleb128 0x5
 1237 0144 F9030000 		.4byte	.LASF28
 1238 0148 4C       		.byte	0x4c
 1239 0149 08       		.byte	0x8
 1240 014a 5E       		.byte	0x5e
 1241 014b 4C020000 		.4byte	0x24c
 1242 014f 06       		.uleb128 0x6
 1243 0150 E5030000 		.4byte	.LASF29
 1244 0154 08       		.byte	0x8
 1245 0155 5F       		.byte	0x5f
 1246 0156 6D020000 		.4byte	0x26d
 1247 015a 00       		.byte	0
 1248 015b 06       		.uleb128 0x6
 1249 015c 7E030000 		.4byte	.LASF30
 1250 0160 08       		.byte	0x8
 1251 0161 61       		.byte	0x61
 1252 0162 6D020000 		.4byte	0x26d
 1253 0166 04       		.byte	0x4
 1254 0167 06       		.uleb128 0x6
 1255 0168 2F010000 		.4byte	.LASF31
 1256 016c 08       		.byte	0x8
 1257 016d 63       		.byte	0x63
 1258 016e 0C010000 		.4byte	0x10c
 1259 0172 08       		.byte	0x8
 1260 0173 06       		.uleb128 0x6
 1261 0174 05050000 		.4byte	.LASF32
 1262 0178 08       		.byte	0x8
 1263 0179 64       		.byte	0x64
 1264 017a 32030000 		.4byte	0x332
 1265 017e 0C       		.byte	0xc
 1266 017f 06       		.uleb128 0x6
 1267 0180 AD010000 		.4byte	.LASF33
 1268 0184 08       		.byte	0x8
 1269 0185 66       		.byte	0x66
 1270 0186 6D020000 		.4byte	0x26d
 1271 018a 10       		.byte	0x10
 1272 018b 06       		.uleb128 0x6
 1273 018c E7020000 		.4byte	.LASF34
 1274 0190 08       		.byte	0x8
 1275 0191 67       		.byte	0x67
 1276 0192 6D020000 		.4byte	0x26d
 1277 0196 14       		.byte	0x14
 1278 0197 06       		.uleb128 0x6
 1279 0198 DA040000 		.4byte	.LASF35
 1280 019c 08       		.byte	0x8
 1281 019d 6E       		.byte	0x6e
 1282 019e 32040000 		.4byte	0x432
 1283 01a2 18       		.byte	0x18
 1284 01a3 06       		.uleb128 0x6
 1285 01a4 E6010000 		.4byte	.LASF36
 1286 01a8 08       		.byte	0x8
 1287 01a9 74       		.byte	0x74
 1288 01aa 44040000 		.4byte	0x444
 1289 01ae 1C       		.byte	0x1c
 1290 01af 06       		.uleb128 0x6
 1291 01b0 C5030000 		.4byte	.LASF37
 1292 01b4 08       		.byte	0x8
ARM GAS  /tmp/ccwQM1Rs.s 			page 24


 1293 01b5 79       		.byte	0x79
 1294 01b6 EB000000 		.4byte	0xeb
 1295 01ba 20       		.byte	0x20
 1296 01bb 06       		.uleb128 0x6
 1297 01bc F1030000 		.4byte	.LASF38
 1298 01c0 08       		.byte	0x8
 1299 01c1 7D       		.byte	0x7d
 1300 01c2 E0000000 		.4byte	0xe0
 1301 01c6 21       		.byte	0x21
 1302 01c7 06       		.uleb128 0x6
 1303 01c8 AB040000 		.4byte	.LASF39
 1304 01cc 08       		.byte	0x8
 1305 01cd 82       		.byte	0x82
 1306 01ce F6000000 		.4byte	0xf6
 1307 01d2 22       		.byte	0x22
 1308 01d3 06       		.uleb128 0x6
 1309 01d4 CD030000 		.4byte	.LASF40
 1310 01d8 08       		.byte	0x8
 1311 01d9 88       		.byte	0x88
 1312 01da 01010000 		.4byte	0x101
 1313 01de 23       		.byte	0x23
 1314 01df 06       		.uleb128 0x6
 1315 01e0 6A040000 		.4byte	.LASF41
 1316 01e4 08       		.byte	0x8
 1317 01e5 8F       		.byte	0x8f
 1318 01e6 5A030000 		.4byte	0x35a
 1319 01ea 24       		.byte	0x24
 1320 01eb 07       		.uleb128 0x7
 1321 01ec 705F7500 		.ascii	"p_u\000"
 1322 01f0 08       		.byte	0x8
 1323 01f1 B4       		.byte	0xb4
 1324 01f2 FD030000 		.4byte	0x3fd
 1325 01f6 28       		.byte	0x28
 1326 01f7 06       		.uleb128 0x6
 1327 01f8 0B050000 		.4byte	.LASF42
 1328 01fc 08       		.byte	0x8
 1329 01fd B9       		.byte	0xb9
 1330 01fe 93020000 		.4byte	0x293
 1331 0202 2C       		.byte	0x2c
 1332 0203 06       		.uleb128 0x6
 1333 0204 78040000 		.4byte	.LASF43
 1334 0208 08       		.byte	0x8
 1335 0209 BF       		.byte	0xbf
 1336 020a 73020000 		.4byte	0x273
 1337 020e 30       		.byte	0x30
 1338 020f 06       		.uleb128 0x6
 1339 0210 09000000 		.4byte	.LASF44
 1340 0214 08       		.byte	0x8
 1341 0215 C3       		.byte	0xc3
 1342 0216 17010000 		.4byte	0x117
 1343 021a 38       		.byte	0x38
 1344 021b 06       		.uleb128 0x6
 1345 021c 00040000 		.4byte	.LASF45
 1346 0220 08       		.byte	0x8
 1347 0221 C9       		.byte	0xc9
 1348 0222 22010000 		.4byte	0x122
 1349 0226 3C       		.byte	0x3c
ARM GAS  /tmp/ccwQM1Rs.s 			page 25


 1350 0227 06       		.uleb128 0x6
 1351 0228 B1030000 		.4byte	.LASF46
 1352 022c 08       		.byte	0x8
 1353 022d D0       		.byte	0xd0
 1354 022e 4A040000 		.4byte	0x44a
 1355 0232 40       		.byte	0x40
 1356 0233 06       		.uleb128 0x6
 1357 0234 4A040000 		.4byte	.LASF47
 1358 0238 08       		.byte	0x8
 1359 0239 D4       		.byte	0xd4
 1360 023a 0C010000 		.4byte	0x10c
 1361 023e 44       		.byte	0x44
 1362 023f 06       		.uleb128 0x6
 1363 0240 5A010000 		.4byte	.LASF48
 1364 0244 08       		.byte	0x8
 1365 0245 DA       		.byte	0xda
 1366 0246 A9020000 		.4byte	0x2a9
 1367 024a 48       		.byte	0x48
 1368 024b 00       		.byte	0
 1369 024c 08       		.uleb128 0x8
 1370 024d 08       		.byte	0x8
 1371 024e 07       		.byte	0x7
 1372 024f 61       		.byte	0x61
 1373 0250 6D020000 		.4byte	0x26d
 1374 0254 06       		.uleb128 0x6
 1375 0255 E5030000 		.4byte	.LASF29
 1376 0259 07       		.byte	0x7
 1377 025a 62       		.byte	0x62
 1378 025b 6D020000 		.4byte	0x26d
 1379 025f 00       		.byte	0
 1380 0260 06       		.uleb128 0x6
 1381 0261 7E030000 		.4byte	.LASF30
 1382 0265 07       		.byte	0x7
 1383 0266 64       		.byte	0x64
 1384 0267 6D020000 		.4byte	0x26d
 1385 026b 04       		.byte	0x4
 1386 026c 00       		.byte	0
 1387 026d 09       		.uleb128 0x9
 1388 026e 04       		.byte	0x4
 1389 026f 38010000 		.4byte	0x138
 1390 0273 03       		.uleb128 0x3
 1391 0274 F5020000 		.4byte	.LASF49
 1392 0278 07       		.byte	0x7
 1393 0279 66       		.byte	0x66
 1394 027a 4C020000 		.4byte	0x24c
 1395 027e 08       		.uleb128 0x8
 1396 027f 04       		.byte	0x4
 1397 0280 07       		.byte	0x7
 1398 0281 6B       		.byte	0x6b
 1399 0282 93020000 		.4byte	0x293
 1400 0286 06       		.uleb128 0x6
 1401 0287 E5030000 		.4byte	.LASF29
 1402 028b 07       		.byte	0x7
 1403 028c 6D       		.byte	0x6d
 1404 028d 6D020000 		.4byte	0x26d
 1405 0291 00       		.byte	0
 1406 0292 00       		.byte	0
ARM GAS  /tmp/ccwQM1Rs.s 			page 26


 1407 0293 03       		.uleb128 0x3
 1408 0294 62020000 		.4byte	.LASF50
 1409 0298 07       		.byte	0x7
 1410 0299 70       		.byte	0x70
 1411 029a 7E020000 		.4byte	0x27e
 1412 029e 03       		.uleb128 0x3
 1413 029f C0010000 		.4byte	.LASF51
 1414 02a3 09       		.byte	0x9
 1415 02a4 E5       		.byte	0xe5
 1416 02a5 A9020000 		.4byte	0x2a9
 1417 02a9 0A       		.uleb128 0xa
 1418 02aa 04       		.byte	0x4
 1419 02ab 03       		.uleb128 0x3
 1420 02ac 98020000 		.4byte	.LASF52
 1421 02b0 09       		.byte	0x9
 1422 02b1 EB       		.byte	0xeb
 1423 02b2 C3000000 		.4byte	0xc3
 1424 02b6 0B       		.uleb128 0xb
 1425 02b7 71040000 		.4byte	.LASF53
 1426 02bb 24       		.byte	0x24
 1427 02bc 09       		.byte	0x9
 1428 02bd 0C01     		.2byte	0x10c
 1429 02bf 32030000 		.4byte	0x332
 1430 02c3 0C       		.uleb128 0xc
 1431 02c4 723400   		.ascii	"r4\000"
 1432 02c7 09       		.byte	0x9
 1433 02c8 1F01     		.2byte	0x11f
 1434 02ca 9E020000 		.4byte	0x29e
 1435 02ce 00       		.byte	0
 1436 02cf 0C       		.uleb128 0xc
 1437 02d0 723500   		.ascii	"r5\000"
 1438 02d3 09       		.byte	0x9
 1439 02d4 2001     		.2byte	0x120
 1440 02d6 9E020000 		.4byte	0x29e
 1441 02da 04       		.byte	0x4
 1442 02db 0C       		.uleb128 0xc
 1443 02dc 723600   		.ascii	"r6\000"
 1444 02df 09       		.byte	0x9
 1445 02e0 2101     		.2byte	0x121
 1446 02e2 9E020000 		.4byte	0x29e
 1447 02e6 08       		.byte	0x8
 1448 02e7 0C       		.uleb128 0xc
 1449 02e8 723700   		.ascii	"r7\000"
 1450 02eb 09       		.byte	0x9
 1451 02ec 2201     		.2byte	0x122
 1452 02ee 9E020000 		.4byte	0x29e
 1453 02f2 0C       		.byte	0xc
 1454 02f3 0C       		.uleb128 0xc
 1455 02f4 723800   		.ascii	"r8\000"
 1456 02f7 09       		.byte	0x9
 1457 02f8 2301     		.2byte	0x123
 1458 02fa 9E020000 		.4byte	0x29e
 1459 02fe 10       		.byte	0x10
 1460 02ff 0C       		.uleb128 0xc
 1461 0300 723900   		.ascii	"r9\000"
 1462 0303 09       		.byte	0x9
 1463 0304 2401     		.2byte	0x124
ARM GAS  /tmp/ccwQM1Rs.s 			page 27


 1464 0306 9E020000 		.4byte	0x29e
 1465 030a 14       		.byte	0x14
 1466 030b 0C       		.uleb128 0xc
 1467 030c 72313000 		.ascii	"r10\000"
 1468 0310 09       		.byte	0x9
 1469 0311 2501     		.2byte	0x125
 1470 0313 9E020000 		.4byte	0x29e
 1471 0317 18       		.byte	0x18
 1472 0318 0C       		.uleb128 0xc
 1473 0319 72313100 		.ascii	"r11\000"
 1474 031d 09       		.byte	0x9
 1475 031e 2601     		.2byte	0x126
 1476 0320 9E020000 		.4byte	0x29e
 1477 0324 1C       		.byte	0x1c
 1478 0325 0C       		.uleb128 0xc
 1479 0326 6C7200   		.ascii	"lr\000"
 1480 0329 09       		.byte	0x9
 1481 032a 2701     		.2byte	0x127
 1482 032c 9E020000 		.4byte	0x29e
 1483 0330 20       		.byte	0x20
 1484 0331 00       		.byte	0
 1485 0332 0B       		.uleb128 0xb
 1486 0333 1B020000 		.4byte	.LASF54
 1487 0337 04       		.byte	0x4
 1488 0338 09       		.byte	0x9
 1489 0339 3101     		.2byte	0x131
 1490 033b 4D030000 		.4byte	0x34d
 1491 033f 0C       		.uleb128 0xc
 1492 0340 72313300 		.ascii	"r13\000"
 1493 0344 09       		.byte	0x9
 1494 0345 3201     		.2byte	0x132
 1495 0347 4D030000 		.4byte	0x34d
 1496 034b 00       		.byte	0
 1497 034c 00       		.byte	0
 1498 034d 09       		.uleb128 0x9
 1499 034e 04       		.byte	0x4
 1500 034f B6020000 		.4byte	0x2b6
 1501 0353 04       		.uleb128 0x4
 1502 0354 04       		.byte	0x4
 1503 0355 07       		.byte	0x7
 1504 0356 C5020000 		.4byte	.LASF55
 1505 035a 0D       		.uleb128 0xd
 1506 035b 2D010000 		.4byte	0x12d
 1507 035f 08       		.uleb128 0x8
 1508 0360 1C       		.byte	0x1c
 1509 0361 0A       		.byte	0xa
 1510 0362 5E       		.byte	0x5e
 1511 0363 B0030000 		.4byte	0x3b0
 1512 0367 06       		.uleb128 0x6
 1513 0368 14040000 		.4byte	.LASF56
 1514 036c 0A       		.byte	0xa
 1515 036d 5F       		.byte	0x5f
 1516 036e 73020000 		.4byte	0x273
 1517 0372 00       		.byte	0
 1518 0373 06       		.uleb128 0x6
 1519 0374 D7030000 		.4byte	.LASF57
 1520 0378 0A       		.byte	0xa
ARM GAS  /tmp/ccwQM1Rs.s 			page 28


 1521 0379 60       		.byte	0x60
 1522 037a 0C010000 		.4byte	0x10c
 1523 037e 08       		.byte	0x8
 1524 037f 06       		.uleb128 0x6
 1525 0380 EF020000 		.4byte	.LASF58
 1526 0384 0A       		.byte	0xa
 1527 0385 62       		.byte	0x62
 1528 0386 32030000 		.4byte	0x332
 1529 038a 0C       		.byte	0xc
 1530 038b 06       		.uleb128 0x6
 1531 038c 41020000 		.4byte	.LASF59
 1532 0390 0A       		.byte	0xa
 1533 0391 65       		.byte	0x65
 1534 0392 6D020000 		.4byte	0x26d
 1535 0396 10       		.byte	0x10
 1536 0397 06       		.uleb128 0x6
 1537 0398 59030000 		.4byte	.LASF60
 1538 039c 0A       		.byte	0xa
 1539 039d 66       		.byte	0x66
 1540 039e 6D020000 		.4byte	0x26d
 1541 03a2 14       		.byte	0x14
 1542 03a3 06       		.uleb128 0x6
 1543 03a4 4F030000 		.4byte	.LASF61
 1544 03a8 0A       		.byte	0xa
 1545 03a9 69       		.byte	0x69
 1546 03aa 6D020000 		.4byte	0x26d
 1547 03ae 18       		.byte	0x18
 1548 03af 00       		.byte	0
 1549 03b0 03       		.uleb128 0x3
 1550 03b1 B2040000 		.4byte	.LASF62
 1551 03b5 0A       		.byte	0xa
 1552 03b6 6B       		.byte	0x6b
 1553 03b7 5F030000 		.4byte	0x35f
 1554 03bb 05       		.uleb128 0x5
 1555 03bc 85020000 		.4byte	.LASF63
 1556 03c0 10       		.byte	0x10
 1557 03c1 0B       		.byte	0xb
 1558 03c2 2C       		.byte	0x2c
 1559 03c3 EC030000 		.4byte	0x3ec
 1560 03c7 06       		.uleb128 0x6
 1561 03c8 69010000 		.4byte	.LASF64
 1562 03cc 0B       		.byte	0xb
 1563 03cd 2D       		.byte	0x2d
 1564 03ce 73020000 		.4byte	0x273
 1565 03d2 00       		.byte	0
 1566 03d3 06       		.uleb128 0x6
 1567 03d4 FD040000 		.4byte	.LASF65
 1568 03d8 0B       		.byte	0xb
 1569 03d9 2F       		.byte	0x2f
 1570 03da 6D020000 		.4byte	0x26d
 1571 03de 08       		.byte	0x8
 1572 03df 06       		.uleb128 0x6
 1573 03e0 39040000 		.4byte	.LASF66
 1574 03e4 0B       		.byte	0xb
 1575 03e5 31       		.byte	0x31
 1576 03e6 EC030000 		.4byte	0x3ec
 1577 03ea 0C       		.byte	0xc
ARM GAS  /tmp/ccwQM1Rs.s 			page 29


 1578 03eb 00       		.byte	0
 1579 03ec 09       		.uleb128 0x9
 1580 03ed 04       		.byte	0x4
 1581 03ee BB030000 		.4byte	0x3bb
 1582 03f2 03       		.uleb128 0x3
 1583 03f3 85020000 		.4byte	.LASF63
 1584 03f7 0B       		.byte	0xb
 1585 03f8 33       		.byte	0x33
 1586 03f9 BB030000 		.4byte	0x3bb
 1587 03fd 0E       		.uleb128 0xe
 1588 03fe 04       		.byte	0x4
 1589 03ff 08       		.byte	0x8
 1590 0400 96       		.byte	0x96
 1591 0401 32040000 		.4byte	0x432
 1592 0405 0F       		.uleb128 0xf
 1593 0406 28000000 		.4byte	.LASF67
 1594 040a 08       		.byte	0x8
 1595 040b 9D       		.byte	0x9d
 1596 040c 17010000 		.4byte	0x117
 1597 0410 0F       		.uleb128 0xf
 1598 0411 1B010000 		.4byte	.LASF68
 1599 0415 08       		.byte	0x8
 1600 0416 A4       		.byte	0xa4
 1601 0417 17010000 		.4byte	0x117
 1602 041b 0F       		.uleb128 0xf
 1603 041c D3040000 		.4byte	.LASF69
 1604 0420 08       		.byte	0x8
 1605 0421 AB       		.byte	0xab
 1606 0422 A9020000 		.4byte	0x2a9
 1607 0426 0F       		.uleb128 0xf
 1608 0427 DE030000 		.4byte	.LASF70
 1609 042b 08       		.byte	0x8
 1610 042c B2       		.byte	0xb2
 1611 042d 22010000 		.4byte	0x122
 1612 0431 00       		.byte	0
 1613 0432 09       		.uleb128 0x9
 1614 0433 04       		.byte	0x4
 1615 0434 38040000 		.4byte	0x438
 1616 0438 10       		.uleb128 0x10
 1617 0439 3D040000 		.4byte	0x43d
 1618 043d 04       		.uleb128 0x4
 1619 043e 01       		.byte	0x1
 1620 043f 08       		.byte	0x8
 1621 0440 28040000 		.4byte	.LASF71
 1622 0444 09       		.uleb128 0x9
 1623 0445 04       		.byte	0x4
 1624 0446 AB020000 		.4byte	0x2ab
 1625 044a 09       		.uleb128 0x9
 1626 044b 04       		.byte	0x4
 1627 044c F2030000 		.4byte	0x3f2
 1628 0450 03       		.uleb128 0x3
 1629 0451 8B020000 		.4byte	.LASF72
 1630 0455 0C       		.byte	0xc
 1631 0456 37       		.byte	0x37
 1632 0457 5B040000 		.4byte	0x45b
 1633 045b 05       		.uleb128 0x5
 1634 045c 8B020000 		.4byte	.LASF72
ARM GAS  /tmp/ccwQM1Rs.s 			page 30


 1635 0460 24       		.byte	0x24
 1636 0461 0C       		.byte	0xc
 1637 0462 45       		.byte	0x45
 1638 0463 C8040000 		.4byte	0x4c8
 1639 0467 06       		.uleb128 0x6
 1640 0468 36010000 		.4byte	.LASF73
 1641 046c 0C       		.byte	0xc
 1642 046d 46       		.byte	0x46
 1643 046e 73020000 		.4byte	0x273
 1644 0472 00       		.byte	0
 1645 0473 06       		.uleb128 0x6
 1646 0474 CE020000 		.4byte	.LASF74
 1647 0478 0C       		.byte	0xc
 1648 0479 47       		.byte	0x47
 1649 047a 2C000000 		.4byte	0x2c
 1650 047e 08       		.byte	0x8
 1651 047f 06       		.uleb128 0x6
 1652 0480 9C010000 		.4byte	.LASF75
 1653 0484 0C       		.byte	0xc
 1654 0485 48       		.byte	0x48
 1655 0486 EA040000 		.4byte	0x4ea
 1656 048a 0C       		.byte	0xc
 1657 048b 06       		.uleb128 0x6
 1658 048c A5040000 		.4byte	.LASF76
 1659 0490 0C       		.byte	0xc
 1660 0491 49       		.byte	0x49
 1661 0492 EA040000 		.4byte	0x4ea
 1662 0496 10       		.byte	0x10
 1663 0497 06       		.uleb128 0x6
 1664 0498 A5010000 		.4byte	.LASF77
 1665 049c 0C       		.byte	0xc
 1666 049d 4B       		.byte	0x4b
 1667 049e EA040000 		.4byte	0x4ea
 1668 04a2 14       		.byte	0x14
 1669 04a3 06       		.uleb128 0x6
 1670 04a4 8D030000 		.4byte	.LASF78
 1671 04a8 0C       		.byte	0xc
 1672 04a9 4C       		.byte	0x4c
 1673 04aa EA040000 		.4byte	0x4ea
 1674 04ae 18       		.byte	0x18
 1675 04af 06       		.uleb128 0x6
 1676 04b0 BC040000 		.4byte	.LASF79
 1677 04b4 0C       		.byte	0xc
 1678 04b5 4D       		.byte	0x4d
 1679 04b6 C8040000 		.4byte	0x4c8
 1680 04ba 1C       		.byte	0x1c
 1681 04bb 06       		.uleb128 0x6
 1682 04bc F6040000 		.4byte	.LASF80
 1683 04c0 0C       		.byte	0xc
 1684 04c1 4E       		.byte	0x4e
 1685 04c2 A9020000 		.4byte	0x2a9
 1686 04c6 20       		.byte	0x20
 1687 04c7 00       		.byte	0
 1688 04c8 03       		.uleb128 0x3
 1689 04c9 74030000 		.4byte	.LASF81
 1690 04cd 0C       		.byte	0xc
 1691 04ce 3A       		.byte	0x3a
ARM GAS  /tmp/ccwQM1Rs.s 			page 31


 1692 04cf D3040000 		.4byte	0x4d3
 1693 04d3 09       		.uleb128 0x9
 1694 04d4 04       		.byte	0x4
 1695 04d5 D9040000 		.4byte	0x4d9
 1696 04d9 11       		.uleb128 0x11
 1697 04da E4040000 		.4byte	0x4e4
 1698 04de 12       		.uleb128 0x12
 1699 04df E4040000 		.4byte	0x4e4
 1700 04e3 00       		.byte	0
 1701 04e4 09       		.uleb128 0x9
 1702 04e5 04       		.byte	0x4
 1703 04e6 50040000 		.4byte	0x450
 1704 04ea 09       		.uleb128 0x9
 1705 04eb 04       		.byte	0x4
 1706 04ec A2000000 		.4byte	0xa2
 1707 04f0 03       		.uleb128 0x3
 1708 04f1 7A020000 		.4byte	.LASF82
 1709 04f5 0C       		.byte	0xc
 1710 04f6 82       		.byte	0x82
 1711 04f7 50040000 		.4byte	0x450
 1712 04fb 03       		.uleb128 0x3
 1713 04fc 41000000 		.4byte	.LASF83
 1714 0500 0C       		.byte	0xc
 1715 0501 F5       		.byte	0xf5
 1716 0502 50040000 		.4byte	0x450
 1717 0506 09       		.uleb128 0x9
 1718 0507 04       		.byte	0x4
 1719 0508 0C050000 		.4byte	0x50c
 1720 050c 10       		.uleb128 0x10
 1721 050d A2000000 		.4byte	0xa2
 1722 0511 13       		.uleb128 0x13
 1723 0512 0F000000 		.4byte	.LASF107
 1724 0516 02       		.byte	0x2
 1725 0517 34       		.byte	0x34
 1726 0518 03       		.byte	0x3
 1727 0519 33050000 		.4byte	0x533
 1728 051d 14       		.uleb128 0x14
 1729 051e 747000   		.ascii	"tp\000"
 1730 0521 02       		.byte	0x2
 1731 0522 34       		.byte	0x34
 1732 0523 6D020000 		.4byte	0x26d
 1733 0527 14       		.uleb128 0x14
 1734 0528 74717000 		.ascii	"tqp\000"
 1735 052c 02       		.byte	0x2
 1736 052d 34       		.byte	0x34
 1737 052e 33050000 		.4byte	0x533
 1738 0532 00       		.byte	0
 1739 0533 09       		.uleb128 0x9
 1740 0534 04       		.byte	0x4
 1741 0535 73020000 		.4byte	0x273
 1742 0539 15       		.uleb128 0x15
 1743 053a 2D040000 		.4byte	.LASF108
 1744 053e 02       		.byte	0x2
 1745 053f 3B       		.byte	0x3b
 1746 0540 6D020000 		.4byte	0x26d
 1747 0544 03       		.byte	0x3
 1748 0545 5F050000 		.4byte	0x55f
ARM GAS  /tmp/ccwQM1Rs.s 			page 32


 1749 0549 14       		.uleb128 0x14
 1750 054a 74717000 		.ascii	"tqp\000"
 1751 054e 02       		.byte	0x2
 1752 054f 3B       		.byte	0x3b
 1753 0550 33050000 		.4byte	0x533
 1754 0554 16       		.uleb128 0x16
 1755 0555 747000   		.ascii	"tp\000"
 1756 0558 02       		.byte	0x2
 1757 0559 3C       		.byte	0x3c
 1758 055a 6D020000 		.4byte	0x26d
 1759 055e 00       		.byte	0
 1760 055f 17       		.uleb128 0x17
 1761 0560 7B010000 		.4byte	.LASF109
 1762 0564 01       		.byte	0x1
 1763 0565 46       		.byte	0x46
 1764 0566 17010000 		.4byte	0x117
 1765 056a 00000000 		.4byte	.LFB7
 1766 056e 30000000 		.4byte	.LFE7-.LFB7
 1767 0572 01       		.uleb128 0x1
 1768 0573 9C       		.byte	0x9c
 1769 0574 D2050000 		.4byte	0x5d2
 1770 0578 18       		.uleb128 0x18
 1771 0579 717000   		.ascii	"qp\000"
 1772 057c 01       		.byte	0x1
 1773 057d 46       		.byte	0x46
 1774 057e E4040000 		.4byte	0x4e4
 1775 0582 00000000 		.4byte	.LLST0
 1776 0586 19       		.uleb128 0x19
 1777 0587 4A030000 		.4byte	.LASF84
 1778 058b 01       		.byte	0x1
 1779 058c 46       		.byte	0x46
 1780 058d 2D010000 		.4byte	0x12d
 1781 0591 42000000 		.4byte	.LLST1
 1782 0595 1A       		.uleb128 0x1a
 1783 0596 11050000 		.4byte	0x511
 1784 059a 14000000 		.4byte	.LBB12
 1785 059e 0A000000 		.4byte	.LBE12-.LBB12
 1786 05a2 01       		.byte	0x1
 1787 05a3 4B       		.byte	0x4b
 1788 05a4 BB050000 		.4byte	0x5bb
 1789 05a8 1B       		.uleb128 0x1b
 1790 05a9 27050000 		.4byte	0x527
 1791 05ad 6E000000 		.4byte	.LLST2
 1792 05b1 1B       		.uleb128 0x1b
 1793 05b2 1D050000 		.4byte	0x51d
 1794 05b6 8F000000 		.4byte	.LLST3
 1795 05ba 00       		.byte	0
 1796 05bb 1C       		.uleb128 0x1c
 1797 05bc 26000000 		.4byte	.LVL3
 1798 05c0 9E0C0000 		.4byte	0xc9e
 1799 05c4 1D       		.uleb128 0x1d
 1800 05c5 01       		.uleb128 0x1
 1801 05c6 51       		.byte	0x51
 1802 05c7 03       		.uleb128 0x3
 1803 05c8 F3       		.byte	0xf3
 1804 05c9 01       		.uleb128 0x1
 1805 05ca 51       		.byte	0x51
ARM GAS  /tmp/ccwQM1Rs.s 			page 33


 1806 05cb 1D       		.uleb128 0x1d
 1807 05cc 01       		.uleb128 0x1
 1808 05cd 50       		.byte	0x50
 1809 05ce 01       		.uleb128 0x1
 1810 05cf 3D       		.byte	0x3d
 1811 05d0 00       		.byte	0
 1812 05d1 00       		.byte	0
 1813 05d2 1E       		.uleb128 0x1e
 1814 05d3 2F000000 		.4byte	.LASF88
 1815 05d7 01       		.byte	0x1
 1816 05d8 5F       		.byte	0x5f
 1817 05d9 00000000 		.4byte	.LFB8
 1818 05dd 1E000000 		.4byte	.LFE8-.LFB8
 1819 05e1 01       		.uleb128 0x1
 1820 05e2 9C       		.byte	0x9c
 1821 05e3 2C060000 		.4byte	0x62c
 1822 05e7 1F       		.uleb128 0x1f
 1823 05e8 69717000 		.ascii	"iqp\000"
 1824 05ec 01       		.byte	0x1
 1825 05ed 5F       		.byte	0x5f
 1826 05ee 2C060000 		.4byte	0x62c
 1827 05f2 01       		.uleb128 0x1
 1828 05f3 50       		.byte	0x50
 1829 05f4 1F       		.uleb128 0x1f
 1830 05f5 627000   		.ascii	"bp\000"
 1831 05f8 01       		.byte	0x1
 1832 05f9 5F       		.byte	0x5f
 1833 05fa EA040000 		.4byte	0x4ea
 1834 05fe 01       		.uleb128 0x1
 1835 05ff 51       		.byte	0x51
 1836 0600 19       		.uleb128 0x19
 1837 0601 23020000 		.4byte	.LASF85
 1838 0605 01       		.byte	0x1
 1839 0606 5F       		.byte	0x5f
 1840 0607 2C000000 		.4byte	0x2c
 1841 060b A2000000 		.4byte	.LLST4
 1842 060f 20       		.uleb128 0x20
 1843 0610 EC030000 		.4byte	.LASF86
 1844 0614 01       		.byte	0x1
 1845 0615 5F       		.byte	0x5f
 1846 0616 C8040000 		.4byte	0x4c8
 1847 061a 01       		.uleb128 0x1
 1848 061b 53       		.byte	0x53
 1849 061c 19       		.uleb128 0x19
 1850 061d C9010000 		.4byte	.LASF87
 1851 0621 01       		.byte	0x1
 1852 0622 60       		.byte	0x60
 1853 0623 A9020000 		.4byte	0x2a9
 1854 0627 C3000000 		.4byte	.LLST5
 1855 062b 00       		.byte	0
 1856 062c 09       		.uleb128 0x9
 1857 062d 04       		.byte	0x4
 1858 062e F0040000 		.4byte	0x4f0
 1859 0632 1E       		.uleb128 0x1e
 1860 0633 FE010000 		.4byte	.LASF89
 1861 0637 01       		.byte	0x1
 1862 0638 75       		.byte	0x75
ARM GAS  /tmp/ccwQM1Rs.s 			page 34


 1863 0639 00000000 		.4byte	.LFB9
 1864 063d 30000000 		.4byte	.LFE9-.LFB9
 1865 0641 01       		.uleb128 0x1
 1866 0642 9C       		.byte	0x9c
 1867 0643 99060000 		.4byte	0x699
 1868 0647 18       		.uleb128 0x18
 1869 0648 69717000 		.ascii	"iqp\000"
 1870 064c 01       		.byte	0x1
 1871 064d 75       		.byte	0x75
 1872 064e 2C060000 		.4byte	0x62c
 1873 0652 E3000000 		.4byte	.LLST6
 1874 0656 1A       		.uleb128 0x1a
 1875 0657 39050000 		.4byte	0x539
 1876 065b 1C000000 		.4byte	.LBB14
 1877 065f 06000000 		.4byte	.LBE14-.LBB14
 1878 0663 01       		.byte	0x1
 1879 0664 7C       		.byte	0x7c
 1880 0665 86060000 		.4byte	0x686
 1881 0669 1B       		.uleb128 0x1b
 1882 066a 49050000 		.4byte	0x549
 1883 066e 01010000 		.4byte	.LLST7
 1884 0672 21       		.uleb128 0x21
 1885 0673 1C000000 		.4byte	.LBB15
 1886 0677 06000000 		.4byte	.LBE15-.LBB15
 1887 067b 22       		.uleb128 0x22
 1888 067c 54050000 		.4byte	0x554
 1889 0680 14010000 		.4byte	.LLST8
 1890 0684 00       		.byte	0
 1891 0685 00       		.byte	0
 1892 0686 23       		.uleb128 0x23
 1893 0687 08000000 		.4byte	.LVL9
 1894 068b B80C0000 		.4byte	0xcb8
 1895 068f 23       		.uleb128 0x23
 1896 0690 26000000 		.4byte	.LVL11
 1897 0694 BF0C0000 		.4byte	0xcbf
 1898 0698 00       		.byte	0
 1899 0699 24       		.uleb128 0x24
 1900 069a DD010000 		.4byte	.LASF90
 1901 069e 01       		.byte	0x1
 1902 069f 8C       		.byte	0x8c
 1903 06a0 17010000 		.4byte	0x117
 1904 06a4 00000000 		.4byte	.LFB10
 1905 06a8 56000000 		.4byte	.LFE10-.LFB10
 1906 06ac 01       		.uleb128 0x1
 1907 06ad 9C       		.byte	0x9c
 1908 06ae 11070000 		.4byte	0x711
 1909 06b2 18       		.uleb128 0x18
 1910 06b3 69717000 		.ascii	"iqp\000"
 1911 06b7 01       		.byte	0x1
 1912 06b8 8C       		.byte	0x8c
 1913 06b9 2C060000 		.4byte	0x62c
 1914 06bd 27010000 		.4byte	.LLST9
 1915 06c1 18       		.uleb128 0x18
 1916 06c2 6200     		.ascii	"b\000"
 1917 06c4 01       		.byte	0x1
 1918 06c5 8C       		.byte	0x8c
 1919 06c6 A2000000 		.4byte	0xa2
ARM GAS  /tmp/ccwQM1Rs.s 			page 35


 1920 06ca 45010000 		.4byte	.LLST10
 1921 06ce 1A       		.uleb128 0x1a
 1922 06cf 39050000 		.4byte	0x539
 1923 06d3 2C000000 		.4byte	.LBB16
 1924 06d7 06000000 		.4byte	.LBE16-.LBB16
 1925 06db 01       		.byte	0x1
 1926 06dc 99       		.byte	0x99
 1927 06dd FE060000 		.4byte	0x6fe
 1928 06e1 1B       		.uleb128 0x1b
 1929 06e2 49050000 		.4byte	0x549
 1930 06e6 66010000 		.4byte	.LLST11
 1931 06ea 21       		.uleb128 0x21
 1932 06eb 2C000000 		.4byte	.LBB17
 1933 06ef 06000000 		.4byte	.LBE17-.LBB17
 1934 06f3 22       		.uleb128 0x22
 1935 06f4 54050000 		.4byte	0x554
 1936 06f8 79010000 		.4byte	.LLST12
 1937 06fc 00       		.byte	0
 1938 06fd 00       		.byte	0
 1939 06fe 23       		.uleb128 0x23
 1940 06ff 0A000000 		.4byte	.LVL14
 1941 0703 B80C0000 		.4byte	0xcb8
 1942 0707 23       		.uleb128 0x23
 1943 0708 36000000 		.4byte	.LVL16
 1944 070c BF0C0000 		.4byte	0xcbf
 1945 0710 00       		.byte	0
 1946 0711 24       		.uleb128 0x24
 1947 0712 15050000 		.4byte	.LASF91
 1948 0716 01       		.byte	0x1
 1949 0717 B2       		.byte	0xb2
 1950 0718 17010000 		.4byte	0x117
 1951 071c 00000000 		.4byte	.LFB11
 1952 0720 62000000 		.4byte	.LFE11-.LFB11
 1953 0724 01       		.uleb128 0x1
 1954 0725 9C       		.byte	0x9c
 1955 0726 F4070000 		.4byte	0x7f4
 1956 072a 18       		.uleb128 0x18
 1957 072b 69717000 		.ascii	"iqp\000"
 1958 072f 01       		.byte	0x1
 1959 0730 B2       		.byte	0xb2
 1960 0731 2C060000 		.4byte	0x62c
 1961 0735 8C010000 		.4byte	.LLST13
 1962 0739 19       		.uleb128 0x19
 1963 073a 4A030000 		.4byte	.LASF84
 1964 073e 01       		.byte	0x1
 1965 073f B2       		.byte	0xb2
 1966 0740 2D010000 		.4byte	0x12d
 1967 0744 D6010000 		.4byte	.LLST14
 1968 0748 25       		.uleb128 0x25
 1969 0749 6200     		.ascii	"b\000"
 1970 074b 01       		.byte	0x1
 1971 074c B3       		.byte	0xb3
 1972 074d A2000000 		.4byte	0xa2
 1973 0751 20020000 		.4byte	.LLST15
 1974 0755 26       		.uleb128 0x26
 1975 0756 06000000 		.4byte	.LBB18
 1976 075a 06000000 		.4byte	.LBE18-.LBB18
ARM GAS  /tmp/ccwQM1Rs.s 			page 36


 1977 075e 70070000 		.4byte	0x770
 1978 0762 27       		.uleb128 0x27
 1979 0763 746D7000 		.ascii	"tmp\000"
 1980 0767 01       		.byte	0x1
 1981 0768 B5       		.byte	0xb5
 1982 0769 B8000000 		.4byte	0xb8
 1983 076d 01       		.uleb128 0x1
 1984 076e 53       		.byte	0x53
 1985 076f 00       		.byte	0
 1986 0770 28       		.uleb128 0x28
 1987 0771 00000000 		.4byte	.Ldebug_ranges0+0
 1988 0775 B6070000 		.4byte	0x7b6
 1989 0779 25       		.uleb128 0x25
 1990 077a 6D736700 		.ascii	"msg\000"
 1991 077e 01       		.byte	0x1
 1992 077f BA       		.byte	0xba
 1993 0780 17010000 		.4byte	0x117
 1994 0784 3F020000 		.4byte	.LLST16
 1995 0788 26       		.uleb128 0x26
 1996 0789 58000000 		.4byte	.LBB20
 1997 078d 06000000 		.4byte	.LBE20-.LBB20
 1998 0791 A3070000 		.4byte	0x7a3
 1999 0795 27       		.uleb128 0x27
 2000 0796 746D7000 		.ascii	"tmp\000"
 2001 079a 01       		.byte	0x1
 2002 079b BC       		.byte	0xbc
 2003 079c B8000000 		.4byte	0xb8
 2004 07a0 01       		.uleb128 0x1
 2005 07a1 53       		.byte	0x53
 2006 07a2 00       		.byte	0
 2007 07a3 23       		.uleb128 0x23
 2008 07a4 1E000000 		.4byte	.LVL23
 2009 07a8 5F050000 		.4byte	0x55f
 2010 07ac 23       		.uleb128 0x23
 2011 07ad 58000000 		.4byte	.LVL31
 2012 07b1 D40C0000 		.4byte	0xcd4
 2013 07b5 00       		.byte	0
 2014 07b6 26       		.uleb128 0x26
 2015 07b7 4A000000 		.4byte	.LBB22
 2016 07bb 06000000 		.4byte	.LBE22-.LBB22
 2017 07bf D1070000 		.4byte	0x7d1
 2018 07c3 27       		.uleb128 0x27
 2019 07c4 746D7000 		.ascii	"tmp\000"
 2020 07c8 01       		.byte	0x1
 2021 07c9 C6       		.byte	0xc6
 2022 07ca B8000000 		.4byte	0xb8
 2023 07ce 01       		.uleb128 0x1
 2024 07cf 53       		.byte	0x53
 2025 07d0 00       		.byte	0
 2026 07d1 23       		.uleb128 0x23
 2027 07d2 10000000 		.4byte	.LVL20
 2028 07d6 DB0C0000 		.4byte	0xcdb
 2029 07da 29       		.uleb128 0x29
 2030 07db 18000000 		.4byte	.LVL21
 2031 07df EA070000 		.4byte	0x7ea
 2032 07e3 1D       		.uleb128 0x1d
 2033 07e4 01       		.uleb128 0x1
ARM GAS  /tmp/ccwQM1Rs.s 			page 37


 2034 07e5 50       		.byte	0x50
 2035 07e6 02       		.uleb128 0x2
 2036 07e7 74       		.byte	0x74
 2037 07e8 00       		.sleb128 0
 2038 07e9 00       		.byte	0
 2039 07ea 23       		.uleb128 0x23
 2040 07eb 4A000000 		.4byte	.LVL29
 2041 07ef D40C0000 		.4byte	0xcd4
 2042 07f3 00       		.byte	0
 2043 07f4 24       		.uleb128 0x24
 2044 07f5 57000000 		.4byte	.LASF92
 2045 07f9 01       		.byte	0x1
 2046 07fa E2       		.byte	0xe2
 2047 07fb 2C000000 		.4byte	0x2c
 2048 07ff 00000000 		.4byte	.LFB12
 2049 0803 9E000000 		.4byte	.LFE12-.LFB12
 2050 0807 01       		.uleb128 0x1
 2051 0808 9C       		.byte	0x9c
 2052 0809 1D090000 		.4byte	0x91d
 2053 080d 18       		.uleb128 0x18
 2054 080e 69717000 		.ascii	"iqp\000"
 2055 0812 01       		.byte	0x1
 2056 0813 E2       		.byte	0xe2
 2057 0814 2C060000 		.4byte	0x62c
 2058 0818 68020000 		.4byte	.LLST17
 2059 081c 18       		.uleb128 0x18
 2060 081d 627000   		.ascii	"bp\000"
 2061 0820 01       		.byte	0x1
 2062 0821 E2       		.byte	0xe2
 2063 0822 EA040000 		.4byte	0x4ea
 2064 0826 C8020000 		.4byte	.LLST18
 2065 082a 18       		.uleb128 0x18
 2066 082b 6E00     		.ascii	"n\000"
 2067 082d 01       		.byte	0x1
 2068 082e E3       		.byte	0xe3
 2069 082f 2C000000 		.4byte	0x2c
 2070 0833 42030000 		.4byte	.LLST19
 2071 0837 19       		.uleb128 0x19
 2072 0838 4A030000 		.4byte	.LASF84
 2073 083c 01       		.byte	0x1
 2074 083d E3       		.byte	0xe3
 2075 083e 2D010000 		.4byte	0x12d
 2076 0842 87030000 		.4byte	.LLST20
 2077 0846 27       		.uleb128 0x27
 2078 0847 6E667900 		.ascii	"nfy\000"
 2079 084b 01       		.byte	0x1
 2080 084c E4       		.byte	0xe4
 2081 084d C8040000 		.4byte	0x4c8
 2082 0851 01       		.uleb128 0x1
 2083 0852 58       		.byte	0x58
 2084 0853 25       		.uleb128 0x25
 2085 0854 7200     		.ascii	"r\000"
 2086 0856 01       		.byte	0x1
 2087 0857 E5       		.byte	0xe5
 2088 0858 2C000000 		.4byte	0x2c
 2089 085c E7030000 		.4byte	.LLST21
 2090 0860 26       		.uleb128 0x26
ARM GAS  /tmp/ccwQM1Rs.s 			page 38


 2091 0861 14000000 		.4byte	.LBB24
 2092 0865 06000000 		.4byte	.LBE24-.LBB24
 2093 0869 7B080000 		.4byte	0x87b
 2094 086d 27       		.uleb128 0x27
 2095 086e 746D7000 		.ascii	"tmp\000"
 2096 0872 01       		.byte	0x1
 2097 0873 E9       		.byte	0xe9
 2098 0874 B8000000 		.4byte	0xb8
 2099 0878 01       		.uleb128 0x1
 2100 0879 53       		.byte	0x53
 2101 087a 00       		.byte	0
 2102 087b 26       		.uleb128 0x26
 2103 087c 64000000 		.4byte	.LBB25
 2104 0880 06000000 		.4byte	.LBE25-.LBB25
 2105 0884 96080000 		.4byte	0x896
 2106 0888 27       		.uleb128 0x27
 2107 0889 746D7000 		.ascii	"tmp\000"
 2108 088d 01       		.byte	0x1
 2109 088e FA       		.byte	0xfa
 2110 088f B8000000 		.4byte	0xb8
 2111 0893 01       		.uleb128 0x1
 2112 0894 53       		.byte	0x53
 2113 0895 00       		.byte	0
 2114 0896 26       		.uleb128 0x26
 2115 0897 72000000 		.4byte	.LBB26
 2116 089b 06000000 		.4byte	.LBE26-.LBB26
 2117 089f B1080000 		.4byte	0x8b1
 2118 08a3 27       		.uleb128 0x27
 2119 08a4 746D7000 		.ascii	"tmp\000"
 2120 08a8 01       		.byte	0x1
 2121 08a9 FF       		.byte	0xff
 2122 08aa B8000000 		.4byte	0xb8
 2123 08ae 01       		.uleb128 0x1
 2124 08af 53       		.byte	0x53
 2125 08b0 00       		.byte	0
 2126 08b1 26       		.uleb128 0x26
 2127 08b2 84000000 		.4byte	.LBB27
 2128 08b6 06000000 		.4byte	.LBE27-.LBB27
 2129 08ba CC080000 		.4byte	0x8cc
 2130 08be 27       		.uleb128 0x27
 2131 08bf 746D7000 		.ascii	"tmp\000"
 2132 08c3 01       		.byte	0x1
 2133 08c4 F0       		.byte	0xf0
 2134 08c5 B8000000 		.4byte	0xb8
 2135 08c9 01       		.uleb128 0x1
 2136 08ca 53       		.byte	0x53
 2137 08cb 00       		.byte	0
 2138 08cc 23       		.uleb128 0x23
 2139 08cd 1E000000 		.4byte	.LVL35
 2140 08d1 DB0C0000 		.4byte	0xcdb
 2141 08d5 29       		.uleb128 0x29
 2142 08d6 32000000 		.4byte	.LVL37
 2143 08da E5080000 		.4byte	0x8e5
 2144 08de 1D       		.uleb128 0x1d
 2145 08df 01       		.uleb128 0x1
 2146 08e0 50       		.byte	0x50
 2147 08e1 02       		.uleb128 0x2
ARM GAS  /tmp/ccwQM1Rs.s 			page 39


 2148 08e2 74       		.byte	0x74
 2149 08e3 00       		.sleb128 0
 2150 08e4 00       		.byte	0
 2151 08e5 23       		.uleb128 0x23
 2152 08e6 38000000 		.4byte	.LVL39
 2153 08ea 5F050000 		.4byte	0x55f
 2154 08ee 23       		.uleb128 0x23
 2155 08ef 64000000 		.4byte	.LVL42
 2156 08f3 D40C0000 		.4byte	0xcd4
 2157 08f7 23       		.uleb128 0x23
 2158 08f8 7C000000 		.4byte	.LVL44
 2159 08fc DB0C0000 		.4byte	0xcdb
 2160 0900 23       		.uleb128 0x23
 2161 0901 84000000 		.4byte	.LVL46
 2162 0905 D40C0000 		.4byte	0xcd4
 2163 0909 2A       		.uleb128 0x2a
 2164 090a 9C000000 		.4byte	.LVL50
 2165 090e E20C0000 		.4byte	0xce2
 2166 0912 1D       		.uleb128 0x1d
 2167 0913 01       		.uleb128 0x1
 2168 0914 50       		.byte	0x50
 2169 0915 05       		.uleb128 0x5
 2170 0916 03       		.byte	0x3
 2171 0917 00000000 		.4byte	.LC0
 2172 091b 00       		.byte	0
 2173 091c 00       		.byte	0
 2174 091d 2B       		.uleb128 0x2b
 2175 091e 00000000 		.4byte	.LASF93
 2176 0922 01       		.byte	0x1
 2177 0923 1301     		.2byte	0x113
 2178 0925 00000000 		.4byte	.LFB13
 2179 0929 1C000000 		.4byte	.LFE13-.LFB13
 2180 092d 01       		.uleb128 0x1
 2181 092e 9C       		.byte	0x9c
 2182 092f 7B090000 		.4byte	0x97b
 2183 0933 2C       		.uleb128 0x2c
 2184 0934 6F717000 		.ascii	"oqp\000"
 2185 0938 01       		.byte	0x1
 2186 0939 1301     		.2byte	0x113
 2187 093b 7B090000 		.4byte	0x97b
 2188 093f 01       		.uleb128 0x1
 2189 0940 50       		.byte	0x50
 2190 0941 2C       		.uleb128 0x2c
 2191 0942 627000   		.ascii	"bp\000"
 2192 0945 01       		.byte	0x1
 2193 0946 1301     		.2byte	0x113
 2194 0948 EA040000 		.4byte	0x4ea
 2195 094c 01       		.uleb128 0x1
 2196 094d 51       		.byte	0x51
 2197 094e 2D       		.uleb128 0x2d
 2198 094f 23020000 		.4byte	.LASF85
 2199 0953 01       		.byte	0x1
 2200 0954 1301     		.2byte	0x113
 2201 0956 2C000000 		.4byte	0x2c
 2202 095a 01       		.uleb128 0x1
 2203 095b 52       		.byte	0x52
 2204 095c 2D       		.uleb128 0x2d
ARM GAS  /tmp/ccwQM1Rs.s 			page 40


 2205 095d 1C000000 		.4byte	.LASF94
 2206 0961 01       		.byte	0x1
 2207 0962 1301     		.2byte	0x113
 2208 0964 C8040000 		.4byte	0x4c8
 2209 0968 01       		.uleb128 0x1
 2210 0969 53       		.byte	0x53
 2211 096a 2E       		.uleb128 0x2e
 2212 096b C9010000 		.4byte	.LASF87
 2213 096f 01       		.byte	0x1
 2214 0970 1401     		.2byte	0x114
 2215 0972 A9020000 		.4byte	0x2a9
 2216 0976 12040000 		.4byte	.LLST22
 2217 097a 00       		.byte	0
 2218 097b 09       		.uleb128 0x9
 2219 097c 04       		.byte	0x4
 2220 097d FB040000 		.4byte	0x4fb
 2221 0981 2B       		.uleb128 0x2b
 2222 0982 5F040000 		.4byte	.LASF95
 2223 0986 01       		.byte	0x1
 2224 0987 2901     		.2byte	0x129
 2225 0989 00000000 		.4byte	.LFB14
 2226 098d 32000000 		.4byte	.LFE14-.LFB14
 2227 0991 01       		.uleb128 0x1
 2228 0992 9C       		.byte	0x9c
 2229 0993 EB090000 		.4byte	0x9eb
 2230 0997 2F       		.uleb128 0x2f
 2231 0998 6F717000 		.ascii	"oqp\000"
 2232 099c 01       		.byte	0x1
 2233 099d 2901     		.2byte	0x129
 2234 099f 7B090000 		.4byte	0x97b
 2235 09a3 32040000 		.4byte	.LLST23
 2236 09a7 30       		.uleb128 0x30
 2237 09a8 39050000 		.4byte	0x539
 2238 09ac 1E000000 		.4byte	.LBB28
 2239 09b0 06000000 		.4byte	.LBE28-.LBB28
 2240 09b4 01       		.byte	0x1
 2241 09b5 3001     		.2byte	0x130
 2242 09b7 D8090000 		.4byte	0x9d8
 2243 09bb 1B       		.uleb128 0x1b
 2244 09bc 49050000 		.4byte	0x549
 2245 09c0 50040000 		.4byte	.LLST24
 2246 09c4 21       		.uleb128 0x21
 2247 09c5 1E000000 		.4byte	.LBB29
 2248 09c9 06000000 		.4byte	.LBE29-.LBB29
 2249 09cd 22       		.uleb128 0x22
 2250 09ce 54050000 		.4byte	0x554
 2251 09d2 63040000 		.4byte	.LLST25
 2252 09d6 00       		.byte	0
 2253 09d7 00       		.byte	0
 2254 09d8 23       		.uleb128 0x23
 2255 09d9 08000000 		.4byte	.LVL54
 2256 09dd B80C0000 		.4byte	0xcb8
 2257 09e1 23       		.uleb128 0x23
 2258 09e2 28000000 		.4byte	.LVL56
 2259 09e6 BF0C0000 		.4byte	0xcbf
 2260 09ea 00       		.byte	0
 2261 09eb 31       		.uleb128 0x31
ARM GAS  /tmp/ccwQM1Rs.s 			page 41


 2262 09ec CE010000 		.4byte	.LASF96
 2263 09f0 01       		.byte	0x1
 2264 09f1 4901     		.2byte	0x149
 2265 09f3 17010000 		.4byte	0x117
 2266 09f7 00000000 		.4byte	.LFB15
 2267 09fb 6A000000 		.4byte	.LFE15-.LFB15
 2268 09ff 01       		.uleb128 0x1
 2269 0a00 9C       		.byte	0x9c
 2270 0a01 D20A0000 		.4byte	0xad2
 2271 0a05 2F       		.uleb128 0x2f
 2272 0a06 6F717000 		.ascii	"oqp\000"
 2273 0a0a 01       		.byte	0x1
 2274 0a0b 4901     		.2byte	0x149
 2275 0a0d 7B090000 		.4byte	0x97b
 2276 0a11 76040000 		.4byte	.LLST26
 2277 0a15 2F       		.uleb128 0x2f
 2278 0a16 6200     		.ascii	"b\000"
 2279 0a18 01       		.byte	0x1
 2280 0a19 4901     		.2byte	0x149
 2281 0a1b A2000000 		.4byte	0xa2
 2282 0a1f C0040000 		.4byte	.LLST27
 2283 0a23 2E       		.uleb128 0x2e
 2284 0a24 4A030000 		.4byte	.LASF84
 2285 0a28 01       		.byte	0x1
 2286 0a29 4901     		.2byte	0x149
 2287 0a2b 2D010000 		.4byte	0x12d
 2288 0a2f E1040000 		.4byte	.LLST28
 2289 0a33 28       		.uleb128 0x28
 2290 0a34 20000000 		.4byte	.Ldebug_ranges0+0x20
 2291 0a38 4B0A0000 		.4byte	0xa4b
 2292 0a3c 32       		.uleb128 0x32
 2293 0a3d 746D7000 		.ascii	"tmp\000"
 2294 0a41 01       		.byte	0x1
 2295 0a42 4B01     		.2byte	0x14b
 2296 0a44 B8000000 		.4byte	0xb8
 2297 0a48 01       		.uleb128 0x1
 2298 0a49 53       		.byte	0x53
 2299 0a4a 00       		.byte	0
 2300 0a4b 28       		.uleb128 0x28
 2301 0a4c 38000000 		.4byte	.Ldebug_ranges0+0x38
 2302 0a50 930A0000 		.4byte	0xa93
 2303 0a54 33       		.uleb128 0x33
 2304 0a55 6D736700 		.ascii	"msg\000"
 2305 0a59 01       		.byte	0x1
 2306 0a5a 4D01     		.2byte	0x14d
 2307 0a5c 17010000 		.4byte	0x117
 2308 0a60 2B050000 		.4byte	.LLST29
 2309 0a64 26       		.uleb128 0x26
 2310 0a65 5E000000 		.4byte	.LBB33
 2311 0a69 06000000 		.4byte	.LBE33-.LBB33
 2312 0a6d 800A0000 		.4byte	0xa80
 2313 0a71 32       		.uleb128 0x32
 2314 0a72 746D7000 		.ascii	"tmp\000"
 2315 0a76 01       		.byte	0x1
 2316 0a77 5001     		.2byte	0x150
 2317 0a79 B8000000 		.4byte	0xb8
 2318 0a7d 01       		.uleb128 0x1
ARM GAS  /tmp/ccwQM1Rs.s 			page 42


 2319 0a7e 53       		.byte	0x53
 2320 0a7f 00       		.byte	0
 2321 0a80 23       		.uleb128 0x23
 2322 0a81 1A000000 		.4byte	.LVL61
 2323 0a85 5F050000 		.4byte	0x55f
 2324 0a89 23       		.uleb128 0x23
 2325 0a8a 5E000000 		.4byte	.LVL68
 2326 0a8e D40C0000 		.4byte	0xcd4
 2327 0a92 00       		.byte	0
 2328 0a93 26       		.uleb128 0x26
 2329 0a94 4E000000 		.4byte	.LBB35
 2330 0a98 06000000 		.4byte	.LBE35-.LBB35
 2331 0a9c AF0A0000 		.4byte	0xaaf
 2332 0aa0 32       		.uleb128 0x32
 2333 0aa1 746D7000 		.ascii	"tmp\000"
 2334 0aa5 01       		.byte	0x1
 2335 0aa6 5D01     		.2byte	0x15d
 2336 0aa8 B8000000 		.4byte	0xb8
 2337 0aac 01       		.uleb128 0x1
 2338 0aad 53       		.byte	0x53
 2339 0aae 00       		.byte	0
 2340 0aaf 23       		.uleb128 0x23
 2341 0ab0 14000000 		.4byte	.LVL59
 2342 0ab4 DB0C0000 		.4byte	0xcdb
 2343 0ab8 29       		.uleb128 0x29
 2344 0ab9 4A000000 		.4byte	.LVL65
 2345 0abd C80A0000 		.4byte	0xac8
 2346 0ac1 1D       		.uleb128 0x1d
 2347 0ac2 01       		.uleb128 0x1
 2348 0ac3 50       		.byte	0x50
 2349 0ac4 02       		.uleb128 0x2
 2350 0ac5 74       		.byte	0x74
 2351 0ac6 00       		.sleb128 0
 2352 0ac7 00       		.byte	0
 2353 0ac8 23       		.uleb128 0x23
 2354 0ac9 4E000000 		.4byte	.LVL66
 2355 0acd D40C0000 		.4byte	0xcd4
 2356 0ad1 00       		.byte	0
 2357 0ad2 31       		.uleb128 0x31
 2358 0ad3 93010000 		.4byte	.LASF97
 2359 0ad7 01       		.byte	0x1
 2360 0ad8 6B01     		.2byte	0x16b
 2361 0ada 17010000 		.4byte	0x117
 2362 0ade 00000000 		.4byte	.LFB16
 2363 0ae2 4A000000 		.4byte	.LFE16-.LFB16
 2364 0ae6 01       		.uleb128 0x1
 2365 0ae7 9C       		.byte	0x9c
 2366 0ae8 4E0B0000 		.4byte	0xb4e
 2367 0aec 2F       		.uleb128 0x2f
 2368 0aed 6F717000 		.ascii	"oqp\000"
 2369 0af1 01       		.byte	0x1
 2370 0af2 6B01     		.2byte	0x16b
 2371 0af4 7B090000 		.4byte	0x97b
 2372 0af8 54050000 		.4byte	.LLST30
 2373 0afc 33       		.uleb128 0x33
 2374 0afd 6200     		.ascii	"b\000"
 2375 0aff 01       		.byte	0x1
ARM GAS  /tmp/ccwQM1Rs.s 			page 43


 2376 0b00 6C01     		.2byte	0x16c
 2377 0b02 A2000000 		.4byte	0xa2
 2378 0b06 72050000 		.4byte	.LLST31
 2379 0b0a 30       		.uleb128 0x30
 2380 0b0b 39050000 		.4byte	0x539
 2381 0b0f 28000000 		.4byte	.LBB37
 2382 0b13 06000000 		.4byte	.LBE37-.LBB37
 2383 0b17 01       		.byte	0x1
 2384 0b18 7901     		.2byte	0x179
 2385 0b1a 3B0B0000 		.4byte	0xb3b
 2386 0b1e 1B       		.uleb128 0x1b
 2387 0b1f 49050000 		.4byte	0x549
 2388 0b23 B4050000 		.4byte	.LLST32
 2389 0b27 21       		.uleb128 0x21
 2390 0b28 28000000 		.4byte	.LBB38
 2391 0b2c 06000000 		.4byte	.LBE38-.LBB38
 2392 0b30 22       		.uleb128 0x22
 2393 0b31 54050000 		.4byte	0x554
 2394 0b35 C7050000 		.4byte	.LLST33
 2395 0b39 00       		.byte	0
 2396 0b3a 00       		.byte	0
 2397 0b3b 23       		.uleb128 0x23
 2398 0b3c 08000000 		.4byte	.LVL70
 2399 0b40 B80C0000 		.4byte	0xcb8
 2400 0b44 23       		.uleb128 0x23
 2401 0b45 32000000 		.4byte	.LVL74
 2402 0b49 BF0C0000 		.4byte	0xcbf
 2403 0b4d 00       		.byte	0
 2404 0b4e 31       		.uleb128 0x31
 2405 0b4f A3020000 		.4byte	.LASF98
 2406 0b53 01       		.byte	0x1
 2407 0b54 9601     		.2byte	0x196
 2408 0b56 2C000000 		.4byte	0x2c
 2409 0b5a 00000000 		.4byte	.LFB17
 2410 0b5e 98000000 		.4byte	.LFE17-.LFB17
 2411 0b62 01       		.uleb128 0x1
 2412 0b63 9C       		.byte	0x9c
 2413 0b64 930C0000 		.4byte	0xc93
 2414 0b68 2F       		.uleb128 0x2f
 2415 0b69 6F717000 		.ascii	"oqp\000"
 2416 0b6d 01       		.byte	0x1
 2417 0b6e 9601     		.2byte	0x196
 2418 0b70 7B090000 		.4byte	0x97b
 2419 0b74 DA050000 		.4byte	.LLST34
 2420 0b78 2F       		.uleb128 0x2f
 2421 0b79 627000   		.ascii	"bp\000"
 2422 0b7c 01       		.byte	0x1
 2423 0b7d 9601     		.2byte	0x196
 2424 0b7f 06050000 		.4byte	0x506
 2425 0b83 3A060000 		.4byte	.LLST35
 2426 0b87 2F       		.uleb128 0x2f
 2427 0b88 6E00     		.ascii	"n\000"
 2428 0b8a 01       		.byte	0x1
 2429 0b8b 9701     		.2byte	0x197
 2430 0b8d 2C000000 		.4byte	0x2c
 2431 0b91 79060000 		.4byte	.LLST36
 2432 0b95 2E       		.uleb128 0x2e
ARM GAS  /tmp/ccwQM1Rs.s 			page 44


 2433 0b96 4A030000 		.4byte	.LASF84
 2434 0b9a 01       		.byte	0x1
 2435 0b9b 9701     		.2byte	0x197
 2436 0b9d 2D010000 		.4byte	0x12d
 2437 0ba1 C5060000 		.4byte	.LLST37
 2438 0ba5 32       		.uleb128 0x32
 2439 0ba6 6E667900 		.ascii	"nfy\000"
 2440 0baa 01       		.byte	0x1
 2441 0bab 9801     		.2byte	0x198
 2442 0bad C8040000 		.4byte	0x4c8
 2443 0bb1 01       		.uleb128 0x1
 2444 0bb2 5A       		.byte	0x5a
 2445 0bb3 33       		.uleb128 0x33
 2446 0bb4 7700     		.ascii	"w\000"
 2447 0bb6 01       		.byte	0x1
 2448 0bb7 9901     		.2byte	0x199
 2449 0bb9 2C000000 		.4byte	0x2c
 2450 0bbd F9060000 		.4byte	.LLST38
 2451 0bc1 26       		.uleb128 0x26
 2452 0bc2 14000000 		.4byte	.LBB39
 2453 0bc6 06000000 		.4byte	.LBE39-.LBB39
 2454 0bca DD0B0000 		.4byte	0xbdd
 2455 0bce 32       		.uleb128 0x32
 2456 0bcf 746D7000 		.ascii	"tmp\000"
 2457 0bd3 01       		.byte	0x1
 2458 0bd4 9D01     		.2byte	0x19d
 2459 0bd6 B8000000 		.4byte	0xb8
 2460 0bda 01       		.uleb128 0x1
 2461 0bdb 53       		.byte	0x53
 2462 0bdc 00       		.byte	0
 2463 0bdd 26       		.uleb128 0x26
 2464 0bde 52000000 		.4byte	.LBB40
 2465 0be2 06000000 		.4byte	.LBE40-.LBB40
 2466 0be6 F90B0000 		.4byte	0xbf9
 2467 0bea 32       		.uleb128 0x32
 2468 0beb 746D7000 		.ascii	"tmp\000"
 2469 0bef 01       		.byte	0x1
 2470 0bf0 AD01     		.2byte	0x1ad
 2471 0bf2 B8000000 		.4byte	0xb8
 2472 0bf6 01       		.uleb128 0x1
 2473 0bf7 53       		.byte	0x53
 2474 0bf8 00       		.byte	0
 2475 0bf9 26       		.uleb128 0x26
 2476 0bfa 60000000 		.4byte	.LBB41
 2477 0bfe 06000000 		.4byte	.LBE41-.LBB41
 2478 0c02 150C0000 		.4byte	0xc15
 2479 0c06 32       		.uleb128 0x32
 2480 0c07 746D7000 		.ascii	"tmp\000"
 2481 0c0b 01       		.byte	0x1
 2482 0c0c B101     		.2byte	0x1b1
 2483 0c0e B8000000 		.4byte	0xb8
 2484 0c12 01       		.uleb128 0x1
 2485 0c13 53       		.byte	0x53
 2486 0c14 00       		.byte	0
 2487 0c15 26       		.uleb128 0x26
 2488 0c16 7E000000 		.4byte	.LBB42
 2489 0c1a 06000000 		.4byte	.LBE42-.LBB42
ARM GAS  /tmp/ccwQM1Rs.s 			page 45


 2490 0c1e 310C0000 		.4byte	0xc31
 2491 0c22 32       		.uleb128 0x32
 2492 0c23 746D7000 		.ascii	"tmp\000"
 2493 0c27 01       		.byte	0x1
 2494 0c28 A101     		.2byte	0x1a1
 2495 0c2a B8000000 		.4byte	0xb8
 2496 0c2e 01       		.uleb128 0x1
 2497 0c2f 53       		.byte	0x53
 2498 0c30 00       		.byte	0
 2499 0c31 23       		.uleb128 0x23
 2500 0c32 1E000000 		.4byte	.LVL83
 2501 0c36 DB0C0000 		.4byte	0xcdb
 2502 0c3a 29       		.uleb128 0x29
 2503 0c3b 4E000000 		.4byte	.LVL87
 2504 0c3f 4A0C0000 		.4byte	0xc4a
 2505 0c43 1D       		.uleb128 0x1d
 2506 0c44 01       		.uleb128 0x1
 2507 0c45 50       		.byte	0x50
 2508 0c46 02       		.uleb128 0x2
 2509 0c47 74       		.byte	0x74
 2510 0c48 00       		.sleb128 0
 2511 0c49 00       		.byte	0
 2512 0c4a 23       		.uleb128 0x23
 2513 0c4b 52000000 		.4byte	.LVL88
 2514 0c4f D40C0000 		.4byte	0xcd4
 2515 0c53 23       		.uleb128 0x23
 2516 0c54 6A000000 		.4byte	.LVL91
 2517 0c58 DB0C0000 		.4byte	0xcdb
 2518 0c5c 34       		.uleb128 0x34
 2519 0c5d 76000000 		.4byte	.LVL94
 2520 0c61 5F050000 		.4byte	0x55f
 2521 0c65 760C0000 		.4byte	0xc76
 2522 0c69 1D       		.uleb128 0x1d
 2523 0c6a 01       		.uleb128 0x1
 2524 0c6b 51       		.byte	0x51
 2525 0c6c 02       		.uleb128 0x2
 2526 0c6d 7B       		.byte	0x7b
 2527 0c6e 00       		.sleb128 0
 2528 0c6f 1D       		.uleb128 0x1d
 2529 0c70 01       		.uleb128 0x1
 2530 0c71 50       		.byte	0x50
 2531 0c72 02       		.uleb128 0x2
 2532 0c73 74       		.byte	0x74
 2533 0c74 00       		.sleb128 0
 2534 0c75 00       		.byte	0
 2535 0c76 23       		.uleb128 0x23
 2536 0c77 7E000000 		.4byte	.LVL95
 2537 0c7b D40C0000 		.4byte	0xcd4
 2538 0c7f 2A       		.uleb128 0x2a
 2539 0c80 96000000 		.4byte	.LVL99
 2540 0c84 E20C0000 		.4byte	0xce2
 2541 0c88 1D       		.uleb128 0x1d
 2542 0c89 01       		.uleb128 0x1
 2543 0c8a 50       		.byte	0x50
 2544 0c8b 05       		.uleb128 0x5
 2545 0c8c 03       		.byte	0x3
 2546 0c8d 14000000 		.4byte	.LC1
ARM GAS  /tmp/ccwQM1Rs.s 			page 46


 2547 0c91 00       		.byte	0
 2548 0c92 00       		.byte	0
 2549 0c93 35       		.uleb128 0x35
 2550 0c94 C5040000 		.4byte	.LASF110
 2551 0c98 0A       		.byte	0xa
 2552 0c99 6F       		.byte	0x6f
 2553 0c9a B0030000 		.4byte	0x3b0
 2554 0c9e 36       		.uleb128 0x36
 2555 0c9f E1040000 		.4byte	.LASF99
 2556 0ca3 0A       		.byte	0xa
 2557 0ca4 96       		.byte	0x96
 2558 0ca5 17010000 		.4byte	0x117
 2559 0ca9 B80C0000 		.4byte	0xcb8
 2560 0cad 12       		.uleb128 0x12
 2561 0cae EB000000 		.4byte	0xeb
 2562 0cb2 12       		.uleb128 0x12
 2563 0cb3 2D010000 		.4byte	0x12d
 2564 0cb7 00       		.byte	0
 2565 0cb8 37       		.uleb128 0x37
 2566 0cb9 49020000 		.4byte	.LASF101
 2567 0cbd 0D       		.byte	0xd
 2568 0cbe ED       		.byte	0xed
 2569 0cbf 36       		.uleb128 0x36
 2570 0cc0 1C040000 		.4byte	.LASF100
 2571 0cc4 0A       		.byte	0xa
 2572 0cc5 90       		.byte	0x90
 2573 0cc6 6D020000 		.4byte	0x26d
 2574 0cca D40C0000 		.4byte	0xcd4
 2575 0cce 12       		.uleb128 0x12
 2576 0ccf 6D020000 		.4byte	0x26d
 2577 0cd3 00       		.byte	0
 2578 0cd4 37       		.uleb128 0x37
 2579 0cd5 B4020000 		.4byte	.LASF102
 2580 0cd9 0D       		.byte	0xd
 2581 0cda E8       		.byte	0xe8
 2582 0cdb 37       		.uleb128 0x37
 2583 0cdc D8020000 		.4byte	.LASF103
 2584 0ce0 0D       		.byte	0xd
 2585 0ce1 E7       		.byte	0xe7
 2586 0ce2 38       		.uleb128 0x38
 2587 0ce3 24010000 		.4byte	.LASF111
 2588 0ce7 0D       		.byte	0xd
 2589 0ce8 F6       		.byte	0xf6
 2590 0ce9 12       		.uleb128 0x12
 2591 0cea 32040000 		.4byte	0x432
 2592 0cee 00       		.byte	0
 2593 0cef 00       		.byte	0
 2594              		.section	.debug_abbrev,"",%progbits
 2595              	.Ldebug_abbrev0:
 2596 0000 01       		.uleb128 0x1
 2597 0001 11       		.uleb128 0x11
 2598 0002 01       		.byte	0x1
 2599 0003 25       		.uleb128 0x25
 2600 0004 0E       		.uleb128 0xe
 2601 0005 13       		.uleb128 0x13
 2602 0006 0B       		.uleb128 0xb
 2603 0007 03       		.uleb128 0x3
ARM GAS  /tmp/ccwQM1Rs.s 			page 47


 2604 0008 0E       		.uleb128 0xe
 2605 0009 1B       		.uleb128 0x1b
 2606 000a 0E       		.uleb128 0xe
 2607 000b 55       		.uleb128 0x55
 2608 000c 17       		.uleb128 0x17
 2609 000d 11       		.uleb128 0x11
 2610 000e 01       		.uleb128 0x1
 2611 000f 10       		.uleb128 0x10
 2612 0010 17       		.uleb128 0x17
 2613 0011 00       		.byte	0
 2614 0012 00       		.byte	0
 2615 0013 02       		.uleb128 0x2
 2616 0014 24       		.uleb128 0x24
 2617 0015 00       		.byte	0
 2618 0016 0B       		.uleb128 0xb
 2619 0017 0B       		.uleb128 0xb
 2620 0018 3E       		.uleb128 0x3e
 2621 0019 0B       		.uleb128 0xb
 2622 001a 03       		.uleb128 0x3
 2623 001b 08       		.uleb128 0x8
 2624 001c 00       		.byte	0
 2625 001d 00       		.byte	0
 2626 001e 03       		.uleb128 0x3
 2627 001f 16       		.uleb128 0x16
 2628 0020 00       		.byte	0
 2629 0021 03       		.uleb128 0x3
 2630 0022 0E       		.uleb128 0xe
 2631 0023 3A       		.uleb128 0x3a
 2632 0024 0B       		.uleb128 0xb
 2633 0025 3B       		.uleb128 0x3b
 2634 0026 0B       		.uleb128 0xb
 2635 0027 49       		.uleb128 0x49
 2636 0028 13       		.uleb128 0x13
 2637 0029 00       		.byte	0
 2638 002a 00       		.byte	0
 2639 002b 04       		.uleb128 0x4
 2640 002c 24       		.uleb128 0x24
 2641 002d 00       		.byte	0
 2642 002e 0B       		.uleb128 0xb
 2643 002f 0B       		.uleb128 0xb
 2644 0030 3E       		.uleb128 0x3e
 2645 0031 0B       		.uleb128 0xb
 2646 0032 03       		.uleb128 0x3
 2647 0033 0E       		.uleb128 0xe
 2648 0034 00       		.byte	0
 2649 0035 00       		.byte	0
 2650 0036 05       		.uleb128 0x5
 2651 0037 13       		.uleb128 0x13
 2652 0038 01       		.byte	0x1
 2653 0039 03       		.uleb128 0x3
 2654 003a 0E       		.uleb128 0xe
 2655 003b 0B       		.uleb128 0xb
 2656 003c 0B       		.uleb128 0xb
 2657 003d 3A       		.uleb128 0x3a
 2658 003e 0B       		.uleb128 0xb
 2659 003f 3B       		.uleb128 0x3b
 2660 0040 0B       		.uleb128 0xb
ARM GAS  /tmp/ccwQM1Rs.s 			page 48


 2661 0041 01       		.uleb128 0x1
 2662 0042 13       		.uleb128 0x13
 2663 0043 00       		.byte	0
 2664 0044 00       		.byte	0
 2665 0045 06       		.uleb128 0x6
 2666 0046 0D       		.uleb128 0xd
 2667 0047 00       		.byte	0
 2668 0048 03       		.uleb128 0x3
 2669 0049 0E       		.uleb128 0xe
 2670 004a 3A       		.uleb128 0x3a
 2671 004b 0B       		.uleb128 0xb
 2672 004c 3B       		.uleb128 0x3b
 2673 004d 0B       		.uleb128 0xb
 2674 004e 49       		.uleb128 0x49
 2675 004f 13       		.uleb128 0x13
 2676 0050 38       		.uleb128 0x38
 2677 0051 0B       		.uleb128 0xb
 2678 0052 00       		.byte	0
 2679 0053 00       		.byte	0
 2680 0054 07       		.uleb128 0x7
 2681 0055 0D       		.uleb128 0xd
 2682 0056 00       		.byte	0
 2683 0057 03       		.uleb128 0x3
 2684 0058 08       		.uleb128 0x8
 2685 0059 3A       		.uleb128 0x3a
 2686 005a 0B       		.uleb128 0xb
 2687 005b 3B       		.uleb128 0x3b
 2688 005c 0B       		.uleb128 0xb
 2689 005d 49       		.uleb128 0x49
 2690 005e 13       		.uleb128 0x13
 2691 005f 38       		.uleb128 0x38
 2692 0060 0B       		.uleb128 0xb
 2693 0061 00       		.byte	0
 2694 0062 00       		.byte	0
 2695 0063 08       		.uleb128 0x8
 2696 0064 13       		.uleb128 0x13
 2697 0065 01       		.byte	0x1
 2698 0066 0B       		.uleb128 0xb
 2699 0067 0B       		.uleb128 0xb
 2700 0068 3A       		.uleb128 0x3a
 2701 0069 0B       		.uleb128 0xb
 2702 006a 3B       		.uleb128 0x3b
 2703 006b 0B       		.uleb128 0xb
 2704 006c 01       		.uleb128 0x1
 2705 006d 13       		.uleb128 0x13
 2706 006e 00       		.byte	0
 2707 006f 00       		.byte	0
 2708 0070 09       		.uleb128 0x9
 2709 0071 0F       		.uleb128 0xf
 2710 0072 00       		.byte	0
 2711 0073 0B       		.uleb128 0xb
 2712 0074 0B       		.uleb128 0xb
 2713 0075 49       		.uleb128 0x49
 2714 0076 13       		.uleb128 0x13
 2715 0077 00       		.byte	0
 2716 0078 00       		.byte	0
 2717 0079 0A       		.uleb128 0xa
ARM GAS  /tmp/ccwQM1Rs.s 			page 49


 2718 007a 0F       		.uleb128 0xf
 2719 007b 00       		.byte	0
 2720 007c 0B       		.uleb128 0xb
 2721 007d 0B       		.uleb128 0xb
 2722 007e 00       		.byte	0
 2723 007f 00       		.byte	0
 2724 0080 0B       		.uleb128 0xb
 2725 0081 13       		.uleb128 0x13
 2726 0082 01       		.byte	0x1
 2727 0083 03       		.uleb128 0x3
 2728 0084 0E       		.uleb128 0xe
 2729 0085 0B       		.uleb128 0xb
 2730 0086 0B       		.uleb128 0xb
 2731 0087 3A       		.uleb128 0x3a
 2732 0088 0B       		.uleb128 0xb
 2733 0089 3B       		.uleb128 0x3b
 2734 008a 05       		.uleb128 0x5
 2735 008b 01       		.uleb128 0x1
 2736 008c 13       		.uleb128 0x13
 2737 008d 00       		.byte	0
 2738 008e 00       		.byte	0
 2739 008f 0C       		.uleb128 0xc
 2740 0090 0D       		.uleb128 0xd
 2741 0091 00       		.byte	0
 2742 0092 03       		.uleb128 0x3
 2743 0093 08       		.uleb128 0x8
 2744 0094 3A       		.uleb128 0x3a
 2745 0095 0B       		.uleb128 0xb
 2746 0096 3B       		.uleb128 0x3b
 2747 0097 05       		.uleb128 0x5
 2748 0098 49       		.uleb128 0x49
 2749 0099 13       		.uleb128 0x13
 2750 009a 38       		.uleb128 0x38
 2751 009b 0B       		.uleb128 0xb
 2752 009c 00       		.byte	0
 2753 009d 00       		.byte	0
 2754 009e 0D       		.uleb128 0xd
 2755 009f 35       		.uleb128 0x35
 2756 00a0 00       		.byte	0
 2757 00a1 49       		.uleb128 0x49
 2758 00a2 13       		.uleb128 0x13
 2759 00a3 00       		.byte	0
 2760 00a4 00       		.byte	0
 2761 00a5 0E       		.uleb128 0xe
 2762 00a6 17       		.uleb128 0x17
 2763 00a7 01       		.byte	0x1
 2764 00a8 0B       		.uleb128 0xb
 2765 00a9 0B       		.uleb128 0xb
 2766 00aa 3A       		.uleb128 0x3a
 2767 00ab 0B       		.uleb128 0xb
 2768 00ac 3B       		.uleb128 0x3b
 2769 00ad 0B       		.uleb128 0xb
 2770 00ae 01       		.uleb128 0x1
 2771 00af 13       		.uleb128 0x13
 2772 00b0 00       		.byte	0
 2773 00b1 00       		.byte	0
 2774 00b2 0F       		.uleb128 0xf
ARM GAS  /tmp/ccwQM1Rs.s 			page 50


 2775 00b3 0D       		.uleb128 0xd
 2776 00b4 00       		.byte	0
 2777 00b5 03       		.uleb128 0x3
 2778 00b6 0E       		.uleb128 0xe
 2779 00b7 3A       		.uleb128 0x3a
 2780 00b8 0B       		.uleb128 0xb
 2781 00b9 3B       		.uleb128 0x3b
 2782 00ba 0B       		.uleb128 0xb
 2783 00bb 49       		.uleb128 0x49
 2784 00bc 13       		.uleb128 0x13
 2785 00bd 00       		.byte	0
 2786 00be 00       		.byte	0
 2787 00bf 10       		.uleb128 0x10
 2788 00c0 26       		.uleb128 0x26
 2789 00c1 00       		.byte	0
 2790 00c2 49       		.uleb128 0x49
 2791 00c3 13       		.uleb128 0x13
 2792 00c4 00       		.byte	0
 2793 00c5 00       		.byte	0
 2794 00c6 11       		.uleb128 0x11
 2795 00c7 15       		.uleb128 0x15
 2796 00c8 01       		.byte	0x1
 2797 00c9 27       		.uleb128 0x27
 2798 00ca 19       		.uleb128 0x19
 2799 00cb 01       		.uleb128 0x1
 2800 00cc 13       		.uleb128 0x13
 2801 00cd 00       		.byte	0
 2802 00ce 00       		.byte	0
 2803 00cf 12       		.uleb128 0x12
 2804 00d0 05       		.uleb128 0x5
 2805 00d1 00       		.byte	0
 2806 00d2 49       		.uleb128 0x49
 2807 00d3 13       		.uleb128 0x13
 2808 00d4 00       		.byte	0
 2809 00d5 00       		.byte	0
 2810 00d6 13       		.uleb128 0x13
 2811 00d7 2E       		.uleb128 0x2e
 2812 00d8 01       		.byte	0x1
 2813 00d9 03       		.uleb128 0x3
 2814 00da 0E       		.uleb128 0xe
 2815 00db 3A       		.uleb128 0x3a
 2816 00dc 0B       		.uleb128 0xb
 2817 00dd 3B       		.uleb128 0x3b
 2818 00de 0B       		.uleb128 0xb
 2819 00df 27       		.uleb128 0x27
 2820 00e0 19       		.uleb128 0x19
 2821 00e1 20       		.uleb128 0x20
 2822 00e2 0B       		.uleb128 0xb
 2823 00e3 01       		.uleb128 0x1
 2824 00e4 13       		.uleb128 0x13
 2825 00e5 00       		.byte	0
 2826 00e6 00       		.byte	0
 2827 00e7 14       		.uleb128 0x14
 2828 00e8 05       		.uleb128 0x5
 2829 00e9 00       		.byte	0
 2830 00ea 03       		.uleb128 0x3
 2831 00eb 08       		.uleb128 0x8
ARM GAS  /tmp/ccwQM1Rs.s 			page 51


 2832 00ec 3A       		.uleb128 0x3a
 2833 00ed 0B       		.uleb128 0xb
 2834 00ee 3B       		.uleb128 0x3b
 2835 00ef 0B       		.uleb128 0xb
 2836 00f0 49       		.uleb128 0x49
 2837 00f1 13       		.uleb128 0x13
 2838 00f2 00       		.byte	0
 2839 00f3 00       		.byte	0
 2840 00f4 15       		.uleb128 0x15
 2841 00f5 2E       		.uleb128 0x2e
 2842 00f6 01       		.byte	0x1
 2843 00f7 03       		.uleb128 0x3
 2844 00f8 0E       		.uleb128 0xe
 2845 00f9 3A       		.uleb128 0x3a
 2846 00fa 0B       		.uleb128 0xb
 2847 00fb 3B       		.uleb128 0x3b
 2848 00fc 0B       		.uleb128 0xb
 2849 00fd 27       		.uleb128 0x27
 2850 00fe 19       		.uleb128 0x19
 2851 00ff 49       		.uleb128 0x49
 2852 0100 13       		.uleb128 0x13
 2853 0101 20       		.uleb128 0x20
 2854 0102 0B       		.uleb128 0xb
 2855 0103 01       		.uleb128 0x1
 2856 0104 13       		.uleb128 0x13
 2857 0105 00       		.byte	0
 2858 0106 00       		.byte	0
 2859 0107 16       		.uleb128 0x16
 2860 0108 34       		.uleb128 0x34
 2861 0109 00       		.byte	0
 2862 010a 03       		.uleb128 0x3
 2863 010b 08       		.uleb128 0x8
 2864 010c 3A       		.uleb128 0x3a
 2865 010d 0B       		.uleb128 0xb
 2866 010e 3B       		.uleb128 0x3b
 2867 010f 0B       		.uleb128 0xb
 2868 0110 49       		.uleb128 0x49
 2869 0111 13       		.uleb128 0x13
 2870 0112 00       		.byte	0
 2871 0113 00       		.byte	0
 2872 0114 17       		.uleb128 0x17
 2873 0115 2E       		.uleb128 0x2e
 2874 0116 01       		.byte	0x1
 2875 0117 03       		.uleb128 0x3
 2876 0118 0E       		.uleb128 0xe
 2877 0119 3A       		.uleb128 0x3a
 2878 011a 0B       		.uleb128 0xb
 2879 011b 3B       		.uleb128 0x3b
 2880 011c 0B       		.uleb128 0xb
 2881 011d 27       		.uleb128 0x27
 2882 011e 19       		.uleb128 0x19
 2883 011f 49       		.uleb128 0x49
 2884 0120 13       		.uleb128 0x13
 2885 0121 11       		.uleb128 0x11
 2886 0122 01       		.uleb128 0x1
 2887 0123 12       		.uleb128 0x12
 2888 0124 06       		.uleb128 0x6
ARM GAS  /tmp/ccwQM1Rs.s 			page 52


 2889 0125 40       		.uleb128 0x40
 2890 0126 18       		.uleb128 0x18
 2891 0127 9742     		.uleb128 0x2117
 2892 0129 19       		.uleb128 0x19
 2893 012a 01       		.uleb128 0x1
 2894 012b 13       		.uleb128 0x13
 2895 012c 00       		.byte	0
 2896 012d 00       		.byte	0
 2897 012e 18       		.uleb128 0x18
 2898 012f 05       		.uleb128 0x5
 2899 0130 00       		.byte	0
 2900 0131 03       		.uleb128 0x3
 2901 0132 08       		.uleb128 0x8
 2902 0133 3A       		.uleb128 0x3a
 2903 0134 0B       		.uleb128 0xb
 2904 0135 3B       		.uleb128 0x3b
 2905 0136 0B       		.uleb128 0xb
 2906 0137 49       		.uleb128 0x49
 2907 0138 13       		.uleb128 0x13
 2908 0139 02       		.uleb128 0x2
 2909 013a 17       		.uleb128 0x17
 2910 013b 00       		.byte	0
 2911 013c 00       		.byte	0
 2912 013d 19       		.uleb128 0x19
 2913 013e 05       		.uleb128 0x5
 2914 013f 00       		.byte	0
 2915 0140 03       		.uleb128 0x3
 2916 0141 0E       		.uleb128 0xe
 2917 0142 3A       		.uleb128 0x3a
 2918 0143 0B       		.uleb128 0xb
 2919 0144 3B       		.uleb128 0x3b
 2920 0145 0B       		.uleb128 0xb
 2921 0146 49       		.uleb128 0x49
 2922 0147 13       		.uleb128 0x13
 2923 0148 02       		.uleb128 0x2
 2924 0149 17       		.uleb128 0x17
 2925 014a 00       		.byte	0
 2926 014b 00       		.byte	0
 2927 014c 1A       		.uleb128 0x1a
 2928 014d 1D       		.uleb128 0x1d
 2929 014e 01       		.byte	0x1
 2930 014f 31       		.uleb128 0x31
 2931 0150 13       		.uleb128 0x13
 2932 0151 11       		.uleb128 0x11
 2933 0152 01       		.uleb128 0x1
 2934 0153 12       		.uleb128 0x12
 2935 0154 06       		.uleb128 0x6
 2936 0155 58       		.uleb128 0x58
 2937 0156 0B       		.uleb128 0xb
 2938 0157 59       		.uleb128 0x59
 2939 0158 0B       		.uleb128 0xb
 2940 0159 01       		.uleb128 0x1
 2941 015a 13       		.uleb128 0x13
 2942 015b 00       		.byte	0
 2943 015c 00       		.byte	0
 2944 015d 1B       		.uleb128 0x1b
 2945 015e 05       		.uleb128 0x5
ARM GAS  /tmp/ccwQM1Rs.s 			page 53


 2946 015f 00       		.byte	0
 2947 0160 31       		.uleb128 0x31
 2948 0161 13       		.uleb128 0x13
 2949 0162 02       		.uleb128 0x2
 2950 0163 17       		.uleb128 0x17
 2951 0164 00       		.byte	0
 2952 0165 00       		.byte	0
 2953 0166 1C       		.uleb128 0x1c
 2954 0167 898201   		.uleb128 0x4109
 2955 016a 01       		.byte	0x1
 2956 016b 11       		.uleb128 0x11
 2957 016c 01       		.uleb128 0x1
 2958 016d 9542     		.uleb128 0x2115
 2959 016f 19       		.uleb128 0x19
 2960 0170 31       		.uleb128 0x31
 2961 0171 13       		.uleb128 0x13
 2962 0172 00       		.byte	0
 2963 0173 00       		.byte	0
 2964 0174 1D       		.uleb128 0x1d
 2965 0175 8A8201   		.uleb128 0x410a
 2966 0178 00       		.byte	0
 2967 0179 02       		.uleb128 0x2
 2968 017a 18       		.uleb128 0x18
 2969 017b 9142     		.uleb128 0x2111
 2970 017d 18       		.uleb128 0x18
 2971 017e 00       		.byte	0
 2972 017f 00       		.byte	0
 2973 0180 1E       		.uleb128 0x1e
 2974 0181 2E       		.uleb128 0x2e
 2975 0182 01       		.byte	0x1
 2976 0183 3F       		.uleb128 0x3f
 2977 0184 19       		.uleb128 0x19
 2978 0185 03       		.uleb128 0x3
 2979 0186 0E       		.uleb128 0xe
 2980 0187 3A       		.uleb128 0x3a
 2981 0188 0B       		.uleb128 0xb
 2982 0189 3B       		.uleb128 0x3b
 2983 018a 0B       		.uleb128 0xb
 2984 018b 27       		.uleb128 0x27
 2985 018c 19       		.uleb128 0x19
 2986 018d 11       		.uleb128 0x11
 2987 018e 01       		.uleb128 0x1
 2988 018f 12       		.uleb128 0x12
 2989 0190 06       		.uleb128 0x6
 2990 0191 40       		.uleb128 0x40
 2991 0192 18       		.uleb128 0x18
 2992 0193 9742     		.uleb128 0x2117
 2993 0195 19       		.uleb128 0x19
 2994 0196 01       		.uleb128 0x1
 2995 0197 13       		.uleb128 0x13
 2996 0198 00       		.byte	0
 2997 0199 00       		.byte	0
 2998 019a 1F       		.uleb128 0x1f
 2999 019b 05       		.uleb128 0x5
 3000 019c 00       		.byte	0
 3001 019d 03       		.uleb128 0x3
 3002 019e 08       		.uleb128 0x8
ARM GAS  /tmp/ccwQM1Rs.s 			page 54


 3003 019f 3A       		.uleb128 0x3a
 3004 01a0 0B       		.uleb128 0xb
 3005 01a1 3B       		.uleb128 0x3b
 3006 01a2 0B       		.uleb128 0xb
 3007 01a3 49       		.uleb128 0x49
 3008 01a4 13       		.uleb128 0x13
 3009 01a5 02       		.uleb128 0x2
 3010 01a6 18       		.uleb128 0x18
 3011 01a7 00       		.byte	0
 3012 01a8 00       		.byte	0
 3013 01a9 20       		.uleb128 0x20
 3014 01aa 05       		.uleb128 0x5
 3015 01ab 00       		.byte	0
 3016 01ac 03       		.uleb128 0x3
 3017 01ad 0E       		.uleb128 0xe
 3018 01ae 3A       		.uleb128 0x3a
 3019 01af 0B       		.uleb128 0xb
 3020 01b0 3B       		.uleb128 0x3b
 3021 01b1 0B       		.uleb128 0xb
 3022 01b2 49       		.uleb128 0x49
 3023 01b3 13       		.uleb128 0x13
 3024 01b4 02       		.uleb128 0x2
 3025 01b5 18       		.uleb128 0x18
 3026 01b6 00       		.byte	0
 3027 01b7 00       		.byte	0
 3028 01b8 21       		.uleb128 0x21
 3029 01b9 0B       		.uleb128 0xb
 3030 01ba 01       		.byte	0x1
 3031 01bb 11       		.uleb128 0x11
 3032 01bc 01       		.uleb128 0x1
 3033 01bd 12       		.uleb128 0x12
 3034 01be 06       		.uleb128 0x6
 3035 01bf 00       		.byte	0
 3036 01c0 00       		.byte	0
 3037 01c1 22       		.uleb128 0x22
 3038 01c2 34       		.uleb128 0x34
 3039 01c3 00       		.byte	0
 3040 01c4 31       		.uleb128 0x31
 3041 01c5 13       		.uleb128 0x13
 3042 01c6 02       		.uleb128 0x2
 3043 01c7 17       		.uleb128 0x17
 3044 01c8 00       		.byte	0
 3045 01c9 00       		.byte	0
 3046 01ca 23       		.uleb128 0x23
 3047 01cb 898201   		.uleb128 0x4109
 3048 01ce 00       		.byte	0
 3049 01cf 11       		.uleb128 0x11
 3050 01d0 01       		.uleb128 0x1
 3051 01d1 31       		.uleb128 0x31
 3052 01d2 13       		.uleb128 0x13
 3053 01d3 00       		.byte	0
 3054 01d4 00       		.byte	0
 3055 01d5 24       		.uleb128 0x24
 3056 01d6 2E       		.uleb128 0x2e
 3057 01d7 01       		.byte	0x1
 3058 01d8 3F       		.uleb128 0x3f
 3059 01d9 19       		.uleb128 0x19
ARM GAS  /tmp/ccwQM1Rs.s 			page 55


 3060 01da 03       		.uleb128 0x3
 3061 01db 0E       		.uleb128 0xe
 3062 01dc 3A       		.uleb128 0x3a
 3063 01dd 0B       		.uleb128 0xb
 3064 01de 3B       		.uleb128 0x3b
 3065 01df 0B       		.uleb128 0xb
 3066 01e0 27       		.uleb128 0x27
 3067 01e1 19       		.uleb128 0x19
 3068 01e2 49       		.uleb128 0x49
 3069 01e3 13       		.uleb128 0x13
 3070 01e4 11       		.uleb128 0x11
 3071 01e5 01       		.uleb128 0x1
 3072 01e6 12       		.uleb128 0x12
 3073 01e7 06       		.uleb128 0x6
 3074 01e8 40       		.uleb128 0x40
 3075 01e9 18       		.uleb128 0x18
 3076 01ea 9742     		.uleb128 0x2117
 3077 01ec 19       		.uleb128 0x19
 3078 01ed 01       		.uleb128 0x1
 3079 01ee 13       		.uleb128 0x13
 3080 01ef 00       		.byte	0
 3081 01f0 00       		.byte	0
 3082 01f1 25       		.uleb128 0x25
 3083 01f2 34       		.uleb128 0x34
 3084 01f3 00       		.byte	0
 3085 01f4 03       		.uleb128 0x3
 3086 01f5 08       		.uleb128 0x8
 3087 01f6 3A       		.uleb128 0x3a
 3088 01f7 0B       		.uleb128 0xb
 3089 01f8 3B       		.uleb128 0x3b
 3090 01f9 0B       		.uleb128 0xb
 3091 01fa 49       		.uleb128 0x49
 3092 01fb 13       		.uleb128 0x13
 3093 01fc 02       		.uleb128 0x2
 3094 01fd 17       		.uleb128 0x17
 3095 01fe 00       		.byte	0
 3096 01ff 00       		.byte	0
 3097 0200 26       		.uleb128 0x26
 3098 0201 0B       		.uleb128 0xb
 3099 0202 01       		.byte	0x1
 3100 0203 11       		.uleb128 0x11
 3101 0204 01       		.uleb128 0x1
 3102 0205 12       		.uleb128 0x12
 3103 0206 06       		.uleb128 0x6
 3104 0207 01       		.uleb128 0x1
 3105 0208 13       		.uleb128 0x13
 3106 0209 00       		.byte	0
 3107 020a 00       		.byte	0
 3108 020b 27       		.uleb128 0x27
 3109 020c 34       		.uleb128 0x34
 3110 020d 00       		.byte	0
 3111 020e 03       		.uleb128 0x3
 3112 020f 08       		.uleb128 0x8
 3113 0210 3A       		.uleb128 0x3a
 3114 0211 0B       		.uleb128 0xb
 3115 0212 3B       		.uleb128 0x3b
 3116 0213 0B       		.uleb128 0xb
ARM GAS  /tmp/ccwQM1Rs.s 			page 56


 3117 0214 49       		.uleb128 0x49
 3118 0215 13       		.uleb128 0x13
 3119 0216 02       		.uleb128 0x2
 3120 0217 18       		.uleb128 0x18
 3121 0218 00       		.byte	0
 3122 0219 00       		.byte	0
 3123 021a 28       		.uleb128 0x28
 3124 021b 0B       		.uleb128 0xb
 3125 021c 01       		.byte	0x1
 3126 021d 55       		.uleb128 0x55
 3127 021e 17       		.uleb128 0x17
 3128 021f 01       		.uleb128 0x1
 3129 0220 13       		.uleb128 0x13
 3130 0221 00       		.byte	0
 3131 0222 00       		.byte	0
 3132 0223 29       		.uleb128 0x29
 3133 0224 898201   		.uleb128 0x4109
 3134 0227 01       		.byte	0x1
 3135 0228 11       		.uleb128 0x11
 3136 0229 01       		.uleb128 0x1
 3137 022a 01       		.uleb128 0x1
 3138 022b 13       		.uleb128 0x13
 3139 022c 00       		.byte	0
 3140 022d 00       		.byte	0
 3141 022e 2A       		.uleb128 0x2a
 3142 022f 898201   		.uleb128 0x4109
 3143 0232 01       		.byte	0x1
 3144 0233 11       		.uleb128 0x11
 3145 0234 01       		.uleb128 0x1
 3146 0235 31       		.uleb128 0x31
 3147 0236 13       		.uleb128 0x13
 3148 0237 00       		.byte	0
 3149 0238 00       		.byte	0
 3150 0239 2B       		.uleb128 0x2b
 3151 023a 2E       		.uleb128 0x2e
 3152 023b 01       		.byte	0x1
 3153 023c 3F       		.uleb128 0x3f
 3154 023d 19       		.uleb128 0x19
 3155 023e 03       		.uleb128 0x3
 3156 023f 0E       		.uleb128 0xe
 3157 0240 3A       		.uleb128 0x3a
 3158 0241 0B       		.uleb128 0xb
 3159 0242 3B       		.uleb128 0x3b
 3160 0243 05       		.uleb128 0x5
 3161 0244 27       		.uleb128 0x27
 3162 0245 19       		.uleb128 0x19
 3163 0246 11       		.uleb128 0x11
 3164 0247 01       		.uleb128 0x1
 3165 0248 12       		.uleb128 0x12
 3166 0249 06       		.uleb128 0x6
 3167 024a 40       		.uleb128 0x40
 3168 024b 18       		.uleb128 0x18
 3169 024c 9742     		.uleb128 0x2117
 3170 024e 19       		.uleb128 0x19
 3171 024f 01       		.uleb128 0x1
 3172 0250 13       		.uleb128 0x13
 3173 0251 00       		.byte	0
ARM GAS  /tmp/ccwQM1Rs.s 			page 57


 3174 0252 00       		.byte	0
 3175 0253 2C       		.uleb128 0x2c
 3176 0254 05       		.uleb128 0x5
 3177 0255 00       		.byte	0
 3178 0256 03       		.uleb128 0x3
 3179 0257 08       		.uleb128 0x8
 3180 0258 3A       		.uleb128 0x3a
 3181 0259 0B       		.uleb128 0xb
 3182 025a 3B       		.uleb128 0x3b
 3183 025b 05       		.uleb128 0x5
 3184 025c 49       		.uleb128 0x49
 3185 025d 13       		.uleb128 0x13
 3186 025e 02       		.uleb128 0x2
 3187 025f 18       		.uleb128 0x18
 3188 0260 00       		.byte	0
 3189 0261 00       		.byte	0
 3190 0262 2D       		.uleb128 0x2d
 3191 0263 05       		.uleb128 0x5
 3192 0264 00       		.byte	0
 3193 0265 03       		.uleb128 0x3
 3194 0266 0E       		.uleb128 0xe
 3195 0267 3A       		.uleb128 0x3a
 3196 0268 0B       		.uleb128 0xb
 3197 0269 3B       		.uleb128 0x3b
 3198 026a 05       		.uleb128 0x5
 3199 026b 49       		.uleb128 0x49
 3200 026c 13       		.uleb128 0x13
 3201 026d 02       		.uleb128 0x2
 3202 026e 18       		.uleb128 0x18
 3203 026f 00       		.byte	0
 3204 0270 00       		.byte	0
 3205 0271 2E       		.uleb128 0x2e
 3206 0272 05       		.uleb128 0x5
 3207 0273 00       		.byte	0
 3208 0274 03       		.uleb128 0x3
 3209 0275 0E       		.uleb128 0xe
 3210 0276 3A       		.uleb128 0x3a
 3211 0277 0B       		.uleb128 0xb
 3212 0278 3B       		.uleb128 0x3b
 3213 0279 05       		.uleb128 0x5
 3214 027a 49       		.uleb128 0x49
 3215 027b 13       		.uleb128 0x13
 3216 027c 02       		.uleb128 0x2
 3217 027d 17       		.uleb128 0x17
 3218 027e 00       		.byte	0
 3219 027f 00       		.byte	0
 3220 0280 2F       		.uleb128 0x2f
 3221 0281 05       		.uleb128 0x5
 3222 0282 00       		.byte	0
 3223 0283 03       		.uleb128 0x3
 3224 0284 08       		.uleb128 0x8
 3225 0285 3A       		.uleb128 0x3a
 3226 0286 0B       		.uleb128 0xb
 3227 0287 3B       		.uleb128 0x3b
 3228 0288 05       		.uleb128 0x5
 3229 0289 49       		.uleb128 0x49
 3230 028a 13       		.uleb128 0x13
ARM GAS  /tmp/ccwQM1Rs.s 			page 58


 3231 028b 02       		.uleb128 0x2
 3232 028c 17       		.uleb128 0x17
 3233 028d 00       		.byte	0
 3234 028e 00       		.byte	0
 3235 028f 30       		.uleb128 0x30
 3236 0290 1D       		.uleb128 0x1d
 3237 0291 01       		.byte	0x1
 3238 0292 31       		.uleb128 0x31
 3239 0293 13       		.uleb128 0x13
 3240 0294 11       		.uleb128 0x11
 3241 0295 01       		.uleb128 0x1
 3242 0296 12       		.uleb128 0x12
 3243 0297 06       		.uleb128 0x6
 3244 0298 58       		.uleb128 0x58
 3245 0299 0B       		.uleb128 0xb
 3246 029a 59       		.uleb128 0x59
 3247 029b 05       		.uleb128 0x5
 3248 029c 01       		.uleb128 0x1
 3249 029d 13       		.uleb128 0x13
 3250 029e 00       		.byte	0
 3251 029f 00       		.byte	0
 3252 02a0 31       		.uleb128 0x31
 3253 02a1 2E       		.uleb128 0x2e
 3254 02a2 01       		.byte	0x1
 3255 02a3 3F       		.uleb128 0x3f
 3256 02a4 19       		.uleb128 0x19
 3257 02a5 03       		.uleb128 0x3
 3258 02a6 0E       		.uleb128 0xe
 3259 02a7 3A       		.uleb128 0x3a
 3260 02a8 0B       		.uleb128 0xb
 3261 02a9 3B       		.uleb128 0x3b
 3262 02aa 05       		.uleb128 0x5
 3263 02ab 27       		.uleb128 0x27
 3264 02ac 19       		.uleb128 0x19
 3265 02ad 49       		.uleb128 0x49
 3266 02ae 13       		.uleb128 0x13
 3267 02af 11       		.uleb128 0x11
 3268 02b0 01       		.uleb128 0x1
 3269 02b1 12       		.uleb128 0x12
 3270 02b2 06       		.uleb128 0x6
 3271 02b3 40       		.uleb128 0x40
 3272 02b4 18       		.uleb128 0x18
 3273 02b5 9742     		.uleb128 0x2117
 3274 02b7 19       		.uleb128 0x19
 3275 02b8 01       		.uleb128 0x1
 3276 02b9 13       		.uleb128 0x13
 3277 02ba 00       		.byte	0
 3278 02bb 00       		.byte	0
 3279 02bc 32       		.uleb128 0x32
 3280 02bd 34       		.uleb128 0x34
 3281 02be 00       		.byte	0
 3282 02bf 03       		.uleb128 0x3
 3283 02c0 08       		.uleb128 0x8
 3284 02c1 3A       		.uleb128 0x3a
 3285 02c2 0B       		.uleb128 0xb
 3286 02c3 3B       		.uleb128 0x3b
 3287 02c4 05       		.uleb128 0x5
ARM GAS  /tmp/ccwQM1Rs.s 			page 59


 3288 02c5 49       		.uleb128 0x49
 3289 02c6 13       		.uleb128 0x13
 3290 02c7 02       		.uleb128 0x2
 3291 02c8 18       		.uleb128 0x18
 3292 02c9 00       		.byte	0
 3293 02ca 00       		.byte	0
 3294 02cb 33       		.uleb128 0x33
 3295 02cc 34       		.uleb128 0x34
 3296 02cd 00       		.byte	0
 3297 02ce 03       		.uleb128 0x3
 3298 02cf 08       		.uleb128 0x8
 3299 02d0 3A       		.uleb128 0x3a
 3300 02d1 0B       		.uleb128 0xb
 3301 02d2 3B       		.uleb128 0x3b
 3302 02d3 05       		.uleb128 0x5
 3303 02d4 49       		.uleb128 0x49
 3304 02d5 13       		.uleb128 0x13
 3305 02d6 02       		.uleb128 0x2
 3306 02d7 17       		.uleb128 0x17
 3307 02d8 00       		.byte	0
 3308 02d9 00       		.byte	0
 3309 02da 34       		.uleb128 0x34
 3310 02db 898201   		.uleb128 0x4109
 3311 02de 01       		.byte	0x1
 3312 02df 11       		.uleb128 0x11
 3313 02e0 01       		.uleb128 0x1
 3314 02e1 31       		.uleb128 0x31
 3315 02e2 13       		.uleb128 0x13
 3316 02e3 01       		.uleb128 0x1
 3317 02e4 13       		.uleb128 0x13
 3318 02e5 00       		.byte	0
 3319 02e6 00       		.byte	0
 3320 02e7 35       		.uleb128 0x35
 3321 02e8 34       		.uleb128 0x34
 3322 02e9 00       		.byte	0
 3323 02ea 03       		.uleb128 0x3
 3324 02eb 0E       		.uleb128 0xe
 3325 02ec 3A       		.uleb128 0x3a
 3326 02ed 0B       		.uleb128 0xb
 3327 02ee 3B       		.uleb128 0x3b
 3328 02ef 0B       		.uleb128 0xb
 3329 02f0 49       		.uleb128 0x49
 3330 02f1 13       		.uleb128 0x13
 3331 02f2 3F       		.uleb128 0x3f
 3332 02f3 19       		.uleb128 0x19
 3333 02f4 3C       		.uleb128 0x3c
 3334 02f5 19       		.uleb128 0x19
 3335 02f6 00       		.byte	0
 3336 02f7 00       		.byte	0
 3337 02f8 36       		.uleb128 0x36
 3338 02f9 2E       		.uleb128 0x2e
 3339 02fa 01       		.byte	0x1
 3340 02fb 3F       		.uleb128 0x3f
 3341 02fc 19       		.uleb128 0x19
 3342 02fd 03       		.uleb128 0x3
 3343 02fe 0E       		.uleb128 0xe
 3344 02ff 3A       		.uleb128 0x3a
ARM GAS  /tmp/ccwQM1Rs.s 			page 60


 3345 0300 0B       		.uleb128 0xb
 3346 0301 3B       		.uleb128 0x3b
 3347 0302 0B       		.uleb128 0xb
 3348 0303 27       		.uleb128 0x27
 3349 0304 19       		.uleb128 0x19
 3350 0305 49       		.uleb128 0x49
 3351 0306 13       		.uleb128 0x13
 3352 0307 3C       		.uleb128 0x3c
 3353 0308 19       		.uleb128 0x19
 3354 0309 01       		.uleb128 0x1
 3355 030a 13       		.uleb128 0x13
 3356 030b 00       		.byte	0
 3357 030c 00       		.byte	0
 3358 030d 37       		.uleb128 0x37
 3359 030e 2E       		.uleb128 0x2e
 3360 030f 00       		.byte	0
 3361 0310 3F       		.uleb128 0x3f
 3362 0311 19       		.uleb128 0x19
 3363 0312 03       		.uleb128 0x3
 3364 0313 0E       		.uleb128 0xe
 3365 0314 3A       		.uleb128 0x3a
 3366 0315 0B       		.uleb128 0xb
 3367 0316 3B       		.uleb128 0x3b
 3368 0317 0B       		.uleb128 0xb
 3369 0318 27       		.uleb128 0x27
 3370 0319 19       		.uleb128 0x19
 3371 031a 3C       		.uleb128 0x3c
 3372 031b 19       		.uleb128 0x19
 3373 031c 00       		.byte	0
 3374 031d 00       		.byte	0
 3375 031e 38       		.uleb128 0x38
 3376 031f 2E       		.uleb128 0x2e
 3377 0320 01       		.byte	0x1
 3378 0321 3F       		.uleb128 0x3f
 3379 0322 19       		.uleb128 0x19
 3380 0323 03       		.uleb128 0x3
 3381 0324 0E       		.uleb128 0xe
 3382 0325 3A       		.uleb128 0x3a
 3383 0326 0B       		.uleb128 0xb
 3384 0327 3B       		.uleb128 0x3b
 3385 0328 0B       		.uleb128 0xb
 3386 0329 27       		.uleb128 0x27
 3387 032a 19       		.uleb128 0x19
 3388 032b 3C       		.uleb128 0x3c
 3389 032c 19       		.uleb128 0x19
 3390 032d 00       		.byte	0
 3391 032e 00       		.byte	0
 3392 032f 00       		.byte	0
 3393              		.section	.debug_loc,"",%progbits
 3394              	.Ldebug_loc0:
 3395              	.LLST0:
 3396 0000 00000000 		.4byte	.LVL0
 3397 0004 10000000 		.4byte	.LVL1
 3398 0008 0100     		.2byte	0x1
 3399 000a 50       		.byte	0x50
 3400 000b 10000000 		.4byte	.LVL1
 3401 000f 25000000 		.4byte	.LVL3-1
ARM GAS  /tmp/ccwQM1Rs.s 			page 61


 3402 0013 0100     		.2byte	0x1
 3403 0015 52       		.byte	0x52
 3404 0016 25000000 		.4byte	.LVL3-1
 3405 001a 26000000 		.4byte	.LVL3
 3406 001e 0400     		.2byte	0x4
 3407 0020 F3       		.byte	0xf3
 3408 0021 01       		.uleb128 0x1
 3409 0022 50       		.byte	0x50
 3410 0023 9F       		.byte	0x9f
 3411 0024 26000000 		.4byte	.LVL3
 3412 0028 2A000000 		.4byte	.LVL4
 3413 002c 0100     		.2byte	0x1
 3414 002e 50       		.byte	0x50
 3415 002f 2A000000 		.4byte	.LVL4
 3416 0033 30000000 		.4byte	.LFE7
 3417 0037 0100     		.2byte	0x1
 3418 0039 52       		.byte	0x52
 3419 003a 00000000 		.4byte	0
 3420 003e 00000000 		.4byte	0
 3421              	.LLST1:
 3422 0042 00000000 		.4byte	.LVL0
 3423 0046 25000000 		.4byte	.LVL3-1
 3424 004a 0100     		.2byte	0x1
 3425 004c 51       		.byte	0x51
 3426 004d 25000000 		.4byte	.LVL3-1
 3427 0051 26000000 		.4byte	.LVL3
 3428 0055 0400     		.2byte	0x4
 3429 0057 F3       		.byte	0xf3
 3430 0058 01       		.uleb128 0x1
 3431 0059 51       		.byte	0x51
 3432 005a 9F       		.byte	0x9f
 3433 005b 26000000 		.4byte	.LVL3
 3434 005f 30000000 		.4byte	.LFE7
 3435 0063 0100     		.2byte	0x1
 3436 0065 51       		.byte	0x51
 3437 0066 00000000 		.4byte	0
 3438 006a 00000000 		.4byte	0
 3439              	.LLST2:
 3440 006e 14000000 		.4byte	.LVL2
 3441 0072 25000000 		.4byte	.LVL3-1
 3442 0076 0100     		.2byte	0x1
 3443 0078 52       		.byte	0x52
 3444 0079 25000000 		.4byte	.LVL3-1
 3445 007d 26000000 		.4byte	.LVL3
 3446 0081 0400     		.2byte	0x4
 3447 0083 F3       		.byte	0xf3
 3448 0084 01       		.uleb128 0x1
 3449 0085 50       		.byte	0x50
 3450 0086 9F       		.byte	0x9f
 3451 0087 00000000 		.4byte	0
 3452 008b 00000000 		.4byte	0
 3453              	.LLST3:
 3454 008f 14000000 		.4byte	.LVL2
 3455 0093 25000000 		.4byte	.LVL3-1
 3456 0097 0100     		.2byte	0x1
 3457 0099 53       		.byte	0x53
 3458 009a 00000000 		.4byte	0
ARM GAS  /tmp/ccwQM1Rs.s 			page 62


 3459 009e 00000000 		.4byte	0
 3460              	.LLST4:
 3461 00a2 00000000 		.4byte	.LVL5
 3462 00a6 0A000000 		.4byte	.LVL6
 3463 00aa 0100     		.2byte	0x1
 3464 00ac 52       		.byte	0x52
 3465 00ad 0A000000 		.4byte	.LVL6
 3466 00b1 1E000000 		.4byte	.LFE8
 3467 00b5 0400     		.2byte	0x4
 3468 00b7 F3       		.byte	0xf3
 3469 00b8 01       		.uleb128 0x1
 3470 00b9 52       		.byte	0x52
 3471 00ba 9F       		.byte	0x9f
 3472 00bb 00000000 		.4byte	0
 3473 00bf 00000000 		.4byte	0
 3474              	.LLST5:
 3475 00c3 00000000 		.4byte	.LVL5
 3476 00c7 1C000000 		.4byte	.LVL7
 3477 00cb 0200     		.2byte	0x2
 3478 00cd 91       		.byte	0x91
 3479 00ce 00       		.sleb128 0
 3480 00cf 1C000000 		.4byte	.LVL7
 3481 00d3 1E000000 		.4byte	.LFE8
 3482 00d7 0200     		.2byte	0x2
 3483 00d9 7D       		.byte	0x7d
 3484 00da 00       		.sleb128 0
 3485 00db 00000000 		.4byte	0
 3486 00df 00000000 		.4byte	0
 3487              	.LLST6:
 3488 00e3 00000000 		.4byte	.LVL8
 3489 00e7 07000000 		.4byte	.LVL9-1
 3490 00eb 0100     		.2byte	0x1
 3491 00ed 50       		.byte	0x50
 3492 00ee 07000000 		.4byte	.LVL9-1
 3493 00f2 30000000 		.4byte	.LFE9
 3494 00f6 0100     		.2byte	0x1
 3495 00f8 54       		.byte	0x54
 3496 00f9 00000000 		.4byte	0
 3497 00fd 00000000 		.4byte	0
 3498              	.LLST7:
 3499 0101 1C000000 		.4byte	.LVL10
 3500 0105 2E000000 		.4byte	.LVL12
 3501 0109 0100     		.2byte	0x1
 3502 010b 54       		.byte	0x54
 3503 010c 00000000 		.4byte	0
 3504 0110 00000000 		.4byte	0
 3505              	.LLST8:
 3506 0114 1C000000 		.4byte	.LVL10
 3507 0118 25000000 		.4byte	.LVL11-1
 3508 011c 0100     		.2byte	0x1
 3509 011e 50       		.byte	0x50
 3510 011f 00000000 		.4byte	0
 3511 0123 00000000 		.4byte	0
 3512              	.LLST9:
 3513 0127 00000000 		.4byte	.LVL13
 3514 012b 09000000 		.4byte	.LVL14-1
 3515 012f 0100     		.2byte	0x1
ARM GAS  /tmp/ccwQM1Rs.s 			page 63


 3516 0131 50       		.byte	0x50
 3517 0132 09000000 		.4byte	.LVL14-1
 3518 0136 56000000 		.4byte	.LFE10
 3519 013a 0100     		.2byte	0x1
 3520 013c 54       		.byte	0x54
 3521 013d 00000000 		.4byte	0
 3522 0141 00000000 		.4byte	0
 3523              	.LLST10:
 3524 0145 00000000 		.4byte	.LVL13
 3525 0149 09000000 		.4byte	.LVL14-1
 3526 014d 0100     		.2byte	0x1
 3527 014f 51       		.byte	0x51
 3528 0150 09000000 		.4byte	.LVL14-1
 3529 0154 56000000 		.4byte	.LFE10
 3530 0158 0400     		.2byte	0x4
 3531 015a F3       		.byte	0xf3
 3532 015b 01       		.uleb128 0x1
 3533 015c 51       		.byte	0x51
 3534 015d 9F       		.byte	0x9f
 3535 015e 00000000 		.4byte	0
 3536 0162 00000000 		.4byte	0
 3537              	.LLST11:
 3538 0166 2C000000 		.4byte	.LVL15
 3539 016a 3E000000 		.4byte	.LVL17
 3540 016e 0100     		.2byte	0x1
 3541 0170 54       		.byte	0x54
 3542 0171 00000000 		.4byte	0
 3543 0175 00000000 		.4byte	0
 3544              	.LLST12:
 3545 0179 2C000000 		.4byte	.LVL15
 3546 017d 35000000 		.4byte	.LVL16-1
 3547 0181 0100     		.2byte	0x1
 3548 0183 50       		.byte	0x50
 3549 0184 00000000 		.4byte	0
 3550 0188 00000000 		.4byte	0
 3551              	.LLST13:
 3552 018c 00000000 		.4byte	.LVL19
 3553 0190 0F000000 		.4byte	.LVL20-1
 3554 0194 0100     		.2byte	0x1
 3555 0196 50       		.byte	0x50
 3556 0197 0F000000 		.4byte	.LVL20-1
 3557 019b 1A000000 		.4byte	.LVL22
 3558 019f 0100     		.2byte	0x1
 3559 01a1 54       		.byte	0x54
 3560 01a2 1A000000 		.4byte	.LVL22
 3561 01a6 1D000000 		.4byte	.LVL23-1
 3562 01aa 0100     		.2byte	0x1
 3563 01ac 50       		.byte	0x50
 3564 01ad 1D000000 		.4byte	.LVL23-1
 3565 01b1 2C000000 		.4byte	.LVL25
 3566 01b5 0100     		.2byte	0x1
 3567 01b7 54       		.byte	0x54
 3568 01b8 2C000000 		.4byte	.LVL25
 3569 01bc 49000000 		.4byte	.LVL29-1
 3570 01c0 0100     		.2byte	0x1
 3571 01c2 50       		.byte	0x50
 3572 01c3 49000000 		.4byte	.LVL29-1
ARM GAS  /tmp/ccwQM1Rs.s 			page 64


 3573 01c7 62000000 		.4byte	.LFE11
 3574 01cb 0100     		.2byte	0x1
 3575 01cd 54       		.byte	0x54
 3576 01ce 00000000 		.4byte	0
 3577 01d2 00000000 		.4byte	0
 3578              	.LLST14:
 3579 01d6 00000000 		.4byte	.LVL19
 3580 01da 0F000000 		.4byte	.LVL20-1
 3581 01de 0100     		.2byte	0x1
 3582 01e0 51       		.byte	0x51
 3583 01e1 0F000000 		.4byte	.LVL20-1
 3584 01e5 1A000000 		.4byte	.LVL22
 3585 01e9 0100     		.2byte	0x1
 3586 01eb 56       		.byte	0x56
 3587 01ec 1A000000 		.4byte	.LVL22
 3588 01f0 1D000000 		.4byte	.LVL23-1
 3589 01f4 0100     		.2byte	0x1
 3590 01f6 51       		.byte	0x51
 3591 01f7 1D000000 		.4byte	.LVL23-1
 3592 01fb 2C000000 		.4byte	.LVL25
 3593 01ff 0100     		.2byte	0x1
 3594 0201 56       		.byte	0x56
 3595 0202 2C000000 		.4byte	.LVL25
 3596 0206 30000000 		.4byte	.LVL26
 3597 020a 0100     		.2byte	0x1
 3598 020c 51       		.byte	0x51
 3599 020d 30000000 		.4byte	.LVL26
 3600 0211 62000000 		.4byte	.LFE11
 3601 0215 0100     		.2byte	0x1
 3602 0217 56       		.byte	0x56
 3603 0218 00000000 		.4byte	0
 3604 021c 00000000 		.4byte	0
 3605              	.LLST15:
 3606 0220 42000000 		.4byte	.LVL27
 3607 0224 46000000 		.4byte	.LVL28
 3608 0228 0200     		.2byte	0x2
 3609 022a 72       		.byte	0x72
 3610 022b 00       		.sleb128 0
 3611 022c 46000000 		.4byte	.LVL28
 3612 0230 54000000 		.4byte	.LVL30
 3613 0234 0100     		.2byte	0x1
 3614 0236 57       		.byte	0x57
 3615 0237 00000000 		.4byte	0
 3616 023b 00000000 		.4byte	0
 3617              	.LLST16:
 3618 023f 1E000000 		.4byte	.LVL23
 3619 0243 22000000 		.4byte	.LVL24
 3620 0247 0100     		.2byte	0x1
 3621 0249 50       		.byte	0x50
 3622 024a 54000000 		.4byte	.LVL30
 3623 024e 57000000 		.4byte	.LVL31-1
 3624 0252 0100     		.2byte	0x1
 3625 0254 50       		.byte	0x50
 3626 0255 57000000 		.4byte	.LVL31-1
 3627 0259 62000000 		.4byte	.LFE11
 3628 025d 0100     		.2byte	0x1
 3629 025f 57       		.byte	0x57
ARM GAS  /tmp/ccwQM1Rs.s 			page 65


 3630 0260 00000000 		.4byte	0
 3631 0264 00000000 		.4byte	0
 3632              	.LLST17:
 3633 0268 00000000 		.4byte	.LVL32
 3634 026c 14000000 		.4byte	.LVL34
 3635 0270 0100     		.2byte	0x1
 3636 0272 50       		.byte	0x50
 3637 0273 14000000 		.4byte	.LVL34
 3638 0277 34000000 		.4byte	.LVL38
 3639 027b 0100     		.2byte	0x1
 3640 027d 54       		.byte	0x54
 3641 027e 34000000 		.4byte	.LVL38
 3642 0282 37000000 		.4byte	.LVL39-1
 3643 0286 0100     		.2byte	0x1
 3644 0288 50       		.byte	0x50
 3645 0289 37000000 		.4byte	.LVL39-1
 3646 028d 44000000 		.4byte	.LVL40
 3647 0291 0100     		.2byte	0x1
 3648 0293 54       		.byte	0x54
 3649 0294 44000000 		.4byte	.LVL40
 3650 0298 63000000 		.4byte	.LVL42-1
 3651 029c 0100     		.2byte	0x1
 3652 029e 50       		.byte	0x50
 3653 029f 63000000 		.4byte	.LVL42-1
 3654 02a3 90000000 		.4byte	.LVL48
 3655 02a7 0100     		.2byte	0x1
 3656 02a9 54       		.byte	0x54
 3657 02aa 90000000 		.4byte	.LVL48
 3658 02ae 94000000 		.4byte	.LVL49
 3659 02b2 0100     		.2byte	0x1
 3660 02b4 50       		.byte	0x50
 3661 02b5 94000000 		.4byte	.LVL49
 3662 02b9 9E000000 		.4byte	.LFE12
 3663 02bd 0100     		.2byte	0x1
 3664 02bf 54       		.byte	0x54
 3665 02c0 00000000 		.4byte	0
 3666 02c4 00000000 		.4byte	0
 3667              	.LLST18:
 3668 02c8 00000000 		.4byte	.LVL32
 3669 02cc 14000000 		.4byte	.LVL34
 3670 02d0 0100     		.2byte	0x1
 3671 02d2 51       		.byte	0x51
 3672 02d3 14000000 		.4byte	.LVL34
 3673 02d7 28000000 		.4byte	.LVL36
 3674 02db 0100     		.2byte	0x1
 3675 02dd 57       		.byte	0x57
 3676 02de 28000000 		.4byte	.LVL36
 3677 02e2 4E000000 		.4byte	.LVL41
 3678 02e6 0700     		.2byte	0x7
 3679 02e8 F3       		.byte	0xf3
 3680 02e9 01       		.uleb128 0x1
 3681 02ea 51       		.byte	0x51
 3682 02eb 79       		.byte	0x79
 3683 02ec 00       		.sleb128 0
 3684 02ed 22       		.byte	0x22
 3685 02ee 9F       		.byte	0x9f
 3686 02ef 4E000000 		.4byte	.LVL41
ARM GAS  /tmp/ccwQM1Rs.s 			page 66


 3687 02f3 70000000 		.4byte	.LVL43
 3688 02f7 0900     		.2byte	0x9
 3689 02f9 F3       		.byte	0xf3
 3690 02fa 01       		.uleb128 0x1
 3691 02fb 51       		.byte	0x51
 3692 02fc 79       		.byte	0x79
 3693 02fd 00       		.sleb128 0
 3694 02fe 22       		.byte	0x22
 3695 02ff 23       		.byte	0x23
 3696 0300 01       		.uleb128 0x1
 3697 0301 9F       		.byte	0x9f
 3698 0302 70000000 		.4byte	.LVL43
 3699 0306 80000000 		.4byte	.LVL45
 3700 030a 0700     		.2byte	0x7
 3701 030c 79       		.byte	0x79
 3702 030d 00       		.sleb128 0
 3703 030e F3       		.byte	0xf3
 3704 030f 01       		.uleb128 0x1
 3705 0310 51       		.byte	0x51
 3706 0311 22       		.byte	0x22
 3707 0312 9F       		.byte	0x9f
 3708 0313 80000000 		.4byte	.LVL45
 3709 0317 8A000000 		.4byte	.LVL47
 3710 031b 0700     		.2byte	0x7
 3711 031d F3       		.byte	0xf3
 3712 031e 01       		.uleb128 0x1
 3713 031f 51       		.byte	0x51
 3714 0320 79       		.byte	0x79
 3715 0321 00       		.sleb128 0
 3716 0322 22       		.byte	0x22
 3717 0323 9F       		.byte	0x9f
 3718 0324 90000000 		.4byte	.LVL48
 3719 0328 9B000000 		.4byte	.LVL50-1
 3720 032c 0100     		.2byte	0x1
 3721 032e 51       		.byte	0x51
 3722 032f 9B000000 		.4byte	.LVL50-1
 3723 0333 9E000000 		.4byte	.LFE12
 3724 0337 0100     		.2byte	0x1
 3725 0339 57       		.byte	0x57
 3726 033a 00000000 		.4byte	0
 3727 033e 00000000 		.4byte	0
 3728              	.LLST19:
 3729 0342 00000000 		.4byte	.LVL32
 3730 0346 14000000 		.4byte	.LVL34
 3731 034a 0100     		.2byte	0x1
 3732 034c 52       		.byte	0x52
 3733 034d 14000000 		.4byte	.LVL34
 3734 0351 28000000 		.4byte	.LVL36
 3735 0355 0100     		.2byte	0x1
 3736 0357 55       		.byte	0x55
 3737 0358 28000000 		.4byte	.LVL36
 3738 035c 8A000000 		.4byte	.LVL47
 3739 0360 0700     		.2byte	0x7
 3740 0362 F3       		.byte	0xf3
 3741 0363 01       		.uleb128 0x1
 3742 0364 52       		.byte	0x52
 3743 0365 79       		.byte	0x79
ARM GAS  /tmp/ccwQM1Rs.s 			page 67


 3744 0366 00       		.sleb128 0
 3745 0367 1C       		.byte	0x1c
 3746 0368 9F       		.byte	0x9f
 3747 0369 90000000 		.4byte	.LVL48
 3748 036d 9B000000 		.4byte	.LVL50-1
 3749 0371 0100     		.2byte	0x1
 3750 0373 52       		.byte	0x52
 3751 0374 9B000000 		.4byte	.LVL50-1
 3752 0378 9E000000 		.4byte	.LFE12
 3753 037c 0100     		.2byte	0x1
 3754 037e 55       		.byte	0x55
 3755 037f 00000000 		.4byte	0
 3756 0383 00000000 		.4byte	0
 3757              	.LLST20:
 3758 0387 00000000 		.4byte	.LVL32
 3759 038b 14000000 		.4byte	.LVL34
 3760 038f 0100     		.2byte	0x1
 3761 0391 53       		.byte	0x53
 3762 0392 14000000 		.4byte	.LVL34
 3763 0396 34000000 		.4byte	.LVL38
 3764 039a 0100     		.2byte	0x1
 3765 039c 56       		.byte	0x56
 3766 039d 34000000 		.4byte	.LVL38
 3767 03a1 37000000 		.4byte	.LVL39-1
 3768 03a5 0100     		.2byte	0x1
 3769 03a7 51       		.byte	0x51
 3770 03a8 37000000 		.4byte	.LVL39-1
 3771 03ac 44000000 		.4byte	.LVL40
 3772 03b0 0100     		.2byte	0x1
 3773 03b2 56       		.byte	0x56
 3774 03b3 44000000 		.4byte	.LVL40
 3775 03b7 63000000 		.4byte	.LVL42-1
 3776 03bb 0100     		.2byte	0x1
 3777 03bd 51       		.byte	0x51
 3778 03be 63000000 		.4byte	.LVL42-1
 3779 03c2 90000000 		.4byte	.LVL48
 3780 03c6 0100     		.2byte	0x1
 3781 03c8 56       		.byte	0x56
 3782 03c9 90000000 		.4byte	.LVL48
 3783 03cd 9B000000 		.4byte	.LVL50-1
 3784 03d1 0100     		.2byte	0x1
 3785 03d3 53       		.byte	0x53
 3786 03d4 9B000000 		.4byte	.LVL50-1
 3787 03d8 9E000000 		.4byte	.LFE12
 3788 03dc 0100     		.2byte	0x1
 3789 03de 56       		.byte	0x56
 3790 03df 00000000 		.4byte	0
 3791 03e3 00000000 		.4byte	0
 3792              	.LLST21:
 3793 03e7 10000000 		.4byte	.LVL33
 3794 03eb 28000000 		.4byte	.LVL36
 3795 03ef 0200     		.2byte	0x2
 3796 03f1 30       		.byte	0x30
 3797 03f2 9F       		.byte	0x9f
 3798 03f3 28000000 		.4byte	.LVL36
 3799 03f7 90000000 		.4byte	.LVL48
 3800 03fb 0100     		.2byte	0x1
ARM GAS  /tmp/ccwQM1Rs.s 			page 68


 3801 03fd 59       		.byte	0x59
 3802 03fe 90000000 		.4byte	.LVL48
 3803 0402 9E000000 		.4byte	.LFE12
 3804 0406 0200     		.2byte	0x2
 3805 0408 30       		.byte	0x30
 3806 0409 9F       		.byte	0x9f
 3807 040a 00000000 		.4byte	0
 3808 040e 00000000 		.4byte	0
 3809              	.LLST22:
 3810 0412 00000000 		.4byte	.LVL51
 3811 0416 1A000000 		.4byte	.LVL52
 3812 041a 0200     		.2byte	0x2
 3813 041c 91       		.byte	0x91
 3814 041d 00       		.sleb128 0
 3815 041e 1A000000 		.4byte	.LVL52
 3816 0422 1C000000 		.4byte	.LFE13
 3817 0426 0200     		.2byte	0x2
 3818 0428 7D       		.byte	0x7d
 3819 0429 00       		.sleb128 0
 3820 042a 00000000 		.4byte	0
 3821 042e 00000000 		.4byte	0
 3822              	.LLST23:
 3823 0432 00000000 		.4byte	.LVL53
 3824 0436 07000000 		.4byte	.LVL54-1
 3825 043a 0100     		.2byte	0x1
 3826 043c 50       		.byte	0x50
 3827 043d 07000000 		.4byte	.LVL54-1
 3828 0441 32000000 		.4byte	.LFE14
 3829 0445 0100     		.2byte	0x1
 3830 0447 54       		.byte	0x54
 3831 0448 00000000 		.4byte	0
 3832 044c 00000000 		.4byte	0
 3833              	.LLST24:
 3834 0450 1E000000 		.4byte	.LVL55
 3835 0454 30000000 		.4byte	.LVL57
 3836 0458 0100     		.2byte	0x1
 3837 045a 54       		.byte	0x54
 3838 045b 00000000 		.4byte	0
 3839 045f 00000000 		.4byte	0
 3840              	.LLST25:
 3841 0463 1E000000 		.4byte	.LVL55
 3842 0467 27000000 		.4byte	.LVL56-1
 3843 046b 0100     		.2byte	0x1
 3844 046d 50       		.byte	0x50
 3845 046e 00000000 		.4byte	0
 3846 0472 00000000 		.4byte	0
 3847              	.LLST26:
 3848 0476 00000000 		.4byte	.LVL58
 3849 047a 13000000 		.4byte	.LVL59-1
 3850 047e 0100     		.2byte	0x1
 3851 0480 50       		.byte	0x50
 3852 0481 13000000 		.4byte	.LVL59-1
 3853 0485 16000000 		.4byte	.LVL60
 3854 0489 0100     		.2byte	0x1
 3855 048b 54       		.byte	0x54
 3856 048c 16000000 		.4byte	.LVL60
 3857 0490 19000000 		.4byte	.LVL61-1
ARM GAS  /tmp/ccwQM1Rs.s 			page 69


 3858 0494 0100     		.2byte	0x1
 3859 0496 50       		.byte	0x50
 3860 0497 19000000 		.4byte	.LVL61-1
 3861 049b 28000000 		.4byte	.LVL63
 3862 049f 0100     		.2byte	0x1
 3863 04a1 54       		.byte	0x54
 3864 04a2 28000000 		.4byte	.LVL63
 3865 04a6 48000000 		.4byte	.LVL64
 3866 04aa 0100     		.2byte	0x1
 3867 04ac 50       		.byte	0x50
 3868 04ad 48000000 		.4byte	.LVL64
 3869 04b1 6A000000 		.4byte	.LFE15
 3870 04b5 0100     		.2byte	0x1
 3871 04b7 54       		.byte	0x54
 3872 04b8 00000000 		.4byte	0
 3873 04bc 00000000 		.4byte	0
 3874              	.LLST27:
 3875 04c0 00000000 		.4byte	.LVL58
 3876 04c4 13000000 		.4byte	.LVL59-1
 3877 04c8 0100     		.2byte	0x1
 3878 04ca 51       		.byte	0x51
 3879 04cb 13000000 		.4byte	.LVL59-1
 3880 04cf 6A000000 		.4byte	.LFE15
 3881 04d3 0400     		.2byte	0x4
 3882 04d5 F3       		.byte	0xf3
 3883 04d6 01       		.uleb128 0x1
 3884 04d7 51       		.byte	0x51
 3885 04d8 9F       		.byte	0x9f
 3886 04d9 00000000 		.4byte	0
 3887 04dd 00000000 		.4byte	0
 3888              	.LLST28:
 3889 04e1 00000000 		.4byte	.LVL58
 3890 04e5 13000000 		.4byte	.LVL59-1
 3891 04e9 0100     		.2byte	0x1
 3892 04eb 52       		.byte	0x52
 3893 04ec 13000000 		.4byte	.LVL59-1
 3894 04f0 16000000 		.4byte	.LVL60
 3895 04f4 0100     		.2byte	0x1
 3896 04f6 56       		.byte	0x56
 3897 04f7 16000000 		.4byte	.LVL60
 3898 04fb 19000000 		.4byte	.LVL61-1
 3899 04ff 0100     		.2byte	0x1
 3900 0501 51       		.byte	0x51
 3901 0502 19000000 		.4byte	.LVL61-1
 3902 0506 28000000 		.4byte	.LVL63
 3903 050a 0100     		.2byte	0x1
 3904 050c 56       		.byte	0x56
 3905 050d 28000000 		.4byte	.LVL63
 3906 0511 49000000 		.4byte	.LVL65-1
 3907 0515 0100     		.2byte	0x1
 3908 0517 51       		.byte	0x51
 3909 0518 49000000 		.4byte	.LVL65-1
 3910 051c 6A000000 		.4byte	.LFE15
 3911 0520 0100     		.2byte	0x1
 3912 0522 56       		.byte	0x56
 3913 0523 00000000 		.4byte	0
 3914 0527 00000000 		.4byte	0
ARM GAS  /tmp/ccwQM1Rs.s 			page 70


 3915              	.LLST29:
 3916 052b 1A000000 		.4byte	.LVL61
 3917 052f 1E000000 		.4byte	.LVL62
 3918 0533 0100     		.2byte	0x1
 3919 0535 50       		.byte	0x50
 3920 0536 5A000000 		.4byte	.LVL67
 3921 053a 5D000000 		.4byte	.LVL68-1
 3922 053e 0100     		.2byte	0x1
 3923 0540 50       		.byte	0x50
 3924 0541 5D000000 		.4byte	.LVL68-1
 3925 0545 6A000000 		.4byte	.LFE15
 3926 0549 0100     		.2byte	0x1
 3927 054b 57       		.byte	0x57
 3928 054c 00000000 		.4byte	0
 3929 0550 00000000 		.4byte	0
 3930              	.LLST30:
 3931 0554 00000000 		.4byte	.LVL69
 3932 0558 07000000 		.4byte	.LVL70-1
 3933 055c 0100     		.2byte	0x1
 3934 055e 50       		.byte	0x50
 3935 055f 07000000 		.4byte	.LVL70-1
 3936 0563 4A000000 		.4byte	.LFE16
 3937 0567 0100     		.2byte	0x1
 3938 0569 54       		.byte	0x54
 3939 056a 00000000 		.4byte	0
 3940 056e 00000000 		.4byte	0
 3941              	.LLST31:
 3942 0572 20000000 		.4byte	.LVL71
 3943 0576 22000000 		.4byte	.LVL72
 3944 057a 0200     		.2byte	0x2
 3945 057c 73       		.byte	0x73
 3946 057d 00       		.sleb128 0
 3947 057e 22000000 		.4byte	.LVL72
 3948 0582 3A000000 		.4byte	.LVL76
 3949 0586 0100     		.2byte	0x1
 3950 0588 55       		.byte	0x55
 3951 0589 3A000000 		.4byte	.LVL76
 3952 058d 3C000000 		.4byte	.LVL77
 3953 0591 0200     		.2byte	0x2
 3954 0593 73       		.byte	0x73
 3955 0594 00       		.sleb128 0
 3956 0595 3C000000 		.4byte	.LVL77
 3957 0599 3E000000 		.4byte	.LVL78
 3958 059d 0200     		.2byte	0x2
 3959 059f 72       		.byte	0x72
 3960 05a0 7F       		.sleb128 -1
 3961 05a1 3E000000 		.4byte	.LVL78
 3962 05a5 40000000 		.4byte	.LVL79
 3963 05a9 0100     		.2byte	0x1
 3964 05ab 55       		.byte	0x55
 3965 05ac 00000000 		.4byte	0
 3966 05b0 00000000 		.4byte	0
 3967              	.LLST32:
 3968 05b4 28000000 		.4byte	.LVL73
 3969 05b8 36000000 		.4byte	.LVL75
 3970 05bc 0100     		.2byte	0x1
 3971 05be 54       		.byte	0x54
ARM GAS  /tmp/ccwQM1Rs.s 			page 71


 3972 05bf 00000000 		.4byte	0
 3973 05c3 00000000 		.4byte	0
 3974              	.LLST33:
 3975 05c7 28000000 		.4byte	.LVL73
 3976 05cb 31000000 		.4byte	.LVL74-1
 3977 05cf 0100     		.2byte	0x1
 3978 05d1 50       		.byte	0x50
 3979 05d2 00000000 		.4byte	0
 3980 05d6 00000000 		.4byte	0
 3981              	.LLST34:
 3982 05da 00000000 		.4byte	.LVL80
 3983 05de 14000000 		.4byte	.LVL82
 3984 05e2 0100     		.2byte	0x1
 3985 05e4 50       		.byte	0x50
 3986 05e5 14000000 		.4byte	.LVL82
 3987 05e9 2E000000 		.4byte	.LVL86
 3988 05ed 0100     		.2byte	0x1
 3989 05ef 54       		.byte	0x54
 3990 05f0 2E000000 		.4byte	.LVL86
 3991 05f4 4D000000 		.4byte	.LVL87-1
 3992 05f8 0100     		.2byte	0x1
 3993 05fa 50       		.byte	0x50
 3994 05fb 4D000000 		.4byte	.LVL87-1
 3995 05ff 6E000000 		.4byte	.LVL92
 3996 0603 0100     		.2byte	0x1
 3997 0605 54       		.byte	0x54
 3998 0606 6E000000 		.4byte	.LVL92
 3999 060a 70000000 		.4byte	.LVL93
 4000 060e 0100     		.2byte	0x1
 4001 0610 50       		.byte	0x50
 4002 0611 70000000 		.4byte	.LVL93
 4003 0615 8A000000 		.4byte	.LVL97
 4004 0619 0100     		.2byte	0x1
 4005 061b 54       		.byte	0x54
 4006 061c 8A000000 		.4byte	.LVL97
 4007 0620 8E000000 		.4byte	.LVL98
 4008 0624 0100     		.2byte	0x1
 4009 0626 50       		.byte	0x50
 4010 0627 8E000000 		.4byte	.LVL98
 4011 062b 98000000 		.4byte	.LFE17
 4012 062f 0100     		.2byte	0x1
 4013 0631 54       		.byte	0x54
 4014 0632 00000000 		.4byte	0
 4015 0636 00000000 		.4byte	0
 4016              	.LLST35:
 4017 063a 00000000 		.4byte	.LVL80
 4018 063e 14000000 		.4byte	.LVL82
 4019 0642 0100     		.2byte	0x1
 4020 0644 51       		.byte	0x51
 4021 0645 14000000 		.4byte	.LVL82
 4022 0649 28000000 		.4byte	.LVL85
 4023 064d 0100     		.2byte	0x1
 4024 064f 56       		.byte	0x56
 4025 0650 28000000 		.4byte	.LVL85
 4026 0654 8A000000 		.4byte	.LVL97
 4027 0658 0100     		.2byte	0x1
 4028 065a 58       		.byte	0x58
ARM GAS  /tmp/ccwQM1Rs.s 			page 72


 4029 065b 8A000000 		.4byte	.LVL97
 4030 065f 95000000 		.4byte	.LVL99-1
 4031 0663 0100     		.2byte	0x1
 4032 0665 51       		.byte	0x51
 4033 0666 95000000 		.4byte	.LVL99-1
 4034 066a 98000000 		.4byte	.LFE17
 4035 066e 0100     		.2byte	0x1
 4036 0670 56       		.byte	0x56
 4037 0671 00000000 		.4byte	0
 4038 0675 00000000 		.4byte	0
 4039              	.LLST36:
 4040 0679 00000000 		.4byte	.LVL80
 4041 067d 14000000 		.4byte	.LVL82
 4042 0681 0100     		.2byte	0x1
 4043 0683 52       		.byte	0x52
 4044 0684 14000000 		.4byte	.LVL82
 4045 0688 5A000000 		.4byte	.LVL89
 4046 068c 0100     		.2byte	0x1
 4047 068e 57       		.byte	0x57
 4048 068f 5A000000 		.4byte	.LVL89
 4049 0693 5E000000 		.4byte	.LVL90
 4050 0697 0300     		.2byte	0x3
 4051 0699 77       		.byte	0x77
 4052 069a 01       		.sleb128 1
 4053 069b 9F       		.byte	0x9f
 4054 069c 6E000000 		.4byte	.LVL92
 4055 06a0 84000000 		.4byte	.LVL96
 4056 06a4 0100     		.2byte	0x1
 4057 06a6 57       		.byte	0x57
 4058 06a7 8A000000 		.4byte	.LVL97
 4059 06ab 95000000 		.4byte	.LVL99-1
 4060 06af 0100     		.2byte	0x1
 4061 06b1 52       		.byte	0x52
 4062 06b2 95000000 		.4byte	.LVL99-1
 4063 06b6 98000000 		.4byte	.LFE17
 4064 06ba 0100     		.2byte	0x1
 4065 06bc 57       		.byte	0x57
 4066 06bd 00000000 		.4byte	0
 4067 06c1 00000000 		.4byte	0
 4068              	.LLST37:
 4069 06c5 00000000 		.4byte	.LVL80
 4070 06c9 14000000 		.4byte	.LVL82
 4071 06cd 0100     		.2byte	0x1
 4072 06cf 53       		.byte	0x53
 4073 06d0 14000000 		.4byte	.LVL82
 4074 06d4 8A000000 		.4byte	.LVL97
 4075 06d8 0100     		.2byte	0x1
 4076 06da 5B       		.byte	0x5b
 4077 06db 8A000000 		.4byte	.LVL97
 4078 06df 95000000 		.4byte	.LVL99-1
 4079 06e3 0100     		.2byte	0x1
 4080 06e5 53       		.byte	0x53
 4081 06e6 95000000 		.4byte	.LVL99-1
 4082 06ea 98000000 		.4byte	.LFE17
 4083 06ee 0100     		.2byte	0x1
 4084 06f0 5B       		.byte	0x5b
 4085 06f1 00000000 		.4byte	0
ARM GAS  /tmp/ccwQM1Rs.s 			page 73


 4086 06f5 00000000 		.4byte	0
 4087              	.LLST38:
 4088 06f9 10000000 		.4byte	.LVL81
 4089 06fd 22000000 		.4byte	.LVL84
 4090 0701 0200     		.2byte	0x2
 4091 0703 30       		.byte	0x30
 4092 0704 9F       		.byte	0x9f
 4093 0705 22000000 		.4byte	.LVL84
 4094 0709 8A000000 		.4byte	.LVL97
 4095 070d 0100     		.2byte	0x1
 4096 070f 59       		.byte	0x59
 4097 0710 8A000000 		.4byte	.LVL97
 4098 0714 98000000 		.4byte	.LFE17
 4099 0718 0200     		.2byte	0x2
 4100 071a 30       		.byte	0x30
 4101 071b 9F       		.byte	0x9f
 4102 071c 00000000 		.4byte	0
 4103 0720 00000000 		.4byte	0
 4104              		.section	.debug_aranges,"",%progbits
 4105 0000 6C000000 		.4byte	0x6c
 4106 0004 0200     		.2byte	0x2
 4107 0006 00000000 		.4byte	.Ldebug_info0
 4108 000a 04       		.byte	0x4
 4109 000b 00       		.byte	0
 4110 000c 0000     		.2byte	0
 4111 000e 0000     		.2byte	0
 4112 0010 00000000 		.4byte	.LFB7
 4113 0014 30000000 		.4byte	.LFE7-.LFB7
 4114 0018 00000000 		.4byte	.LFB8
 4115 001c 1E000000 		.4byte	.LFE8-.LFB8
 4116 0020 00000000 		.4byte	.LFB9
 4117 0024 30000000 		.4byte	.LFE9-.LFB9
 4118 0028 00000000 		.4byte	.LFB10
 4119 002c 56000000 		.4byte	.LFE10-.LFB10
 4120 0030 00000000 		.4byte	.LFB11
 4121 0034 62000000 		.4byte	.LFE11-.LFB11
 4122 0038 00000000 		.4byte	.LFB12
 4123 003c 9E000000 		.4byte	.LFE12-.LFB12
 4124 0040 00000000 		.4byte	.LFB13
 4125 0044 1C000000 		.4byte	.LFE13-.LFB13
 4126 0048 00000000 		.4byte	.LFB14
 4127 004c 32000000 		.4byte	.LFE14-.LFB14
 4128 0050 00000000 		.4byte	.LFB15
 4129 0054 6A000000 		.4byte	.LFE15-.LFB15
 4130 0058 00000000 		.4byte	.LFB16
 4131 005c 4A000000 		.4byte	.LFE16-.LFB16
 4132 0060 00000000 		.4byte	.LFB17
 4133 0064 98000000 		.4byte	.LFE17-.LFB17
 4134 0068 00000000 		.4byte	0
 4135 006c 00000000 		.4byte	0
 4136              		.section	.debug_ranges,"",%progbits
 4137              	.Ldebug_ranges0:
 4138 0000 1A000000 		.4byte	.LBB19
 4139 0004 22000000 		.4byte	.LBE19
 4140 0008 24000000 		.4byte	.LBB21
 4141 000c 28000000 		.4byte	.LBE21
 4142 0010 54000000 		.4byte	.LBB23
ARM GAS  /tmp/ccwQM1Rs.s 			page 74


 4143 0014 62000000 		.4byte	.LBE23
 4144 0018 00000000 		.4byte	0
 4145 001c 00000000 		.4byte	0
 4146 0020 04000000 		.4byte	.LBB30
 4147 0024 06000000 		.4byte	.LBE30
 4148 0028 0C000000 		.4byte	.LBB31
 4149 002c 10000000 		.4byte	.LBE31
 4150 0030 00000000 		.4byte	0
 4151 0034 00000000 		.4byte	0
 4152 0038 16000000 		.4byte	.LBB32
 4153 003c 1E000000 		.4byte	.LBE32
 4154 0040 20000000 		.4byte	.LBB34
 4155 0044 24000000 		.4byte	.LBE34
 4156 0048 5A000000 		.4byte	.LBB36
 4157 004c 6A000000 		.4byte	.LBE36
 4158 0050 00000000 		.4byte	0
 4159 0054 00000000 		.4byte	0
 4160 0058 00000000 		.4byte	.LFB7
 4161 005c 30000000 		.4byte	.LFE7
 4162 0060 00000000 		.4byte	.LFB8
 4163 0064 1E000000 		.4byte	.LFE8
 4164 0068 00000000 		.4byte	.LFB9
 4165 006c 30000000 		.4byte	.LFE9
 4166 0070 00000000 		.4byte	.LFB10
 4167 0074 56000000 		.4byte	.LFE10
 4168 0078 00000000 		.4byte	.LFB11
 4169 007c 62000000 		.4byte	.LFE11
 4170 0080 00000000 		.4byte	.LFB12
 4171 0084 9E000000 		.4byte	.LFE12
 4172 0088 00000000 		.4byte	.LFB13
 4173 008c 1C000000 		.4byte	.LFE13
 4174 0090 00000000 		.4byte	.LFB14
 4175 0094 32000000 		.4byte	.LFE14
 4176 0098 00000000 		.4byte	.LFB15
 4177 009c 6A000000 		.4byte	.LFE15
 4178 00a0 00000000 		.4byte	.LFB16
 4179 00a4 4A000000 		.4byte	.LFE16
 4180 00a8 00000000 		.4byte	.LFB17
 4181 00ac 98000000 		.4byte	.LFE17
 4182 00b0 00000000 		.4byte	0
 4183 00b4 00000000 		.4byte	0
 4184              		.section	.debug_line,"",%progbits
 4185              	.Ldebug_line0:
 4186 0000 85030000 		.section	.debug_str,"MS",%progbits,1
 4186      02006E01 
 4186      00000201 
 4186      FB0E0D00 
 4186      01010101 
 4187              	.LASF93:
 4188 0000 63684F51 		.ascii	"chOQInit\000"
 4188      496E6974 
 4188      00
 4189              	.LASF44:
 4190 0009 705F6D73 		.ascii	"p_msg\000"
 4190      6700
 4191              	.LASF107:
 4192 000f 71756575 		.ascii	"queue_insert\000"
ARM GAS  /tmp/ccwQM1Rs.s 			page 75


 4192      655F696E 
 4192      73657274 
 4192      00
 4193              	.LASF94:
 4194 001c 6F6E6679 		.ascii	"onfy\000"
 4194      00
 4195              	.LASF2:
 4196 0021 73697A65 		.ascii	"size_t\000"
 4196      5F7400
 4197              	.LASF67:
 4198 0028 7264796D 		.ascii	"rdymsg\000"
 4198      736700
 4199              	.LASF88:
 4200 002f 63684951 		.ascii	"chIQInit\000"
 4200      496E6974 
 4200      00
 4201              	.LASF17:
 4202 0038 75696E74 		.ascii	"uint64_t\000"
 4202      36345F74 
 4202      00
 4203              	.LASF83:
 4204 0041 4F757470 		.ascii	"OutputQueue\000"
 4204      75745175 
 4204      65756500 
 4205              	.LASF3:
 4206 004d 5F5F7569 		.ascii	"__uint8_t\000"
 4206      6E74385F 
 4206      7400
 4207              	.LASF92:
 4208 0057 63684951 		.ascii	"chIQReadTimeout\000"
 4208      52656164 
 4208      54696D65 
 4208      6F757400 
 4209              	.LASF104:
 4210 0067 474E5520 		.ascii	"GNU C 4.8.2 -mcpu=cortex-m4 -mno-thumb-interwork -m"
 4210      4320342E 
 4210      382E3220 
 4210      2D6D6370 
 4210      753D636F 
 4211 009a 7468756D 		.ascii	"thumb -ggdb -O2 -fomit-frame-pointer -falign-functi"
 4211      62202D67 
 4211      67646220 
 4211      2D4F3220 
 4211      2D666F6D 
 4212 00cd 6F6E733D 		.ascii	"ons=16 -ffunction-sections -fdata-sections -fno-com"
 4212      3136202D 
 4212      6666756E 
 4212      6374696F 
 4212      6E2D7365 
 4213 0100 6D6F6E00 		.ascii	"mon\000"
 4214              	.LASF13:
 4215 0104 6C6F6E67 		.ascii	"long long unsigned int\000"
 4215      206C6F6E 
 4215      6720756E 
 4215      7369676E 
 4215      65642069 
 4216              	.LASF68:
ARM GAS  /tmp/ccwQM1Rs.s 			page 76


 4217 011b 65786974 		.ascii	"exitcode\000"
 4217      636F6465 
 4217      00
 4218              	.LASF111:
 4219 0124 63684462 		.ascii	"chDbgPanic\000"
 4219      6750616E 
 4219      696300
 4220              	.LASF31:
 4221 012f 705F7072 		.ascii	"p_prio\000"
 4221      696F00
 4222              	.LASF73:
 4223 0136 715F7761 		.ascii	"q_waiting\000"
 4223      6974696E 
 4223      6700
 4224              	.LASF11:
 4225 0140 6C6F6E67 		.ascii	"long long int\000"
 4225      206C6F6E 
 4225      6720696E 
 4225      7400
 4226              	.LASF1:
 4227 014e 7369676E 		.ascii	"signed char\000"
 4227      65642063 
 4227      68617200 
 4228              	.LASF48:
 4229 015a 705F6D70 		.ascii	"p_mpool\000"
 4229      6F6F6C00 
 4230              	.LASF18:
 4231 0162 626F6F6C 		.ascii	"bool_t\000"
 4231      5F7400
 4232              	.LASF64:
 4233 0169 6D5F7175 		.ascii	"m_queue\000"
 4233      65756500 
 4234              	.LASF23:
 4235 0171 74736C69 		.ascii	"tslices_t\000"
 4235      6365735F 
 4235      7400
 4236              	.LASF109:
 4237 017b 71776169 		.ascii	"qwait\000"
 4237      7400
 4238              	.LASF8:
 4239 0181 6C6F6E67 		.ascii	"long int\000"
 4239      20696E74 
 4239      00
 4240              	.LASF21:
 4241 018a 74737461 		.ascii	"tstate_t\000"
 4241      74655F74 
 4241      00
 4242              	.LASF97:
 4243 0193 63684F51 		.ascii	"chOQGetI\000"
 4243      47657449 
 4243      00
 4244              	.LASF75:
 4245 019c 715F6275 		.ascii	"q_buffer\000"
 4245      66666572 
 4245      00
 4246              	.LASF77:
 4247 01a5 715F7772 		.ascii	"q_wrptr\000"
ARM GAS  /tmp/ccwQM1Rs.s 			page 77


 4247      70747200 
 4248              	.LASF33:
 4249 01ad 705F6E65 		.ascii	"p_newer\000"
 4249      77657200 
 4250              	.LASF9:
 4251 01b5 5F5F7569 		.ascii	"__uint32_t\000"
 4251      6E743332 
 4251      5F7400
 4252              	.LASF51:
 4253 01c0 72656761 		.ascii	"regarm_t\000"
 4253      726D5F74 
 4253      00
 4254              	.LASF87:
 4255 01c9 6C696E6B 		.ascii	"link\000"
 4255      00
 4256              	.LASF96:
 4257 01ce 63684F51 		.ascii	"chOQPutTimeout\000"
 4257      50757454 
 4257      696D656F 
 4257      757400
 4258              	.LASF90:
 4259 01dd 63684951 		.ascii	"chIQPutI\000"
 4259      50757449 
 4259      00
 4260              	.LASF36:
 4261 01e6 705F7374 		.ascii	"p_stklimit\000"
 4261      6B6C696D 
 4261      697400
 4262              	.LASF0:
 4263 01f1 756E7369 		.ascii	"unsigned int\000"
 4263      676E6564 
 4263      20696E74 
 4263      00
 4264              	.LASF89:
 4265 01fe 63684951 		.ascii	"chIQResetI\000"
 4265      52657365 
 4265      744900
 4266              	.LASF10:
 4267 0209 6C6F6E67 		.ascii	"long unsigned int\000"
 4267      20756E73 
 4267      69676E65 
 4267      6420696E 
 4267      7400
 4268              	.LASF54:
 4269 021b 636F6E74 		.ascii	"context\000"
 4269      65787400 
 4270              	.LASF85:
 4271 0223 73697A65 		.ascii	"size\000"
 4271      00
 4272              	.LASF6:
 4273 0228 73686F72 		.ascii	"short unsigned int\000"
 4273      7420756E 
 4273      7369676E 
 4273      65642069 
 4273      6E7400
 4274              	.LASF25:
 4275 023b 6D73675F 		.ascii	"msg_t\000"
ARM GAS  /tmp/ccwQM1Rs.s 			page 78


 4275      7400
 4276              	.LASF59:
 4277 0241 725F6E65 		.ascii	"r_newer\000"
 4277      77657200 
 4278              	.LASF101:
 4279 0249 63684462 		.ascii	"chDbgCheckClassI\000"
 4279      67436865 
 4279      636B436C 
 4279      61737349 
 4279      00
 4280              	.LASF20:
 4281 025a 746D6F64 		.ascii	"tmode_t\000"
 4281      655F7400 
 4282              	.LASF50:
 4283 0262 54687265 		.ascii	"ThreadsList\000"
 4283      6164734C 
 4283      69737400 
 4284              	.LASF26:
 4285 026e 6576656E 		.ascii	"eventmask_t\000"
 4285      746D6173 
 4285      6B5F7400 
 4286              	.LASF82:
 4287 027a 496E7075 		.ascii	"InputQueue\000"
 4287      74517565 
 4287      756500
 4288              	.LASF63:
 4289 0285 4D757465 		.ascii	"Mutex\000"
 4289      7800
 4290              	.LASF72:
 4291 028b 47656E65 		.ascii	"GenericQueue\000"
 4291      72696351 
 4291      75657565 
 4291      00
 4292              	.LASF52:
 4293 0298 73746B61 		.ascii	"stkalign_t\000"
 4293      6C69676E 
 4293      5F7400
 4294              	.LASF98:
 4295 02a3 63684F51 		.ascii	"chOQWriteTimeout\000"
 4295      57726974 
 4295      6554696D 
 4295      656F7574 
 4295      00
 4296              	.LASF102:
 4297 02b4 6462675F 		.ascii	"dbg_check_unlock\000"
 4297      63686563 
 4297      6B5F756E 
 4297      6C6F636B 
 4297      00
 4298              	.LASF55:
 4299 02c5 73697A65 		.ascii	"sizetype\000"
 4299      74797065 
 4299      00
 4300              	.LASF74:
 4301 02ce 715F636F 		.ascii	"q_counter\000"
 4301      756E7465 
 4301      7200
ARM GAS  /tmp/ccwQM1Rs.s 			page 79


 4302              	.LASF103:
 4303 02d8 6462675F 		.ascii	"dbg_check_lock\000"
 4303      63686563 
 4303      6B5F6C6F 
 4303      636B00
 4304              	.LASF34:
 4305 02e7 705F6F6C 		.ascii	"p_older\000"
 4305      64657200 
 4306              	.LASF58:
 4307 02ef 725F6374 		.ascii	"r_ctx\000"
 4307      7800
 4308              	.LASF49:
 4309 02f5 54687265 		.ascii	"ThreadsQueue\000"
 4309      61647351 
 4309      75657565 
 4309      00
 4310              	.LASF106:
 4311 0302 2F686F6D 		.ascii	"/home/mo/ARMProjects/ChibiOS_Sample/ChibiOS_2.6.5/t"
 4311      652F6D6F 
 4311      2F41524D 
 4311      50726F6A 
 4311      65637473 
 4312 0335 65737468 		.ascii	"esthal/STM32F4xx/ADC\000"
 4312      616C2F53 
 4312      544D3332 
 4312      46347878 
 4312      2F414443 
 4313              	.LASF84:
 4314 034a 74696D65 		.ascii	"time\000"
 4314      00
 4315              	.LASF61:
 4316 034f 725F6375 		.ascii	"r_current\000"
 4316      7272656E 
 4316      7400
 4317              	.LASF60:
 4318 0359 725F6F6C 		.ascii	"r_older\000"
 4318      64657200 
 4319              	.LASF12:
 4320 0361 5F5F7569 		.ascii	"__uint64_t\000"
 4320      6E743634 
 4320      5F7400
 4321              	.LASF22:
 4322 036c 74726566 		.ascii	"trefs_t\000"
 4322      735F7400 
 4323              	.LASF81:
 4324 0374 716E6F74 		.ascii	"qnotify_t\000"
 4324      6966795F 
 4324      7400
 4325              	.LASF30:
 4326 037e 705F7072 		.ascii	"p_prev\000"
 4326      657600
 4327              	.LASF24:
 4328 0385 74707269 		.ascii	"tprio_t\000"
 4328      6F5F7400 
 4329              	.LASF78:
 4330 038d 715F7264 		.ascii	"q_rdptr\000"
 4330      70747200 
ARM GAS  /tmp/ccwQM1Rs.s 			page 80


 4331              	.LASF19:
 4332 0395 5F426F6F 		.ascii	"_Bool\000"
 4332      6C00
 4333              	.LASF15:
 4334 039b 696E7433 		.ascii	"int32_t\000"
 4334      325F7400 
 4335              	.LASF4:
 4336 03a3 756E7369 		.ascii	"unsigned char\000"
 4336      676E6564 
 4336      20636861 
 4336      7200
 4337              	.LASF46:
 4338 03b1 705F6D74 		.ascii	"p_mtxlist\000"
 4338      786C6973 
 4338      7400
 4339              	.LASF5:
 4340 03bb 73686F72 		.ascii	"short int\000"
 4340      7420696E 
 4340      7400
 4341              	.LASF37:
 4342 03c5 705F7374 		.ascii	"p_state\000"
 4342      61746500 
 4343              	.LASF40:
 4344 03cd 705F7072 		.ascii	"p_preempt\000"
 4344      65656D70 
 4344      7400
 4345              	.LASF57:
 4346 03d7 725F7072 		.ascii	"r_prio\000"
 4346      696F00
 4347              	.LASF70:
 4348 03de 65776D61 		.ascii	"ewmask\000"
 4348      736B00
 4349              	.LASF29:
 4350 03e5 705F6E65 		.ascii	"p_next\000"
 4350      787400
 4351              	.LASF86:
 4352 03ec 696E6679 		.ascii	"infy\000"
 4352      00
 4353              	.LASF38:
 4354 03f1 705F666C 		.ascii	"p_flags\000"
 4354      61677300 
 4355              	.LASF28:
 4356 03f9 54687265 		.ascii	"Thread\000"
 4356      616400
 4357              	.LASF45:
 4358 0400 705F6570 		.ascii	"p_epending\000"
 4358      656E6469 
 4358      6E6700
 4359              	.LASF16:
 4360 040b 75696E74 		.ascii	"uint32_t\000"
 4360      33325F74 
 4360      00
 4361              	.LASF56:
 4362 0414 725F7175 		.ascii	"r_queue\000"
 4362      65756500 
 4363              	.LASF100:
 4364 041c 63685363 		.ascii	"chSchReadyI\000"
ARM GAS  /tmp/ccwQM1Rs.s 			page 81


 4364      68526561 
 4364      64794900 
 4365              	.LASF71:
 4366 0428 63686172 		.ascii	"char\000"
 4366      00
 4367              	.LASF108:
 4368 042d 6669666F 		.ascii	"fifo_remove\000"
 4368      5F72656D 
 4368      6F766500 
 4369              	.LASF66:
 4370 0439 6D5F6E65 		.ascii	"m_next\000"
 4370      787400
 4371              	.LASF27:
 4372 0440 73797374 		.ascii	"systime_t\000"
 4372      696D655F 
 4372      7400
 4373              	.LASF47:
 4374 044a 705F7265 		.ascii	"p_realprio\000"
 4374      616C7072 
 4374      696F00
 4375              	.LASF7:
 4376 0455 5F5F696E 		.ascii	"__int32_t\000"
 4376      7433325F 
 4376      7400
 4377              	.LASF95:
 4378 045f 63684F51 		.ascii	"chOQResetI\000"
 4378      52657365 
 4378      744900
 4379              	.LASF41:
 4380 046a 705F7469 		.ascii	"p_time\000"
 4380      6D6500
 4381              	.LASF53:
 4382 0471 696E7463 		.ascii	"intctx\000"
 4382      747800
 4383              	.LASF43:
 4384 0478 705F6D73 		.ascii	"p_msgqueue\000"
 4384      67717565 
 4384      756500
 4385              	.LASF105:
 4386 0483 2E2E2F2E 		.ascii	"../../../os/kernel/src/chqueues.c\000"
 4386      2E2F2E2E 
 4386      2F6F732F 
 4386      6B65726E 
 4386      656C2F73 
 4387              	.LASF76:
 4388 04a5 715F746F 		.ascii	"q_top\000"
 4388      7000
 4389              	.LASF39:
 4390 04ab 705F7265 		.ascii	"p_refs\000"
 4390      667300
 4391              	.LASF62:
 4392 04b2 52656164 		.ascii	"ReadyList\000"
 4392      794C6973 
 4392      7400
 4393              	.LASF79:
 4394 04bc 715F6E6F 		.ascii	"q_notify\000"
 4394      74696679 
ARM GAS  /tmp/ccwQM1Rs.s 			page 82


 4394      00
 4395              	.LASF110:
 4396 04c5 726C6973 		.ascii	"rlist\000"
 4396      7400
 4397              	.LASF14:
 4398 04cb 75696E74 		.ascii	"uint8_t\000"
 4398      385F7400 
 4399              	.LASF69:
 4400 04d3 77746F62 		.ascii	"wtobjp\000"
 4400      6A7000
 4401              	.LASF35:
 4402 04da 705F6E61 		.ascii	"p_name\000"
 4402      6D6500
 4403              	.LASF99:
 4404 04e1 63685363 		.ascii	"chSchGoSleepTimeoutS\000"
 4404      68476F53 
 4404      6C656570 
 4404      54696D65 
 4404      6F757453 
 4405              	.LASF80:
 4406 04f6 715F6C69 		.ascii	"q_link\000"
 4406      6E6B00
 4407              	.LASF65:
 4408 04fd 6D5F6F77 		.ascii	"m_owner\000"
 4408      6E657200 
 4409              	.LASF32:
 4410 0505 705F6374 		.ascii	"p_ctx\000"
 4410      7800
 4411              	.LASF42:
 4412 050b 705F7761 		.ascii	"p_waiting\000"
 4412      6974696E 
 4412      6700
 4413              	.LASF91:
 4414 0515 63684951 		.ascii	"chIQGetTimeout\000"
 4414      47657454 
 4414      696D656F 
 4414      757400
 4415              		.ident	"GCC: (4.8.2-14ubuntu1+6) 4.8.2"
ARM GAS  /tmp/ccwQM1Rs.s 			page 83


DEFINED SYMBOLS
                            *ABS*:0000000000000000 chqueues.c
     /tmp/ccwQM1Rs.s:19     .text.qwait:0000000000000000 $t
     /tmp/ccwQM1Rs.s:24     .text.qwait:0000000000000000 qwait
     /tmp/ccwQM1Rs.s:76     .text.chIQInit:0000000000000000 $t
     /tmp/ccwQM1Rs.s:82     .text.chIQInit:0000000000000000 chIQInit
     /tmp/ccwQM1Rs.s:125    .text.chIQResetI:0000000000000000 $t
     /tmp/ccwQM1Rs.s:131    .text.chIQResetI:0000000000000000 chIQResetI
     /tmp/ccwQM1Rs.s:192    .text.chIQPutI:0000000000000000 $t
     /tmp/ccwQM1Rs.s:198    .text.chIQPutI:0000000000000000 chIQPutI
     /tmp/ccwQM1Rs.s:289    .text.chIQGetTimeout:0000000000000000 $t
     /tmp/ccwQM1Rs.s:295    .text.chIQGetTimeout:0000000000000000 chIQGetTimeout
     /tmp/ccwQM1Rs.s:414    .text.chIQReadTimeout:0000000000000000 $t
     /tmp/ccwQM1Rs.s:420    .text.chIQReadTimeout:0000000000000000 chIQReadTimeout
     /tmp/ccwQM1Rs.s:1066   .rodata.str1.4:0000000000000000 .LC0
     /tmp/ccwQM1Rs.s:573    .text.chOQInit:0000000000000000 $t
     /tmp/ccwQM1Rs.s:579    .text.chOQInit:0000000000000000 chOQInit
     /tmp/ccwQM1Rs.s:618    .text.chOQResetI:0000000000000000 $t
     /tmp/ccwQM1Rs.s:624    .text.chOQResetI:0000000000000000 chOQResetI
     /tmp/ccwQM1Rs.s:687    .text.chOQPutTimeout:0000000000000000 $t
     /tmp/ccwQM1Rs.s:693    .text.chOQPutTimeout:0000000000000000 chOQPutTimeout
     /tmp/ccwQM1Rs.s:813    .text.chOQGetI:0000000000000000 $t
     /tmp/ccwQM1Rs.s:819    .text.chOQGetI:0000000000000000 chOQGetI
     /tmp/ccwQM1Rs.s:905    .text.chOQWriteTimeout:0000000000000000 $t
     /tmp/ccwQM1Rs.s:911    .text.chOQWriteTimeout:0000000000000000 chOQWriteTimeout
     /tmp/ccwQM1Rs.s:1068   .rodata.str1.4:0000000000000014 .LC1
     /tmp/ccwQM1Rs.s:1065   .rodata.str1.4:0000000000000000 $d
                     .debug_frame:0000000000000010 $d

UNDEFINED SYMBOLS
rlist
chSchGoSleepTimeoutS
chDbgCheckClassI
chSchReadyI
dbg_check_lock
dbg_check_unlock
chDbgPanic
