ARM GAS  /tmp/ccwQM1Rs.s 			page 1


   1              		.syntax unified
   2              		.cpu cortex-m4
   3              		.fpu softvfp
   4              		.eabi_attribute 20, 1
   5              		.eabi_attribute 21, 1
   6              		.eabi_attribute 23, 3
   7              		.eabi_attribute 24, 1
   8              		.eabi_attribute 25, 1
   9              		.eabi_attribute 26, 1
  10              		.eabi_attribute 30, 2
  11              		.eabi_attribute 34, 1
  12              		.eabi_attribute 18, 4
  13              		.thumb
  14              		.file	"chqueues.c"
  15              		.text
  16              	.Ltext0:
  17              		.cfi_sections	.debug_frame
  18              		.section	.text.qwait,"ax",%progbits
  19              		.align	2
  20              		.p2align 4,,15
  21              		.thumb
  22              		.thumb_func
  23              		.type	qwait, %function
  24              	qwait:
  25              	.LFB7:
  26              		.file 1 "../../../os/kernel/src/chqueues.c"
  27              		.loc 1 70 0
  28              		.cfi_startproc
  29              		@ args = 0, pretend = 0, frame = 0
  30              		@ frame_needed = 0, uses_anonymous_args = 0
  31              		@ link register save eliminated.
  32              	.LVL0:
  33 0000 10B4     		push	{r4}
  34              		.cfi_def_cfa_offset 4
  35              		.cfi_offset 4, -4
  36              		.loc 1 70 0
  37 0002 0246     		mov	r2, r0
  38              		.loc 1 72 0
  39 0004 79B1     		cbz	r1, .L2
  40              		.loc 1 74 0
  41 0006 40F20003 		movw	r3, #:lower16:rlist
  42 000a C0F20003 		movt	r3, #:upper16:rlist
  43              		.loc 1 76 0
  44 000e 0D20     		movs	r0, #13
  45              	.LVL1:
  46              		.loc 1 74 0
  47 0010 9B69     		ldr	r3, [r3, #24]
  48 0012 9A62     		str	r2, [r3, #40]
  49              	.LVL2:
  50              	.LBB12:
  51              	.LBB13:
  52              		.file 2 "../../../os/kernel/include/chinline.h"
  53              		.loc 2 55 0
  54 0014 5468     		ldr	r4, [r2, #4]
  55 0016 83E81400 		stmia	r3, {r2, r4}
  56              		.loc 2 56 0
  57 001a 5360     		str	r3, [r2, #4]
ARM GAS  /tmp/ccwQM1Rs.s 			page 2


  58 001c 2360     		str	r3, [r4]
  59              	.LBE13:
  60              	.LBE12:
  61              		.loc 1 77 0
  62 001e 5DF8044B 		ldr	r4, [sp], #4
  63              		.loc 1 76 0
  64 0022 FFF7FEBF 		b	chSchGoSleepTimeoutS
  65              	.LVL3:
  66              	.L2:
  67              		.loc 1 77 0
  68 0026 4FF0FF30 		mov	r0, #-1
  69              	.LVL4:
  70 002a 5DF8044B 		ldr	r4, [sp], #4
  71 002e 7047     		bx	lr
  72              		.cfi_endproc
  73              	.LFE7:
  74              		.size	qwait, .-qwait
  75              		.section	.text.chIQInit,"ax",%progbits
  76              		.align	2
  77              		.p2align 4,,15
  78              		.global	chIQInit
  79              		.thumb
  80              		.thumb_func
  81              		.type	chIQInit, %function
  82              	chIQInit:
  83              	.LFB8:
  84              		.loc 1 96 0
  85              		.cfi_startproc
  86              		@ args = 4, pretend = 0, frame = 0
  87              		@ frame_needed = 0, uses_anonymous_args = 0
  88              		@ link register save eliminated.
  89              	.LVL5:
  90 0000 30B4     		push	{r4, r5}
  91              		.cfi_def_cfa_offset 8
  92              		.cfi_offset 4, -8
  93              		.cfi_offset 5, -4
  94              		.loc 1 96 0
  95 0002 029C     		ldr	r4, [sp, #8]
  96              		.loc 1 98 0
  97 0004 4060     		str	r0, [r0, #4]
  98              		.loc 1 99 0
  99 0006 0025     		movs	r5, #0
 100              		.loc 1 101 0
 101 0008 0A44     		add	r2, r2, r1
 102              	.LVL6:
 103              		.loc 1 99 0
 104 000a 8560     		str	r5, [r0, #8]
 105              		.loc 1 103 0
 106 000c 0462     		str	r4, [r0, #32]
 107              		.loc 1 101 0
 108 000e 0261     		str	r2, [r0, #16]
 109              		.loc 1 98 0
 110 0010 0060     		str	r0, [r0]
 111              		.loc 1 100 0
 112 0012 4161     		str	r1, [r0, #20]
 113 0014 8161     		str	r1, [r0, #24]
 114 0016 C160     		str	r1, [r0, #12]
ARM GAS  /tmp/ccwQM1Rs.s 			page 3


 115              		.loc 1 102 0
 116 0018 C361     		str	r3, [r0, #28]
 117              		.loc 1 104 0
 118 001a 30BC     		pop	{r4, r5}
 119              	.LVL7:
 120 001c 7047     		bx	lr
 121              		.cfi_endproc
 122              	.LFE8:
 123              		.size	chIQInit, .-chIQInit
 124 001e 00BF     		.section	.text.chIQResetI,"ax",%progbits
 125              		.align	2
 126              		.p2align 4,,15
 127              		.global	chIQResetI
 128              		.thumb
 129              		.thumb_func
 130              		.type	chIQResetI, %function
 131              	chIQResetI:
 132              	.LFB9:
 133              		.loc 1 117 0
 134              		.cfi_startproc
 135              		@ args = 0, pretend = 0, frame = 0
 136              		@ frame_needed = 0, uses_anonymous_args = 0
 137              	.LVL8:
 138 0000 38B5     		push	{r3, r4, r5, lr}
 139              		.cfi_def_cfa_offset 16
 140              		.cfi_offset 3, -16
 141              		.cfi_offset 4, -12
 142              		.cfi_offset 5, -8
 143              		.cfi_offset 14, -4
 144              		.loc 1 117 0
 145 0002 0446     		mov	r4, r0
 146              		.loc 1 119 0
 147 0004 FFF7FEFF 		bl	chDbgCheckClassI
 148              	.LVL9:
 149              		.loc 1 123 0
 150 0008 2068     		ldr	r0, [r4]
 151              		.loc 1 121 0
 152 000a E368     		ldr	r3, [r4, #12]
 153              		.loc 1 122 0
 154 000c 0022     		movs	r2, #0
 155              		.loc 1 123 0
 156 000e A042     		cmp	r0, r4
 157              		.loc 1 121 0
 158 0010 6361     		str	r3, [r4, #20]
 159              		.loc 1 122 0
 160 0012 A260     		str	r2, [r4, #8]
 161              		.loc 1 121 0
 162 0014 A361     		str	r3, [r4, #24]
 163              		.loc 1 123 0
 164 0016 0AD0     		beq	.L5
 165              		.loc 1 124 0
 166 0018 6FF00105 		mvn	r5, #1
 167              	.L8:
 168              	.LVL10:
 169              	.LBB14:
 170              	.LBB15:
 171              		.loc 2 62 0
ARM GAS  /tmp/ccwQM1Rs.s 			page 4


 172 001c 0368     		ldr	r3, [r0]
 173 001e 2360     		str	r3, [r4]
 174 0020 5C60     		str	r4, [r3, #4]
 175              	.LBE15:
 176              	.LBE14:
 177              		.loc 1 124 0
 178 0022 FFF7FEFF 		bl	chSchReadyI
 179              	.LVL11:
 180 0026 8562     		str	r5, [r0, #40]
 181              		.loc 1 123 0
 182 0028 2068     		ldr	r0, [r4]
 183 002a A042     		cmp	r0, r4
 184 002c F6D1     		bne	.L8
 185              	.LVL12:
 186              	.L5:
 187 002e 38BD     		pop	{r3, r4, r5, pc}
 188              		.cfi_endproc
 189              	.LFE9:
 190              		.size	chIQResetI, .-chIQResetI
 191              		.section	.text.chIQPutI,"ax",%progbits
 192              		.align	2
 193              		.p2align 4,,15
 194              		.global	chIQPutI
 195              		.thumb
 196              		.thumb_func
 197              		.type	chIQPutI, %function
 198              	chIQPutI:
 199              	.LFB10:
 200              		.loc 1 140 0
 201              		.cfi_startproc
 202              		@ args = 0, pretend = 0, frame = 0
 203              		@ frame_needed = 0, uses_anonymous_args = 0
 204              	.LVL13:
 205 0000 38B5     		push	{r3, r4, r5, lr}
 206              		.cfi_def_cfa_offset 16
 207              		.cfi_offset 3, -16
 208              		.cfi_offset 4, -12
 209              		.cfi_offset 5, -8
 210              		.cfi_offset 14, -4
 211              		.loc 1 140 0
 212 0002 0446     		mov	r4, r0
 213 0004 0D46     		mov	r5, r1
 214              		.loc 1 142 0
 215 0006 FFF7FEFF 		bl	chDbgCheckClassI
 216              	.LVL14:
 217              		.loc 1 144 0
 218 000a 6369     		ldr	r3, [r4, #20]
 219 000c A269     		ldr	r2, [r4, #24]
 220 000e A168     		ldr	r1, [r4, #8]
 221 0010 9342     		cmp	r3, r2
 222 0012 1BD0     		beq	.L18
 223              	.L12:
 224              		.loc 1 148 0
 225 0014 5A1C     		adds	r2, r3, #1
 226              		.loc 1 147 0
 227 0016 0131     		adds	r1, r1, #1
 228              		.loc 1 148 0
ARM GAS  /tmp/ccwQM1Rs.s 			page 5


 229 0018 6261     		str	r2, [r4, #20]
 230              		.loc 1 147 0
 231 001a A160     		str	r1, [r4, #8]
 232              		.loc 1 148 0
 233 001c 1D70     		strb	r5, [r3]
 234              		.loc 1 149 0
 235 001e 6269     		ldr	r2, [r4, #20]
 236 0020 2369     		ldr	r3, [r4, #16]
 237 0022 9A42     		cmp	r2, r3
 238 0024 0BD2     		bcs	.L13
 239              		.loc 1 152 0
 240 0026 2068     		ldr	r0, [r4]
 241 0028 A042     		cmp	r0, r4
 242 002a 0DD0     		beq	.L16
 243              	.L19:
 244              	.LVL15:
 245              	.LBB16:
 246              	.LBB17:
 247              		.loc 2 62 0
 248 002c 0368     		ldr	r3, [r0]
 249 002e 2360     		str	r3, [r4]
 250 0030 5C60     		str	r4, [r3, #4]
 251              	.LBE17:
 252              	.LBE16:
 253              		.loc 1 153 0
 254 0032 FFF7FEFF 		bl	chSchReadyI
 255              	.LVL16:
 256 0036 0023     		movs	r3, #0
 257 0038 8362     		str	r3, [r0, #40]
 258              		.loc 1 155 0
 259 003a 1846     		mov	r0, r3
 260 003c 38BD     		pop	{r3, r4, r5, pc}
 261              	.LVL17:
 262              	.L13:
 263              		.loc 1 152 0
 264 003e 2068     		ldr	r0, [r4]
 265              		.loc 1 150 0
 266 0040 E368     		ldr	r3, [r4, #12]
 267              		.loc 1 152 0
 268 0042 A042     		cmp	r0, r4
 269              		.loc 1 150 0
 270 0044 6361     		str	r3, [r4, #20]
 271              		.loc 1 152 0
 272 0046 F1D1     		bne	.L19
 273              	.L16:
 274              		.loc 1 155 0
 275 0048 0020     		movs	r0, #0
 276 004a 38BD     		pop	{r3, r4, r5, pc}
 277              	.LVL18:
 278              	.L18:
 279              		.loc 1 144 0 discriminator 1
 280 004c 0029     		cmp	r1, #0
 281 004e E1D0     		beq	.L12
 282              		.loc 1 145 0
 283 0050 6FF00300 		mvn	r0, #3
 284 0054 38BD     		pop	{r3, r4, r5, pc}
 285              		.cfi_endproc
ARM GAS  /tmp/ccwQM1Rs.s 			page 6


 286              	.LFE10:
 287              		.size	chIQPutI, .-chIQPutI
 288 0056 00BFAFF3 		.section	.text.chIQGetTimeout,"ax",%progbits
 288      0080AFF3 
 288      0080
 289              		.align	2
 290              		.p2align 4,,15
 291              		.global	chIQGetTimeout
 292              		.thumb
 293              		.thumb_func
 294              		.type	chIQGetTimeout, %function
 295              	chIQGetTimeout:
 296              	.LFB11:
 297              		.loc 1 178 0
 298              		.cfi_startproc
 299              		@ args = 0, pretend = 0, frame = 0
 300              		@ frame_needed = 0, uses_anonymous_args = 0
 301              	.LVL19:
 302 0000 F8B5     		push	{r3, r4, r5, r6, r7, lr}
 303              		.cfi_def_cfa_offset 24
 304              		.cfi_offset 3, -24
 305              		.cfi_offset 4, -20
 306              		.cfi_offset 5, -16
 307              		.cfi_offset 6, -12
 308              		.cfi_offset 7, -8
 309              		.cfi_offset 14, -4
 310              		.loc 1 178 0
 311 0002 0446     		mov	r4, r0
 312 0004 0E46     		mov	r6, r1
 313              	.LBB18:
 314              		.loc 1 181 0
 315 0006 2023     		movs	r3, #32
 316              	@ 181 "../../../os/kernel/src/chqueues.c" 1
 317 0008 83F31188 		msr     BASEPRI, r3
 318              	@ 0 "" 2
 319              		.thumb
 320              	.LBE18:
 321 000c FFF7FEFF 		bl	dbg_check_lock
 322              	.LVL20:
 323              		.loc 1 182 0
 324 0010 E369     		ldr	r3, [r4, #28]
 325 0012 33B1     		cbz	r3, .L23
 326              		.loc 1 183 0
 327 0014 2046     		mov	r0, r4
 328 0016 9847     		blx	r3
 329              	.LVL21:
 330 0018 03E0     		b	.L23
 331              	.LVL22:
 332              	.L25:
 333              	.LBB19:
 334              		.loc 1 187 0
 335 001a FFF7FEFF 		bl	qwait
 336              	.LVL23:
 337 001e 071E     		subs	r7, r0, #0
 338 0020 18DB     		blt	.L30
 339              	.LVL24:
 340              	.L23:
ARM GAS  /tmp/ccwQM1Rs.s 			page 7


 341              	.LBE19:
 342              		.loc 1 185 0 discriminator 1
 343 0022 A568     		ldr	r5, [r4, #8]
 344              	.LBB21:
 345              		.loc 1 187 0 discriminator 1
 346 0024 2046     		mov	r0, r4
 347 0026 3146     		mov	r1, r6
 348              	.LBE21:
 349              		.loc 1 185 0 discriminator 1
 350 0028 002D     		cmp	r5, #0
 351 002a F6D0     		beq	.L25
 352              	.LVL25:
 353              		.loc 1 194 0
 354 002c A269     		ldr	r2, [r4, #24]
 355              		.loc 1 195 0
 356 002e 2169     		ldr	r1, [r4, #16]
 357              	.LVL26:
 358              		.loc 1 194 0
 359 0030 531C     		adds	r3, r2, #1
 360              		.loc 1 195 0
 361 0032 8B42     		cmp	r3, r1
 362              		.loc 1 194 0
 363 0034 A361     		str	r3, [r4, #24]
 364              		.loc 1 193 0
 365 0036 05F1FF35 		add	r5, r5, #-1
 366              		.loc 1 196 0
 367 003a 28BF     		it	cs
 368 003c E368     		ldrcs	r3, [r4, #12]
 369              		.loc 1 193 0
 370 003e A560     		str	r5, [r4, #8]
 371              		.loc 1 194 0
 372 0040 1778     		ldrb	r7, [r2]	@ zero_extendqisi2
 373              	.LVL27:
 374              		.loc 1 196 0
 375 0042 28BF     		it	cs
 376 0044 A361     		strcs	r3, [r4, #24]
 377              	.LVL28:
 378              		.loc 1 198 0
 379 0046 FFF7FEFF 		bl	dbg_check_unlock
 380              	.LVL29:
 381              	.LBB22:
 382 004a 0023     		movs	r3, #0
 383              	@ 198 "../../../os/kernel/src/chqueues.c" 1
 384 004c 83F31188 		msr     BASEPRI, r3
 385              	@ 0 "" 2
 386              		.thumb
 387              	.LBE22:
 388              		.loc 1 199 0
 389 0050 3846     		mov	r0, r7
 390              		.loc 1 200 0
 391 0052 F8BD     		pop	{r3, r4, r5, r6, r7, pc}
 392              	.LVL30:
 393              	.L30:
 394              	.LBB23:
 395              		.loc 1 188 0
 396 0054 FFF7FEFF 		bl	dbg_check_unlock
 397              	.LVL31:
ARM GAS  /tmp/ccwQM1Rs.s 			page 8


 398              	.LBB20:
 399 0058 2B46     		mov	r3, r5
 400              	@ 188 "../../../os/kernel/src/chqueues.c" 1
 401 005a 83F31188 		msr     BASEPRI, r3
 402              	@ 0 "" 2
 403              		.thumb
 404              	.LBE20:
 405              		.loc 1 187 0
 406 005e 3846     		mov	r0, r7
 407              		.loc 1 189 0
 408 0060 F8BD     		pop	{r3, r4, r5, r6, r7, pc}
 409              	.LBE23:
 410              		.cfi_endproc
 411              	.LFE11:
 412              		.size	chIQGetTimeout, .-chIQGetTimeout
 413 0062 00BFAFF3 		.section	.text.chIQReadTimeout,"ax",%progbits
 413      0080AFF3 
 413      0080AFF3 
 413      0080
 414              		.align	2
 415              		.p2align 4,,15
 416              		.global	chIQReadTimeout
 417              		.thumb
 418              		.thumb_func
 419              		.type	chIQReadTimeout, %function
 420              	chIQReadTimeout:
 421              	.LFB12:
 422              		.loc 1 227 0
 423              		.cfi_startproc
 424              		@ args = 0, pretend = 0, frame = 0
 425              		@ frame_needed = 0, uses_anonymous_args = 0
 426              	.LVL32:
 427 0000 2DE9F047 		push	{r4, r5, r6, r7, r8, r9, r10, lr}
 428              		.cfi_def_cfa_offset 32
 429              		.cfi_offset 4, -32
 430              		.cfi_offset 5, -28
 431              		.cfi_offset 6, -24
 432              		.cfi_offset 7, -20
 433              		.cfi_offset 8, -16
 434              		.cfi_offset 9, -12
 435              		.cfi_offset 10, -8
 436              		.cfi_offset 14, -4
 437              		.loc 1 227 0
 438 0004 0446     		mov	r4, r0
 439              		.loc 1 231 0
 440 0006 1546     		mov	r5, r2
 441              		.loc 1 227 0
 442 0008 0F46     		mov	r7, r1
 443 000a 1E46     		mov	r6, r3
 444              		.loc 1 228 0
 445 000c D0F81C80 		ldr	r8, [r0, #28]
 446              	.LVL33:
 447              		.loc 1 231 0
 448 0010 002A     		cmp	r2, #0
 449 0012 3DD0     		beq	.L43
 450              	.LVL34:
 451              	.L32:
ARM GAS  /tmp/ccwQM1Rs.s 			page 9


 452              	.LBB24:
 453              		.loc 1 233 0
 454 0014 2023     		movs	r3, #32
 455              	@ 233 "../../../os/kernel/src/chqueues.c" 1
 456 0016 83F31188 		msr     BASEPRI, r3
 457              	@ 0 "" 2
 458              		.thumb
 459              	.LBE24:
 460 001a FFF7FEFF 		bl	dbg_check_lock
 461              	.LVL35:
 462 001e 07EB050A 		add	r10, r7, r5
 463              		.loc 1 229 0
 464 0022 4FF00009 		mov	r9, #0
 465 0026 0137     		adds	r7, r7, #1
 466              	.LVL36:
 467              	.L39:
 468              		.loc 1 235 0
 469 0028 B8F1000F 		cmp	r8, #0
 470 002c 05D0     		beq	.L35
 471              		.loc 1 236 0
 472 002e 2046     		mov	r0, r4
 473 0030 C047     		blx	r8
 474              	.LVL37:
 475 0032 02E0     		b	.L35
 476              	.LVL38:
 477              	.L37:
 478              		.loc 1 239 0
 479 0034 FFF7FEFF 		bl	qwait
 480              	.LVL39:
 481 0038 10BB     		cbnz	r0, .L44
 482              	.L35:
 483              		.loc 1 238 0 discriminator 1
 484 003a A568     		ldr	r5, [r4, #8]
 485              		.loc 1 239 0 discriminator 1
 486 003c 2046     		mov	r0, r4
 487 003e 3146     		mov	r1, r6
 488              		.loc 1 238 0 discriminator 1
 489 0040 002D     		cmp	r5, #0
 490 0042 F7D0     		beq	.L37
 491              	.LVL40:
 492              		.loc 1 246 0
 493 0044 A369     		ldr	r3, [r4, #24]
 494              		.loc 1 245 0
 495 0046 013D     		subs	r5, r5, #1
 496              		.loc 1 246 0
 497 0048 5A1C     		adds	r2, r3, #1
 498 004a A261     		str	r2, [r4, #24]
 499              		.loc 1 245 0
 500 004c A560     		str	r5, [r4, #8]
 501              	.LVL41:
 502              		.loc 1 246 0
 503 004e 1B78     		ldrb	r3, [r3]	@ zero_extendqisi2
 504 0050 07F8013C 		strb	r3, [r7, #-1]
 505              		.loc 1 247 0
 506 0054 2369     		ldr	r3, [r4, #16]
 507 0056 A269     		ldr	r2, [r4, #24]
 508 0058 9A42     		cmp	r2, r3
ARM GAS  /tmp/ccwQM1Rs.s 			page 10


 509              		.loc 1 248 0
 510 005a 24BF     		itt	cs
 511 005c E368     		ldrcs	r3, [r4, #12]
 512 005e A361     		strcs	r3, [r4, #24]
 513              		.loc 1 250 0
 514 0060 FFF7FEFF 		bl	dbg_check_unlock
 515              	.LVL42:
 516              	.LBB25:
 517 0064 0023     		movs	r3, #0
 518              	@ 250 "../../../os/kernel/src/chqueues.c" 1
 519 0066 83F31188 		msr     BASEPRI, r3
 520              	@ 0 "" 2
 521              		.thumb
 522              	.LBE25:
 523              		.loc 1 252 0
 524 006a 5745     		cmp	r7, r10
 525              		.loc 1 251 0
 526 006c 09F10109 		add	r9, r9, #1
 527              	.LVL43:
 528              		.loc 1 252 0
 529 0070 0BD0     		beq	.L36
 530              	.LBB26:
 531              		.loc 1 255 0
 532 0072 2023     		movs	r3, #32
 533              	@ 255 "../../../os/kernel/src/chqueues.c" 1
 534 0074 83F31188 		msr     BASEPRI, r3
 535              	@ 0 "" 2
 536              		.thumb
 537              	.LBE26:
 538 0078 FFF7FEFF 		bl	dbg_check_lock
 539              	.LVL44:
 540 007c 0137     		adds	r7, r7, #1
 541              		.loc 1 256 0
 542 007e D3E7     		b	.L39
 543              	.LVL45:
 544              	.L44:
 545              		.loc 1 240 0
 546 0080 FFF7FEFF 		bl	dbg_check_unlock
 547              	.LVL46:
 548              	.LBB27:
 549 0084 2B46     		mov	r3, r5
 550              	@ 240 "../../../os/kernel/src/chqueues.c" 1
 551 0086 83F31188 		msr     BASEPRI, r3
 552              	@ 0 "" 2
 553              	.LVL47:
 554              		.thumb
 555              	.L36:
 556              	.LBE27:
 557              		.loc 1 257 0
 558 008a 4846     		mov	r0, r9
 559 008c BDE8F087 		pop	{r4, r5, r6, r7, r8, r9, r10, pc}
 560              	.LVL48:
 561              	.L43:
 562              		.loc 1 231 0 discriminator 1
 563 0090 40F20000 		movw	r0, #:lower16:.LC0
 564              	.LVL49:
 565 0094 C0F20000 		movt	r0, #:upper16:.LC0
ARM GAS  /tmp/ccwQM1Rs.s 			page 11


 566 0098 FFF7FEFF 		bl	chDbgPanic
 567              	.LVL50:
 568 009c BAE7     		b	.L32
 569              		.cfi_endproc
 570              	.LFE12:
 571              		.size	chIQReadTimeout, .-chIQReadTimeout
 572 009e 00BF     		.section	.text.chOQInit,"ax",%progbits
 573              		.align	2
 574              		.p2align 4,,15
 575              		.global	chOQInit
 576              		.thumb
 577              		.thumb_func
 578              		.type	chOQInit, %function
 579              	chOQInit:
 580              	.LFB13:
 581              		.loc 1 276 0
 582              		.cfi_startproc
 583              		@ args = 4, pretend = 0, frame = 0
 584              		@ frame_needed = 0, uses_anonymous_args = 0
 585              		@ link register save eliminated.
 586              	.LVL51:
 587 0000 30B4     		push	{r4, r5}
 588              		.cfi_def_cfa_offset 8
 589              		.cfi_offset 4, -8
 590              		.cfi_offset 5, -4
 591              		.loc 1 276 0
 592 0002 029C     		ldr	r4, [sp, #8]
 593              		.loc 1 278 0
 594 0004 4060     		str	r0, [r0, #4]
 595              		.loc 1 281 0
 596 0006 8D18     		adds	r5, r1, r2
 597 0008 0561     		str	r5, [r0, #16]
 598              		.loc 1 283 0
 599 000a 0462     		str	r4, [r0, #32]
 600              		.loc 1 278 0
 601 000c 0060     		str	r0, [r0]
 602              		.loc 1 279 0
 603 000e 8260     		str	r2, [r0, #8]
 604              		.loc 1 280 0
 605 0010 4161     		str	r1, [r0, #20]
 606 0012 8161     		str	r1, [r0, #24]
 607 0014 C160     		str	r1, [r0, #12]
 608              		.loc 1 282 0
 609 0016 C361     		str	r3, [r0, #28]
 610              		.loc 1 284 0
 611 0018 30BC     		pop	{r4, r5}
 612              	.LVL52:
 613 001a 7047     		bx	lr
 614              		.cfi_endproc
 615              	.LFE13:
 616              		.size	chOQInit, .-chOQInit
 617              		.section	.text.chOQResetI,"ax",%progbits
 618              		.align	2
 619              		.p2align 4,,15
 620              		.global	chOQResetI
 621              		.thumb
 622              		.thumb_func
ARM GAS  /tmp/ccwQM1Rs.s 			page 12


 623              		.type	chOQResetI, %function
 624              	chOQResetI:
 625              	.LFB14:
 626              		.loc 1 297 0
 627              		.cfi_startproc
 628              		@ args = 0, pretend = 0, frame = 0
 629              		@ frame_needed = 0, uses_anonymous_args = 0
 630              	.LVL53:
 631 0000 38B5     		push	{r3, r4, r5, lr}
 632              		.cfi_def_cfa_offset 16
 633              		.cfi_offset 3, -16
 634              		.cfi_offset 4, -12
 635              		.cfi_offset 5, -8
 636              		.cfi_offset 14, -4
 637              		.loc 1 297 0
 638 0002 0446     		mov	r4, r0
 639              		.loc 1 299 0
 640 0004 FFF7FEFF 		bl	chDbgCheckClassI
 641              	.LVL54:
 642              		.loc 1 301 0
 643 0008 E368     		ldr	r3, [r4, #12]
 644              		.loc 1 302 0
 645 000a 2269     		ldr	r2, [r4, #16]
 646              		.loc 1 303 0
 647 000c 2068     		ldr	r0, [r4]
 648              		.loc 1 301 0
 649 000e 6361     		str	r3, [r4, #20]
 650              		.loc 1 302 0
 651 0010 D21A     		subs	r2, r2, r3
 652              		.loc 1 303 0
 653 0012 A042     		cmp	r0, r4
 654              		.loc 1 301 0
 655 0014 A361     		str	r3, [r4, #24]
 656              		.loc 1 302 0
 657 0016 A260     		str	r2, [r4, #8]
 658              		.loc 1 303 0
 659 0018 0AD0     		beq	.L46
 660              		.loc 1 304 0
 661 001a 6FF00105 		mvn	r5, #1
 662              	.L49:
 663              	.LVL55:
 664              	.LBB28:
 665              	.LBB29:
 666              		.loc 2 62 0
 667 001e 0368     		ldr	r3, [r0]
 668 0020 2360     		str	r3, [r4]
 669 0022 5C60     		str	r4, [r3, #4]
 670              	.LBE29:
 671              	.LBE28:
 672              		.loc 1 304 0
 673 0024 FFF7FEFF 		bl	chSchReadyI
 674              	.LVL56:
 675 0028 8562     		str	r5, [r0, #40]
 676              		.loc 1 303 0
 677 002a 2068     		ldr	r0, [r4]
 678 002c A042     		cmp	r0, r4
 679 002e F6D1     		bne	.L49
ARM GAS  /tmp/ccwQM1Rs.s 			page 13


 680              	.LVL57:
 681              	.L46:
 682 0030 38BD     		pop	{r3, r4, r5, pc}
 683              		.cfi_endproc
 684              	.LFE14:
 685              		.size	chOQResetI, .-chOQResetI
 686 0032 00BFAFF3 		.section	.text.chOQPutTimeout,"ax",%progbits
 686      0080AFF3 
 686      0080AFF3 
 686      0080
 687              		.align	2
 688              		.p2align 4,,15
 689              		.global	chOQPutTimeout
 690              		.thumb
 691              		.thumb_func
 692              		.type	chOQPutTimeout, %function
 693              	chOQPutTimeout:
 694              	.LFB15:
 695              		.loc 1 329 0
 696              		.cfi_startproc
 697              		@ args = 0, pretend = 0, frame = 0
 698              		@ frame_needed = 0, uses_anonymous_args = 0
 699              	.LVL58:
 700 0000 2DE9F041 		push	{r4, r5, r6, r7, r8, lr}
 701              		.cfi_def_cfa_offset 24
 702              		.cfi_offset 4, -24
 703              		.cfi_offset 5, -20
 704              		.cfi_offset 6, -16
 705              		.cfi_offset 7, -12
 706              		.cfi_offset 8, -8
 707              		.cfi_offset 14, -4
 708              	.LBB30:
 709              		.loc 1 331 0
 710 0004 2023     		movs	r3, #32
 711              	.LBE30:
 712              		.loc 1 329 0
 713 0006 0446     		mov	r4, r0
 714 0008 8846     		mov	r8, r1
 715 000a 1646     		mov	r6, r2
 716              	.LBB31:
 717              		.loc 1 331 0
 718              	@ 331 "../../../os/kernel/src/chqueues.c" 1
 719 000c 83F31188 		msr     BASEPRI, r3
 720              	@ 0 "" 2
 721              		.thumb
 722              	.LBE31:
 723 0010 FFF7FEFF 		bl	dbg_check_lock
 724              	.LVL59:
 725              		.loc 1 332 0
 726 0014 03E0     		b	.L51
 727              	.LVL60:
 728              	.L54:
 729              	.LBB32:
 730              		.loc 1 335 0
 731 0016 FFF7FEFF 		bl	qwait
 732              	.LVL61:
 733 001a 071E     		subs	r7, r0, #0
ARM GAS  /tmp/ccwQM1Rs.s 			page 14


 734 001c 1DDB     		blt	.L60
 735              	.LVL62:
 736              	.L51:
 737              	.LBE32:
 738              		.loc 1 332 0 discriminator 1
 739 001e A568     		ldr	r5, [r4, #8]
 740              	.LBB34:
 741              		.loc 1 335 0 discriminator 1
 742 0020 2046     		mov	r0, r4
 743 0022 3146     		mov	r1, r6
 744              	.LBE34:
 745              		.loc 1 332 0 discriminator 1
 746 0024 002D     		cmp	r5, #0
 747 0026 F6D0     		beq	.L54
 748              	.LVL63:
 749              		.loc 1 342 0
 750 0028 6369     		ldr	r3, [r4, #20]
 751              		.loc 1 341 0
 752 002a 013D     		subs	r5, r5, #1
 753              		.loc 1 342 0
 754 002c 5A1C     		adds	r2, r3, #1
 755 002e 6261     		str	r2, [r4, #20]
 756              		.loc 1 341 0
 757 0030 A560     		str	r5, [r4, #8]
 758              		.loc 1 342 0
 759 0032 83F80080 		strb	r8, [r3]
 760              		.loc 1 343 0
 761 0036 2369     		ldr	r3, [r4, #16]
 762 0038 6269     		ldr	r2, [r4, #20]
 763 003a 9A42     		cmp	r2, r3
 764              		.loc 1 344 0
 765 003c 24BF     		itt	cs
 766 003e E368     		ldrcs	r3, [r4, #12]
 767 0040 6361     		strcs	r3, [r4, #20]
 768              		.loc 1 346 0
 769 0042 E369     		ldr	r3, [r4, #28]
 770 0044 0BB1     		cbz	r3, .L56
 771              		.loc 1 347 0
 772 0046 2046     		mov	r0, r4
 773              	.LVL64:
 774 0048 9847     		blx	r3
 775              	.LVL65:
 776              	.L56:
 777              		.loc 1 349 0
 778 004a FFF7FEFF 		bl	dbg_check_unlock
 779              	.LVL66:
 780              	.LBB35:
 781 004e 0023     		movs	r3, #0
 782              	@ 349 "../../../os/kernel/src/chqueues.c" 1
 783 0050 83F31188 		msr     BASEPRI, r3
 784              	@ 0 "" 2
 785              		.thumb
 786              	.LBE35:
 787              		.loc 1 350 0
 788 0054 0020     		movs	r0, #0
 789              		.loc 1 351 0
 790 0056 BDE8F081 		pop	{r4, r5, r6, r7, r8, pc}
ARM GAS  /tmp/ccwQM1Rs.s 			page 15


 791              	.LVL67:
 792              	.L60:
 793              	.LBB36:
 794              		.loc 1 336 0
 795 005a FFF7FEFF 		bl	dbg_check_unlock
 796              	.LVL68:
 797              	.LBB33:
 798 005e 2B46     		mov	r3, r5
 799              	@ 336 "../../../os/kernel/src/chqueues.c" 1
 800 0060 83F31188 		msr     BASEPRI, r3
 801              	@ 0 "" 2
 802              		.thumb
 803              	.LBE33:
 804              		.loc 1 335 0
 805 0064 3846     		mov	r0, r7
 806              		.loc 1 337 0
 807 0066 BDE8F081 		pop	{r4, r5, r6, r7, r8, pc}
 808              	.LBE36:
 809              		.cfi_endproc
 810              	.LFE15:
 811              		.size	chOQPutTimeout, .-chOQPutTimeout
 812 006a 00BFAFF3 		.section	.text.chOQGetI,"ax",%progbits
 812      0080
 813              		.align	2
 814              		.p2align 4,,15
 815              		.global	chOQGetI
 816              		.thumb
 817              		.thumb_func
 818              		.type	chOQGetI, %function
 819              	chOQGetI:
 820              	.LFB16:
 821              		.loc 1 363 0
 822              		.cfi_startproc
 823              		@ args = 0, pretend = 0, frame = 0
 824              		@ frame_needed = 0, uses_anonymous_args = 0
 825              	.LVL69:
 826 0000 38B5     		push	{r3, r4, r5, lr}
 827              		.cfi_def_cfa_offset 16
 828              		.cfi_offset 3, -16
 829              		.cfi_offset 4, -12
 830              		.cfi_offset 5, -8
 831              		.cfi_offset 14, -4
 832              		.loc 1 363 0
 833 0002 0446     		mov	r4, r0
 834              		.loc 1 366 0
 835 0004 FFF7FEFF 		bl	chDbgCheckClassI
 836              	.LVL70:
 837              		.loc 1 368 0
 838 0008 A369     		ldr	r3, [r4, #24]
 839 000a 6269     		ldr	r2, [r4, #20]
 840 000c A068     		ldr	r0, [r4, #8]
 841 000e 9A42     		cmp	r2, r3
 842 0010 16D0     		beq	.L70
 843              	.L64:
 844              		.loc 1 373 0
 845 0012 2169     		ldr	r1, [r4, #16]
 846              		.loc 1 372 0
ARM GAS  /tmp/ccwQM1Rs.s 			page 16


 847 0014 5A1C     		adds	r2, r3, #1
 848              		.loc 1 371 0
 849 0016 0130     		adds	r0, r0, #1
 850 0018 A060     		str	r0, [r4, #8]
 851              		.loc 1 372 0
 852 001a A261     		str	r2, [r4, #24]
 853              		.loc 1 373 0
 854 001c 8A42     		cmp	r2, r1
 855              		.loc 1 372 0
 856 001e 1D78     		ldrb	r5, [r3]	@ zero_extendqisi2
 857              	.LVL71:
 858              		.loc 1 373 0
 859 0020 0BD2     		bcs	.L66
 860              	.LVL72:
 861              	.L67:
 862              		.loc 1 376 0
 863 0022 2068     		ldr	r0, [r4]
 864 0024 A042     		cmp	r0, r4
 865 0026 06D0     		beq	.L65
 866              	.LVL73:
 867              	.LBB37:
 868              	.LBB38:
 869              		.loc 2 62 0
 870 0028 0368     		ldr	r3, [r0]
 871 002a 2360     		str	r3, [r4]
 872 002c 5C60     		str	r4, [r3, #4]
 873              	.LBE38:
 874              	.LBE37:
 875              		.loc 1 377 0
 876 002e FFF7FEFF 		bl	chSchReadyI
 877              	.LVL74:
 878 0032 0023     		movs	r3, #0
 879 0034 8362     		str	r3, [r0, #40]
 880              	.LVL75:
 881              	.L65:
 882              		.loc 1 379 0
 883 0036 2846     		mov	r0, r5
 884 0038 38BD     		pop	{r3, r4, r5, pc}
 885              	.LVL76:
 886              	.L66:
 887              		.loc 1 374 0
 888 003a E368     		ldr	r3, [r4, #12]
 889              	.LVL77:
 890 003c A361     		str	r3, [r4, #24]
 891              	.LVL78:
 892 003e F0E7     		b	.L67
 893              	.LVL79:
 894              	.L70:
 895              		.loc 1 368 0 discriminator 1
 896 0040 0028     		cmp	r0, #0
 897 0042 E6D0     		beq	.L64
 898              		.loc 1 369 0
 899 0044 6FF00200 		mvn	r0, #2
 900 0048 38BD     		pop	{r3, r4, r5, pc}
 901              		.cfi_endproc
 902              	.LFE16:
 903              		.size	chOQGetI, .-chOQGetI
ARM GAS  /tmp/ccwQM1Rs.s 			page 17


 904 004a 00BFAFF3 		.section	.text.chOQWriteTimeout,"ax",%progbits
 904      0080
 905              		.align	2
 906              		.p2align 4,,15
 907              		.global	chOQWriteTimeout
 908              		.thumb
 909              		.thumb_func
 910              		.type	chOQWriteTimeout, %function
 911              	chOQWriteTimeout:
 912              	.LFB17:
 913              		.loc 1 407 0
 914              		.cfi_startproc
 915              		@ args = 0, pretend = 0, frame = 0
 916              		@ frame_needed = 0, uses_anonymous_args = 0
 917              	.LVL80:
 918 0000 2DE9F84F 		push	{r3, r4, r5, r6, r7, r8, r9, r10, fp, lr}
 919              		.cfi_def_cfa_offset 40
 920              		.cfi_offset 3, -40
 921              		.cfi_offset 4, -36
 922              		.cfi_offset 5, -32
 923              		.cfi_offset 6, -28
 924              		.cfi_offset 7, -24
 925              		.cfi_offset 8, -20
 926              		.cfi_offset 9, -16
 927              		.cfi_offset 10, -12
 928              		.cfi_offset 11, -8
 929              		.cfi_offset 14, -4
 930              		.loc 1 407 0
 931 0004 0446     		mov	r4, r0
 932              		.loc 1 411 0
 933 0006 1746     		mov	r7, r2
 934              		.loc 1 407 0
 935 0008 0E46     		mov	r6, r1
 936 000a 9B46     		mov	fp, r3
 937              		.loc 1 408 0
 938 000c D0F81CA0 		ldr	r10, [r0, #28]
 939              	.LVL81:
 940              		.loc 1 411 0
 941 0010 002A     		cmp	r2, #0
 942 0012 3AD0     		beq	.L88
 943              	.LVL82:
 944              	.L72:
 945              	.LBB39:
 946              		.loc 1 413 0
 947 0014 2023     		movs	r3, #32
 948              	@ 413 "../../../os/kernel/src/chqueues.c" 1
 949 0016 83F31188 		msr     BASEPRI, r3
 950              	@ 0 "" 2
 951              		.thumb
 952              	.LBE39:
 953 001a FFF7FEFF 		bl	dbg_check_lock
 954              	.LVL83:
 955              		.loc 1 409 0
 956 001e 4FF00009 		mov	r9, #0
 957              	.LVL84:
 958              	.L73:
 959              		.loc 1 415 0 discriminator 1
ARM GAS  /tmp/ccwQM1Rs.s 			page 18


 960 0022 A568     		ldr	r5, [r4, #8]
 961              		.loc 1 422 0 discriminator 1
 962 0024 06F10108 		add	r8, r6, #1
 963              	.LVL85:
 964              		.loc 1 427 0 discriminator 1
 965 0028 2046     		mov	r0, r4
 966              		.loc 1 421 0 discriminator 1
 967 002a 6A1E     		subs	r2, r5, #1
 968              		.loc 1 415 0 discriminator 1
 969 002c FDB1     		cbz	r5, .L76
 970              	.LVL86:
 971              		.loc 1 422 0
 972 002e 6369     		ldr	r3, [r4, #20]
 973              		.loc 1 421 0
 974 0030 A260     		str	r2, [r4, #8]
 975              		.loc 1 422 0
 976 0032 5A1C     		adds	r2, r3, #1
 977 0034 6261     		str	r2, [r4, #20]
 978 0036 3278     		ldrb	r2, [r6]	@ zero_extendqisi2
 979 0038 1A70     		strb	r2, [r3]
 980              		.loc 1 423 0
 981 003a 2369     		ldr	r3, [r4, #16]
 982 003c 6269     		ldr	r2, [r4, #20]
 983 003e 9A42     		cmp	r2, r3
 984              		.loc 1 424 0
 985 0040 24BF     		itt	cs
 986 0042 E368     		ldrcs	r3, [r4, #12]
 987 0044 6361     		strcs	r3, [r4, #20]
 988              		.loc 1 426 0
 989 0046 BAF1000F 		cmp	r10, #0
 990 004a 00D0     		beq	.L78
 991              		.loc 1 427 0
 992 004c D047     		blx	r10
 993              	.LVL87:
 994              	.L78:
 995              		.loc 1 429 0
 996 004e FFF7FEFF 		bl	dbg_check_unlock
 997              	.LVL88:
 998              	.LBB40:
 999 0052 0023     		movs	r3, #0
 1000              	@ 429 "../../../os/kernel/src/chqueues.c" 1
 1001 0054 83F31188 		msr     BASEPRI, r3
 1002              	@ 0 "" 2
 1003              		.thumb
 1004              	.LBE40:
 1005              		.loc 1 431 0
 1006 0058 013F     		subs	r7, r7, #1
 1007              	.LVL89:
 1008              		.loc 1 430 0
 1009 005a 09F10109 		add	r9, r9, #1
 1010              	.LVL90:
 1011              		.loc 1 431 0
 1012 005e 11D0     		beq	.L75
 1013              	.LBB41:
 1014              		.loc 1 433 0
 1015 0060 2023     		movs	r3, #32
 1016              	@ 433 "../../../os/kernel/src/chqueues.c" 1
ARM GAS  /tmp/ccwQM1Rs.s 			page 19


 1017 0062 83F31188 		msr     BASEPRI, r3
 1018              	@ 0 "" 2
 1019              		.thumb
 1020              	.LBE41:
 1021 0066 FFF7FEFF 		bl	dbg_check_lock
 1022              	.LVL91:
 1023              		.loc 1 422 0
 1024 006a 4646     		mov	r6, r8
 1025              		.loc 1 434 0
 1026 006c D9E7     		b	.L73
 1027              	.LVL92:
 1028              	.L76:
 1029              		.loc 1 416 0
 1030 006e 2046     		mov	r0, r4
 1031              	.LVL93:
 1032 0070 5946     		mov	r1, fp
 1033 0072 FFF7FEFF 		bl	qwait
 1034              	.LVL94:
 1035 0076 0028     		cmp	r0, #0
 1036 0078 D3D0     		beq	.L73
 1037              		.loc 1 417 0
 1038 007a FFF7FEFF 		bl	dbg_check_unlock
 1039              	.LVL95:
 1040              	.LBB42:
 1041 007e 2B46     		mov	r3, r5
 1042              	@ 417 "../../../os/kernel/src/chqueues.c" 1
 1043 0080 83F31188 		msr     BASEPRI, r3
 1044              	@ 0 "" 2
 1045              	.LVL96:
 1046              		.thumb
 1047              	.L75:
 1048              	.LBE42:
 1049              		.loc 1 435 0
 1050 0084 4846     		mov	r0, r9
 1051 0086 BDE8F88F 		pop	{r3, r4, r5, r6, r7, r8, r9, r10, fp, pc}
 1052              	.LVL97:
 1053              	.L88:
 1054              		.loc 1 411 0 discriminator 1
 1055 008a 40F20000 		movw	r0, #:lower16:.LC1
 1056              	.LVL98:
 1057 008e C0F20000 		movt	r0, #:upper16:.LC1
 1058 0092 FFF7FEFF 		bl	chDbgPanic
 1059              	.LVL99:
 1060 0096 BDE7     		b	.L72
 1061              		.cfi_endproc
 1062              	.LFE17:
 1063              		.size	chOQWriteTimeout, .-chOQWriteTimeout
 1064 0098 AFF30080 		.section	.rodata.str1.4,"aMS",%progbits,1
 1064      AFF30080 
 1065              		.align	2
 1066              	.LC0:
 1067 0000 22636849 		.ascii	"\"chIQReadTimeout\"()\000"
 1067      51526561 
 1067      6454696D 
 1067      656F7574 
 1067      22282900 
 1068              	.LC1:
ARM GAS  /tmp/ccwQM1Rs.s 			page 20


 1069 0014 2263684F 		.ascii	"\"chOQWriteTimeout\"()\000"
 1069      51577269 
 1069      74655469 
 1069      6D656F75 
 1069      74222829 
 1070 0029 000000   		.text
 1071              	.Letext0:
 1072              		.file 3 "/usr/lib/gcc/arm-none-eabi/4.8.2/include/stddef.h"
 1073              		.file 4 "/usr/include/newlib/machine/_default_types.h"
 1074              		.file 5 "/usr/include/newlib/stdint.h"
 1075              		.file 6 "../../../os/ports/GCC/ARMCMx/chtypes.h"
 1076              		.file 7 "../../../os/kernel/include/chlists.h"
 1077              		.file 8 "../../../os/kernel/include/chthreads.h"
 1078              		.file 9 "../../../os/ports/GCC/ARMCMx/chcore_v7m.h"
 1079              		.file 10 "../../../os/kernel/include/chschd.h"
 1080              		.file 11 "../../../os/kernel/include/chmtx.h"
 1081              		.file 12 "../../../os/kernel/include/chqueues.h"
 1082              		.file 13 "../../../os/kernel/include/chdebug.h"