ARM GAS  /tmp/ccMwYayC.s 			page 1


   1              		.syntax unified
   2              		.cpu cortex-m4
   3              		.fpu softvfp
   4              		.eabi_attribute 20, 1
   5              		.eabi_attribute 21, 1
   6              		.eabi_attribute 23, 3
   7              		.eabi_attribute 24, 1
   8              		.eabi_attribute 25, 1
   9              		.eabi_attribute 26, 1
  10              		.eabi_attribute 30, 2
  11              		.eabi_attribute 34, 1
  12              		.eabi_attribute 18, 4
  13              		.thumb
  14              		.file	"chschd.c"
  15              		.text
  16              	.Ltext0:
  17              		.cfi_sections	.debug_frame
  18              		.section	.text._scheduler_init,"ax",%progbits
  19              		.align	2
  20              		.p2align 4,,15
  21              		.global	_scheduler_init
  22              		.thumb
  23              		.thumb_func
  24              		.type	_scheduler_init, %function
  25              	_scheduler_init:
  26              	.LFB7:
  27              		.file 1 "../../../os/kernel/src/chschd.c"
  28              		.loc 1 55 0
  29              		.cfi_startproc
  30              		@ args = 0, pretend = 0, frame = 0
  31              		@ frame_needed = 0, uses_anonymous_args = 0
  32              		@ link register save eliminated.
  33              		.loc 1 57 0
  34 0000 40F20003 		movw	r3, #:lower16:.LANCHOR0
  35 0004 C0F20003 		movt	r3, #:upper16:.LANCHOR0
  36              		.loc 1 58 0
  37 0008 0022     		movs	r2, #0
  38              		.loc 1 57 0
  39 000a 5B60     		str	r3, [r3, #4]
  40 000c 1B60     		str	r3, [r3]
  41              		.loc 1 60 0
  42 000e 5B61     		str	r3, [r3, #20]
  43 0010 1B61     		str	r3, [r3, #16]
  44              		.loc 1 58 0
  45 0012 9A60     		str	r2, [r3, #8]
  46 0014 7047     		bx	lr
  47              		.cfi_endproc
  48              	.LFE7:
  49              		.size	_scheduler_init, .-_scheduler_init
  50 0016 00BFAFF3 		.section	.text.chSchReadyI,"ax",%progbits
  50      0080AFF3 
  50      0080
  51              		.align	2
  52              		.p2align 4,,15
  53              		.global	chSchReadyI
  54              		.thumb
  55              		.thumb_func
ARM GAS  /tmp/ccMwYayC.s 			page 2


  56              		.type	chSchReadyI, %function
  57              	chSchReadyI:
  58              	.LFB8:
  59              		.loc 1 81 0
  60              		.cfi_startproc
  61              		@ args = 0, pretend = 0, frame = 0
  62              		@ frame_needed = 0, uses_anonymous_args = 0
  63              	.LVL0:
  64 0000 10B5     		push	{r4, lr}
  65              		.cfi_def_cfa_offset 8
  66              		.cfi_offset 4, -8
  67              		.cfi_offset 14, -4
  68              		.loc 1 81 0
  69 0002 0446     		mov	r4, r0
  70              		.loc 1 84 0
  71 0004 FFF7FEFF 		bl	chDbgCheckClassI
  72              	.LVL1:
  73              		.loc 1 87 0
  74 0008 94F82030 		ldrb	r3, [r4, #32]	@ zero_extendqisi2
  75 000c 002B     		cmp	r3, #0
  76 000e 18BF     		it	ne
  77 0010 0E2B     		cmpne	r3, #14
  78 0012 12D0     		beq	.L10
  79              	.L3:
  80              		.loc 1 92 0
  81 0014 0022     		movs	r2, #0
  82              		.loc 1 93 0
  83 0016 40F20003 		movw	r3, #:lower16:.LANCHOR0
  84 001a A168     		ldr	r1, [r4, #8]
  85              		.loc 1 92 0
  86 001c 84F82020 		strb	r2, [r4, #32]
  87              	.LVL2:
  88              		.loc 1 93 0
  89 0020 C0F20003 		movt	r3, #:upper16:.LANCHOR0
  90              	.LVL3:
  91              	.L5:
  92              		.loc 1 95 0 discriminator 1
  93 0024 1B68     		ldr	r3, [r3]
  94              	.LVL4:
  95              		.loc 1 96 0 discriminator 1
  96 0026 9A68     		ldr	r2, [r3, #8]
  97 0028 8A42     		cmp	r2, r1
  98 002a FBD2     		bcs	.L5
  99              		.loc 1 99 0
 100 002c 5A68     		ldr	r2, [r3, #4]
 101              		.loc 1 98 0
 102 002e 2360     		str	r3, [r4]
 103              		.loc 1 99 0
 104 0030 6260     		str	r2, [r4, #4]
 105              		.loc 1 102 0
 106 0032 2046     		mov	r0, r4
 107              		.loc 1 100 0
 108 0034 5C60     		str	r4, [r3, #4]
 109 0036 1460     		str	r4, [r2]
 110              		.loc 1 102 0
 111 0038 10BD     		pop	{r4, pc}
 112              	.LVL5:
ARM GAS  /tmp/ccMwYayC.s 			page 3


 113              	.L10:
 114              		.loc 1 87 0 discriminator 1
 115 003a 40F20000 		movw	r0, #:lower16:.LC0
 116 003e C0F20000 		movt	r0, #:upper16:.LC0
 117 0042 FFF7FEFF 		bl	chDbgPanic
 118              	.LVL6:
 119 0046 E5E7     		b	.L3
 120              		.cfi_endproc
 121              	.LFE8:
 122              		.size	chSchReadyI, .-chSchReadyI
 123 0048 AFF30080 		.section	.text.wakeup,"ax",%progbits
 123      AFF30080 
 124              		.align	2
 125              		.p2align 4,,15
 126              		.thumb
 127              		.thumb_func
 128              		.type	wakeup, %function
 129              	wakeup:
 130              	.LFB10:
 131              		.loc 1 136 0
 132              		.cfi_startproc
 133              		@ args = 0, pretend = 0, frame = 0
 134              		@ frame_needed = 0, uses_anonymous_args = 0
 135              	.LVL7:
 136 0000 10B5     		push	{r4, lr}
 137              		.cfi_def_cfa_offset 8
 138              		.cfi_offset 4, -8
 139              		.cfi_offset 14, -4
 140              	.LBB32:
 141              		.loc 1 139 0
 142 0002 2023     		movs	r3, #32
 143              	.LBE32:
 144              		.loc 1 136 0
 145 0004 0446     		mov	r4, r0
 146              	.LBB33:
 147              		.loc 1 139 0
 148              	@ 139 "../../../os/kernel/src/chschd.c" 1
 149 0006 83F31188 		msr     BASEPRI, r3
 150              	@ 0 "" 2
 151              		.thumb
 152              	.LBE33:
 153 000a FFF7FEFF 		bl	dbg_check_lock_from_isr
 154              	.LVL8:
 155              		.loc 1 140 0
 156 000e 94F82030 		ldrb	r3, [r4, #32]	@ zero_extendqisi2
 157 0012 0D2B     		cmp	r3, #13
 158 0014 11D8     		bhi	.L12
 159 0016 DFE803F0 		tbb	[pc, r3]
 160              	.L14:
 161 001a 16       		.byte	(.L18-.L14)/2
 162 001b 10       		.byte	(.L12-.L14)/2
 163 001c 10       		.byte	(.L12-.L14)/2
 164 001d 07       		.byte	(.L15-.L14)/2
 165 001e 10       		.byte	(.L12-.L14)/2
 166 001f 0B       		.byte	(.L16-.L14)/2
 167 0020 10       		.byte	(.L12-.L14)/2
 168 0021 10       		.byte	(.L12-.L14)/2
ARM GAS  /tmp/ccMwYayC.s 			page 4


 169 0022 10       		.byte	(.L12-.L14)/2
 170 0023 10       		.byte	(.L12-.L14)/2
 171 0024 10       		.byte	(.L12-.L14)/2
 172 0025 10       		.byte	(.L12-.L14)/2
 173 0026 10       		.byte	(.L12-.L14)/2
 174 0027 0B       		.byte	(.L16-.L14)/2
 175              		.align	1
 176              	.L15:
 177              		.loc 1 150 0
 178 0028 A36A     		ldr	r3, [r4, #40]
 179 002a 9A68     		ldr	r2, [r3, #8]
 180 002c 0132     		adds	r2, r2, #1
 181 002e 9A60     		str	r2, [r3, #8]
 182              	.L16:
 183              	.LVL9:
 184              	.LBB34:
 185              	.LBB35:
 186              		.file 2 "../../../os/kernel/include/chinline.h"
 187              		.loc 2 75 0
 188 0030 94E80C00 		ldmia	r4, {r2, r3}
 189 0034 1A60     		str	r2, [r3]
 190              		.loc 2 76 0
 191 0036 2268     		ldr	r2, [r4]
 192 0038 5360     		str	r3, [r2, #4]
 193              	.LVL10:
 194              	.L12:
 195              	.LBE35:
 196              	.LBE34:
 197              		.loc 1 163 0
 198 003a 4FF0FF33 		mov	r3, #-1
 199 003e A362     		str	r3, [r4, #40]
 200              		.loc 1 164 0
 201 0040 2046     		mov	r0, r4
 202 0042 FFF7FEFF 		bl	chSchReadyI
 203              	.LVL11:
 204              	.L18:
 205              		.loc 1 165 0
 206 0046 FFF7FEFF 		bl	dbg_check_unlock_from_isr
 207              	.LVL12:
 208              	.LBB36:
 209 004a 0023     		movs	r3, #0
 210              	@ 165 "../../../os/kernel/src/chschd.c" 1
 211 004c 83F31188 		msr     BASEPRI, r3
 212              	@ 0 "" 2
 213              		.thumb
 214 0050 10BD     		pop	{r4, pc}
 215              	.LBE36:
 216              		.cfi_endproc
 217              	.LFE10:
 218              		.size	wakeup, .-wakeup
 219 0052 00BFAFF3 		.section	.text.chSchGoSleepS,"ax",%progbits
 219      0080AFF3 
 219      0080AFF3 
 219      0080
 220              		.align	2
 221              		.p2align 4,,15
 222              		.global	chSchGoSleepS
ARM GAS  /tmp/ccMwYayC.s 			page 5


 223              		.thumb
 224              		.thumb_func
 225              		.type	chSchGoSleepS, %function
 226              	chSchGoSleepS:
 227              	.LFB9:
 228              		.loc 1 115 0
 229              		.cfi_startproc
 230              		@ args = 0, pretend = 0, frame = 0
 231              		@ frame_needed = 0, uses_anonymous_args = 0
 232              	.LVL13:
 233 0000 70B5     		push	{r4, r5, r6, lr}
 234              		.cfi_def_cfa_offset 16
 235              		.cfi_offset 4, -16
 236              		.cfi_offset 5, -12
 237              		.cfi_offset 6, -8
 238              		.cfi_offset 14, -4
 239              		.loc 1 120 0
 240 0002 40F20004 		movw	r4, #:lower16:.LANCHOR0
 241 0006 C0F20004 		movt	r4, #:upper16:.LANCHOR0
 242              		.loc 1 115 0
 243 000a 0646     		mov	r6, r0
 244              		.loc 1 118 0
 245 000c FFF7FEFF 		bl	chDbgCheckClassS
 246              	.LVL14:
 247              	.LBB37:
 248              	.LBB38:
 249              		.loc 2 60 0
 250 0010 2368     		ldr	r3, [r4]
 251              	.LBE38:
 252              	.LBE37:
 253              		.loc 1 120 0
 254 0012 A569     		ldr	r5, [r4, #24]
 255              	.LVL15:
 256              	.LBB42:
 257              	.LBB39:
 258              		.loc 2 62 0
 259 0014 1A68     		ldr	r2, [r3]
 260              	.LBE39:
 261              	.LBE42:
 262              		.loc 1 120 0
 263 0016 85F82060 		strb	r6, [r5, #32]
 264              		.loc 1 124 0
 265 001a 1420     		movs	r0, #20
 266              		.loc 1 127 0
 267 001c 0121     		movs	r1, #1
 268              		.loc 1 124 0
 269 001e 85F82300 		strb	r0, [r5, #35]
 270              	.LVL16:
 271              	.LBB43:
 272              	.LBB40:
 273              		.loc 2 62 0
 274 0022 5460     		str	r4, [r2, #4]
 275              	.LBE40:
 276              	.LBE43:
 277              		.loc 1 128 0
 278 0024 2846     		mov	r0, r5
 279              		.loc 1 127 0
ARM GAS  /tmp/ccMwYayC.s 			page 6


 280 0026 83F82010 		strb	r1, [r3, #32]
 281              	.LBB44:
 282              	.LBB41:
 283              		.loc 2 62 0
 284 002a 2260     		str	r2, [r4]
 285              	.LBE41:
 286              	.LBE44:
 287              		.loc 1 126 0
 288 002c A361     		str	r3, [r4, #24]
 289              		.loc 1 128 0
 290 002e FFF7FEFF 		bl	dbg_trace
 291              	.LVL17:
 292              	.LBB45:
 293 0032 EB69     		ldr	r3, [r5, #28]
 294 0034 ADF12402 		sub	r2, sp, #36
 295 0038 9342     		cmp	r3, r2
 296 003a 05D9     		bls	.L20
 297              		.loc 1 128 0 is_stmt 0 discriminator 1
 298 003c 40F20000 		movw	r0, #:lower16:.LC1
 299 0040 C0F20000 		movt	r0, #:upper16:.LC1
 300 0044 FFF7FEFF 		bl	chDbgPanic
 301              	.LVL18:
 302              	.L20:
 303              		.loc 1 128 0 discriminator 2
 304 0048 A069     		ldr	r0, [r4, #24]
 305 004a 2946     		mov	r1, r5
 306              	.LBE45:
 307              		.loc 1 129 0 is_stmt 1 discriminator 2
 308 004c BDE87040 		pop	{r4, r5, r6, lr}
 309              	.LVL19:
 310              	.LBB46:
 311              		.loc 1 128 0 discriminator 2
 312 0050 FFF7FEBF 		b	_port_switch
 313              	.LVL20:
 314              	.LBE46:
 315              		.cfi_endproc
 316              	.LFE9:
 317              		.size	chSchGoSleepS, .-chSchGoSleepS
 318 0054 AFF30080 		.section	.text.chSchGoSleepTimeoutS,"ax",%progbits
 318      AFF30080 
 318      AFF30080 
 319              		.align	2
 320              		.p2align 4,,15
 321              		.global	chSchGoSleepTimeoutS
 322              		.thumb
 323              		.thumb_func
 324              		.type	chSchGoSleepTimeoutS, %function
 325              	chSchGoSleepTimeoutS:
 326              	.LFB11:
 327              		.loc 1 189 0
 328              		.cfi_startproc
 329              		@ args = 0, pretend = 0, frame = 24
 330              		@ frame_needed = 0, uses_anonymous_args = 0
 331              	.LVL21:
 332 0000 70B5     		push	{r4, r5, r6, lr}
 333              		.cfi_def_cfa_offset 16
 334              		.cfi_offset 4, -16
ARM GAS  /tmp/ccMwYayC.s 			page 7


 335              		.cfi_offset 5, -12
 336              		.cfi_offset 6, -8
 337              		.cfi_offset 14, -4
 338 0002 0D46     		mov	r5, r1
 339 0004 86B0     		sub	sp, sp, #24
 340              		.cfi_def_cfa_offset 40
 341              		.loc 1 189 0
 342 0006 0646     		mov	r6, r0
 343              		.loc 1 191 0
 344 0008 FFF7FEFF 		bl	chDbgCheckClassS
 345              	.LVL22:
 346              		.loc 1 193 0
 347 000c 6B1C     		adds	r3, r5, #1
 348 000e 18D0     		beq	.L22
 349              	.LBB47:
 350              		.loc 1 196 0
 351 0010 40F20004 		movw	r4, #:lower16:.LANCHOR0
 352 0014 C0F20004 		movt	r4, #:upper16:.LANCHOR0
 353 0018 40F20002 		movw	r2, #:lower16:wakeup
 354 001c A369     		ldr	r3, [r4, #24]
 355 001e 2946     		mov	r1, r5
 356 0020 01A8     		add	r0, sp, #4
 357 0022 C0F20002 		movt	r2, #:upper16:wakeup
 358 0026 FFF7FEFF 		bl	chVTSetI
 359              	.LVL23:
 360              		.loc 1 197 0
 361 002a 3046     		mov	r0, r6
 362 002c FFF7FEFF 		bl	chSchGoSleepS
 363              	.LVL24:
 364              		.loc 1 198 0
 365 0030 049B     		ldr	r3, [sp, #16]
 366 0032 13B1     		cbz	r3, .L24
 367              		.loc 1 199 0
 368 0034 01A8     		add	r0, sp, #4
 369 0036 FFF7FEFF 		bl	chVTResetI
 370              	.LVL25:
 371              	.L24:
 372              	.LBE47:
 373              		.loc 1 203 0
 374 003a A369     		ldr	r3, [r4, #24]
 375              		.loc 1 204 0
 376 003c 986A     		ldr	r0, [r3, #40]
 377 003e 06B0     		add	sp, sp, #24
 378              		@ sp needed
 379 0040 70BD     		pop	{r4, r5, r6, pc}
 380              	.LVL26:
 381              	.L22:
 382 0042 40F20004 		movw	r4, #:lower16:.LANCHOR0
 383 0046 C0F20004 		movt	r4, #:upper16:.LANCHOR0
 384              		.loc 1 202 0
 385 004a 3046     		mov	r0, r6
 386 004c FFF7FEFF 		bl	chSchGoSleepS
 387              	.LVL27:
 388              		.loc 1 203 0
 389 0050 A369     		ldr	r3, [r4, #24]
 390              		.loc 1 204 0
 391 0052 986A     		ldr	r0, [r3, #40]
ARM GAS  /tmp/ccMwYayC.s 			page 8


 392 0054 06B0     		add	sp, sp, #24
 393              		@ sp needed
 394 0056 70BD     		pop	{r4, r5, r6, pc}
 395              		.cfi_endproc
 396              	.LFE11:
 397              		.size	chSchGoSleepTimeoutS, .-chSchGoSleepTimeoutS
 398 0058 AFF30080 		.section	.text.chSchWakeupS,"ax",%progbits
 398      AFF30080 
 399              		.align	2
 400              		.p2align 4,,15
 401              		.global	chSchWakeupS
 402              		.thumb
 403              		.thumb_func
 404              		.type	chSchWakeupS, %function
 405              	chSchWakeupS:
 406              	.LFB12:
 407              		.loc 1 225 0
 408              		.cfi_startproc
 409              		@ args = 0, pretend = 0, frame = 0
 410              		@ frame_needed = 0, uses_anonymous_args = 0
 411              	.LVL28:
 412 0000 70B5     		push	{r4, r5, r6, lr}
 413              		.cfi_def_cfa_offset 16
 414              		.cfi_offset 4, -16
 415              		.cfi_offset 5, -12
 416              		.cfi_offset 6, -8
 417              		.cfi_offset 14, -4
 418              		.loc 1 234 0
 419 0002 40F20005 		movw	r5, #:lower16:.LANCHOR0
 420 0006 C0F20005 		movt	r5, #:upper16:.LANCHOR0
 421              		.loc 1 225 0
 422 000a 0446     		mov	r4, r0
 423 000c 0E46     		mov	r6, r1
 424              		.loc 1 227 0
 425 000e FFF7FEFF 		bl	chDbgCheckClassS
 426              	.LVL29:
 427              		.loc 1 234 0
 428 0012 A869     		ldr	r0, [r5, #24]
 429 0014 A368     		ldr	r3, [r4, #8]
 430 0016 8268     		ldr	r2, [r0, #8]
 431              		.loc 1 229 0
 432 0018 A662     		str	r6, [r4, #40]
 433              		.loc 1 234 0
 434 001a 9342     		cmp	r3, r2
 435 001c 13D9     		bls	.L31
 436              	.LBB48:
 437              		.loc 1 237 0
 438 001e FFF7FEFF 		bl	chSchReadyI
 439              	.LVL30:
 440              		.loc 1 239 0
 441 0022 0123     		movs	r3, #1
 442              		.loc 1 237 0
 443 0024 0646     		mov	r6, r0
 444              	.LVL31:
 445              		.loc 1 239 0
 446 0026 84F82030 		strb	r3, [r4, #32]
 447              		.loc 1 238 0
ARM GAS  /tmp/ccMwYayC.s 			page 9


 448 002a AC61     		str	r4, [r5, #24]
 449              		.loc 1 240 0
 450 002c FFF7FEFF 		bl	dbg_trace
 451              	.LVL32:
 452              	.LBB49:
 453 0030 F369     		ldr	r3, [r6, #28]
 454 0032 ADF12402 		sub	r2, sp, #36
 455 0036 9342     		cmp	r3, r2
 456 0038 0AD8     		bhi	.L32
 457              		.loc 1 240 0 is_stmt 0 discriminator 2
 458 003a 2046     		mov	r0, r4
 459 003c 3146     		mov	r1, r6
 460              	.LBE49:
 461              	.LBE48:
 462              		.loc 1 242 0 is_stmt 1 discriminator 2
 463 003e BDE87040 		pop	{r4, r5, r6, lr}
 464              	.LVL33:
 465              	.LBB53:
 466              	.LBB50:
 467              		.loc 1 240 0 discriminator 2
 468 0042 FFF7FEBF 		b	_port_switch
 469              	.LVL34:
 470              	.L31:
 471              	.LBE50:
 472              	.LBE53:
 473              		.loc 1 235 0
 474 0046 2046     		mov	r0, r4
 475              		.loc 1 242 0
 476 0048 BDE87040 		pop	{r4, r5, r6, lr}
 477              	.LVL35:
 478              		.loc 1 235 0
 479 004c FFF7FEBF 		b	chSchReadyI
 480              	.LVL36:
 481              	.L32:
 482              	.LBB54:
 483              	.LBB51:
 484              		.loc 1 240 0 discriminator 1
 485 0050 40F20000 		movw	r0, #:lower16:.LC1
 486 0054 C0F20000 		movt	r0, #:upper16:.LC1
 487 0058 FFF7FEFF 		bl	chDbgPanic
 488              	.LVL37:
 489 005c 2046     		mov	r0, r4
 490 005e 3146     		mov	r1, r6
 491              	.LBE51:
 492              	.LBE54:
 493              		.loc 1 242 0 discriminator 1
 494 0060 BDE87040 		pop	{r4, r5, r6, lr}
 495              	.LVL38:
 496              	.LBB55:
 497              	.LBB52:
 498              		.loc 1 240 0 discriminator 1
 499 0064 FFF7FEBF 		b	_port_switch
 500              	.LVL39:
 501              	.LBE52:
 502              	.LBE55:
 503              		.cfi_endproc
 504              	.LFE12:
ARM GAS  /tmp/ccMwYayC.s 			page 10


 505              		.size	chSchWakeupS, .-chSchWakeupS
 506 0068 AFF30080 		.section	.text.chSchDoRescheduleBehind,"ax",%progbits
 506      AFF30080 
 507              		.align	2
 508              		.p2align 4,,15
 509              		.global	chSchDoRescheduleBehind
 510              		.thumb
 511              		.thumb_func
 512              		.type	chSchDoRescheduleBehind, %function
 513              	chSchDoRescheduleBehind:
 514              	.LFB14:
 515              		.loc 1 304 0
 516              		.cfi_startproc
 517              		@ args = 0, pretend = 0, frame = 0
 518              		@ frame_needed = 0, uses_anonymous_args = 0
 519 0000 70B5     		push	{r4, r5, r6, lr}
 520              		.cfi_def_cfa_offset 16
 521              		.cfi_offset 4, -16
 522              		.cfi_offset 5, -12
 523              		.cfi_offset 6, -8
 524              		.cfi_offset 14, -4
 525              		.loc 1 307 0
 526 0002 40F20004 		movw	r4, #:lower16:.LANCHOR0
 527 0006 C0F20004 		movt	r4, #:upper16:.LANCHOR0
 528              		.loc 1 312 0
 529 000a 1421     		movs	r1, #20
 530              	.LBB56:
 531              	.LBB57:
 532              		.loc 2 60 0
 533 000c 2368     		ldr	r3, [r4]
 534              	.LBE57:
 535              	.LBE56:
 536              		.loc 1 307 0
 537 000e A569     		ldr	r5, [r4, #24]
 538              	.LVL40:
 539              	.LBB61:
 540              	.LBB58:
 541              		.loc 2 62 0
 542 0010 1A68     		ldr	r2, [r3]
 543              	.LBE58:
 544              	.LBE61:
 545              		.loc 1 310 0
 546 0012 0126     		movs	r6, #1
 547              	.LBB62:
 548              	.LBB59:
 549              		.loc 2 62 0
 550 0014 5460     		str	r4, [r2, #4]
 551              	.LBE59:
 552              	.LBE62:
 553              		.loc 1 314 0
 554 0016 2846     		mov	r0, r5
 555              		.loc 1 310 0
 556 0018 83F82060 		strb	r6, [r3, #32]
 557              		.loc 1 312 0
 558 001c 85F82310 		strb	r1, [r5, #35]
 559              	.LBB63:
 560              	.LBB60:
ARM GAS  /tmp/ccMwYayC.s 			page 11


 561              		.loc 2 62 0
 562 0020 2260     		str	r2, [r4]
 563              	.LBE60:
 564              	.LBE63:
 565              		.loc 1 309 0
 566 0022 A361     		str	r3, [r4, #24]
 567              		.loc 1 314 0
 568 0024 FFF7FEFF 		bl	chSchReadyI
 569              	.LVL41:
 570              		.loc 1 315 0
 571 0028 2846     		mov	r0, r5
 572 002a FFF7FEFF 		bl	dbg_trace
 573              	.LVL42:
 574              	.LBB64:
 575 002e EB69     		ldr	r3, [r5, #28]
 576 0030 ADF12402 		sub	r2, sp, #36
 577 0034 9342     		cmp	r3, r2
 578 0036 05D9     		bls	.L34
 579              		.loc 1 315 0 is_stmt 0 discriminator 1
 580 0038 40F20000 		movw	r0, #:lower16:.LC1
 581 003c C0F20000 		movt	r0, #:upper16:.LC1
 582 0040 FFF7FEFF 		bl	chDbgPanic
 583              	.LVL43:
 584              	.L34:
 585              		.loc 1 315 0 discriminator 2
 586 0044 A069     		ldr	r0, [r4, #24]
 587 0046 2946     		mov	r1, r5
 588              	.LBE64:
 589              		.loc 1 316 0 is_stmt 1 discriminator 2
 590 0048 BDE87040 		pop	{r4, r5, r6, lr}
 591              	.LVL44:
 592              	.LBB65:
 593              		.loc 1 315 0 discriminator 2
 594 004c FFF7FEBF 		b	_port_switch
 595              	.LVL45:
 596              	.LBE65:
 597              		.cfi_endproc
 598              	.LFE14:
 599              		.size	chSchDoRescheduleBehind, .-chSchDoRescheduleBehind
 600              		.section	.text.chSchDoRescheduleAhead,"ax",%progbits
 601              		.align	2
 602              		.p2align 4,,15
 603              		.global	chSchDoRescheduleAhead
 604              		.thumb
 605              		.thumb_func
 606              		.type	chSchDoRescheduleAhead, %function
 607              	chSchDoRescheduleAhead:
 608              	.LFB15:
 609              		.loc 1 329 0
 610              		.cfi_startproc
 611              		@ args = 0, pretend = 0, frame = 0
 612              		@ frame_needed = 0, uses_anonymous_args = 0
 613 0000 70B5     		push	{r4, r5, r6, lr}
 614              		.cfi_def_cfa_offset 16
 615              		.cfi_offset 4, -16
 616              		.cfi_offset 5, -12
 617              		.cfi_offset 6, -8
ARM GAS  /tmp/ccMwYayC.s 			page 12


 618              		.cfi_offset 14, -4
 619              		.loc 1 332 0
 620 0002 40F20006 		movw	r6, #:lower16:.LANCHOR0
 621 0006 C0F20006 		movt	r6, #:upper16:.LANCHOR0
 622              		.loc 1 335 0
 623 000a 0120     		movs	r0, #1
 624              	.LBB66:
 625              	.LBB67:
 626              		.loc 2 60 0
 627 000c 3268     		ldr	r2, [r6]
 628              	.LBE67:
 629              	.LBE66:
 630              		.loc 1 332 0
 631 000e B569     		ldr	r5, [r6, #24]
 632              	.LVL46:
 633              	.LBB70:
 634              	.LBB68:
 635              		.loc 2 62 0
 636 0010 1368     		ldr	r3, [r2]
 637 0012 AC68     		ldr	r4, [r5, #8]
 638 0014 3360     		str	r3, [r6]
 639              	.LBE68:
 640              	.LBE70:
 641              		.loc 1 337 0
 642 0016 0021     		movs	r1, #0
 643              	.LBB71:
 644              	.LBB69:
 645              		.loc 2 62 0
 646 0018 5E60     		str	r6, [r3, #4]
 647              	.LBE69:
 648              	.LBE71:
 649              		.loc 1 335 0
 650 001a 82F82000 		strb	r0, [r2, #32]
 651              		.loc 1 337 0
 652 001e 1346     		mov	r3, r2
 653              		.loc 1 334 0
 654 0020 B261     		str	r2, [r6, #24]
 655              		.loc 1 337 0
 656 0022 85F82010 		strb	r1, [r5, #32]
 657              	.LVL47:
 658 0026 00E0     		b	.L37
 659              	.LVL48:
 660              	.L39:
 661 0028 1B68     		ldr	r3, [r3]
 662              	.LVL49:
 663              	.L37:
 664              		.loc 1 341 0 discriminator 1
 665 002a 9A68     		ldr	r2, [r3, #8]
 666 002c A242     		cmp	r2, r4
 667 002e FBD8     		bhi	.L39
 668              		.loc 1 344 0
 669 0030 5A68     		ldr	r2, [r3, #4]
 670              		.loc 1 343 0
 671 0032 2B60     		str	r3, [r5]
 672              		.loc 1 344 0
 673 0034 6A60     		str	r2, [r5, #4]
 674              		.loc 1 347 0
ARM GAS  /tmp/ccMwYayC.s 			page 13


 675 0036 2846     		mov	r0, r5
 676              		.loc 1 345 0
 677 0038 5D60     		str	r5, [r3, #4]
 678 003a 1560     		str	r5, [r2]
 679              		.loc 1 347 0
 680 003c FFF7FEFF 		bl	dbg_trace
 681              	.LVL50:
 682              	.LBB72:
 683 0040 EB69     		ldr	r3, [r5, #28]
 684 0042 ADF12402 		sub	r2, sp, #36
 685 0046 9342     		cmp	r3, r2
 686 0048 05D9     		bls	.L38
 687              		.loc 1 347 0 is_stmt 0 discriminator 1
 688 004a 40F20000 		movw	r0, #:lower16:.LC1
 689 004e C0F20000 		movt	r0, #:upper16:.LC1
 690 0052 FFF7FEFF 		bl	chDbgPanic
 691              	.LVL51:
 692              	.L38:
 693              		.loc 1 347 0 discriminator 2
 694 0056 B069     		ldr	r0, [r6, #24]
 695 0058 2946     		mov	r1, r5
 696              	.LBE72:
 697              		.loc 1 348 0 is_stmt 1 discriminator 2
 698 005a BDE87040 		pop	{r4, r5, r6, lr}
 699              	.LVL52:
 700              	.LBB73:
 701              		.loc 1 347 0 discriminator 2
 702 005e FFF7FEBF 		b	_port_switch
 703              	.LVL53:
 704              	.LBE73:
 705              		.cfi_endproc
 706              	.LFE15:
 707              		.size	chSchDoRescheduleAhead, .-chSchDoRescheduleAhead
 708 0062 00BFAFF3 		.section	.text.chSchRescheduleS,"ax",%progbits
 708      0080AFF3 
 708      0080AFF3 
 708      0080
 709              		.align	2
 710              		.p2align 4,,15
 711              		.global	chSchRescheduleS
 712              		.thumb
 713              		.thumb_func
 714              		.type	chSchRescheduleS, %function
 715              	chSchRescheduleS:
 716              	.LFB13:
 717              		.loc 1 253 0
 718              		.cfi_startproc
 719              		@ args = 0, pretend = 0, frame = 0
 720              		@ frame_needed = 0, uses_anonymous_args = 0
 721 0000 08B5     		push	{r3, lr}
 722              		.cfi_def_cfa_offset 8
 723              		.cfi_offset 3, -8
 724              		.cfi_offset 14, -4
 725              		.loc 1 255 0
 726 0002 FFF7FEFF 		bl	chDbgCheckClassS
 727              	.LVL54:
 728              		.loc 1 257 0
ARM GAS  /tmp/ccMwYayC.s 			page 14


 729 0006 40F20003 		movw	r3, #:lower16:.LANCHOR0
 730 000a C0F20003 		movt	r3, #:upper16:.LANCHOR0
 731 000e 1A68     		ldr	r2, [r3]
 732 0010 9B69     		ldr	r3, [r3, #24]
 733 0012 9268     		ldr	r2, [r2, #8]
 734 0014 9B68     		ldr	r3, [r3, #8]
 735 0016 9A42     		cmp	r2, r3
 736 0018 00D8     		bhi	.L42
 737 001a 08BD     		pop	{r3, pc}
 738              	.L42:
 739              		.loc 1 259 0
 740 001c BDE80840 		pop	{r3, lr}
 741              		.loc 1 258 0
 742 0020 FFF7FEBF 		b	chSchDoRescheduleAhead
 743              	.LVL55:
 744              		.cfi_endproc
 745              	.LFE13:
 746              		.size	chSchRescheduleS, .-chSchRescheduleS
 747 0024 AFF30080 		.section	.text.chSchDoReschedule,"ax",%progbits
 747      AFF30080 
 747      AFF30080 
 748              		.align	2
 749              		.p2align 4,,15
 750              		.global	chSchDoReschedule
 751              		.thumb
 752              		.thumb_func
 753              		.type	chSchDoReschedule, %function
 754              	chSchDoReschedule:
 755              	.LFB16:
 756              		.loc 1 362 0
 757              		.cfi_startproc
 758              		@ args = 0, pretend = 0, frame = 0
 759              		@ frame_needed = 0, uses_anonymous_args = 0
 760              		@ link register save eliminated.
 761              		.loc 1 367 0
 762 0000 40F20003 		movw	r3, #:lower16:.LANCHOR0
 763 0004 C0F20003 		movt	r3, #:upper16:.LANCHOR0
 764 0008 9B69     		ldr	r3, [r3, #24]
 765 000a 93F82330 		ldrb	r3, [r3, #35]	@ zero_extendqisi2
 766 000e 0BB1     		cbz	r3, .L45
 767              		.loc 1 375 0
 768 0010 FFF7FEBF 		b	chSchDoRescheduleAhead
 769              	.LVL56:
 770              	.L45:
 771              		.loc 1 370 0
 772 0014 FFF7FEBF 		b	chSchDoRescheduleBehind
 773              	.LVL57:
 774              		.cfi_endproc
 775              	.LFE16:
 776              		.size	chSchDoReschedule, .-chSchDoReschedule
 777              		.global	rlist
 778 0018 AFF30080 		.section	.rodata.str1.4,"aMS",%progbits,1
 778      AFF30080 
 779              		.align	2
 780              	.LC0:
 781 0000 63685363 		.ascii	"chSchReadyI(), #1\000"
 781      68526561 
ARM GAS  /tmp/ccMwYayC.s 			page 15


 781      64794928 
 781      292C2023 
 781      3100
 782 0012 0000     		.space	2
 783              	.LC1:
 784 0014 73746163 		.ascii	"stack overflow\000"
 784      6B206F76 
 784      6572666C 
 784      6F7700
 785 0023 00       		.section	.bss.rlist,"aw",%nobits
 786              		.align	2
 787              		.set	.LANCHOR0,. + 0
 788              		.type	rlist, %object
 789              		.size	rlist, 28
 790              	rlist:
 791 0000 00000000 		.space	28
 791      00000000 
 791      00000000 
 791      00000000 
 791      00000000 
 792              		.text
 793              	.Letext0:
 794              		.file 3 "/usr/include/newlib/machine/_default_types.h"
 795              		.file 4 "/usr/include/newlib/stdint.h"
 796              		.file 5 "../../../os/ports/GCC/ARMCMx/chtypes.h"
 797              		.file 6 "../../../os/kernel/include/chlists.h"
 798              		.file 7 "../../../os/kernel/include/chthreads.h"
 799              		.file 8 "../../../os/ports/GCC/ARMCMx/chcore_v7m.h"
 800              		.file 9 "../../../os/kernel/include/chvt.h"
 801              		.file 10 "../../../os/kernel/include/chschd.h"
 802              		.file 11 "../../../os/kernel/include/chsem.h"
 803              		.file 12 "../../../os/kernel/include/chmtx.h"
 804              		.file 13 "../../../os/kernel/include/chdebug.h"