ARM GAS  /tmp/ccMwYayC.s 			page 1


   1              		.syntax unified
   2              		.cpu cortex-m4
   3              		.fpu softvfp
   4              		.eabi_attribute 20, 1
   5              		.eabi_attribute 21, 1
   6              		.eabi_attribute 23, 3
   7              		.eabi_attribute 24, 1
   8              		.eabi_attribute 25, 1
   9              		.eabi_attribute 26, 1
  10              		.eabi_attribute 30, 2
  11              		.eabi_attribute 34, 1
  12              		.eabi_attribute 18, 4
  13              		.thumb
  14              		.file	"chschd.c"
  15              		.text
  16              	.Ltext0:
  17              		.cfi_sections	.debug_frame
  18              		.section	.text._scheduler_init,"ax",%progbits
  19              		.align	2
  20              		.p2align 4,,15
  21              		.global	_scheduler_init
  22              		.thumb
  23              		.thumb_func
  24              		.type	_scheduler_init, %function
  25              	_scheduler_init:
  26              	.LFB7:
  27              		.file 1 "../../../os/kernel/src/chschd.c"
  28              		.loc 1 55 0
  29              		.cfi_startproc
  30              		@ args = 0, pretend = 0, frame = 0
  31              		@ frame_needed = 0, uses_anonymous_args = 0
  32              		@ link register save eliminated.
  33              		.loc 1 57 0
  34 0000 40F20003 		movw	r3, #:lower16:.LANCHOR0
  35 0004 C0F20003 		movt	r3, #:upper16:.LANCHOR0
  36              		.loc 1 58 0
  37 0008 0022     		movs	r2, #0
  38              		.loc 1 57 0
  39 000a 5B60     		str	r3, [r3, #4]
  40 000c 1B60     		str	r3, [r3]
  41              		.loc 1 60 0
  42 000e 5B61     		str	r3, [r3, #20]
  43 0010 1B61     		str	r3, [r3, #16]
  44              		.loc 1 58 0
  45 0012 9A60     		str	r2, [r3, #8]
  46 0014 7047     		bx	lr
  47              		.cfi_endproc
  48              	.LFE7:
  49              		.size	_scheduler_init, .-_scheduler_init
  50 0016 00BFAFF3 		.section	.text.chSchReadyI,"ax",%progbits
  50      0080AFF3 
  50      0080
  51              		.align	2
  52              		.p2align 4,,15
  53              		.global	chSchReadyI
  54              		.thumb
  55              		.thumb_func
ARM GAS  /tmp/ccMwYayC.s 			page 2


  56              		.type	chSchReadyI, %function
  57              	chSchReadyI:
  58              	.LFB8:
  59              		.loc 1 81 0
  60              		.cfi_startproc
  61              		@ args = 0, pretend = 0, frame = 0
  62              		@ frame_needed = 0, uses_anonymous_args = 0
  63              	.LVL0:
  64 0000 10B5     		push	{r4, lr}
  65              		.cfi_def_cfa_offset 8
  66              		.cfi_offset 4, -8
  67              		.cfi_offset 14, -4
  68              		.loc 1 81 0
  69 0002 0446     		mov	r4, r0
  70              		.loc 1 84 0
  71 0004 FFF7FEFF 		bl	chDbgCheckClassI
  72              	.LVL1:
  73              		.loc 1 87 0
  74 0008 94F82030 		ldrb	r3, [r4, #32]	@ zero_extendqisi2
  75 000c 002B     		cmp	r3, #0
  76 000e 18BF     		it	ne
  77 0010 0E2B     		cmpne	r3, #14
  78 0012 12D0     		beq	.L10
  79              	.L3:
  80              		.loc 1 92 0
  81 0014 0022     		movs	r2, #0
  82              		.loc 1 93 0
  83 0016 40F20003 		movw	r3, #:lower16:.LANCHOR0
  84 001a A168     		ldr	r1, [r4, #8]
  85              		.loc 1 92 0
  86 001c 84F82020 		strb	r2, [r4, #32]
  87              	.LVL2:
  88              		.loc 1 93 0
  89 0020 C0F20003 		movt	r3, #:upper16:.LANCHOR0
  90              	.LVL3:
  91              	.L5:
  92              		.loc 1 95 0 discriminator 1
  93 0024 1B68     		ldr	r3, [r3]
  94              	.LVL4:
  95              		.loc 1 96 0 discriminator 1
  96 0026 9A68     		ldr	r2, [r3, #8]
  97 0028 8A42     		cmp	r2, r1
  98 002a FBD2     		bcs	.L5
  99              		.loc 1 99 0
 100 002c 5A68     		ldr	r2, [r3, #4]
 101              		.loc 1 98 0
 102 002e 2360     		str	r3, [r4]
 103              		.loc 1 99 0
 104 0030 6260     		str	r2, [r4, #4]
 105              		.loc 1 102 0
 106 0032 2046     		mov	r0, r4
 107              		.loc 1 100 0
 108 0034 5C60     		str	r4, [r3, #4]
 109 0036 1460     		str	r4, [r2]
 110              		.loc 1 102 0
 111 0038 10BD     		pop	{r4, pc}
 112              	.LVL5:
ARM GAS  /tmp/ccMwYayC.s 			page 3


 113              	.L10:
 114              		.loc 1 87 0 discriminator 1
 115 003a 40F20000 		movw	r0, #:lower16:.LC0
 116 003e C0F20000 		movt	r0, #:upper16:.LC0
 117 0042 FFF7FEFF 		bl	chDbgPanic
 118              	.LVL6:
 119 0046 E5E7     		b	.L3
 120              		.cfi_endproc
 121              	.LFE8:
 122              		.size	chSchReadyI, .-chSchReadyI
 123 0048 AFF30080 		.section	.text.wakeup,"ax",%progbits
 123      AFF30080 
 124              		.align	2
 125              		.p2align 4,,15
 126              		.thumb
 127              		.thumb_func
 128              		.type	wakeup, %function
 129              	wakeup:
 130              	.LFB10:
 131              		.loc 1 136 0
 132              		.cfi_startproc
 133              		@ args = 0, pretend = 0, frame = 0
 134              		@ frame_needed = 0, uses_anonymous_args = 0
 135              	.LVL7:
 136 0000 10B5     		push	{r4, lr}
 137              		.cfi_def_cfa_offset 8
 138              		.cfi_offset 4, -8
 139              		.cfi_offset 14, -4
 140              	.LBB32:
 141              		.loc 1 139 0
 142 0002 2023     		movs	r3, #32
 143              	.LBE32:
 144              		.loc 1 136 0
 145 0004 0446     		mov	r4, r0
 146              	.LBB33:
 147              		.loc 1 139 0
 148              	@ 139 "../../../os/kernel/src/chschd.c" 1
 149 0006 83F31188 		msr     BASEPRI, r3
 150              	@ 0 "" 2
 151              		.thumb
 152              	.LBE33:
 153 000a FFF7FEFF 		bl	dbg_check_lock_from_isr
 154              	.LVL8:
 155              		.loc 1 140 0
 156 000e 94F82030 		ldrb	r3, [r4, #32]	@ zero_extendqisi2
 157 0012 0D2B     		cmp	r3, #13
 158 0014 11D8     		bhi	.L12
 159 0016 DFE803F0 		tbb	[pc, r3]
 160              	.L14:
 161 001a 16       		.byte	(.L18-.L14)/2
 162 001b 10       		.byte	(.L12-.L14)/2
 163 001c 10       		.byte	(.L12-.L14)/2
 164 001d 07       		.byte	(.L15-.L14)/2
 165 001e 10       		.byte	(.L12-.L14)/2
 166 001f 0B       		.byte	(.L16-.L14)/2
 167 0020 10       		.byte	(.L12-.L14)/2
 168 0021 10       		.byte	(.L12-.L14)/2
ARM GAS  /tmp/ccMwYayC.s 			page 4


 169 0022 10       		.byte	(.L12-.L14)/2
 170 0023 10       		.byte	(.L12-.L14)/2
 171 0024 10       		.byte	(.L12-.L14)/2
 172 0025 10       		.byte	(.L12-.L14)/2
 173 0026 10       		.byte	(.L12-.L14)/2
 174 0027 0B       		.byte	(.L16-.L14)/2
 175              		.align	1
 176              	.L15:
 177              		.loc 1 150 0
 178 0028 A36A     		ldr	r3, [r4, #40]
 179 002a 9A68     		ldr	r2, [r3, #8]
 180 002c 0132     		adds	r2, r2, #1
 181 002e 9A60     		str	r2, [r3, #8]
 182              	.L16:
 183              	.LVL9:
 184              	.LBB34:
 185              	.LBB35:
 186              		.file 2 "../../../os/kernel/include/chinline.h"
 187              		.loc 2 75 0
 188 0030 94E80C00 		ldmia	r4, {r2, r3}
 189 0034 1A60     		str	r2, [r3]
 190              		.loc 2 76 0
 191 0036 2268     		ldr	r2, [r4]
 192 0038 5360     		str	r3, [r2, #4]
 193              	.LVL10:
 194              	.L12:
 195              	.LBE35:
 196              	.LBE34:
 197              		.loc 1 163 0
 198 003a 4FF0FF33 		mov	r3, #-1
 199 003e A362     		str	r3, [r4, #40]
 200              		.loc 1 164 0
 201 0040 2046     		mov	r0, r4
 202 0042 FFF7FEFF 		bl	chSchReadyI
 203              	.LVL11:
 204              	.L18:
 205              		.loc 1 165 0
 206 0046 FFF7FEFF 		bl	dbg_check_unlock_from_isr
 207              	.LVL12:
 208              	.LBB36:
 209 004a 0023     		movs	r3, #0
 210              	@ 165 "../../../os/kernel/src/chschd.c" 1
 211 004c 83F31188 		msr     BASEPRI, r3
 212              	@ 0 "" 2
 213              		.thumb
 214 0050 10BD     		pop	{r4, pc}
 215              	.LBE36:
 216              		.cfi_endproc
 217              	.LFE10:
 218              		.size	wakeup, .-wakeup
 219 0052 00BFAFF3 		.section	.text.chSchGoSleepS,"ax",%progbits
 219      0080AFF3 
 219      0080AFF3 
 219      0080
 220              		.align	2
 221              		.p2align 4,,15
 222              		.global	chSchGoSleepS
ARM GAS  /tmp/ccMwYayC.s 			page 5


 223              		.thumb
 224              		.thumb_func
 225              		.type	chSchGoSleepS, %function
 226              	chSchGoSleepS:
 227              	.LFB9:
 228              		.loc 1 115 0
 229              		.cfi_startproc
 230              		@ args = 0, pretend = 0, frame = 0
 231              		@ frame_needed = 0, uses_anonymous_args = 0
 232              	.LVL13:
 233 0000 70B5     		push	{r4, r5, r6, lr}
 234              		.cfi_def_cfa_offset 16
 235              		.cfi_offset 4, -16
 236              		.cfi_offset 5, -12
 237              		.cfi_offset 6, -8
 238              		.cfi_offset 14, -4
 239              		.loc 1 120 0
 240 0002 40F20004 		movw	r4, #:lower16:.LANCHOR0
 241 0006 C0F20004 		movt	r4, #:upper16:.LANCHOR0
 242              		.loc 1 115 0
 243 000a 0646     		mov	r6, r0
 244              		.loc 1 118 0
 245 000c FFF7FEFF 		bl	chDbgCheckClassS
 246              	.LVL14:
 247              	.LBB37:
 248              	.LBB38:
 249              		.loc 2 60 0
 250 0010 2368     		ldr	r3, [r4]
 251              	.LBE38:
 252              	.LBE37:
 253              		.loc 1 120 0
 254 0012 A569     		ldr	r5, [r4, #24]
 255              	.LVL15:
 256              	.LBB42:
 257              	.LBB39:
 258              		.loc 2 62 0
 259 0014 1A68     		ldr	r2, [r3]
 260              	.LBE39:
 261              	.LBE42:
 262              		.loc 1 120 0
 263 0016 85F82060 		strb	r6, [r5, #32]
 264              		.loc 1 124 0
 265 001a 1420     		movs	r0, #20
 266              		.loc 1 127 0
 267 001c 0121     		movs	r1, #1
 268              		.loc 1 124 0
 269 001e 85F82300 		strb	r0, [r5, #35]
 270              	.LVL16:
 271              	.LBB43:
 272              	.LBB40:
 273              		.loc 2 62 0
 274 0022 5460     		str	r4, [r2, #4]
 275              	.LBE40:
 276              	.LBE43:
 277              		.loc 1 128 0
 278 0024 2846     		mov	r0, r5
 279              		.loc 1 127 0
ARM GAS  /tmp/ccMwYayC.s 			page 6


 280 0026 83F82010 		strb	r1, [r3, #32]
 281              	.LBB44:
 282              	.LBB41:
 283              		.loc 2 62 0
 284 002a 2260     		str	r2, [r4]
 285              	.LBE41:
 286              	.LBE44:
 287              		.loc 1 126 0
 288 002c A361     		str	r3, [r4, #24]
 289              		.loc 1 128 0
 290 002e FFF7FEFF 		bl	dbg_trace
 291              	.LVL17:
 292              	.LBB45:
 293 0032 EB69     		ldr	r3, [r5, #28]
 294 0034 ADF12402 		sub	r2, sp, #36
 295 0038 9342     		cmp	r3, r2
 296 003a 05D9     		bls	.L20
 297              		.loc 1 128 0 is_stmt 0 discriminator 1
 298 003c 40F20000 		movw	r0, #:lower16:.LC1
 299 0040 C0F20000 		movt	r0, #:upper16:.LC1
 300 0044 FFF7FEFF 		bl	chDbgPanic
 301              	.LVL18:
 302              	.L20:
 303              		.loc 1 128 0 discriminator 2
 304 0048 A069     		ldr	r0, [r4, #24]
 305 004a 2946     		mov	r1, r5
 306              	.LBE45:
 307              		.loc 1 129 0 is_stmt 1 discriminator 2
 308 004c BDE87040 		pop	{r4, r5, r6, lr}
 309              	.LVL19:
 310              	.LBB46:
 311              		.loc 1 128 0 discriminator 2
 312 0050 FFF7FEBF 		b	_port_switch
 313              	.LVL20:
 314              	.LBE46:
 315              		.cfi_endproc
 316              	.LFE9:
 317              		.size	chSchGoSleepS, .-chSchGoSleepS
 318 0054 AFF30080 		.section	.text.chSchGoSleepTimeoutS,"ax",%progbits
 318      AFF30080 
 318      AFF30080 
 319              		.align	2
 320              		.p2align 4,,15
 321              		.global	chSchGoSleepTimeoutS
 322              		.thumb
 323              		.thumb_func
 324              		.type	chSchGoSleepTimeoutS, %function
 325              	chSchGoSleepTimeoutS:
 326              	.LFB11:
 327              		.loc 1 189 0
 328              		.cfi_startproc
 329              		@ args = 0, pretend = 0, frame = 24
 330              		@ frame_needed = 0, uses_anonymous_args = 0
 331              	.LVL21:
 332 0000 70B5     		push	{r4, r5, r6, lr}
 333              		.cfi_def_cfa_offset 16
 334              		.cfi_offset 4, -16
ARM GAS  /tmp/ccMwYayC.s 			page 7


 335              		.cfi_offset 5, -12
 336              		.cfi_offset 6, -8
 337              		.cfi_offset 14, -4
 338 0002 0D46     		mov	r5, r1
 339 0004 86B0     		sub	sp, sp, #24
 340              		.cfi_def_cfa_offset 40
 341              		.loc 1 189 0
 342 0006 0646     		mov	r6, r0
 343              		.loc 1 191 0
 344 0008 FFF7FEFF 		bl	chDbgCheckClassS
 345              	.LVL22:
 346              		.loc 1 193 0
 347 000c 6B1C     		adds	r3, r5, #1
 348 000e 18D0     		beq	.L22
 349              	.LBB47:
 350              		.loc 1 196 0
 351 0010 40F20004 		movw	r4, #:lower16:.LANCHOR0
 352 0014 C0F20004 		movt	r4, #:upper16:.LANCHOR0
 353 0018 40F20002 		movw	r2, #:lower16:wakeup
 354 001c A369     		ldr	r3, [r4, #24]
 355 001e 2946     		mov	r1, r5
 356 0020 01A8     		add	r0, sp, #4
 357 0022 C0F20002 		movt	r2, #:upper16:wakeup
 358 0026 FFF7FEFF 		bl	chVTSetI
 359              	.LVL23:
 360              		.loc 1 197 0
 361 002a 3046     		mov	r0, r6
 362 002c FFF7FEFF 		bl	chSchGoSleepS
 363              	.LVL24:
 364              		.loc 1 198 0
 365 0030 049B     		ldr	r3, [sp, #16]
 366 0032 13B1     		cbz	r3, .L24
 367              		.loc 1 199 0
 368 0034 01A8     		add	r0, sp, #4
 369 0036 FFF7FEFF 		bl	chVTResetI
 370              	.LVL25:
 371              	.L24:
 372              	.LBE47:
 373              		.loc 1 203 0
 374 003a A369     		ldr	r3, [r4, #24]
 375              		.loc 1 204 0
 376 003c 986A     		ldr	r0, [r3, #40]
 377 003e 06B0     		add	sp, sp, #24
 378              		@ sp needed
 379 0040 70BD     		pop	{r4, r5, r6, pc}
 380              	.LVL26:
 381              	.L22:
 382 0042 40F20004 		movw	r4, #:lower16:.LANCHOR0
 383 0046 C0F20004 		movt	r4, #:upper16:.LANCHOR0
 384              		.loc 1 202 0
 385 004a 3046     		mov	r0, r6
 386 004c FFF7FEFF 		bl	chSchGoSleepS
 387              	.LVL27:
 388              		.loc 1 203 0
 389 0050 A369     		ldr	r3, [r4, #24]
 390              		.loc 1 204 0
 391 0052 986A     		ldr	r0, [r3, #40]
ARM GAS  /tmp/ccMwYayC.s 			page 8


 392 0054 06B0     		add	sp, sp, #24
 393              		@ sp needed
 394 0056 70BD     		pop	{r4, r5, r6, pc}
 395              		.cfi_endproc
 396              	.LFE11:
 397              		.size	chSchGoSleepTimeoutS, .-chSchGoSleepTimeoutS
 398 0058 AFF30080 		.section	.text.chSchWakeupS,"ax",%progbits
 398      AFF30080 
 399              		.align	2
 400              		.p2align 4,,15
 401              		.global	chSchWakeupS
 402              		.thumb
 403              		.thumb_func
 404              		.type	chSchWakeupS, %function
 405              	chSchWakeupS:
 406              	.LFB12:
 407              		.loc 1 225 0
 408              		.cfi_startproc
 409              		@ args = 0, pretend = 0, frame = 0
 410              		@ frame_needed = 0, uses_anonymous_args = 0
 411              	.LVL28:
 412 0000 70B5     		push	{r4, r5, r6, lr}
 413              		.cfi_def_cfa_offset 16
 414              		.cfi_offset 4, -16
 415              		.cfi_offset 5, -12
 416              		.cfi_offset 6, -8
 417              		.cfi_offset 14, -4
 418              		.loc 1 234 0
 419 0002 40F20005 		movw	r5, #:lower16:.LANCHOR0
 420 0006 C0F20005 		movt	r5, #:upper16:.LANCHOR0
 421              		.loc 1 225 0
 422 000a 0446     		mov	r4, r0
 423 000c 0E46     		mov	r6, r1
 424              		.loc 1 227 0
 425 000e FFF7FEFF 		bl	chDbgCheckClassS
 426              	.LVL29:
 427              		.loc 1 234 0
 428 0012 A869     		ldr	r0, [r5, #24]
 429 0014 A368     		ldr	r3, [r4, #8]
 430 0016 8268     		ldr	r2, [r0, #8]
 431              		.loc 1 229 0
 432 0018 A662     		str	r6, [r4, #40]
 433              		.loc 1 234 0
 434 001a 9342     		cmp	r3, r2
 435 001c 13D9     		bls	.L31
 436              	.LBB48:
 437              		.loc 1 237 0
 438 001e FFF7FEFF 		bl	chSchReadyI
 439              	.LVL30:
 440              		.loc 1 239 0
 441 0022 0123     		movs	r3, #1
 442              		.loc 1 237 0
 443 0024 0646     		mov	r6, r0
 444              	.LVL31:
 445              		.loc 1 239 0
 446 0026 84F82030 		strb	r3, [r4, #32]
 447              		.loc 1 238 0
ARM GAS  /tmp/ccMwYayC.s 			page 9


 448 002a AC61     		str	r4, [r5, #24]
 449              		.loc 1 240 0
 450 002c FFF7FEFF 		bl	dbg_trace
 451              	.LVL32:
 452              	.LBB49:
 453 0030 F369     		ldr	r3, [r6, #28]
 454 0032 ADF12402 		sub	r2, sp, #36
 455 0036 9342     		cmp	r3, r2
 456 0038 0AD8     		bhi	.L32
 457              		.loc 1 240 0 is_stmt 0 discriminator 2
 458 003a 2046     		mov	r0, r4
 459 003c 3146     		mov	r1, r6
 460              	.LBE49:
 461              	.LBE48:
 462              		.loc 1 242 0 is_stmt 1 discriminator 2
 463 003e BDE87040 		pop	{r4, r5, r6, lr}
 464              	.LVL33:
 465              	.LBB53:
 466              	.LBB50:
 467              		.loc 1 240 0 discriminator 2
 468 0042 FFF7FEBF 		b	_port_switch
 469              	.LVL34:
 470              	.L31:
 471              	.LBE50:
 472              	.LBE53:
 473              		.loc 1 235 0
 474 0046 2046     		mov	r0, r4
 475              		.loc 1 242 0
 476 0048 BDE87040 		pop	{r4, r5, r6, lr}
 477              	.LVL35:
 478              		.loc 1 235 0
 479 004c FFF7FEBF 		b	chSchReadyI
 480              	.LVL36:
 481              	.L32:
 482              	.LBB54:
 483              	.LBB51:
 484              		.loc 1 240 0 discriminator 1
 485 0050 40F20000 		movw	r0, #:lower16:.LC1
 486 0054 C0F20000 		movt	r0, #:upper16:.LC1
 487 0058 FFF7FEFF 		bl	chDbgPanic
 488              	.LVL37:
 489 005c 2046     		mov	r0, r4
 490 005e 3146     		mov	r1, r6
 491              	.LBE51:
 492              	.LBE54:
 493              		.loc 1 242 0 discriminator 1
 494 0060 BDE87040 		pop	{r4, r5, r6, lr}
 495              	.LVL38:
 496              	.LBB55:
 497              	.LBB52:
 498              		.loc 1 240 0 discriminator 1
 499 0064 FFF7FEBF 		b	_port_switch
 500              	.LVL39:
 501              	.LBE52:
 502              	.LBE55:
 503              		.cfi_endproc
 504              	.LFE12:
ARM GAS  /tmp/ccMwYayC.s 			page 10


 505              		.size	chSchWakeupS, .-chSchWakeupS
 506 0068 AFF30080 		.section	.text.chSchDoRescheduleBehind,"ax",%progbits
 506      AFF30080 
 507              		.align	2
 508              		.p2align 4,,15
 509              		.global	chSchDoRescheduleBehind
 510              		.thumb
 511              		.thumb_func
 512              		.type	chSchDoRescheduleBehind, %function
 513              	chSchDoRescheduleBehind:
 514              	.LFB14:
 515              		.loc 1 304 0
 516              		.cfi_startproc
 517              		@ args = 0, pretend = 0, frame = 0
 518              		@ frame_needed = 0, uses_anonymous_args = 0
 519 0000 70B5     		push	{r4, r5, r6, lr}
 520              		.cfi_def_cfa_offset 16
 521              		.cfi_offset 4, -16
 522              		.cfi_offset 5, -12
 523              		.cfi_offset 6, -8
 524              		.cfi_offset 14, -4
 525              		.loc 1 307 0
 526 0002 40F20004 		movw	r4, #:lower16:.LANCHOR0
 527 0006 C0F20004 		movt	r4, #:upper16:.LANCHOR0
 528              		.loc 1 312 0
 529 000a 1421     		movs	r1, #20
 530              	.LBB56:
 531              	.LBB57:
 532              		.loc 2 60 0
 533 000c 2368     		ldr	r3, [r4]
 534              	.LBE57:
 535              	.LBE56:
 536              		.loc 1 307 0
 537 000e A569     		ldr	r5, [r4, #24]
 538              	.LVL40:
 539              	.LBB61:
 540              	.LBB58:
 541              		.loc 2 62 0
 542 0010 1A68     		ldr	r2, [r3]
 543              	.LBE58:
 544              	.LBE61:
 545              		.loc 1 310 0
 546 0012 0126     		movs	r6, #1
 547              	.LBB62:
 548              	.LBB59:
 549              		.loc 2 62 0
 550 0014 5460     		str	r4, [r2, #4]
 551              	.LBE59:
 552              	.LBE62:
 553              		.loc 1 314 0
 554 0016 2846     		mov	r0, r5
 555              		.loc 1 310 0
 556 0018 83F82060 		strb	r6, [r3, #32]
 557              		.loc 1 312 0
 558 001c 85F82310 		strb	r1, [r5, #35]
 559              	.LBB63:
 560              	.LBB60:
ARM GAS  /tmp/ccMwYayC.s 			page 11


 561              		.loc 2 62 0
 562 0020 2260     		str	r2, [r4]
 563              	.LBE60:
 564              	.LBE63:
 565              		.loc 1 309 0
 566 0022 A361     		str	r3, [r4, #24]
 567              		.loc 1 314 0
 568 0024 FFF7FEFF 		bl	chSchReadyI
 569              	.LVL41:
 570              		.loc 1 315 0
 571 0028 2846     		mov	r0, r5
 572 002a FFF7FEFF 		bl	dbg_trace
 573              	.LVL42:
 574              	.LBB64:
 575 002e EB69     		ldr	r3, [r5, #28]
 576 0030 ADF12402 		sub	r2, sp, #36
 577 0034 9342     		cmp	r3, r2
 578 0036 05D9     		bls	.L34
 579              		.loc 1 315 0 is_stmt 0 discriminator 1
 580 0038 40F20000 		movw	r0, #:lower16:.LC1
 581 003c C0F20000 		movt	r0, #:upper16:.LC1
 582 0040 FFF7FEFF 		bl	chDbgPanic
 583              	.LVL43:
 584              	.L34:
 585              		.loc 1 315 0 discriminator 2
 586 0044 A069     		ldr	r0, [r4, #24]
 587 0046 2946     		mov	r1, r5
 588              	.LBE64:
 589              		.loc 1 316 0 is_stmt 1 discriminator 2
 590 0048 BDE87040 		pop	{r4, r5, r6, lr}
 591              	.LVL44:
 592              	.LBB65:
 593              		.loc 1 315 0 discriminator 2
 594 004c FFF7FEBF 		b	_port_switch
 595              	.LVL45:
 596              	.LBE65:
 597              		.cfi_endproc
 598              	.LFE14:
 599              		.size	chSchDoRescheduleBehind, .-chSchDoRescheduleBehind
 600              		.section	.text.chSchDoRescheduleAhead,"ax",%progbits
 601              		.align	2
 602              		.p2align 4,,15
 603              		.global	chSchDoRescheduleAhead
 604              		.thumb
 605              		.thumb_func
 606              		.type	chSchDoRescheduleAhead, %function
 607              	chSchDoRescheduleAhead:
 608              	.LFB15:
 609              		.loc 1 329 0
 610              		.cfi_startproc
 611              		@ args = 0, pretend = 0, frame = 0
 612              		@ frame_needed = 0, uses_anonymous_args = 0
 613 0000 70B5     		push	{r4, r5, r6, lr}
 614              		.cfi_def_cfa_offset 16
 615              		.cfi_offset 4, -16
 616              		.cfi_offset 5, -12
 617              		.cfi_offset 6, -8
ARM GAS  /tmp/ccMwYayC.s 			page 12


 618              		.cfi_offset 14, -4
 619              		.loc 1 332 0
 620 0002 40F20006 		movw	r6, #:lower16:.LANCHOR0
 621 0006 C0F20006 		movt	r6, #:upper16:.LANCHOR0
 622              		.loc 1 335 0
 623 000a 0120     		movs	r0, #1
 624              	.LBB66:
 625              	.LBB67:
 626              		.loc 2 60 0
 627 000c 3268     		ldr	r2, [r6]
 628              	.LBE67:
 629              	.LBE66:
 630              		.loc 1 332 0
 631 000e B569     		ldr	r5, [r6, #24]
 632              	.LVL46:
 633              	.LBB70:
 634              	.LBB68:
 635              		.loc 2 62 0
 636 0010 1368     		ldr	r3, [r2]
 637 0012 AC68     		ldr	r4, [r5, #8]
 638 0014 3360     		str	r3, [r6]
 639              	.LBE68:
 640              	.LBE70:
 641              		.loc 1 337 0
 642 0016 0021     		movs	r1, #0
 643              	.LBB71:
 644              	.LBB69:
 645              		.loc 2 62 0
 646 0018 5E60     		str	r6, [r3, #4]
 647              	.LBE69:
 648              	.LBE71:
 649              		.loc 1 335 0
 650 001a 82F82000 		strb	r0, [r2, #32]
 651              		.loc 1 337 0
 652 001e 1346     		mov	r3, r2
 653              		.loc 1 334 0
 654 0020 B261     		str	r2, [r6, #24]
 655              		.loc 1 337 0
 656 0022 85F82010 		strb	r1, [r5, #32]
 657              	.LVL47:
 658 0026 00E0     		b	.L37
 659              	.LVL48:
 660              	.L39:
 661 0028 1B68     		ldr	r3, [r3]
 662              	.LVL49:
 663              	.L37:
 664              		.loc 1 341 0 discriminator 1
 665 002a 9A68     		ldr	r2, [r3, #8]
 666 002c A242     		cmp	r2, r4
 667 002e FBD8     		bhi	.L39
 668              		.loc 1 344 0
 669 0030 5A68     		ldr	r2, [r3, #4]
 670              		.loc 1 343 0
 671 0032 2B60     		str	r3, [r5]
 672              		.loc 1 344 0
 673 0034 6A60     		str	r2, [r5, #4]
 674              		.loc 1 347 0
ARM GAS  /tmp/ccMwYayC.s 			page 13


 675 0036 2846     		mov	r0, r5
 676              		.loc 1 345 0
 677 0038 5D60     		str	r5, [r3, #4]
 678 003a 1560     		str	r5, [r2]
 679              		.loc 1 347 0
 680 003c FFF7FEFF 		bl	dbg_trace
 681              	.LVL50:
 682              	.LBB72:
 683 0040 EB69     		ldr	r3, [r5, #28]
 684 0042 ADF12402 		sub	r2, sp, #36
 685 0046 9342     		cmp	r3, r2
 686 0048 05D9     		bls	.L38
 687              		.loc 1 347 0 is_stmt 0 discriminator 1
 688 004a 40F20000 		movw	r0, #:lower16:.LC1
 689 004e C0F20000 		movt	r0, #:upper16:.LC1
 690 0052 FFF7FEFF 		bl	chDbgPanic
 691              	.LVL51:
 692              	.L38:
 693              		.loc 1 347 0 discriminator 2
 694 0056 B069     		ldr	r0, [r6, #24]
 695 0058 2946     		mov	r1, r5
 696              	.LBE72:
 697              		.loc 1 348 0 is_stmt 1 discriminator 2
 698 005a BDE87040 		pop	{r4, r5, r6, lr}
 699              	.LVL52:
 700              	.LBB73:
 701              		.loc 1 347 0 discriminator 2
 702 005e FFF7FEBF 		b	_port_switch
 703              	.LVL53:
 704              	.LBE73:
 705              		.cfi_endproc
 706              	.LFE15:
 707              		.size	chSchDoRescheduleAhead, .-chSchDoRescheduleAhead
 708 0062 00BFAFF3 		.section	.text.chSchRescheduleS,"ax",%progbits
 708      0080AFF3 
 708      0080AFF3 
 708      0080
 709              		.align	2
 710              		.p2align 4,,15
 711              		.global	chSchRescheduleS
 712              		.thumb
 713              		.thumb_func
 714              		.type	chSchRescheduleS, %function
 715              	chSchRescheduleS:
 716              	.LFB13:
 717              		.loc 1 253 0
 718              		.cfi_startproc
 719              		@ args = 0, pretend = 0, frame = 0
 720              		@ frame_needed = 0, uses_anonymous_args = 0
 721 0000 08B5     		push	{r3, lr}
 722              		.cfi_def_cfa_offset 8
 723              		.cfi_offset 3, -8
 724              		.cfi_offset 14, -4
 725              		.loc 1 255 0
 726 0002 FFF7FEFF 		bl	chDbgCheckClassS
 727              	.LVL54:
 728              		.loc 1 257 0
ARM GAS  /tmp/ccMwYayC.s 			page 14


 729 0006 40F20003 		movw	r3, #:lower16:.LANCHOR0
 730 000a C0F20003 		movt	r3, #:upper16:.LANCHOR0
 731 000e 1A68     		ldr	r2, [r3]
 732 0010 9B69     		ldr	r3, [r3, #24]
 733 0012 9268     		ldr	r2, [r2, #8]
 734 0014 9B68     		ldr	r3, [r3, #8]
 735 0016 9A42     		cmp	r2, r3
 736 0018 00D8     		bhi	.L42
 737 001a 08BD     		pop	{r3, pc}
 738              	.L42:
 739              		.loc 1 259 0
 740 001c BDE80840 		pop	{r3, lr}
 741              		.loc 1 258 0
 742 0020 FFF7FEBF 		b	chSchDoRescheduleAhead
 743              	.LVL55:
 744              		.cfi_endproc
 745              	.LFE13:
 746              		.size	chSchRescheduleS, .-chSchRescheduleS
 747 0024 AFF30080 		.section	.text.chSchDoReschedule,"ax",%progbits
 747      AFF30080 
 747      AFF30080 
 748              		.align	2
 749              		.p2align 4,,15
 750              		.global	chSchDoReschedule
 751              		.thumb
 752              		.thumb_func
 753              		.type	chSchDoReschedule, %function
 754              	chSchDoReschedule:
 755              	.LFB16:
 756              		.loc 1 362 0
 757              		.cfi_startproc
 758              		@ args = 0, pretend = 0, frame = 0
 759              		@ frame_needed = 0, uses_anonymous_args = 0
 760              		@ link register save eliminated.
 761              		.loc 1 367 0
 762 0000 40F20003 		movw	r3, #:lower16:.LANCHOR0
 763 0004 C0F20003 		movt	r3, #:upper16:.LANCHOR0
 764 0008 9B69     		ldr	r3, [r3, #24]
 765 000a 93F82330 		ldrb	r3, [r3, #35]	@ zero_extendqisi2
 766 000e 0BB1     		cbz	r3, .L45
 767              		.loc 1 375 0
 768 0010 FFF7FEBF 		b	chSchDoRescheduleAhead
 769              	.LVL56:
 770              	.L45:
 771              		.loc 1 370 0
 772 0014 FFF7FEBF 		b	chSchDoRescheduleBehind
 773              	.LVL57:
 774              		.cfi_endproc
 775              	.LFE16:
 776              		.size	chSchDoReschedule, .-chSchDoReschedule
 777              		.global	rlist
 778 0018 AFF30080 		.section	.rodata.str1.4,"aMS",%progbits,1
 778      AFF30080 
 779              		.align	2
 780              	.LC0:
 781 0000 63685363 		.ascii	"chSchReadyI(), #1\000"
 781      68526561 
ARM GAS  /tmp/ccMwYayC.s 			page 15


 781      64794928 
 781      292C2023 
 781      3100
 782 0012 0000     		.space	2
 783              	.LC1:
 784 0014 73746163 		.ascii	"stack overflow\000"
 784      6B206F76 
 784      6572666C 
 784      6F7700
 785 0023 00       		.section	.bss.rlist,"aw",%nobits
 786              		.align	2
 787              		.set	.LANCHOR0,. + 0
 788              		.type	rlist, %object
 789              		.size	rlist, 28
 790              	rlist:
 791 0000 00000000 		.space	28
 791      00000000 
 791      00000000 
 791      00000000 
 791      00000000 
 792              		.text
 793              	.Letext0:
 794              		.file 3 "/usr/include/newlib/machine/_default_types.h"
 795              		.file 4 "/usr/include/newlib/stdint.h"
 796              		.file 5 "../../../os/ports/GCC/ARMCMx/chtypes.h"
 797              		.file 6 "../../../os/kernel/include/chlists.h"
 798              		.file 7 "../../../os/kernel/include/chthreads.h"
 799              		.file 8 "../../../os/ports/GCC/ARMCMx/chcore_v7m.h"
 800              		.file 9 "../../../os/kernel/include/chvt.h"
 801              		.file 10 "../../../os/kernel/include/chschd.h"
 802              		.file 11 "../../../os/kernel/include/chsem.h"
 803              		.file 12 "../../../os/kernel/include/chmtx.h"
 804              		.file 13 "../../../os/kernel/include/chdebug.h"
 805              		.section	.debug_info,"",%progbits
 806              	.Ldebug_info0:
 807 0000 EF0A0000 		.4byte	0xaef
 808 0004 0400     		.2byte	0x4
 809 0006 00000000 		.4byte	.Ldebug_abbrev0
 810 000a 04       		.byte	0x4
 811 000b 01       		.uleb128 0x1
 812 000c 42000000 		.4byte	.LASF101
 813 0010 01       		.byte	0x1
 814 0011 5A010000 		.4byte	.LASF102
 815 0015 1E030000 		.4byte	.LASF103
 816 0019 20010000 		.4byte	.Ldebug_ranges0+0x120
 817 001d 00000000 		.4byte	0
 818 0021 00000000 		.4byte	.Ldebug_line0
 819 0025 02       		.uleb128 0x2
 820 0026 04       		.byte	0x4
 821 0027 05       		.byte	0x5
 822 0028 696E7400 		.ascii	"int\000"
 823 002c 03       		.uleb128 0x3
 824 002d 04       		.byte	0x4
 825 002e 07       		.byte	0x7
 826 002f EC010000 		.4byte	.LASF0
 827 0033 03       		.uleb128 0x3
 828 0034 01       		.byte	0x1
ARM GAS  /tmp/ccMwYayC.s 			page 16


 829 0035 06       		.byte	0x6
 830 0036 24010000 		.4byte	.LASF1
 831 003a 04       		.uleb128 0x4
 832 003b 38000000 		.4byte	.LASF5
 833 003f 03       		.byte	0x3
 834 0040 1C       		.byte	0x1c
 835 0041 45000000 		.4byte	0x45
 836 0045 03       		.uleb128 0x3
 837 0046 01       		.byte	0x1
 838 0047 08       		.byte	0x8
 839 0048 B0030000 		.4byte	.LASF2
 840 004c 03       		.uleb128 0x3
 841 004d 02       		.byte	0x2
 842 004e 05       		.byte	0x5
 843 004f D1030000 		.4byte	.LASF3
 844 0053 03       		.uleb128 0x3
 845 0054 02       		.byte	0x2
 846 0055 07       		.byte	0x7
 847 0056 48020000 		.4byte	.LASF4
 848 005a 04       		.uleb128 0x4
 849 005b 96040000 		.4byte	.LASF6
 850 005f 03       		.byte	0x3
 851 0060 37       		.byte	0x37
 852 0061 65000000 		.4byte	0x65
 853 0065 03       		.uleb128 0x3
 854 0066 04       		.byte	0x4
 855 0067 05       		.byte	0x5
 856 0068 7A010000 		.4byte	.LASF7
 857 006c 04       		.uleb128 0x4
 858 006d AD010000 		.4byte	.LASF8
 859 0071 03       		.byte	0x3
 860 0072 38       		.byte	0x38
 861 0073 77000000 		.4byte	0x77
 862 0077 03       		.uleb128 0x3
 863 0078 04       		.byte	0x4
 864 0079 07       		.byte	0x7
 865 007a 1F020000 		.4byte	.LASF9
 866 007e 03       		.uleb128 0x3
 867 007f 08       		.byte	0x8
 868 0080 05       		.byte	0x5
 869 0081 16010000 		.4byte	.LASF10
 870 0085 04       		.uleb128 0x4
 871 0086 80030000 		.4byte	.LASF11
 872 008a 03       		.byte	0x3
 873 008b 4E       		.byte	0x4e
 874 008c 90000000 		.4byte	0x90
 875 0090 03       		.uleb128 0x3
 876 0091 08       		.byte	0x8
 877 0092 07       		.byte	0x7
 878 0093 DF000000 		.4byte	.LASF12
 879 0097 04       		.uleb128 0x4
 880 0098 E6040000 		.4byte	.LASF13
 881 009c 04       		.byte	0x4
 882 009d 2A       		.byte	0x2a
 883 009e 3A000000 		.4byte	0x3a
 884 00a2 04       		.uleb128 0x4
 885 00a3 A8030000 		.4byte	.LASF14
ARM GAS  /tmp/ccMwYayC.s 			page 17


 886 00a7 04       		.byte	0x4
 887 00a8 41       		.byte	0x41
 888 00a9 5A000000 		.4byte	0x5a
 889 00ad 04       		.uleb128 0x4
 890 00ae 35040000 		.4byte	.LASF15
 891 00b2 04       		.byte	0x4
 892 00b3 42       		.byte	0x42
 893 00b4 6C000000 		.4byte	0x6c
 894 00b8 04       		.uleb128 0x4
 895 00b9 18000000 		.4byte	.LASF16
 896 00bd 04       		.byte	0x4
 897 00be 4E       		.byte	0x4e
 898 00bf 85000000 		.4byte	0x85
 899 00c3 03       		.uleb128 0x3
 900 00c4 01       		.byte	0x1
 901 00c5 02       		.byte	0x2
 902 00c6 A2030000 		.4byte	.LASF17
 903 00ca 04       		.uleb128 0x4
 904 00cb 87020000 		.4byte	.LASF18
 905 00cf 05       		.byte	0x5
 906 00d0 2C       		.byte	0x2c
 907 00d1 97000000 		.4byte	0x97
 908 00d5 04       		.uleb128 0x4
 909 00d6 83010000 		.4byte	.LASF19
 910 00da 05       		.byte	0x5
 911 00db 2D       		.byte	0x2d
 912 00dc 97000000 		.4byte	0x97
 913 00e0 04       		.uleb128 0x4
 914 00e1 8B030000 		.4byte	.LASF20
 915 00e5 05       		.byte	0x5
 916 00e6 2E       		.byte	0x2e
 917 00e7 97000000 		.4byte	0x97
 918 00eb 04       		.uleb128 0x4
 919 00ec 53040000 		.4byte	.LASF21
 920 00f0 05       		.byte	0x5
 921 00f1 2F       		.byte	0x2f
 922 00f2 97000000 		.4byte	0x97
 923 00f6 04       		.uleb128 0x4
 924 00f7 9A030000 		.4byte	.LASF22
 925 00fb 05       		.byte	0x5
 926 00fc 30       		.byte	0x30
 927 00fd AD000000 		.4byte	0xad
 928 0101 04       		.uleb128 0x4
 929 0102 68020000 		.4byte	.LASF23
 930 0106 05       		.byte	0x5
 931 0107 31       		.byte	0x31
 932 0108 A2000000 		.4byte	0xa2
 933 010c 04       		.uleb128 0x4
 934 010d AC020000 		.4byte	.LASF24
 935 0111 05       		.byte	0x5
 936 0112 33       		.byte	0x33
 937 0113 AD000000 		.4byte	0xad
 938 0117 04       		.uleb128 0x4
 939 0118 81040000 		.4byte	.LASF25
 940 011c 05       		.byte	0x5
 941 011d 35       		.byte	0x35
 942 011e AD000000 		.4byte	0xad
ARM GAS  /tmp/ccMwYayC.s 			page 18


 943 0122 04       		.uleb128 0x4
 944 0123 DB010000 		.4byte	.LASF26
 945 0127 05       		.byte	0x5
 946 0128 36       		.byte	0x36
 947 0129 A2000000 		.4byte	0xa2
 948 012d 04       		.uleb128 0x4
 949 012e 0A040000 		.4byte	.LASF27
 950 0132 06       		.byte	0x6
 951 0133 2A       		.byte	0x2a
 952 0134 38010000 		.4byte	0x138
 953 0138 05       		.uleb128 0x5
 954 0139 0A040000 		.4byte	.LASF27
 955 013d 4C       		.byte	0x4c
 956 013e 07       		.byte	0x7
 957 013f 5E       		.byte	0x5e
 958 0140 41020000 		.4byte	0x241
 959 0144 06       		.uleb128 0x6
 960 0145 FB030000 		.4byte	.LASF28
 961 0149 07       		.byte	0x7
 962 014a 5F       		.byte	0x5f
 963 014b 62020000 		.4byte	0x262
 964 014f 00       		.byte	0
 965 0150 06       		.uleb128 0x6
 966 0151 93030000 		.4byte	.LASF29
 967 0155 07       		.byte	0x7
 968 0156 61       		.byte	0x61
 969 0157 62020000 		.4byte	0x262
 970 015b 04       		.byte	0x4
 971 015c 06       		.uleb128 0x6
 972 015d FF000000 		.4byte	.LASF30
 973 0161 07       		.byte	0x7
 974 0162 63       		.byte	0x63
 975 0163 F6000000 		.4byte	0xf6
 976 0167 08       		.byte	0x8
 977 0168 06       		.uleb128 0x6
 978 0169 31050000 		.4byte	.LASF31
 979 016d 07       		.byte	0x7
 980 016e 64       		.byte	0x64
 981 016f 27030000 		.4byte	0x327
 982 0173 0C       		.byte	0xc
 983 0174 06       		.uleb128 0x6
 984 0175 8C010000 		.4byte	.LASF32
 985 0179 07       		.byte	0x7
 986 017a 66       		.byte	0x66
 987 017b 62020000 		.4byte	0x262
 988 017f 10       		.byte	0x10
 989 0180 06       		.uleb128 0x6
 990 0181 03030000 		.4byte	.LASF33
 991 0185 07       		.byte	0x7
 992 0186 67       		.byte	0x67
 993 0187 62020000 		.4byte	0x262
 994 018b 14       		.byte	0x14
 995 018c 06       		.uleb128 0x6
 996 018d 0D050000 		.4byte	.LASF34
 997 0191 07       		.byte	0x7
 998 0192 6E       		.byte	0x6e
 999 0193 CD040000 		.4byte	0x4cd
ARM GAS  /tmp/ccMwYayC.s 			page 19


 1000 0197 18       		.byte	0x18
 1001 0198 06       		.uleb128 0x6
 1002 0199 E1010000 		.4byte	.LASF35
 1003 019d 07       		.byte	0x7
 1004 019e 74       		.byte	0x74
 1005 019f DF040000 		.4byte	0x4df
 1006 01a3 1C       		.byte	0x1c
 1007 01a4 06       		.uleb128 0x6
 1008 01a5 DB030000 		.4byte	.LASF36
 1009 01a9 07       		.byte	0x7
 1010 01aa 79       		.byte	0x79
 1011 01ab D5000000 		.4byte	0xd5
 1012 01af 20       		.byte	0x20
 1013 01b0 06       		.uleb128 0x6
 1014 01b1 02040000 		.4byte	.LASF37
 1015 01b5 07       		.byte	0x7
 1016 01b6 7D       		.byte	0x7d
 1017 01b7 CA000000 		.4byte	0xca
 1018 01bb 21       		.byte	0x21
 1019 01bc 06       		.uleb128 0x6
 1020 01bd CF040000 		.4byte	.LASF38
 1021 01c1 07       		.byte	0x7
 1022 01c2 82       		.byte	0x82
 1023 01c3 E0000000 		.4byte	0xe0
 1024 01c7 22       		.byte	0x22
 1025 01c8 06       		.uleb128 0x6
 1026 01c9 E3030000 		.4byte	.LASF39
 1027 01cd 07       		.byte	0x7
 1028 01ce 88       		.byte	0x88
 1029 01cf EB000000 		.4byte	0xeb
 1030 01d3 23       		.byte	0x23
 1031 01d4 06       		.uleb128 0x6
 1032 01d5 A0040000 		.4byte	.LASF40
 1033 01d9 07       		.byte	0x7
 1034 01da 8F       		.byte	0x8f
 1035 01db C5030000 		.4byte	0x3c5
 1036 01df 24       		.byte	0x24
 1037 01e0 07       		.uleb128 0x7
 1038 01e1 705F7500 		.ascii	"p_u\000"
 1039 01e5 07       		.byte	0x7
 1040 01e6 B4       		.byte	0xb4
 1041 01e7 98040000 		.4byte	0x498
 1042 01eb 28       		.byte	0x28
 1043 01ec 06       		.uleb128 0x6
 1044 01ed 37050000 		.4byte	.LASF41
 1045 01f1 07       		.byte	0x7
 1046 01f2 B9       		.byte	0xb9
 1047 01f3 88020000 		.4byte	0x288
 1048 01f7 2C       		.byte	0x2c
 1049 01f8 06       		.uleb128 0x6
 1050 01f9 AE040000 		.4byte	.LASF42
 1051 01fd 07       		.byte	0x7
 1052 01fe BF       		.byte	0xbf
 1053 01ff 68020000 		.4byte	0x268
 1054 0203 30       		.byte	0x30
 1055 0204 06       		.uleb128 0x6
 1056 0205 00000000 		.4byte	.LASF43
ARM GAS  /tmp/ccMwYayC.s 			page 20


 1057 0209 07       		.byte	0x7
 1058 020a C3       		.byte	0xc3
 1059 020b 01010000 		.4byte	0x101
 1060 020f 38       		.byte	0x38
 1061 0210 06       		.uleb128 0x6
 1062 0211 2A040000 		.4byte	.LASF44
 1063 0215 07       		.byte	0x7
 1064 0216 C9       		.byte	0xc9
 1065 0217 0C010000 		.4byte	0x10c
 1066 021b 3C       		.byte	0x3c
 1067 021c 06       		.uleb128 0x6
 1068 021d C7030000 		.4byte	.LASF45
 1069 0221 07       		.byte	0x7
 1070 0222 D0       		.byte	0xd0
 1071 0223 E5040000 		.4byte	0x4e5
 1072 0227 40       		.byte	0x40
 1073 0228 06       		.uleb128 0x6
 1074 0229 8B040000 		.4byte	.LASF46
 1075 022d 07       		.byte	0x7
 1076 022e D4       		.byte	0xd4
 1077 022f F6000000 		.4byte	0xf6
 1078 0233 44       		.byte	0x44
 1079 0234 06       		.uleb128 0x6
 1080 0235 4A010000 		.4byte	.LASF47
 1081 0239 07       		.byte	0x7
 1082 023a DA       		.byte	0xda
 1083 023b 9E020000 		.4byte	0x29e
 1084 023f 48       		.byte	0x48
 1085 0240 00       		.byte	0
 1086 0241 08       		.uleb128 0x8
 1087 0242 08       		.byte	0x8
 1088 0243 06       		.byte	0x6
 1089 0244 61       		.byte	0x61
 1090 0245 62020000 		.4byte	0x262
 1091 0249 06       		.uleb128 0x6
 1092 024a FB030000 		.4byte	.LASF28
 1093 024e 06       		.byte	0x6
 1094 024f 62       		.byte	0x62
 1095 0250 62020000 		.4byte	0x262
 1096 0254 00       		.byte	0
 1097 0255 06       		.uleb128 0x6
 1098 0256 93030000 		.4byte	.LASF29
 1099 025a 06       		.byte	0x6
 1100 025b 64       		.byte	0x64
 1101 025c 62020000 		.4byte	0x262
 1102 0260 04       		.byte	0x4
 1103 0261 00       		.byte	0
 1104 0262 09       		.uleb128 0x9
 1105 0263 04       		.byte	0x4
 1106 0264 2D010000 		.4byte	0x12d
 1107 0268 04       		.uleb128 0x4
 1108 0269 11030000 		.4byte	.LASF48
 1109 026d 06       		.byte	0x6
 1110 026e 66       		.byte	0x66
 1111 026f 41020000 		.4byte	0x241
 1112 0273 08       		.uleb128 0x8
 1113 0274 04       		.byte	0x4
ARM GAS  /tmp/ccMwYayC.s 			page 21


 1114 0275 06       		.byte	0x6
 1115 0276 6B       		.byte	0x6b
 1116 0277 88020000 		.4byte	0x288
 1117 027b 06       		.uleb128 0x6
 1118 027c FB030000 		.4byte	.LASF28
 1119 0280 06       		.byte	0x6
 1120 0281 6D       		.byte	0x6d
 1121 0282 62020000 		.4byte	0x262
 1122 0286 00       		.byte	0
 1123 0287 00       		.byte	0
 1124 0288 04       		.uleb128 0x4
 1125 0289 A0020000 		.4byte	.LASF49
 1126 028d 06       		.byte	0x6
 1127 028e 70       		.byte	0x70
 1128 028f 73020000 		.4byte	0x273
 1129 0293 04       		.uleb128 0x4
 1130 0294 B8010000 		.4byte	.LASF50
 1131 0298 08       		.byte	0x8
 1132 0299 E5       		.byte	0xe5
 1133 029a 9E020000 		.4byte	0x29e
 1134 029e 0A       		.uleb128 0xa
 1135 029f 04       		.byte	0x4
 1136 02a0 04       		.uleb128 0x4
 1137 02a1 BE020000 		.4byte	.LASF51
 1138 02a5 08       		.byte	0x8
 1139 02a6 EB       		.byte	0xeb
 1140 02a7 B8000000 		.4byte	0xb8
 1141 02ab 0B       		.uleb128 0xb
 1142 02ac A7040000 		.4byte	.LASF52
 1143 02b0 24       		.byte	0x24
 1144 02b1 08       		.byte	0x8
 1145 02b2 0C01     		.2byte	0x10c
 1146 02b4 27030000 		.4byte	0x327
 1147 02b8 0C       		.uleb128 0xc
 1148 02b9 723400   		.ascii	"r4\000"
 1149 02bc 08       		.byte	0x8
 1150 02bd 1F01     		.2byte	0x11f
 1151 02bf 93020000 		.4byte	0x293
 1152 02c3 00       		.byte	0
 1153 02c4 0C       		.uleb128 0xc
 1154 02c5 723500   		.ascii	"r5\000"
 1155 02c8 08       		.byte	0x8
 1156 02c9 2001     		.2byte	0x120
 1157 02cb 93020000 		.4byte	0x293
 1158 02cf 04       		.byte	0x4
 1159 02d0 0C       		.uleb128 0xc
 1160 02d1 723600   		.ascii	"r6\000"
 1161 02d4 08       		.byte	0x8
 1162 02d5 2101     		.2byte	0x121
 1163 02d7 93020000 		.4byte	0x293
 1164 02db 08       		.byte	0x8
 1165 02dc 0C       		.uleb128 0xc
 1166 02dd 723700   		.ascii	"r7\000"
 1167 02e0 08       		.byte	0x8
 1168 02e1 2201     		.2byte	0x122
 1169 02e3 93020000 		.4byte	0x293
 1170 02e7 0C       		.byte	0xc
ARM GAS  /tmp/ccMwYayC.s 			page 22


 1171 02e8 0C       		.uleb128 0xc
 1172 02e9 723800   		.ascii	"r8\000"
 1173 02ec 08       		.byte	0x8
 1174 02ed 2301     		.2byte	0x123
 1175 02ef 93020000 		.4byte	0x293
 1176 02f3 10       		.byte	0x10
 1177 02f4 0C       		.uleb128 0xc
 1178 02f5 723900   		.ascii	"r9\000"
 1179 02f8 08       		.byte	0x8
 1180 02f9 2401     		.2byte	0x124
 1181 02fb 93020000 		.4byte	0x293
 1182 02ff 14       		.byte	0x14
 1183 0300 0C       		.uleb128 0xc
 1184 0301 72313000 		.ascii	"r10\000"
 1185 0305 08       		.byte	0x8
 1186 0306 2501     		.2byte	0x125
 1187 0308 93020000 		.4byte	0x293
 1188 030c 18       		.byte	0x18
 1189 030d 0C       		.uleb128 0xc
 1190 030e 72313100 		.ascii	"r11\000"
 1191 0312 08       		.byte	0x8
 1192 0313 2601     		.2byte	0x126
 1193 0315 93020000 		.4byte	0x293
 1194 0319 1C       		.byte	0x1c
 1195 031a 0C       		.uleb128 0xc
 1196 031b 6C7200   		.ascii	"lr\000"
 1197 031e 08       		.byte	0x8
 1198 031f 2701     		.2byte	0x127
 1199 0321 93020000 		.4byte	0x293
 1200 0325 20       		.byte	0x20
 1201 0326 00       		.byte	0
 1202 0327 0B       		.uleb128 0xb
 1203 0328 40020000 		.4byte	.LASF53
 1204 032c 04       		.byte	0x4
 1205 032d 08       		.byte	0x8
 1206 032e 3101     		.2byte	0x131
 1207 0330 42030000 		.4byte	0x342
 1208 0334 0C       		.uleb128 0xc
 1209 0335 72313300 		.ascii	"r13\000"
 1210 0339 08       		.byte	0x8
 1211 033a 3201     		.2byte	0x132
 1212 033c 42030000 		.4byte	0x342
 1213 0340 00       		.byte	0
 1214 0341 00       		.byte	0
 1215 0342 09       		.uleb128 0x9
 1216 0343 04       		.byte	0x4
 1217 0344 AB020000 		.4byte	0x2ab
 1218 0348 03       		.uleb128 0x3
 1219 0349 04       		.byte	0x4
 1220 034a 07       		.byte	0x7
 1221 034b D1020000 		.4byte	.LASF54
 1222 034f 04       		.uleb128 0x4
 1223 0350 31020000 		.4byte	.LASF55
 1224 0354 09       		.byte	0x9
 1225 0355 58       		.byte	0x58
 1226 0356 5A030000 		.4byte	0x35a
 1227 035a 09       		.uleb128 0x9
ARM GAS  /tmp/ccMwYayC.s 			page 23


 1228 035b 04       		.byte	0x4
 1229 035c 60030000 		.4byte	0x360
 1230 0360 0D       		.uleb128 0xd
 1231 0361 6B030000 		.4byte	0x36b
 1232 0365 0E       		.uleb128 0xe
 1233 0366 9E020000 		.4byte	0x29e
 1234 036a 00       		.byte	0
 1235 036b 04       		.uleb128 0x4
 1236 036c 46040000 		.4byte	.LASF56
 1237 0370 09       		.byte	0x9
 1238 0371 5D       		.byte	0x5d
 1239 0372 76030000 		.4byte	0x376
 1240 0376 05       		.uleb128 0x5
 1241 0377 46040000 		.4byte	.LASF56
 1242 037b 14       		.byte	0x14
 1243 037c 09       		.byte	0x9
 1244 037d 64       		.byte	0x64
 1245 037e BF030000 		.4byte	0x3bf
 1246 0382 06       		.uleb128 0x6
 1247 0383 00020000 		.4byte	.LASF57
 1248 0387 09       		.byte	0x9
 1249 0388 65       		.byte	0x65
 1250 0389 BF030000 		.4byte	0x3bf
 1251 038d 00       		.byte	0
 1252 038e 06       		.uleb128 0x6
 1253 038f C1010000 		.4byte	.LASF58
 1254 0393 09       		.byte	0x9
 1255 0394 67       		.byte	0x67
 1256 0395 BF030000 		.4byte	0x3bf
 1257 0399 04       		.byte	0x4
 1258 039a 06       		.uleb128 0x6
 1259 039b C9020000 		.4byte	.LASF59
 1260 039f 09       		.byte	0x9
 1261 03a0 69       		.byte	0x69
 1262 03a1 17010000 		.4byte	0x117
 1263 03a5 08       		.byte	0x8
 1264 03a6 06       		.uleb128 0x6
 1265 03a7 DA020000 		.4byte	.LASF60
 1266 03ab 09       		.byte	0x9
 1267 03ac 6A       		.byte	0x6a
 1268 03ad 4F030000 		.4byte	0x34f
 1269 03b1 0C       		.byte	0xc
 1270 03b2 06       		.uleb128 0x6
 1271 03b3 BE040000 		.4byte	.LASF61
 1272 03b7 09       		.byte	0x9
 1273 03b8 6C       		.byte	0x6c
 1274 03b9 9E020000 		.4byte	0x29e
 1275 03bd 10       		.byte	0x10
 1276 03be 00       		.byte	0
 1277 03bf 09       		.uleb128 0x9
 1278 03c0 04       		.byte	0x4
 1279 03c1 6B030000 		.4byte	0x36b
 1280 03c5 0F       		.uleb128 0xf
 1281 03c6 17010000 		.4byte	0x117
 1282 03ca 08       		.uleb128 0x8
 1283 03cb 1C       		.byte	0x1c
 1284 03cc 0A       		.byte	0xa
ARM GAS  /tmp/ccMwYayC.s 			page 24


 1285 03cd 5E       		.byte	0x5e
 1286 03ce 1B040000 		.4byte	0x41b
 1287 03d2 06       		.uleb128 0x6
 1288 03d3 3E040000 		.4byte	.LASF62
 1289 03d7 0A       		.byte	0xa
 1290 03d8 5F       		.byte	0x5f
 1291 03d9 68020000 		.4byte	0x268
 1292 03dd 00       		.byte	0
 1293 03de 06       		.uleb128 0x6
 1294 03df ED030000 		.4byte	.LASF63
 1295 03e3 0A       		.byte	0xa
 1296 03e4 60       		.byte	0x60
 1297 03e5 F6000000 		.4byte	0xf6
 1298 03e9 08       		.byte	0x8
 1299 03ea 06       		.uleb128 0x6
 1300 03eb 0B030000 		.4byte	.LASF64
 1301 03ef 0A       		.byte	0xa
 1302 03f0 62       		.byte	0x62
 1303 03f1 27030000 		.4byte	0x327
 1304 03f5 0C       		.byte	0xc
 1305 03f6 06       		.uleb128 0x6
 1306 03f7 6E020000 		.4byte	.LASF65
 1307 03fb 0A       		.byte	0xa
 1308 03fc 65       		.byte	0x65
 1309 03fd 62020000 		.4byte	0x262
 1310 0401 10       		.byte	0x10
 1311 0402 06       		.uleb128 0x6
 1312 0403 78030000 		.4byte	.LASF66
 1313 0407 0A       		.byte	0xa
 1314 0408 66       		.byte	0x66
 1315 0409 62020000 		.4byte	0x262
 1316 040d 14       		.byte	0x14
 1317 040e 06       		.uleb128 0x6
 1318 040f 6E030000 		.4byte	.LASF67
 1319 0413 0A       		.byte	0xa
 1320 0414 69       		.byte	0x69
 1321 0415 62020000 		.4byte	0x262
 1322 0419 18       		.byte	0x18
 1323 041a 00       		.byte	0
 1324 041b 04       		.uleb128 0x4
 1325 041c D6040000 		.4byte	.LASF68
 1326 0420 0A       		.byte	0xa
 1327 0421 6B       		.byte	0x6b
 1328 0422 CA030000 		.4byte	0x3ca
 1329 0426 05       		.uleb128 0x5
 1330 0427 C5040000 		.4byte	.LASF69
 1331 042b 0C       		.byte	0xc
 1332 042c 0B       		.byte	0xb
 1333 042d 2C       		.byte	0x2c
 1334 042e 4B040000 		.4byte	0x44b
 1335 0432 06       		.uleb128 0x6
 1336 0433 94010000 		.4byte	.LASF70
 1337 0437 0B       		.byte	0xb
 1338 0438 2D       		.byte	0x2d
 1339 0439 68020000 		.4byte	0x268
 1340 043d 00       		.byte	0
 1341 043e 06       		.uleb128 0x6
ARM GAS  /tmp/ccMwYayC.s 			page 25


 1342 043f 3A020000 		.4byte	.LASF71
 1343 0443 0B       		.byte	0xb
 1344 0444 2F       		.byte	0x2f
 1345 0445 22010000 		.4byte	0x122
 1346 0449 08       		.byte	0x8
 1347 044a 00       		.byte	0
 1348 044b 04       		.uleb128 0x4
 1349 044c C5040000 		.4byte	.LASF69
 1350 0450 0B       		.byte	0xb
 1351 0451 30       		.byte	0x30
 1352 0452 26040000 		.4byte	0x426
 1353 0456 05       		.uleb128 0x5
 1354 0457 B8020000 		.4byte	.LASF72
 1355 045b 10       		.byte	0x10
 1356 045c 0C       		.byte	0xc
 1357 045d 2C       		.byte	0x2c
 1358 045e 87040000 		.4byte	0x487
 1359 0462 06       		.uleb128 0x6
 1360 0463 52010000 		.4byte	.LASF73
 1361 0467 0C       		.byte	0xc
 1362 0468 2D       		.byte	0x2d
 1363 0469 68020000 		.4byte	0x268
 1364 046d 00       		.byte	0
 1365 046e 06       		.uleb128 0x6
 1366 046f 29050000 		.4byte	.LASF74
 1367 0473 0C       		.byte	0xc
 1368 0474 2F       		.byte	0x2f
 1369 0475 62020000 		.4byte	0x262
 1370 0479 08       		.byte	0x8
 1371 047a 06       		.uleb128 0x6
 1372 047b 7A040000 		.4byte	.LASF75
 1373 047f 0C       		.byte	0xc
 1374 0480 31       		.byte	0x31
 1375 0481 87040000 		.4byte	0x487
 1376 0485 0C       		.byte	0xc
 1377 0486 00       		.byte	0
 1378 0487 09       		.uleb128 0x9
 1379 0488 04       		.byte	0x4
 1380 0489 56040000 		.4byte	0x456
 1381 048d 04       		.uleb128 0x4
 1382 048e B8020000 		.4byte	.LASF72
 1383 0492 0C       		.byte	0xc
 1384 0493 33       		.byte	0x33
 1385 0494 56040000 		.4byte	0x456
 1386 0498 10       		.uleb128 0x10
 1387 0499 04       		.byte	0x4
 1388 049a 07       		.byte	0x7
 1389 049b 96       		.byte	0x96
 1390 049c CD040000 		.4byte	0x4cd
 1391 04a0 11       		.uleb128 0x11
 1392 04a1 11000000 		.4byte	.LASF76
 1393 04a5 07       		.byte	0x7
 1394 04a6 9D       		.byte	0x9d
 1395 04a7 01010000 		.4byte	0x101
 1396 04ab 11       		.uleb128 0x11
 1397 04ac F6000000 		.4byte	.LASF77
 1398 04b0 07       		.byte	0x7
ARM GAS  /tmp/ccMwYayC.s 			page 26


 1399 04b1 A4       		.byte	0xa4
 1400 04b2 01010000 		.4byte	0x101
 1401 04b6 11       		.uleb128 0x11
 1402 04b7 06050000 		.4byte	.LASF78
 1403 04bb 07       		.byte	0x7
 1404 04bc AB       		.byte	0xab
 1405 04bd 9E020000 		.4byte	0x29e
 1406 04c1 11       		.uleb128 0x11
 1407 04c2 F4030000 		.4byte	.LASF79
 1408 04c6 07       		.byte	0x7
 1409 04c7 B2       		.byte	0xb2
 1410 04c8 0C010000 		.4byte	0x10c
 1411 04cc 00       		.byte	0
 1412 04cd 09       		.uleb128 0x9
 1413 04ce 04       		.byte	0x4
 1414 04cf D3040000 		.4byte	0x4d3
 1415 04d3 12       		.uleb128 0x12
 1416 04d4 D8040000 		.4byte	0x4d8
 1417 04d8 03       		.uleb128 0x3
 1418 04d9 01       		.byte	0x1
 1419 04da 08       		.byte	0x8
 1420 04db 5D040000 		.4byte	.LASF80
 1421 04df 09       		.uleb128 0x9
 1422 04e0 04       		.byte	0x4
 1423 04e1 A0020000 		.4byte	0x2a0
 1424 04e5 09       		.uleb128 0x9
 1425 04e6 04       		.byte	0x4
 1426 04e7 8D040000 		.4byte	0x48d
 1427 04eb 13       		.uleb128 0x13
 1428 04ec 66030000 		.4byte	.LASF81
 1429 04f0 02       		.byte	0x2
 1430 04f1 49       		.byte	0x49
 1431 04f2 62020000 		.4byte	0x262
 1432 04f6 03       		.byte	0x3
 1433 04f7 06050000 		.4byte	0x506
 1434 04fb 14       		.uleb128 0x14
 1435 04fc 747000   		.ascii	"tp\000"
 1436 04ff 02       		.byte	0x2
 1437 0500 49       		.byte	0x49
 1438 0501 62020000 		.4byte	0x262
 1439 0505 00       		.byte	0
 1440 0506 15       		.uleb128 0x15
 1441 0507 F9010000 		.4byte	.LASF104
 1442 050b 01       		.byte	0x1
 1443 050c 88       		.byte	0x88
 1444 050d 01       		.byte	0x1
 1445 050e 55050000 		.4byte	0x555
 1446 0512 14       		.uleb128 0x14
 1447 0513 7000     		.ascii	"p\000"
 1448 0515 01       		.byte	0x1
 1449 0516 88       		.byte	0x88
 1450 0517 9E020000 		.4byte	0x29e
 1451 051b 16       		.uleb128 0x16
 1452 051c 747000   		.ascii	"tp\000"
 1453 051f 01       		.byte	0x1
 1454 0520 89       		.byte	0x89
 1455 0521 62020000 		.4byte	0x262
ARM GAS  /tmp/ccMwYayC.s 			page 27


 1456 0525 17       		.uleb128 0x17
 1457 0526 36050000 		.4byte	0x536
 1458 052a 16       		.uleb128 0x16
 1459 052b 746D7000 		.ascii	"tmp\000"
 1460 052f 01       		.byte	0x1
 1461 0530 8B       		.byte	0x8b
 1462 0531 AD000000 		.4byte	0xad
 1463 0535 00       		.byte	0
 1464 0536 17       		.uleb128 0x17
 1465 0537 47050000 		.4byte	0x547
 1466 053b 16       		.uleb128 0x16
 1467 053c 746D7000 		.ascii	"tmp\000"
 1468 0540 01       		.byte	0x1
 1469 0541 90       		.byte	0x90
 1470 0542 AD000000 		.4byte	0xad
 1471 0546 00       		.byte	0
 1472 0547 18       		.uleb128 0x18
 1473 0548 16       		.uleb128 0x16
 1474 0549 746D7000 		.ascii	"tmp\000"
 1475 054d 01       		.byte	0x1
 1476 054e A5       		.byte	0xa5
 1477 054f AD000000 		.4byte	0xad
 1478 0553 00       		.byte	0
 1479 0554 00       		.byte	0
 1480 0555 13       		.uleb128 0x13
 1481 0556 62040000 		.4byte	.LASF82
 1482 055a 02       		.byte	0x2
 1483 055b 3B       		.byte	0x3b
 1484 055c 62020000 		.4byte	0x262
 1485 0560 03       		.byte	0x3
 1486 0561 7B050000 		.4byte	0x57b
 1487 0565 14       		.uleb128 0x14
 1488 0566 74717000 		.ascii	"tqp\000"
 1489 056a 02       		.byte	0x2
 1490 056b 3B       		.byte	0x3b
 1491 056c 7B050000 		.4byte	0x57b
 1492 0570 16       		.uleb128 0x16
 1493 0571 747000   		.ascii	"tp\000"
 1494 0574 02       		.byte	0x2
 1495 0575 3C       		.byte	0x3c
 1496 0576 62020000 		.4byte	0x262
 1497 057a 00       		.byte	0
 1498 057b 09       		.uleb128 0x9
 1499 057c 04       		.byte	0x4
 1500 057d 68020000 		.4byte	0x268
 1501 0581 19       		.uleb128 0x19
 1502 0582 06010000 		.4byte	.LASF105
 1503 0586 01       		.byte	0x1
 1504 0587 37       		.byte	0x37
 1505 0588 00000000 		.4byte	.LFB7
 1506 058c 16000000 		.4byte	.LFE7-.LFB7
 1507 0590 01       		.uleb128 0x1
 1508 0591 9C       		.byte	0x9c
 1509 0592 1A       		.uleb128 0x1a
 1510 0593 6E040000 		.4byte	.LASF84
 1511 0597 01       		.byte	0x1
 1512 0598 51       		.byte	0x51
ARM GAS  /tmp/ccMwYayC.s 			page 28


 1513 0599 62020000 		.4byte	0x262
 1514 059d 00000000 		.4byte	.LFB8
 1515 05a1 48000000 		.4byte	.LFE8-.LFB8
 1516 05a5 01       		.uleb128 0x1
 1517 05a6 9C       		.byte	0x9c
 1518 05a7 E4050000 		.4byte	0x5e4
 1519 05ab 1B       		.uleb128 0x1b
 1520 05ac 747000   		.ascii	"tp\000"
 1521 05af 01       		.byte	0x1
 1522 05b0 51       		.byte	0x51
 1523 05b1 62020000 		.4byte	0x262
 1524 05b5 00000000 		.4byte	.LLST0
 1525 05b9 1C       		.uleb128 0x1c
 1526 05ba 637000   		.ascii	"cp\000"
 1527 05bd 01       		.byte	0x1
 1528 05be 52       		.byte	0x52
 1529 05bf 62020000 		.4byte	0x262
 1530 05c3 1E000000 		.4byte	.LLST1
 1531 05c7 1D       		.uleb128 0x1d
 1532 05c8 08000000 		.4byte	.LVL1
 1533 05cc 700A0000 		.4byte	0xa70
 1534 05d0 1E       		.uleb128 0x1e
 1535 05d1 46000000 		.4byte	.LVL6
 1536 05d5 770A0000 		.4byte	0xa77
 1537 05d9 1F       		.uleb128 0x1f
 1538 05da 01       		.uleb128 0x1
 1539 05db 50       		.byte	0x50
 1540 05dc 05       		.uleb128 0x5
 1541 05dd 03       		.byte	0x3
 1542 05de 00000000 		.4byte	.LC0
 1543 05e2 00       		.byte	0
 1544 05e3 00       		.byte	0
 1545 05e4 20       		.uleb128 0x20
 1546 05e5 06050000 		.4byte	0x506
 1547 05e9 00000000 		.4byte	.LFB10
 1548 05ed 52000000 		.4byte	.LFE10-.LFB10
 1549 05f1 01       		.uleb128 0x1
 1550 05f2 9C       		.byte	0x9c
 1551 05f3 73060000 		.4byte	0x673
 1552 05f7 21       		.uleb128 0x21
 1553 05f8 12050000 		.4byte	0x512
 1554 05fc 41000000 		.4byte	.LLST2
 1555 0600 22       		.uleb128 0x22
 1556 0601 1B050000 		.4byte	0x51b
 1557 0605 41000000 		.4byte	.LLST2
 1558 0609 23       		.uleb128 0x23
 1559 060a 00000000 		.4byte	.Ldebug_ranges0+0
 1560 060e 1A060000 		.4byte	0x61a
 1561 0612 24       		.uleb128 0x24
 1562 0613 2A050000 		.4byte	0x52a
 1563 0617 01       		.uleb128 0x1
 1564 0618 53       		.byte	0x53
 1565 0619 00       		.byte	0
 1566 061a 25       		.uleb128 0x25
 1567 061b EB040000 		.4byte	0x4eb
 1568 061f 30000000 		.4byte	.LBB34
 1569 0623 0A000000 		.4byte	.LBE34-.LBB34
ARM GAS  /tmp/ccMwYayC.s 			page 29


 1570 0627 01       		.byte	0x1
 1571 0628 A0       		.byte	0xa0
 1572 0629 37060000 		.4byte	0x637
 1573 062d 21       		.uleb128 0x21
 1574 062e FB040000 		.4byte	0x4fb
 1575 0632 5F000000 		.4byte	.LLST4
 1576 0636 00       		.byte	0
 1577 0637 26       		.uleb128 0x26
 1578 0638 4A000000 		.4byte	.LBB36
 1579 063c 08000000 		.4byte	.LBE36-.LBB36
 1580 0640 4C060000 		.4byte	0x64c
 1581 0644 24       		.uleb128 0x24
 1582 0645 48050000 		.4byte	0x548
 1583 0649 01       		.uleb128 0x1
 1584 064a 53       		.byte	0x53
 1585 064b 00       		.byte	0
 1586 064c 1D       		.uleb128 0x1d
 1587 064d 0E000000 		.4byte	.LVL8
 1588 0651 880A0000 		.4byte	0xa88
 1589 0655 27       		.uleb128 0x27
 1590 0656 46000000 		.4byte	.LVL11
 1591 065a 92050000 		.4byte	0x592
 1592 065e 69060000 		.4byte	0x669
 1593 0662 1F       		.uleb128 0x1f
 1594 0663 01       		.uleb128 0x1
 1595 0664 50       		.byte	0x50
 1596 0665 02       		.uleb128 0x2
 1597 0666 74       		.byte	0x74
 1598 0667 00       		.sleb128 0
 1599 0668 00       		.byte	0
 1600 0669 1D       		.uleb128 0x1d
 1601 066a 4A000000 		.4byte	.LVL12
 1602 066e 8F0A0000 		.4byte	0xa8f
 1603 0672 00       		.byte	0
 1604 0673 28       		.uleb128 0x28
 1605 0674 1C040000 		.4byte	.LASF87
 1606 0678 01       		.byte	0x1
 1607 0679 73       		.byte	0x73
 1608 067a 00000000 		.4byte	.LFB9
 1609 067e 54000000 		.4byte	.LFE9-.LFB9
 1610 0682 01       		.uleb128 0x1
 1611 0683 9C       		.byte	0x9c
 1612 0684 26070000 		.4byte	0x726
 1613 0688 29       		.uleb128 0x29
 1614 0689 BE030000 		.4byte	.LASF83
 1615 068d 01       		.byte	0x1
 1616 068e 73       		.byte	0x73
 1617 068f D5000000 		.4byte	0xd5
 1618 0693 72000000 		.4byte	.LLST5
 1619 0697 1C       		.uleb128 0x1c
 1620 0698 6F747000 		.ascii	"otp\000"
 1621 069c 01       		.byte	0x1
 1622 069d 74       		.byte	0x74
 1623 069e 62020000 		.4byte	0x262
 1624 06a2 93000000 		.4byte	.LLST6
 1625 06a6 2A       		.uleb128 0x2a
 1626 06a7 55050000 		.4byte	0x555
ARM GAS  /tmp/ccMwYayC.s 			page 30


 1627 06ab 10000000 		.4byte	.LBB37
 1628 06af 18000000 		.4byte	.Ldebug_ranges0+0x18
 1629 06b3 01       		.byte	0x1
 1630 06b4 7E       		.byte	0x7e
 1631 06b5 D5060000 		.4byte	0x6d5
 1632 06b9 2B       		.uleb128 0x2b
 1633 06ba 65050000 		.4byte	0x565
 1634 06be 06       		.uleb128 0x6
 1635 06bf 03       		.byte	0x3
 1636 06c0 00000000 		.4byte	rlist
 1637 06c4 9F       		.byte	0x9f
 1638 06c5 2C       		.uleb128 0x2c
 1639 06c6 18000000 		.4byte	.Ldebug_ranges0+0x18
 1640 06ca 22       		.uleb128 0x22
 1641 06cb 70050000 		.4byte	0x570
 1642 06cf B1000000 		.4byte	.LLST7
 1643 06d3 00       		.byte	0
 1644 06d4 00       		.byte	0
 1645 06d5 23       		.uleb128 0x23
 1646 06d6 40000000 		.4byte	.Ldebug_ranges0+0x40
 1647 06da 0C070000 		.4byte	0x70c
 1648 06de 2D       		.uleb128 0x2d
 1649 06df 72313300 		.ascii	"r13\000"
 1650 06e3 01       		.byte	0x1
 1651 06e4 80       		.byte	0x80
 1652 06e5 42030000 		.4byte	0x342
 1653 06e9 01       		.uleb128 0x1
 1654 06ea 5D       		.byte	0x5d
 1655 06eb 27       		.uleb128 0x27
 1656 06ec 48000000 		.4byte	.LVL18
 1657 06f0 770A0000 		.4byte	0xa77
 1658 06f4 02070000 		.4byte	0x702
 1659 06f8 1F       		.uleb128 0x1f
 1660 06f9 01       		.uleb128 0x1
 1661 06fa 50       		.byte	0x50
 1662 06fb 05       		.uleb128 0x5
 1663 06fc 03       		.byte	0x3
 1664 06fd 14000000 		.4byte	.LC1
 1665 0701 00       		.byte	0
 1666 0702 2E       		.uleb128 0x2e
 1667 0703 54000000 		.4byte	.LVL20
 1668 0707 960A0000 		.4byte	0xa96
 1669 070b 00       		.byte	0
 1670 070c 1D       		.uleb128 0x1d
 1671 070d 10000000 		.4byte	.LVL14
 1672 0711 AD0A0000 		.4byte	0xaad
 1673 0715 1E       		.uleb128 0x1e
 1674 0716 32000000 		.4byte	.LVL17
 1675 071a B40A0000 		.4byte	0xab4
 1676 071e 1F       		.uleb128 0x1f
 1677 071f 01       		.uleb128 0x1
 1678 0720 50       		.byte	0x50
 1679 0721 02       		.uleb128 0x2
 1680 0722 75       		.byte	0x75
 1681 0723 00       		.sleb128 0
 1682 0724 00       		.byte	0
 1683 0725 00       		.byte	0
ARM GAS  /tmp/ccMwYayC.s 			page 31


 1684 0726 1A       		.uleb128 0x1a
 1685 0727 14050000 		.4byte	.LASF85
 1686 072b 01       		.byte	0x1
 1687 072c BD       		.byte	0xbd
 1688 072d 01010000 		.4byte	0x101
 1689 0731 00000000 		.4byte	.LFB11
 1690 0735 58000000 		.4byte	.LFE11-.LFB11
 1691 0739 01       		.uleb128 0x1
 1692 073a 9C       		.byte	0x9c
 1693 073b D9070000 		.4byte	0x7d9
 1694 073f 29       		.uleb128 0x29
 1695 0740 BE030000 		.4byte	.LASF83
 1696 0744 01       		.byte	0x1
 1697 0745 BD       		.byte	0xbd
 1698 0746 D5000000 		.4byte	0xd5
 1699 074a C4000000 		.4byte	.LLST8
 1700 074e 29       		.uleb128 0x29
 1701 074f B9040000 		.4byte	.LASF86
 1702 0753 01       		.byte	0x1
 1703 0754 BD       		.byte	0xbd
 1704 0755 17010000 		.4byte	0x117
 1705 0759 E5000000 		.4byte	.LLST9
 1706 075d 26       		.uleb128 0x26
 1707 075e 10000000 		.4byte	.LBB47
 1708 0762 2A000000 		.4byte	.LBE47-.LBB47
 1709 0766 BF070000 		.4byte	0x7bf
 1710 076a 2D       		.uleb128 0x2d
 1711 076b 767400   		.ascii	"vt\000"
 1712 076e 01       		.byte	0x1
 1713 076f C2       		.byte	0xc2
 1714 0770 6B030000 		.4byte	0x36b
 1715 0774 02       		.uleb128 0x2
 1716 0775 91       		.byte	0x91
 1717 0776 5C       		.sleb128 -36
 1718 0777 27       		.uleb128 0x27
 1719 0778 2A000000 		.4byte	.LVL23
 1720 077c C50A0000 		.4byte	0xac5
 1721 0780 9A070000 		.4byte	0x79a
 1722 0784 1F       		.uleb128 0x1f
 1723 0785 01       		.uleb128 0x1
 1724 0786 52       		.byte	0x52
 1725 0787 05       		.uleb128 0x5
 1726 0788 03       		.byte	0x3
 1727 0789 00000000 		.4byte	wakeup
 1728 078d 1F       		.uleb128 0x1f
 1729 078e 01       		.uleb128 0x1
 1730 078f 51       		.byte	0x51
 1731 0790 02       		.uleb128 0x2
 1732 0791 75       		.byte	0x75
 1733 0792 00       		.sleb128 0
 1734 0793 1F       		.uleb128 0x1f
 1735 0794 01       		.uleb128 0x1
 1736 0795 50       		.byte	0x50
 1737 0796 02       		.uleb128 0x2
 1738 0797 91       		.byte	0x91
 1739 0798 5C       		.sleb128 -36
 1740 0799 00       		.byte	0
ARM GAS  /tmp/ccMwYayC.s 			page 32


 1741 079a 27       		.uleb128 0x27
 1742 079b 30000000 		.4byte	.LVL24
 1743 079f 73060000 		.4byte	0x673
 1744 07a3 AE070000 		.4byte	0x7ae
 1745 07a7 1F       		.uleb128 0x1f
 1746 07a8 01       		.uleb128 0x1
 1747 07a9 50       		.byte	0x50
 1748 07aa 02       		.uleb128 0x2
 1749 07ab 76       		.byte	0x76
 1750 07ac 00       		.sleb128 0
 1751 07ad 00       		.byte	0
 1752 07ae 1E       		.uleb128 0x1e
 1753 07af 3A000000 		.4byte	.LVL25
 1754 07b3 E50A0000 		.4byte	0xae5
 1755 07b7 1F       		.uleb128 0x1f
 1756 07b8 01       		.uleb128 0x1
 1757 07b9 50       		.byte	0x50
 1758 07ba 02       		.uleb128 0x2
 1759 07bb 91       		.byte	0x91
 1760 07bc 5C       		.sleb128 -36
 1761 07bd 00       		.byte	0
 1762 07be 00       		.byte	0
 1763 07bf 1D       		.uleb128 0x1d
 1764 07c0 0C000000 		.4byte	.LVL22
 1765 07c4 AD0A0000 		.4byte	0xaad
 1766 07c8 1E       		.uleb128 0x1e
 1767 07c9 50000000 		.4byte	.LVL27
 1768 07cd 73060000 		.4byte	0x673
 1769 07d1 1F       		.uleb128 0x1f
 1770 07d2 01       		.uleb128 0x1
 1771 07d3 50       		.byte	0x50
 1772 07d4 02       		.uleb128 0x2
 1773 07d5 76       		.byte	0x76
 1774 07d6 00       		.sleb128 0
 1775 07d7 00       		.byte	0
 1776 07d8 00       		.byte	0
 1777 07d9 28       		.uleb128 0x28
 1778 07da 5B020000 		.4byte	.LASF88
 1779 07de 01       		.byte	0x1
 1780 07df E1       		.byte	0xe1
 1781 07e0 00000000 		.4byte	.LFB12
 1782 07e4 68000000 		.4byte	.LFE12-.LFB12
 1783 07e8 01       		.uleb128 0x1
 1784 07e9 9C       		.byte	0x9c
 1785 07ea AD080000 		.4byte	0x8ad
 1786 07ee 1B       		.uleb128 0x1b
 1787 07ef 6E747000 		.ascii	"ntp\000"
 1788 07f3 01       		.byte	0x1
 1789 07f4 E1       		.byte	0xe1
 1790 07f5 62020000 		.4byte	0x262
 1791 07f9 03010000 		.4byte	.LLST10
 1792 07fd 1B       		.uleb128 0x1b
 1793 07fe 6D736700 		.ascii	"msg\000"
 1794 0802 01       		.byte	0x1
 1795 0803 E1       		.byte	0xe1
 1796 0804 01010000 		.4byte	0x101
 1797 0808 82010000 		.4byte	.LLST11
ARM GAS  /tmp/ccMwYayC.s 			page 33


 1798 080c 23       		.uleb128 0x23
 1799 080d 58000000 		.4byte	.Ldebug_ranges0+0x58
 1800 0811 92080000 		.4byte	0x892
 1801 0815 1C       		.uleb128 0x1c
 1802 0816 6F747000 		.ascii	"otp\000"
 1803 081a 01       		.byte	0x1
 1804 081b ED       		.byte	0xed
 1805 081c 62020000 		.4byte	0x262
 1806 0820 D3010000 		.4byte	.LLST12
 1807 0824 23       		.uleb128 0x23
 1808 0825 80000000 		.4byte	.Ldebug_ranges0+0x80
 1809 0829 78080000 		.4byte	0x878
 1810 082d 2D       		.uleb128 0x2d
 1811 082e 72313300 		.ascii	"r13\000"
 1812 0832 01       		.byte	0x1
 1813 0833 F0       		.byte	0xf0
 1814 0834 42030000 		.4byte	0x342
 1815 0838 01       		.uleb128 0x1
 1816 0839 5D       		.byte	0x5d
 1817 083a 2F       		.uleb128 0x2f
 1818 083b 46000000 		.4byte	.LVL34
 1819 083f 960A0000 		.4byte	0xa96
 1820 0843 4F080000 		.4byte	0x84f
 1821 0847 1F       		.uleb128 0x1f
 1822 0848 01       		.uleb128 0x1
 1823 0849 50       		.byte	0x50
 1824 084a 03       		.uleb128 0x3
 1825 084b F3       		.byte	0xf3
 1826 084c 01       		.uleb128 0x1
 1827 084d 50       		.byte	0x50
 1828 084e 00       		.byte	0
 1829 084f 27       		.uleb128 0x27
 1830 0850 5C000000 		.4byte	.LVL37
 1831 0854 770A0000 		.4byte	0xa77
 1832 0858 66080000 		.4byte	0x866
 1833 085c 1F       		.uleb128 0x1f
 1834 085d 01       		.uleb128 0x1
 1835 085e 50       		.byte	0x50
 1836 085f 05       		.uleb128 0x5
 1837 0860 03       		.byte	0x3
 1838 0861 14000000 		.4byte	.LC1
 1839 0865 00       		.byte	0
 1840 0866 30       		.uleb128 0x30
 1841 0867 68000000 		.4byte	.LVL39
 1842 086b 960A0000 		.4byte	0xa96
 1843 086f 1F       		.uleb128 0x1f
 1844 0870 01       		.uleb128 0x1
 1845 0871 50       		.byte	0x50
 1846 0872 03       		.uleb128 0x3
 1847 0873 F3       		.byte	0xf3
 1848 0874 01       		.uleb128 0x1
 1849 0875 50       		.byte	0x50
 1850 0876 00       		.byte	0
 1851 0877 00       		.byte	0
 1852 0878 1D       		.uleb128 0x1d
 1853 0879 22000000 		.4byte	.LVL30
 1854 087d 92050000 		.4byte	0x592
ARM GAS  /tmp/ccMwYayC.s 			page 34


 1855 0881 1E       		.uleb128 0x1e
 1856 0882 30000000 		.4byte	.LVL32
 1857 0886 B40A0000 		.4byte	0xab4
 1858 088a 1F       		.uleb128 0x1f
 1859 088b 01       		.uleb128 0x1
 1860 088c 50       		.byte	0x50
 1861 088d 02       		.uleb128 0x2
 1862 088e 76       		.byte	0x76
 1863 088f 00       		.sleb128 0
 1864 0890 00       		.byte	0
 1865 0891 00       		.byte	0
 1866 0892 1D       		.uleb128 0x1d
 1867 0893 12000000 		.4byte	.LVL29
 1868 0897 AD0A0000 		.4byte	0xaad
 1869 089b 30       		.uleb128 0x30
 1870 089c 50000000 		.4byte	.LVL36
 1871 08a0 92050000 		.4byte	0x592
 1872 08a4 1F       		.uleb128 0x1f
 1873 08a5 01       		.uleb128 0x1
 1874 08a6 50       		.byte	0x50
 1875 08a7 03       		.uleb128 0x3
 1876 08a8 F3       		.byte	0xf3
 1877 08a9 01       		.uleb128 0x1
 1878 08aa 50       		.byte	0x50
 1879 08ab 00       		.byte	0
 1880 08ac 00       		.byte	0
 1881 08ad 31       		.uleb128 0x31
 1882 08ae E2020000 		.4byte	.LASF89
 1883 08b2 01       		.byte	0x1
 1884 08b3 3001     		.2byte	0x130
 1885 08b5 00000000 		.4byte	.LFB14
 1886 08b9 50000000 		.4byte	.LFE14-.LFB14
 1887 08bd 01       		.uleb128 0x1
 1888 08be 9C       		.byte	0x9c
 1889 08bf 60090000 		.4byte	0x960
 1890 08c3 32       		.uleb128 0x32
 1891 08c4 6F747000 		.ascii	"otp\000"
 1892 08c8 01       		.byte	0x1
 1893 08c9 3101     		.2byte	0x131
 1894 08cb 62020000 		.4byte	0x262
 1895 08cf 12020000 		.4byte	.LLST13
 1896 08d3 33       		.uleb128 0x33
 1897 08d4 55050000 		.4byte	0x555
 1898 08d8 0C000000 		.4byte	.LBB56
 1899 08dc A8000000 		.4byte	.Ldebug_ranges0+0xa8
 1900 08e0 01       		.byte	0x1
 1901 08e1 3501     		.2byte	0x135
 1902 08e3 03090000 		.4byte	0x903
 1903 08e7 2B       		.uleb128 0x2b
 1904 08e8 65050000 		.4byte	0x565
 1905 08ec 06       		.uleb128 0x6
 1906 08ed 03       		.byte	0x3
 1907 08ee 00000000 		.4byte	rlist
 1908 08f2 9F       		.byte	0x9f
 1909 08f3 2C       		.uleb128 0x2c
 1910 08f4 A8000000 		.4byte	.Ldebug_ranges0+0xa8
 1911 08f8 22       		.uleb128 0x22
ARM GAS  /tmp/ccMwYayC.s 			page 35


 1912 08f9 70050000 		.4byte	0x570
 1913 08fd 30020000 		.4byte	.LLST14
 1914 0901 00       		.byte	0
 1915 0902 00       		.byte	0
 1916 0903 23       		.uleb128 0x23
 1917 0904 D0000000 		.4byte	.Ldebug_ranges0+0xd0
 1918 0908 3B090000 		.4byte	0x93b
 1919 090c 34       		.uleb128 0x34
 1920 090d 72313300 		.ascii	"r13\000"
 1921 0911 01       		.byte	0x1
 1922 0912 3B01     		.2byte	0x13b
 1923 0914 42030000 		.4byte	0x342
 1924 0918 01       		.uleb128 0x1
 1925 0919 5D       		.byte	0x5d
 1926 091a 27       		.uleb128 0x27
 1927 091b 44000000 		.4byte	.LVL43
 1928 091f 770A0000 		.4byte	0xa77
 1929 0923 31090000 		.4byte	0x931
 1930 0927 1F       		.uleb128 0x1f
 1931 0928 01       		.uleb128 0x1
 1932 0929 50       		.byte	0x50
 1933 092a 05       		.uleb128 0x5
 1934 092b 03       		.byte	0x3
 1935 092c 14000000 		.4byte	.LC1
 1936 0930 00       		.byte	0
 1937 0931 2E       		.uleb128 0x2e
 1938 0932 50000000 		.4byte	.LVL45
 1939 0936 960A0000 		.4byte	0xa96
 1940 093a 00       		.byte	0
 1941 093b 27       		.uleb128 0x27
 1942 093c 28000000 		.4byte	.LVL41
 1943 0940 92050000 		.4byte	0x592
 1944 0944 4F090000 		.4byte	0x94f
 1945 0948 1F       		.uleb128 0x1f
 1946 0949 01       		.uleb128 0x1
 1947 094a 50       		.byte	0x50
 1948 094b 02       		.uleb128 0x2
 1949 094c 75       		.byte	0x75
 1950 094d 00       		.sleb128 0
 1951 094e 00       		.byte	0
 1952 094f 1E       		.uleb128 0x1e
 1953 0950 2E000000 		.4byte	.LVL42
 1954 0954 B40A0000 		.4byte	0xab4
 1955 0958 1F       		.uleb128 0x1f
 1956 0959 01       		.uleb128 0x1
 1957 095a 50       		.byte	0x50
 1958 095b 02       		.uleb128 0x2
 1959 095c 75       		.byte	0x75
 1960 095d 00       		.sleb128 0
 1961 095e 00       		.byte	0
 1962 095f 00       		.byte	0
 1963 0960 31       		.uleb128 0x31
 1964 0961 21000000 		.4byte	.LASF90
 1965 0965 01       		.byte	0x1
 1966 0966 4901     		.2byte	0x149
 1967 0968 00000000 		.4byte	.LFB15
 1968 096c 62000000 		.4byte	.LFE15-.LFB15
ARM GAS  /tmp/ccMwYayC.s 			page 36


 1969 0970 01       		.uleb128 0x1
 1970 0971 9C       		.byte	0x9c
 1971 0972 0E0A0000 		.4byte	0xa0e
 1972 0976 32       		.uleb128 0x32
 1973 0977 6F747000 		.ascii	"otp\000"
 1974 097b 01       		.byte	0x1
 1975 097c 4A01     		.2byte	0x14a
 1976 097e 62020000 		.4byte	0x262
 1977 0982 43020000 		.4byte	.LLST15
 1978 0986 32       		.uleb128 0x32
 1979 0987 637000   		.ascii	"cp\000"
 1980 098a 01       		.byte	0x1
 1981 098b 4A01     		.2byte	0x14a
 1982 098d 62020000 		.4byte	0x262
 1983 0991 61020000 		.4byte	.LLST16
 1984 0995 33       		.uleb128 0x33
 1985 0996 55050000 		.4byte	0x555
 1986 099a 0C000000 		.4byte	.LBB66
 1987 099e E8000000 		.4byte	.Ldebug_ranges0+0xe8
 1988 09a2 01       		.byte	0x1
 1989 09a3 4E01     		.2byte	0x14e
 1990 09a5 C5090000 		.4byte	0x9c5
 1991 09a9 2B       		.uleb128 0x2b
 1992 09aa 65050000 		.4byte	0x565
 1993 09ae 06       		.uleb128 0x6
 1994 09af 03       		.byte	0x3
 1995 09b0 00000000 		.4byte	rlist
 1996 09b4 9F       		.byte	0x9f
 1997 09b5 2C       		.uleb128 0x2c
 1998 09b6 E8000000 		.4byte	.Ldebug_ranges0+0xe8
 1999 09ba 22       		.uleb128 0x22
 2000 09bb 70050000 		.4byte	0x570
 2001 09bf 84020000 		.4byte	.LLST17
 2002 09c3 00       		.byte	0
 2003 09c4 00       		.byte	0
 2004 09c5 23       		.uleb128 0x23
 2005 09c6 08010000 		.4byte	.Ldebug_ranges0+0x108
 2006 09ca FD090000 		.4byte	0x9fd
 2007 09ce 34       		.uleb128 0x34
 2008 09cf 72313300 		.ascii	"r13\000"
 2009 09d3 01       		.byte	0x1
 2010 09d4 5B01     		.2byte	0x15b
 2011 09d6 42030000 		.4byte	0x342
 2012 09da 01       		.uleb128 0x1
 2013 09db 5D       		.byte	0x5d
 2014 09dc 27       		.uleb128 0x27
 2015 09dd 56000000 		.4byte	.LVL51
 2016 09e1 770A0000 		.4byte	0xa77
 2017 09e5 F3090000 		.4byte	0x9f3
 2018 09e9 1F       		.uleb128 0x1f
 2019 09ea 01       		.uleb128 0x1
 2020 09eb 50       		.byte	0x50
 2021 09ec 05       		.uleb128 0x5
 2022 09ed 03       		.byte	0x3
 2023 09ee 14000000 		.4byte	.LC1
 2024 09f2 00       		.byte	0
 2025 09f3 2E       		.uleb128 0x2e
ARM GAS  /tmp/ccMwYayC.s 			page 37


 2026 09f4 62000000 		.4byte	.LVL53
 2027 09f8 960A0000 		.4byte	0xa96
 2028 09fc 00       		.byte	0
 2029 09fd 1E       		.uleb128 0x1e
 2030 09fe 40000000 		.4byte	.LVL50
 2031 0a02 B40A0000 		.4byte	0xab4
 2032 0a06 1F       		.uleb128 0x1f
 2033 0a07 01       		.uleb128 0x1
 2034 0a08 50       		.byte	0x50
 2035 0a09 02       		.uleb128 0x2
 2036 0a0a 75       		.byte	0x75
 2037 0a0b 00       		.sleb128 0
 2038 0a0c 00       		.byte	0
 2039 0a0d 00       		.byte	0
 2040 0a0e 28       		.uleb128 0x28
 2041 0a0f 9C010000 		.4byte	.LASF91
 2042 0a13 01       		.byte	0x1
 2043 0a14 FD       		.byte	0xfd
 2044 0a15 00000000 		.4byte	.LFB13
 2045 0a19 24000000 		.4byte	.LFE13-.LFB13
 2046 0a1d 01       		.uleb128 0x1
 2047 0a1e 9C       		.byte	0x9c
 2048 0a1f 360A0000 		.4byte	0xa36
 2049 0a23 1D       		.uleb128 0x1d
 2050 0a24 06000000 		.4byte	.LVL54
 2051 0a28 AD0A0000 		.4byte	0xaad
 2052 0a2c 2E       		.uleb128 0x2e
 2053 0a2d 24000000 		.4byte	.LVL55
 2054 0a31 60090000 		.4byte	0x960
 2055 0a35 00       		.byte	0
 2056 0a36 31       		.uleb128 0x31
 2057 0a37 C9010000 		.4byte	.LASF92
 2058 0a3b 01       		.byte	0x1
 2059 0a3c 6A01     		.2byte	0x16a
 2060 0a3e 00000000 		.4byte	.LFB16
 2061 0a42 18000000 		.4byte	.LFE16-.LFB16
 2062 0a46 01       		.uleb128 0x1
 2063 0a47 9C       		.byte	0x9c
 2064 0a48 5F0A0000 		.4byte	0xa5f
 2065 0a4c 2E       		.uleb128 0x2e
 2066 0a4d 14000000 		.4byte	.LVL56
 2067 0a51 60090000 		.4byte	0x960
 2068 0a55 2E       		.uleb128 0x2e
 2069 0a56 18000000 		.4byte	.LVL57
 2070 0a5a AD080000 		.4byte	0x8ad
 2071 0a5e 00       		.byte	0
 2072 0a5f 35       		.uleb128 0x35
 2073 0a60 E0040000 		.4byte	.LASF106
 2074 0a64 01       		.byte	0x1
 2075 0a65 2F       		.byte	0x2f
 2076 0a66 1B040000 		.4byte	0x41b
 2077 0a6a 05       		.uleb128 0x5
 2078 0a6b 03       		.byte	0x3
 2079 0a6c 00000000 		.4byte	rlist
 2080 0a70 36       		.uleb128 0x36
 2081 0a71 76020000 		.4byte	.LASF93
 2082 0a75 0D       		.byte	0xd
ARM GAS  /tmp/ccMwYayC.s 			page 38


 2083 0a76 ED       		.byte	0xed
 2084 0a77 37       		.uleb128 0x37
 2085 0a78 06000000 		.4byte	.LASF96
 2086 0a7c 0D       		.byte	0xd
 2087 0a7d F6       		.byte	0xf6
 2088 0a7e 880A0000 		.4byte	0xa88
 2089 0a82 0E       		.uleb128 0xe
 2090 0a83 CD040000 		.4byte	0x4cd
 2091 0a87 00       		.byte	0
 2092 0a88 36       		.uleb128 0x36
 2093 0a89 EE040000 		.4byte	.LASF94
 2094 0a8d 0D       		.byte	0xd
 2095 0a8e E9       		.byte	0xe9
 2096 0a8f 36       		.uleb128 0x36
 2097 0a90 30010000 		.4byte	.LASF95
 2098 0a94 0D       		.byte	0xd
 2099 0a95 EA       		.byte	0xea
 2100 0a96 38       		.uleb128 0x38
 2101 0a97 12020000 		.4byte	.LASF97
 2102 0a9b 08       		.byte	0x8
 2103 0a9c 0602     		.2byte	0x206
 2104 0a9e AD0A0000 		.4byte	0xaad
 2105 0aa2 0E       		.uleb128 0xe
 2106 0aa3 62020000 		.4byte	0x262
 2107 0aa7 0E       		.uleb128 0xe
 2108 0aa8 62020000 		.4byte	0x262
 2109 0aac 00       		.byte	0
 2110 0aad 36       		.uleb128 0x36
 2111 0aae 8F020000 		.4byte	.LASF98
 2112 0ab2 0D       		.byte	0xd
 2113 0ab3 EE       		.byte	0xee
 2114 0ab4 37       		.uleb128 0x37
 2115 0ab5 08020000 		.4byte	.LASF99
 2116 0ab9 0D       		.byte	0xd
 2117 0aba F2       		.byte	0xf2
 2118 0abb C50A0000 		.4byte	0xac5
 2119 0abf 0E       		.uleb128 0xe
 2120 0ac0 62020000 		.4byte	0x262
 2121 0ac4 00       		.byte	0
 2122 0ac5 37       		.uleb128 0x37
 2123 0ac6 FA020000 		.4byte	.LASF100
 2124 0aca 09       		.byte	0x9
 2125 0acb FE       		.byte	0xfe
 2126 0acc E50A0000 		.4byte	0xae5
 2127 0ad0 0E       		.uleb128 0xe
 2128 0ad1 BF030000 		.4byte	0x3bf
 2129 0ad5 0E       		.uleb128 0xe
 2130 0ad6 17010000 		.4byte	0x117
 2131 0ada 0E       		.uleb128 0xe
 2132 0adb 4F030000 		.4byte	0x34f
 2133 0adf 0E       		.uleb128 0xe
 2134 0ae0 9E020000 		.4byte	0x29e
 2135 0ae4 00       		.byte	0
 2136 0ae5 39       		.uleb128 0x39
 2137 0ae6 11040000 		.4byte	.LASF107
 2138 0aea 09       		.byte	0x9
 2139 0aeb FF       		.byte	0xff
ARM GAS  /tmp/ccMwYayC.s 			page 39


 2140 0aec 0E       		.uleb128 0xe
 2141 0aed BF030000 		.4byte	0x3bf
 2142 0af1 00       		.byte	0
 2143 0af2 00       		.byte	0
 2144              		.section	.debug_abbrev,"",%progbits
 2145              	.Ldebug_abbrev0:
 2146 0000 01       		.uleb128 0x1
 2147 0001 11       		.uleb128 0x11
 2148 0002 01       		.byte	0x1
 2149 0003 25       		.uleb128 0x25
 2150 0004 0E       		.uleb128 0xe
 2151 0005 13       		.uleb128 0x13
 2152 0006 0B       		.uleb128 0xb
 2153 0007 03       		.uleb128 0x3
 2154 0008 0E       		.uleb128 0xe
 2155 0009 1B       		.uleb128 0x1b
 2156 000a 0E       		.uleb128 0xe
 2157 000b 55       		.uleb128 0x55
 2158 000c 17       		.uleb128 0x17
 2159 000d 11       		.uleb128 0x11
 2160 000e 01       		.uleb128 0x1
 2161 000f 10       		.uleb128 0x10
 2162 0010 17       		.uleb128 0x17
 2163 0011 00       		.byte	0
 2164 0012 00       		.byte	0
 2165 0013 02       		.uleb128 0x2
 2166 0014 24       		.uleb128 0x24
 2167 0015 00       		.byte	0
 2168 0016 0B       		.uleb128 0xb
 2169 0017 0B       		.uleb128 0xb
 2170 0018 3E       		.uleb128 0x3e
 2171 0019 0B       		.uleb128 0xb
 2172 001a 03       		.uleb128 0x3
 2173 001b 08       		.uleb128 0x8
 2174 001c 00       		.byte	0
 2175 001d 00       		.byte	0
 2176 001e 03       		.uleb128 0x3
 2177 001f 24       		.uleb128 0x24
 2178 0020 00       		.byte	0
 2179 0021 0B       		.uleb128 0xb
 2180 0022 0B       		.uleb128 0xb
 2181 0023 3E       		.uleb128 0x3e
 2182 0024 0B       		.uleb128 0xb
 2183 0025 03       		.uleb128 0x3
 2184 0026 0E       		.uleb128 0xe
 2185 0027 00       		.byte	0
 2186 0028 00       		.byte	0
 2187 0029 04       		.uleb128 0x4
 2188 002a 16       		.uleb128 0x16
 2189 002b 00       		.byte	0
 2190 002c 03       		.uleb128 0x3
 2191 002d 0E       		.uleb128 0xe
 2192 002e 3A       		.uleb128 0x3a
 2193 002f 0B       		.uleb128 0xb
 2194 0030 3B       		.uleb128 0x3b
 2195 0031 0B       		.uleb128 0xb
 2196 0032 49       		.uleb128 0x49
ARM GAS  /tmp/ccMwYayC.s 			page 40


 2197 0033 13       		.uleb128 0x13
 2198 0034 00       		.byte	0
 2199 0035 00       		.byte	0
 2200 0036 05       		.uleb128 0x5
 2201 0037 13       		.uleb128 0x13
 2202 0038 01       		.byte	0x1
 2203 0039 03       		.uleb128 0x3
 2204 003a 0E       		.uleb128 0xe
 2205 003b 0B       		.uleb128 0xb
 2206 003c 0B       		.uleb128 0xb
 2207 003d 3A       		.uleb128 0x3a
 2208 003e 0B       		.uleb128 0xb
 2209 003f 3B       		.uleb128 0x3b
 2210 0040 0B       		.uleb128 0xb
 2211 0041 01       		.uleb128 0x1
 2212 0042 13       		.uleb128 0x13
 2213 0043 00       		.byte	0
 2214 0044 00       		.byte	0
 2215 0045 06       		.uleb128 0x6
 2216 0046 0D       		.uleb128 0xd
 2217 0047 00       		.byte	0
 2218 0048 03       		.uleb128 0x3
 2219 0049 0E       		.uleb128 0xe
 2220 004a 3A       		.uleb128 0x3a
 2221 004b 0B       		.uleb128 0xb
 2222 004c 3B       		.uleb128 0x3b
 2223 004d 0B       		.uleb128 0xb
 2224 004e 49       		.uleb128 0x49
 2225 004f 13       		.uleb128 0x13
 2226 0050 38       		.uleb128 0x38
 2227 0051 0B       		.uleb128 0xb
 2228 0052 00       		.byte	0
 2229 0053 00       		.byte	0
 2230 0054 07       		.uleb128 0x7
 2231 0055 0D       		.uleb128 0xd
 2232 0056 00       		.byte	0
 2233 0057 03       		.uleb128 0x3
 2234 0058 08       		.uleb128 0x8
 2235 0059 3A       		.uleb128 0x3a
 2236 005a 0B       		.uleb128 0xb
 2237 005b 3B       		.uleb128 0x3b
 2238 005c 0B       		.uleb128 0xb
 2239 005d 49       		.uleb128 0x49
 2240 005e 13       		.uleb128 0x13
 2241 005f 38       		.uleb128 0x38
 2242 0060 0B       		.uleb128 0xb
 2243 0061 00       		.byte	0
 2244 0062 00       		.byte	0
 2245 0063 08       		.uleb128 0x8
 2246 0064 13       		.uleb128 0x13
 2247 0065 01       		.byte	0x1
 2248 0066 0B       		.uleb128 0xb
 2249 0067 0B       		.uleb128 0xb
 2250 0068 3A       		.uleb128 0x3a
 2251 0069 0B       		.uleb128 0xb
 2252 006a 3B       		.uleb128 0x3b
 2253 006b 0B       		.uleb128 0xb
ARM GAS  /tmp/ccMwYayC.s 			page 41


 2254 006c 01       		.uleb128 0x1
 2255 006d 13       		.uleb128 0x13
 2256 006e 00       		.byte	0
 2257 006f 00       		.byte	0
 2258 0070 09       		.uleb128 0x9
 2259 0071 0F       		.uleb128 0xf
 2260 0072 00       		.byte	0
 2261 0073 0B       		.uleb128 0xb
 2262 0074 0B       		.uleb128 0xb
 2263 0075 49       		.uleb128 0x49
 2264 0076 13       		.uleb128 0x13
 2265 0077 00       		.byte	0
 2266 0078 00       		.byte	0
 2267 0079 0A       		.uleb128 0xa
 2268 007a 0F       		.uleb128 0xf
 2269 007b 00       		.byte	0
 2270 007c 0B       		.uleb128 0xb
 2271 007d 0B       		.uleb128 0xb
 2272 007e 00       		.byte	0
 2273 007f 00       		.byte	0
 2274 0080 0B       		.uleb128 0xb
 2275 0081 13       		.uleb128 0x13
 2276 0082 01       		.byte	0x1
 2277 0083 03       		.uleb128 0x3
 2278 0084 0E       		.uleb128 0xe
 2279 0085 0B       		.uleb128 0xb
 2280 0086 0B       		.uleb128 0xb
 2281 0087 3A       		.uleb128 0x3a
 2282 0088 0B       		.uleb128 0xb
 2283 0089 3B       		.uleb128 0x3b
 2284 008a 05       		.uleb128 0x5
 2285 008b 01       		.uleb128 0x1
 2286 008c 13       		.uleb128 0x13
 2287 008d 00       		.byte	0
 2288 008e 00       		.byte	0
 2289 008f 0C       		.uleb128 0xc
 2290 0090 0D       		.uleb128 0xd
 2291 0091 00       		.byte	0
 2292 0092 03       		.uleb128 0x3
 2293 0093 08       		.uleb128 0x8
 2294 0094 3A       		.uleb128 0x3a
 2295 0095 0B       		.uleb128 0xb
 2296 0096 3B       		.uleb128 0x3b
 2297 0097 05       		.uleb128 0x5
 2298 0098 49       		.uleb128 0x49
 2299 0099 13       		.uleb128 0x13
 2300 009a 38       		.uleb128 0x38
 2301 009b 0B       		.uleb128 0xb
 2302 009c 00       		.byte	0
 2303 009d 00       		.byte	0
 2304 009e 0D       		.uleb128 0xd
 2305 009f 15       		.uleb128 0x15
 2306 00a0 01       		.byte	0x1
 2307 00a1 27       		.uleb128 0x27
 2308 00a2 19       		.uleb128 0x19
 2309 00a3 01       		.uleb128 0x1
 2310 00a4 13       		.uleb128 0x13
ARM GAS  /tmp/ccMwYayC.s 			page 42


 2311 00a5 00       		.byte	0
 2312 00a6 00       		.byte	0
 2313 00a7 0E       		.uleb128 0xe
 2314 00a8 05       		.uleb128 0x5
 2315 00a9 00       		.byte	0
 2316 00aa 49       		.uleb128 0x49
 2317 00ab 13       		.uleb128 0x13
 2318 00ac 00       		.byte	0
 2319 00ad 00       		.byte	0
 2320 00ae 0F       		.uleb128 0xf
 2321 00af 35       		.uleb128 0x35
 2322 00b0 00       		.byte	0
 2323 00b1 49       		.uleb128 0x49
 2324 00b2 13       		.uleb128 0x13
 2325 00b3 00       		.byte	0
 2326 00b4 00       		.byte	0
 2327 00b5 10       		.uleb128 0x10
 2328 00b6 17       		.uleb128 0x17
 2329 00b7 01       		.byte	0x1
 2330 00b8 0B       		.uleb128 0xb
 2331 00b9 0B       		.uleb128 0xb
 2332 00ba 3A       		.uleb128 0x3a
 2333 00bb 0B       		.uleb128 0xb
 2334 00bc 3B       		.uleb128 0x3b
 2335 00bd 0B       		.uleb128 0xb
 2336 00be 01       		.uleb128 0x1
 2337 00bf 13       		.uleb128 0x13
 2338 00c0 00       		.byte	0
 2339 00c1 00       		.byte	0
 2340 00c2 11       		.uleb128 0x11
 2341 00c3 0D       		.uleb128 0xd
 2342 00c4 00       		.byte	0
 2343 00c5 03       		.uleb128 0x3
 2344 00c6 0E       		.uleb128 0xe
 2345 00c7 3A       		.uleb128 0x3a
 2346 00c8 0B       		.uleb128 0xb
 2347 00c9 3B       		.uleb128 0x3b
 2348 00ca 0B       		.uleb128 0xb
 2349 00cb 49       		.uleb128 0x49
 2350 00cc 13       		.uleb128 0x13
 2351 00cd 00       		.byte	0
 2352 00ce 00       		.byte	0
 2353 00cf 12       		.uleb128 0x12
 2354 00d0 26       		.uleb128 0x26
 2355 00d1 00       		.byte	0
 2356 00d2 49       		.uleb128 0x49
 2357 00d3 13       		.uleb128 0x13
 2358 00d4 00       		.byte	0
 2359 00d5 00       		.byte	0
 2360 00d6 13       		.uleb128 0x13
 2361 00d7 2E       		.uleb128 0x2e
 2362 00d8 01       		.byte	0x1
 2363 00d9 03       		.uleb128 0x3
 2364 00da 0E       		.uleb128 0xe
 2365 00db 3A       		.uleb128 0x3a
 2366 00dc 0B       		.uleb128 0xb
 2367 00dd 3B       		.uleb128 0x3b
ARM GAS  /tmp/ccMwYayC.s 			page 43


 2368 00de 0B       		.uleb128 0xb
 2369 00df 27       		.uleb128 0x27
 2370 00e0 19       		.uleb128 0x19
 2371 00e1 49       		.uleb128 0x49
 2372 00e2 13       		.uleb128 0x13
 2373 00e3 20       		.uleb128 0x20
 2374 00e4 0B       		.uleb128 0xb
 2375 00e5 01       		.uleb128 0x1
 2376 00e6 13       		.uleb128 0x13
 2377 00e7 00       		.byte	0
 2378 00e8 00       		.byte	0
 2379 00e9 14       		.uleb128 0x14
 2380 00ea 05       		.uleb128 0x5
 2381 00eb 00       		.byte	0
 2382 00ec 03       		.uleb128 0x3
 2383 00ed 08       		.uleb128 0x8
 2384 00ee 3A       		.uleb128 0x3a
 2385 00ef 0B       		.uleb128 0xb
 2386 00f0 3B       		.uleb128 0x3b
 2387 00f1 0B       		.uleb128 0xb
 2388 00f2 49       		.uleb128 0x49
 2389 00f3 13       		.uleb128 0x13
 2390 00f4 00       		.byte	0
 2391 00f5 00       		.byte	0
 2392 00f6 15       		.uleb128 0x15
 2393 00f7 2E       		.uleb128 0x2e
 2394 00f8 01       		.byte	0x1
 2395 00f9 03       		.uleb128 0x3
 2396 00fa 0E       		.uleb128 0xe
 2397 00fb 3A       		.uleb128 0x3a
 2398 00fc 0B       		.uleb128 0xb
 2399 00fd 3B       		.uleb128 0x3b
 2400 00fe 0B       		.uleb128 0xb
 2401 00ff 27       		.uleb128 0x27
 2402 0100 19       		.uleb128 0x19
 2403 0101 20       		.uleb128 0x20
 2404 0102 0B       		.uleb128 0xb
 2405 0103 01       		.uleb128 0x1
 2406 0104 13       		.uleb128 0x13
 2407 0105 00       		.byte	0
 2408 0106 00       		.byte	0
 2409 0107 16       		.uleb128 0x16
 2410 0108 34       		.uleb128 0x34
 2411 0109 00       		.byte	0
 2412 010a 03       		.uleb128 0x3
 2413 010b 08       		.uleb128 0x8
 2414 010c 3A       		.uleb128 0x3a
 2415 010d 0B       		.uleb128 0xb
 2416 010e 3B       		.uleb128 0x3b
 2417 010f 0B       		.uleb128 0xb
 2418 0110 49       		.uleb128 0x49
 2419 0111 13       		.uleb128 0x13
 2420 0112 00       		.byte	0
 2421 0113 00       		.byte	0
 2422 0114 17       		.uleb128 0x17
 2423 0115 0B       		.uleb128 0xb
 2424 0116 01       		.byte	0x1
ARM GAS  /tmp/ccMwYayC.s 			page 44


 2425 0117 01       		.uleb128 0x1
 2426 0118 13       		.uleb128 0x13
 2427 0119 00       		.byte	0
 2428 011a 00       		.byte	0
 2429 011b 18       		.uleb128 0x18
 2430 011c 0B       		.uleb128 0xb
 2431 011d 01       		.byte	0x1
 2432 011e 00       		.byte	0
 2433 011f 00       		.byte	0
 2434 0120 19       		.uleb128 0x19
 2435 0121 2E       		.uleb128 0x2e
 2436 0122 00       		.byte	0
 2437 0123 3F       		.uleb128 0x3f
 2438 0124 19       		.uleb128 0x19
 2439 0125 03       		.uleb128 0x3
 2440 0126 0E       		.uleb128 0xe
 2441 0127 3A       		.uleb128 0x3a
 2442 0128 0B       		.uleb128 0xb
 2443 0129 3B       		.uleb128 0x3b
 2444 012a 0B       		.uleb128 0xb
 2445 012b 27       		.uleb128 0x27
 2446 012c 19       		.uleb128 0x19
 2447 012d 11       		.uleb128 0x11
 2448 012e 01       		.uleb128 0x1
 2449 012f 12       		.uleb128 0x12
 2450 0130 06       		.uleb128 0x6
 2451 0131 40       		.uleb128 0x40
 2452 0132 18       		.uleb128 0x18
 2453 0133 9742     		.uleb128 0x2117
 2454 0135 19       		.uleb128 0x19
 2455 0136 00       		.byte	0
 2456 0137 00       		.byte	0
 2457 0138 1A       		.uleb128 0x1a
 2458 0139 2E       		.uleb128 0x2e
 2459 013a 01       		.byte	0x1
 2460 013b 3F       		.uleb128 0x3f
 2461 013c 19       		.uleb128 0x19
 2462 013d 03       		.uleb128 0x3
 2463 013e 0E       		.uleb128 0xe
 2464 013f 3A       		.uleb128 0x3a
 2465 0140 0B       		.uleb128 0xb
 2466 0141 3B       		.uleb128 0x3b
 2467 0142 0B       		.uleb128 0xb
 2468 0143 27       		.uleb128 0x27
 2469 0144 19       		.uleb128 0x19
 2470 0145 49       		.uleb128 0x49
 2471 0146 13       		.uleb128 0x13
 2472 0147 11       		.uleb128 0x11
 2473 0148 01       		.uleb128 0x1
 2474 0149 12       		.uleb128 0x12
 2475 014a 06       		.uleb128 0x6
 2476 014b 40       		.uleb128 0x40
 2477 014c 18       		.uleb128 0x18
 2478 014d 9742     		.uleb128 0x2117
 2479 014f 19       		.uleb128 0x19
 2480 0150 01       		.uleb128 0x1
 2481 0151 13       		.uleb128 0x13
ARM GAS  /tmp/ccMwYayC.s 			page 45


 2482 0152 00       		.byte	0
 2483 0153 00       		.byte	0
 2484 0154 1B       		.uleb128 0x1b
 2485 0155 05       		.uleb128 0x5
 2486 0156 00       		.byte	0
 2487 0157 03       		.uleb128 0x3
 2488 0158 08       		.uleb128 0x8
 2489 0159 3A       		.uleb128 0x3a
 2490 015a 0B       		.uleb128 0xb
 2491 015b 3B       		.uleb128 0x3b
 2492 015c 0B       		.uleb128 0xb
 2493 015d 49       		.uleb128 0x49
 2494 015e 13       		.uleb128 0x13
 2495 015f 02       		.uleb128 0x2
 2496 0160 17       		.uleb128 0x17
 2497 0161 00       		.byte	0
 2498 0162 00       		.byte	0
 2499 0163 1C       		.uleb128 0x1c
 2500 0164 34       		.uleb128 0x34
 2501 0165 00       		.byte	0
 2502 0166 03       		.uleb128 0x3
 2503 0167 08       		.uleb128 0x8
 2504 0168 3A       		.uleb128 0x3a
 2505 0169 0B       		.uleb128 0xb
 2506 016a 3B       		.uleb128 0x3b
 2507 016b 0B       		.uleb128 0xb
 2508 016c 49       		.uleb128 0x49
 2509 016d 13       		.uleb128 0x13
 2510 016e 02       		.uleb128 0x2
 2511 016f 17       		.uleb128 0x17
 2512 0170 00       		.byte	0
 2513 0171 00       		.byte	0
 2514 0172 1D       		.uleb128 0x1d
 2515 0173 898201   		.uleb128 0x4109
 2516 0176 00       		.byte	0
 2517 0177 11       		.uleb128 0x11
 2518 0178 01       		.uleb128 0x1
 2519 0179 31       		.uleb128 0x31
 2520 017a 13       		.uleb128 0x13
 2521 017b 00       		.byte	0
 2522 017c 00       		.byte	0
 2523 017d 1E       		.uleb128 0x1e
 2524 017e 898201   		.uleb128 0x4109
 2525 0181 01       		.byte	0x1
 2526 0182 11       		.uleb128 0x11
 2527 0183 01       		.uleb128 0x1
 2528 0184 31       		.uleb128 0x31
 2529 0185 13       		.uleb128 0x13
 2530 0186 00       		.byte	0
 2531 0187 00       		.byte	0
 2532 0188 1F       		.uleb128 0x1f
 2533 0189 8A8201   		.uleb128 0x410a
 2534 018c 00       		.byte	0
 2535 018d 02       		.uleb128 0x2
 2536 018e 18       		.uleb128 0x18
 2537 018f 9142     		.uleb128 0x2111
 2538 0191 18       		.uleb128 0x18
ARM GAS  /tmp/ccMwYayC.s 			page 46


 2539 0192 00       		.byte	0
 2540 0193 00       		.byte	0
 2541 0194 20       		.uleb128 0x20
 2542 0195 2E       		.uleb128 0x2e
 2543 0196 01       		.byte	0x1
 2544 0197 31       		.uleb128 0x31
 2545 0198 13       		.uleb128 0x13
 2546 0199 11       		.uleb128 0x11
 2547 019a 01       		.uleb128 0x1
 2548 019b 12       		.uleb128 0x12
 2549 019c 06       		.uleb128 0x6
 2550 019d 40       		.uleb128 0x40
 2551 019e 18       		.uleb128 0x18
 2552 019f 9742     		.uleb128 0x2117
 2553 01a1 19       		.uleb128 0x19
 2554 01a2 01       		.uleb128 0x1
 2555 01a3 13       		.uleb128 0x13
 2556 01a4 00       		.byte	0
 2557 01a5 00       		.byte	0
 2558 01a6 21       		.uleb128 0x21
 2559 01a7 05       		.uleb128 0x5
 2560 01a8 00       		.byte	0
 2561 01a9 31       		.uleb128 0x31
 2562 01aa 13       		.uleb128 0x13
 2563 01ab 02       		.uleb128 0x2
 2564 01ac 17       		.uleb128 0x17
 2565 01ad 00       		.byte	0
 2566 01ae 00       		.byte	0
 2567 01af 22       		.uleb128 0x22
 2568 01b0 34       		.uleb128 0x34
 2569 01b1 00       		.byte	0
 2570 01b2 31       		.uleb128 0x31
 2571 01b3 13       		.uleb128 0x13
 2572 01b4 02       		.uleb128 0x2
 2573 01b5 17       		.uleb128 0x17
 2574 01b6 00       		.byte	0
 2575 01b7 00       		.byte	0
 2576 01b8 23       		.uleb128 0x23
 2577 01b9 0B       		.uleb128 0xb
 2578 01ba 01       		.byte	0x1
 2579 01bb 55       		.uleb128 0x55
 2580 01bc 17       		.uleb128 0x17
 2581 01bd 01       		.uleb128 0x1
 2582 01be 13       		.uleb128 0x13
 2583 01bf 00       		.byte	0
 2584 01c0 00       		.byte	0
 2585 01c1 24       		.uleb128 0x24
 2586 01c2 34       		.uleb128 0x34
 2587 01c3 00       		.byte	0
 2588 01c4 31       		.uleb128 0x31
 2589 01c5 13       		.uleb128 0x13
 2590 01c6 02       		.uleb128 0x2
 2591 01c7 18       		.uleb128 0x18
 2592 01c8 00       		.byte	0
 2593 01c9 00       		.byte	0
 2594 01ca 25       		.uleb128 0x25
 2595 01cb 1D       		.uleb128 0x1d
ARM GAS  /tmp/ccMwYayC.s 			page 47


 2596 01cc 01       		.byte	0x1
 2597 01cd 31       		.uleb128 0x31
 2598 01ce 13       		.uleb128 0x13
 2599 01cf 11       		.uleb128 0x11
 2600 01d0 01       		.uleb128 0x1
 2601 01d1 12       		.uleb128 0x12
 2602 01d2 06       		.uleb128 0x6
 2603 01d3 58       		.uleb128 0x58
 2604 01d4 0B       		.uleb128 0xb
 2605 01d5 59       		.uleb128 0x59
 2606 01d6 0B       		.uleb128 0xb
 2607 01d7 01       		.uleb128 0x1
 2608 01d8 13       		.uleb128 0x13
 2609 01d9 00       		.byte	0
 2610 01da 00       		.byte	0
 2611 01db 26       		.uleb128 0x26
 2612 01dc 0B       		.uleb128 0xb
 2613 01dd 01       		.byte	0x1
 2614 01de 11       		.uleb128 0x11
 2615 01df 01       		.uleb128 0x1
 2616 01e0 12       		.uleb128 0x12
 2617 01e1 06       		.uleb128 0x6
 2618 01e2 01       		.uleb128 0x1
 2619 01e3 13       		.uleb128 0x13
 2620 01e4 00       		.byte	0
 2621 01e5 00       		.byte	0
 2622 01e6 27       		.uleb128 0x27
 2623 01e7 898201   		.uleb128 0x4109
 2624 01ea 01       		.byte	0x1
 2625 01eb 11       		.uleb128 0x11
 2626 01ec 01       		.uleb128 0x1
 2627 01ed 31       		.uleb128 0x31
 2628 01ee 13       		.uleb128 0x13
 2629 01ef 01       		.uleb128 0x1
 2630 01f0 13       		.uleb128 0x13
 2631 01f1 00       		.byte	0
 2632 01f2 00       		.byte	0
 2633 01f3 28       		.uleb128 0x28
 2634 01f4 2E       		.uleb128 0x2e
 2635 01f5 01       		.byte	0x1
 2636 01f6 3F       		.uleb128 0x3f
 2637 01f7 19       		.uleb128 0x19
 2638 01f8 03       		.uleb128 0x3
 2639 01f9 0E       		.uleb128 0xe
 2640 01fa 3A       		.uleb128 0x3a
 2641 01fb 0B       		.uleb128 0xb
 2642 01fc 3B       		.uleb128 0x3b
 2643 01fd 0B       		.uleb128 0xb
 2644 01fe 27       		.uleb128 0x27
 2645 01ff 19       		.uleb128 0x19
 2646 0200 11       		.uleb128 0x11
 2647 0201 01       		.uleb128 0x1
 2648 0202 12       		.uleb128 0x12
 2649 0203 06       		.uleb128 0x6
 2650 0204 40       		.uleb128 0x40
 2651 0205 18       		.uleb128 0x18
 2652 0206 9742     		.uleb128 0x2117
ARM GAS  /tmp/ccMwYayC.s 			page 48


 2653 0208 19       		.uleb128 0x19
 2654 0209 01       		.uleb128 0x1
 2655 020a 13       		.uleb128 0x13
 2656 020b 00       		.byte	0
 2657 020c 00       		.byte	0
 2658 020d 29       		.uleb128 0x29
 2659 020e 05       		.uleb128 0x5
 2660 020f 00       		.byte	0
 2661 0210 03       		.uleb128 0x3
 2662 0211 0E       		.uleb128 0xe
 2663 0212 3A       		.uleb128 0x3a
 2664 0213 0B       		.uleb128 0xb
 2665 0214 3B       		.uleb128 0x3b
 2666 0215 0B       		.uleb128 0xb
 2667 0216 49       		.uleb128 0x49
 2668 0217 13       		.uleb128 0x13
 2669 0218 02       		.uleb128 0x2
 2670 0219 17       		.uleb128 0x17
 2671 021a 00       		.byte	0
 2672 021b 00       		.byte	0
 2673 021c 2A       		.uleb128 0x2a
 2674 021d 1D       		.uleb128 0x1d
 2675 021e 01       		.byte	0x1
 2676 021f 31       		.uleb128 0x31
 2677 0220 13       		.uleb128 0x13
 2678 0221 52       		.uleb128 0x52
 2679 0222 01       		.uleb128 0x1
 2680 0223 55       		.uleb128 0x55
 2681 0224 17       		.uleb128 0x17
 2682 0225 58       		.uleb128 0x58
 2683 0226 0B       		.uleb128 0xb
 2684 0227 59       		.uleb128 0x59
 2685 0228 0B       		.uleb128 0xb
 2686 0229 01       		.uleb128 0x1
 2687 022a 13       		.uleb128 0x13
 2688 022b 00       		.byte	0
 2689 022c 00       		.byte	0
 2690 022d 2B       		.uleb128 0x2b
 2691 022e 05       		.uleb128 0x5
 2692 022f 00       		.byte	0
 2693 0230 31       		.uleb128 0x31
 2694 0231 13       		.uleb128 0x13
 2695 0232 02       		.uleb128 0x2
 2696 0233 18       		.uleb128 0x18
 2697 0234 00       		.byte	0
 2698 0235 00       		.byte	0
 2699 0236 2C       		.uleb128 0x2c
 2700 0237 0B       		.uleb128 0xb
 2701 0238 01       		.byte	0x1
 2702 0239 55       		.uleb128 0x55
 2703 023a 17       		.uleb128 0x17
 2704 023b 00       		.byte	0
 2705 023c 00       		.byte	0
 2706 023d 2D       		.uleb128 0x2d
 2707 023e 34       		.uleb128 0x34
 2708 023f 00       		.byte	0
 2709 0240 03       		.uleb128 0x3
ARM GAS  /tmp/ccMwYayC.s 			page 49


 2710 0241 08       		.uleb128 0x8
 2711 0242 3A       		.uleb128 0x3a
 2712 0243 0B       		.uleb128 0xb
 2713 0244 3B       		.uleb128 0x3b
 2714 0245 0B       		.uleb128 0xb
 2715 0246 49       		.uleb128 0x49
 2716 0247 13       		.uleb128 0x13
 2717 0248 02       		.uleb128 0x2
 2718 0249 18       		.uleb128 0x18
 2719 024a 00       		.byte	0
 2720 024b 00       		.byte	0
 2721 024c 2E       		.uleb128 0x2e
 2722 024d 898201   		.uleb128 0x4109
 2723 0250 00       		.byte	0
 2724 0251 11       		.uleb128 0x11
 2725 0252 01       		.uleb128 0x1
 2726 0253 9542     		.uleb128 0x2115
 2727 0255 19       		.uleb128 0x19
 2728 0256 31       		.uleb128 0x31
 2729 0257 13       		.uleb128 0x13
 2730 0258 00       		.byte	0
 2731 0259 00       		.byte	0
 2732 025a 2F       		.uleb128 0x2f
 2733 025b 898201   		.uleb128 0x4109
 2734 025e 01       		.byte	0x1
 2735 025f 11       		.uleb128 0x11
 2736 0260 01       		.uleb128 0x1
 2737 0261 9542     		.uleb128 0x2115
 2738 0263 19       		.uleb128 0x19
 2739 0264 31       		.uleb128 0x31
 2740 0265 13       		.uleb128 0x13
 2741 0266 01       		.uleb128 0x1
 2742 0267 13       		.uleb128 0x13
 2743 0268 00       		.byte	0
 2744 0269 00       		.byte	0
 2745 026a 30       		.uleb128 0x30
 2746 026b 898201   		.uleb128 0x4109
 2747 026e 01       		.byte	0x1
 2748 026f 11       		.uleb128 0x11
 2749 0270 01       		.uleb128 0x1
 2750 0271 9542     		.uleb128 0x2115
 2751 0273 19       		.uleb128 0x19
 2752 0274 31       		.uleb128 0x31
 2753 0275 13       		.uleb128 0x13
 2754 0276 00       		.byte	0
 2755 0277 00       		.byte	0
 2756 0278 31       		.uleb128 0x31
 2757 0279 2E       		.uleb128 0x2e
 2758 027a 01       		.byte	0x1
 2759 027b 3F       		.uleb128 0x3f
 2760 027c 19       		.uleb128 0x19
 2761 027d 03       		.uleb128 0x3
 2762 027e 0E       		.uleb128 0xe
 2763 027f 3A       		.uleb128 0x3a
 2764 0280 0B       		.uleb128 0xb
 2765 0281 3B       		.uleb128 0x3b
 2766 0282 05       		.uleb128 0x5
ARM GAS  /tmp/ccMwYayC.s 			page 50


 2767 0283 27       		.uleb128 0x27
 2768 0284 19       		.uleb128 0x19
 2769 0285 11       		.uleb128 0x11
 2770 0286 01       		.uleb128 0x1
 2771 0287 12       		.uleb128 0x12
 2772 0288 06       		.uleb128 0x6
 2773 0289 40       		.uleb128 0x40
 2774 028a 18       		.uleb128 0x18
 2775 028b 9742     		.uleb128 0x2117
 2776 028d 19       		.uleb128 0x19
 2777 028e 01       		.uleb128 0x1
 2778 028f 13       		.uleb128 0x13
 2779 0290 00       		.byte	0
 2780 0291 00       		.byte	0
 2781 0292 32       		.uleb128 0x32
 2782 0293 34       		.uleb128 0x34
 2783 0294 00       		.byte	0
 2784 0295 03       		.uleb128 0x3
 2785 0296 08       		.uleb128 0x8
 2786 0297 3A       		.uleb128 0x3a
 2787 0298 0B       		.uleb128 0xb
 2788 0299 3B       		.uleb128 0x3b
 2789 029a 05       		.uleb128 0x5
 2790 029b 49       		.uleb128 0x49
 2791 029c 13       		.uleb128 0x13
 2792 029d 02       		.uleb128 0x2
 2793 029e 17       		.uleb128 0x17
 2794 029f 00       		.byte	0
 2795 02a0 00       		.byte	0
 2796 02a1 33       		.uleb128 0x33
 2797 02a2 1D       		.uleb128 0x1d
 2798 02a3 01       		.byte	0x1
 2799 02a4 31       		.uleb128 0x31
 2800 02a5 13       		.uleb128 0x13
 2801 02a6 52       		.uleb128 0x52
 2802 02a7 01       		.uleb128 0x1
 2803 02a8 55       		.uleb128 0x55
 2804 02a9 17       		.uleb128 0x17
 2805 02aa 58       		.uleb128 0x58
 2806 02ab 0B       		.uleb128 0xb
 2807 02ac 59       		.uleb128 0x59
 2808 02ad 05       		.uleb128 0x5
 2809 02ae 01       		.uleb128 0x1
 2810 02af 13       		.uleb128 0x13
 2811 02b0 00       		.byte	0
 2812 02b1 00       		.byte	0
 2813 02b2 34       		.uleb128 0x34
 2814 02b3 34       		.uleb128 0x34
 2815 02b4 00       		.byte	0
 2816 02b5 03       		.uleb128 0x3
 2817 02b6 08       		.uleb128 0x8
 2818 02b7 3A       		.uleb128 0x3a
 2819 02b8 0B       		.uleb128 0xb
 2820 02b9 3B       		.uleb128 0x3b
 2821 02ba 05       		.uleb128 0x5
 2822 02bb 49       		.uleb128 0x49
 2823 02bc 13       		.uleb128 0x13
ARM GAS  /tmp/ccMwYayC.s 			page 51


 2824 02bd 02       		.uleb128 0x2
 2825 02be 18       		.uleb128 0x18
 2826 02bf 00       		.byte	0
 2827 02c0 00       		.byte	0
 2828 02c1 35       		.uleb128 0x35
 2829 02c2 34       		.uleb128 0x34
 2830 02c3 00       		.byte	0
 2831 02c4 03       		.uleb128 0x3
 2832 02c5 0E       		.uleb128 0xe
 2833 02c6 3A       		.uleb128 0x3a
 2834 02c7 0B       		.uleb128 0xb
 2835 02c8 3B       		.uleb128 0x3b
 2836 02c9 0B       		.uleb128 0xb
 2837 02ca 49       		.uleb128 0x49
 2838 02cb 13       		.uleb128 0x13
 2839 02cc 3F       		.uleb128 0x3f
 2840 02cd 19       		.uleb128 0x19
 2841 02ce 02       		.uleb128 0x2
 2842 02cf 18       		.uleb128 0x18
 2843 02d0 00       		.byte	0
 2844 02d1 00       		.byte	0
 2845 02d2 36       		.uleb128 0x36
 2846 02d3 2E       		.uleb128 0x2e
 2847 02d4 00       		.byte	0
 2848 02d5 3F       		.uleb128 0x3f
 2849 02d6 19       		.uleb128 0x19
 2850 02d7 03       		.uleb128 0x3
 2851 02d8 0E       		.uleb128 0xe
 2852 02d9 3A       		.uleb128 0x3a
 2853 02da 0B       		.uleb128 0xb
 2854 02db 3B       		.uleb128 0x3b
 2855 02dc 0B       		.uleb128 0xb
 2856 02dd 27       		.uleb128 0x27
 2857 02de 19       		.uleb128 0x19
 2858 02df 3C       		.uleb128 0x3c
 2859 02e0 19       		.uleb128 0x19
 2860 02e1 00       		.byte	0
 2861 02e2 00       		.byte	0
 2862 02e3 37       		.uleb128 0x37
 2863 02e4 2E       		.uleb128 0x2e
 2864 02e5 01       		.byte	0x1
 2865 02e6 3F       		.uleb128 0x3f
 2866 02e7 19       		.uleb128 0x19
 2867 02e8 03       		.uleb128 0x3
 2868 02e9 0E       		.uleb128 0xe
 2869 02ea 3A       		.uleb128 0x3a
 2870 02eb 0B       		.uleb128 0xb
 2871 02ec 3B       		.uleb128 0x3b
 2872 02ed 0B       		.uleb128 0xb
 2873 02ee 27       		.uleb128 0x27
 2874 02ef 19       		.uleb128 0x19
 2875 02f0 3C       		.uleb128 0x3c
 2876 02f1 19       		.uleb128 0x19
 2877 02f2 01       		.uleb128 0x1
 2878 02f3 13       		.uleb128 0x13
 2879 02f4 00       		.byte	0
 2880 02f5 00       		.byte	0
ARM GAS  /tmp/ccMwYayC.s 			page 52


 2881 02f6 38       		.uleb128 0x38
 2882 02f7 2E       		.uleb128 0x2e
 2883 02f8 01       		.byte	0x1
 2884 02f9 3F       		.uleb128 0x3f
 2885 02fa 19       		.uleb128 0x19
 2886 02fb 03       		.uleb128 0x3
 2887 02fc 0E       		.uleb128 0xe
 2888 02fd 3A       		.uleb128 0x3a
 2889 02fe 0B       		.uleb128 0xb
 2890 02ff 3B       		.uleb128 0x3b
 2891 0300 05       		.uleb128 0x5
 2892 0301 27       		.uleb128 0x27
 2893 0302 19       		.uleb128 0x19
 2894 0303 3C       		.uleb128 0x3c
 2895 0304 19       		.uleb128 0x19
 2896 0305 01       		.uleb128 0x1
 2897 0306 13       		.uleb128 0x13
 2898 0307 00       		.byte	0
 2899 0308 00       		.byte	0
 2900 0309 39       		.uleb128 0x39
 2901 030a 2E       		.uleb128 0x2e
 2902 030b 01       		.byte	0x1
 2903 030c 3F       		.uleb128 0x3f
 2904 030d 19       		.uleb128 0x19
 2905 030e 03       		.uleb128 0x3
 2906 030f 0E       		.uleb128 0xe
 2907 0310 3A       		.uleb128 0x3a
 2908 0311 0B       		.uleb128 0xb
 2909 0312 3B       		.uleb128 0x3b
 2910 0313 0B       		.uleb128 0xb
 2911 0314 27       		.uleb128 0x27
 2912 0315 19       		.uleb128 0x19
 2913 0316 3C       		.uleb128 0x3c
 2914 0317 19       		.uleb128 0x19
 2915 0318 00       		.byte	0
 2916 0319 00       		.byte	0
 2917 031a 00       		.byte	0
 2918              		.section	.debug_loc,"",%progbits
 2919              	.Ldebug_loc0:
 2920              	.LLST0:
 2921 0000 00000000 		.4byte	.LVL0
 2922 0004 07000000 		.4byte	.LVL1-1
 2923 0008 0100     		.2byte	0x1
 2924 000a 50       		.byte	0x50
 2925 000b 07000000 		.4byte	.LVL1-1
 2926 000f 48000000 		.4byte	.LFE8
 2927 0013 0100     		.2byte	0x1
 2928 0015 54       		.byte	0x54
 2929 0016 00000000 		.4byte	0
 2930 001a 00000000 		.4byte	0
 2931              	.LLST1:
 2932 001e 20000000 		.4byte	.LVL2
 2933 0022 24000000 		.4byte	.LVL3
 2934 0026 0600     		.2byte	0x6
 2935 0028 03       		.byte	0x3
 2936 0029 00000000 		.4byte	rlist
 2937 002d 9F       		.byte	0x9f
ARM GAS  /tmp/ccMwYayC.s 			page 53


 2938 002e 24000000 		.4byte	.LVL3
 2939 0032 3A000000 		.4byte	.LVL5
 2940 0036 0100     		.2byte	0x1
 2941 0038 53       		.byte	0x53
 2942 0039 00000000 		.4byte	0
 2943 003d 00000000 		.4byte	0
 2944              	.LLST2:
 2945 0041 00000000 		.4byte	.LVL7
 2946 0045 0D000000 		.4byte	.LVL8-1
 2947 0049 0100     		.2byte	0x1
 2948 004b 50       		.byte	0x50
 2949 004c 0D000000 		.4byte	.LVL8-1
 2950 0050 52000000 		.4byte	.LFE10
 2951 0054 0100     		.2byte	0x1
 2952 0056 54       		.byte	0x54
 2953 0057 00000000 		.4byte	0
 2954 005b 00000000 		.4byte	0
 2955              	.LLST4:
 2956 005f 30000000 		.4byte	.LVL9
 2957 0063 3A000000 		.4byte	.LVL10
 2958 0067 0100     		.2byte	0x1
 2959 0069 54       		.byte	0x54
 2960 006a 00000000 		.4byte	0
 2961 006e 00000000 		.4byte	0
 2962              	.LLST5:
 2963 0072 00000000 		.4byte	.LVL13
 2964 0076 0F000000 		.4byte	.LVL14-1
 2965 007a 0100     		.2byte	0x1
 2966 007c 50       		.byte	0x50
 2967 007d 0F000000 		.4byte	.LVL14-1
 2968 0081 54000000 		.4byte	.LFE9
 2969 0085 0400     		.2byte	0x4
 2970 0087 F3       		.byte	0xf3
 2971 0088 01       		.uleb128 0x1
 2972 0089 50       		.byte	0x50
 2973 008a 9F       		.byte	0x9f
 2974 008b 00000000 		.4byte	0
 2975 008f 00000000 		.4byte	0
 2976              	.LLST6:
 2977 0093 14000000 		.4byte	.LVL15
 2978 0097 50000000 		.4byte	.LVL19
 2979 009b 0100     		.2byte	0x1
 2980 009d 55       		.byte	0x55
 2981 009e 50000000 		.4byte	.LVL19
 2982 00a2 53000000 		.4byte	.LVL20-1
 2983 00a6 0100     		.2byte	0x1
 2984 00a8 51       		.byte	0x51
 2985 00a9 00000000 		.4byte	0
 2986 00ad 00000000 		.4byte	0
 2987              	.LLST7:
 2988 00b1 22000000 		.4byte	.LVL16
 2989 00b5 31000000 		.4byte	.LVL17-1
 2990 00b9 0100     		.2byte	0x1
 2991 00bb 53       		.byte	0x53
 2992 00bc 00000000 		.4byte	0
 2993 00c0 00000000 		.4byte	0
 2994              	.LLST8:
ARM GAS  /tmp/ccMwYayC.s 			page 54


 2995 00c4 00000000 		.4byte	.LVL21
 2996 00c8 0B000000 		.4byte	.LVL22-1
 2997 00cc 0100     		.2byte	0x1
 2998 00ce 50       		.byte	0x50
 2999 00cf 0B000000 		.4byte	.LVL22-1
 3000 00d3 58000000 		.4byte	.LFE11
 3001 00d7 0400     		.2byte	0x4
 3002 00d9 F3       		.byte	0xf3
 3003 00da 01       		.uleb128 0x1
 3004 00db 50       		.byte	0x50
 3005 00dc 9F       		.byte	0x9f
 3006 00dd 00000000 		.4byte	0
 3007 00e1 00000000 		.4byte	0
 3008              	.LLST9:
 3009 00e5 00000000 		.4byte	.LVL21
 3010 00e9 0B000000 		.4byte	.LVL22-1
 3011 00ed 0100     		.2byte	0x1
 3012 00ef 51       		.byte	0x51
 3013 00f0 0B000000 		.4byte	.LVL22-1
 3014 00f4 58000000 		.4byte	.LFE11
 3015 00f8 0100     		.2byte	0x1
 3016 00fa 55       		.byte	0x55
 3017 00fb 00000000 		.4byte	0
 3018 00ff 00000000 		.4byte	0
 3019              	.LLST10:
 3020 0103 00000000 		.4byte	.LVL28
 3021 0107 11000000 		.4byte	.LVL29-1
 3022 010b 0100     		.2byte	0x1
 3023 010d 50       		.byte	0x50
 3024 010e 11000000 		.4byte	.LVL29-1
 3025 0112 42000000 		.4byte	.LVL33
 3026 0116 0100     		.2byte	0x1
 3027 0118 54       		.byte	0x54
 3028 0119 42000000 		.4byte	.LVL33
 3029 011d 45000000 		.4byte	.LVL34-1
 3030 0121 0100     		.2byte	0x1
 3031 0123 50       		.byte	0x50
 3032 0124 45000000 		.4byte	.LVL34-1
 3033 0128 46000000 		.4byte	.LVL34
 3034 012c 0400     		.2byte	0x4
 3035 012e F3       		.byte	0xf3
 3036 012f 01       		.uleb128 0x1
 3037 0130 50       		.byte	0x50
 3038 0131 9F       		.byte	0x9f
 3039 0132 46000000 		.4byte	.LVL34
 3040 0136 4C000000 		.4byte	.LVL35
 3041 013a 0100     		.2byte	0x1
 3042 013c 54       		.byte	0x54
 3043 013d 4C000000 		.4byte	.LVL35
 3044 0141 4F000000 		.4byte	.LVL36-1
 3045 0145 0100     		.2byte	0x1
 3046 0147 50       		.byte	0x50
 3047 0148 4F000000 		.4byte	.LVL36-1
 3048 014c 50000000 		.4byte	.LVL36
 3049 0150 0400     		.2byte	0x4
 3050 0152 F3       		.byte	0xf3
 3051 0153 01       		.uleb128 0x1
ARM GAS  /tmp/ccMwYayC.s 			page 55


 3052 0154 50       		.byte	0x50
 3053 0155 9F       		.byte	0x9f
 3054 0156 50000000 		.4byte	.LVL36
 3055 015a 64000000 		.4byte	.LVL38
 3056 015e 0100     		.2byte	0x1
 3057 0160 54       		.byte	0x54
 3058 0161 64000000 		.4byte	.LVL38
 3059 0165 67000000 		.4byte	.LVL39-1
 3060 0169 0100     		.2byte	0x1
 3061 016b 50       		.byte	0x50
 3062 016c 67000000 		.4byte	.LVL39-1
 3063 0170 68000000 		.4byte	.LFE12
 3064 0174 0400     		.2byte	0x4
 3065 0176 F3       		.byte	0xf3
 3066 0177 01       		.uleb128 0x1
 3067 0178 50       		.byte	0x50
 3068 0179 9F       		.byte	0x9f
 3069 017a 00000000 		.4byte	0
 3070 017e 00000000 		.4byte	0
 3071              	.LLST11:
 3072 0182 00000000 		.4byte	.LVL28
 3073 0186 11000000 		.4byte	.LVL29-1
 3074 018a 0100     		.2byte	0x1
 3075 018c 51       		.byte	0x51
 3076 018d 11000000 		.4byte	.LVL29-1
 3077 0191 26000000 		.4byte	.LVL31
 3078 0195 0100     		.2byte	0x1
 3079 0197 56       		.byte	0x56
 3080 0198 26000000 		.4byte	.LVL31
 3081 019c 46000000 		.4byte	.LVL34
 3082 01a0 0400     		.2byte	0x4
 3083 01a2 F3       		.byte	0xf3
 3084 01a3 01       		.uleb128 0x1
 3085 01a4 51       		.byte	0x51
 3086 01a5 9F       		.byte	0x9f
 3087 01a6 46000000 		.4byte	.LVL34
 3088 01aa 4C000000 		.4byte	.LVL35
 3089 01ae 0100     		.2byte	0x1
 3090 01b0 56       		.byte	0x56
 3091 01b1 4C000000 		.4byte	.LVL35
 3092 01b5 4F000000 		.4byte	.LVL36-1
 3093 01b9 0200     		.2byte	0x2
 3094 01bb 70       		.byte	0x70
 3095 01bc 28       		.sleb128 40
 3096 01bd 4F000000 		.4byte	.LVL36-1
 3097 01c1 68000000 		.4byte	.LFE12
 3098 01c5 0400     		.2byte	0x4
 3099 01c7 F3       		.byte	0xf3
 3100 01c8 01       		.uleb128 0x1
 3101 01c9 51       		.byte	0x51
 3102 01ca 9F       		.byte	0x9f
 3103 01cb 00000000 		.4byte	0
 3104 01cf 00000000 		.4byte	0
 3105              	.LLST12:
 3106 01d3 26000000 		.4byte	.LVL31
 3107 01d7 2F000000 		.4byte	.LVL32-1
 3108 01db 0100     		.2byte	0x1
ARM GAS  /tmp/ccMwYayC.s 			page 56


 3109 01dd 50       		.byte	0x50
 3110 01de 2F000000 		.4byte	.LVL32-1
 3111 01e2 42000000 		.4byte	.LVL33
 3112 01e6 0100     		.2byte	0x1
 3113 01e8 56       		.byte	0x56
 3114 01e9 42000000 		.4byte	.LVL33
 3115 01ed 45000000 		.4byte	.LVL34-1
 3116 01f1 0100     		.2byte	0x1
 3117 01f3 51       		.byte	0x51
 3118 01f4 50000000 		.4byte	.LVL36
 3119 01f8 64000000 		.4byte	.LVL38
 3120 01fc 0100     		.2byte	0x1
 3121 01fe 56       		.byte	0x56
 3122 01ff 64000000 		.4byte	.LVL38
 3123 0203 67000000 		.4byte	.LVL39-1
 3124 0207 0100     		.2byte	0x1
 3125 0209 51       		.byte	0x51
 3126 020a 00000000 		.4byte	0
 3127 020e 00000000 		.4byte	0
 3128              	.LLST13:
 3129 0212 10000000 		.4byte	.LVL40
 3130 0216 4C000000 		.4byte	.LVL44
 3131 021a 0100     		.2byte	0x1
 3132 021c 55       		.byte	0x55
 3133 021d 4C000000 		.4byte	.LVL44
 3134 0221 4F000000 		.4byte	.LVL45-1
 3135 0225 0100     		.2byte	0x1
 3136 0227 51       		.byte	0x51
 3137 0228 00000000 		.4byte	0
 3138 022c 00000000 		.4byte	0
 3139              	.LLST14:
 3140 0230 10000000 		.4byte	.LVL40
 3141 0234 27000000 		.4byte	.LVL41-1
 3142 0238 0100     		.2byte	0x1
 3143 023a 53       		.byte	0x53
 3144 023b 00000000 		.4byte	0
 3145 023f 00000000 		.4byte	0
 3146              	.LLST15:
 3147 0243 10000000 		.4byte	.LVL46
 3148 0247 5E000000 		.4byte	.LVL52
 3149 024b 0100     		.2byte	0x1
 3150 024d 55       		.byte	0x55
 3151 024e 5E000000 		.4byte	.LVL52
 3152 0252 61000000 		.4byte	.LVL53-1
 3153 0256 0100     		.2byte	0x1
 3154 0258 51       		.byte	0x51
 3155 0259 00000000 		.4byte	0
 3156 025d 00000000 		.4byte	0
 3157              	.LLST16:
 3158 0261 26000000 		.4byte	.LVL47
 3159 0265 28000000 		.4byte	.LVL48
 3160 0269 0600     		.2byte	0x6
 3161 026b 03       		.byte	0x3
 3162 026c 00000000 		.4byte	rlist
 3163 0270 9F       		.byte	0x9f
 3164 0271 28000000 		.4byte	.LVL48
 3165 0275 3F000000 		.4byte	.LVL50-1
ARM GAS  /tmp/ccMwYayC.s 			page 57


 3166 0279 0100     		.2byte	0x1
 3167 027b 53       		.byte	0x53
 3168 027c 00000000 		.4byte	0
 3169 0280 00000000 		.4byte	0
 3170              	.LLST17:
 3171 0284 10000000 		.4byte	.LVL46
 3172 0288 28000000 		.4byte	.LVL48
 3173 028c 0100     		.2byte	0x1
 3174 028e 52       		.byte	0x52
 3175 028f 28000000 		.4byte	.LVL48
 3176 0293 3F000000 		.4byte	.LVL50-1
 3177 0297 0500     		.2byte	0x5
 3178 0299 03       		.byte	0x3
 3179 029a 00000000 		.4byte	rlist
 3180 029e 00000000 		.4byte	0
 3181 02a2 00000000 		.4byte	0
 3182              		.section	.debug_aranges,"",%progbits
 3183 0000 64000000 		.4byte	0x64
 3184 0004 0200     		.2byte	0x2
 3185 0006 00000000 		.4byte	.Ldebug_info0
 3186 000a 04       		.byte	0x4
 3187 000b 00       		.byte	0
 3188 000c 0000     		.2byte	0
 3189 000e 0000     		.2byte	0
 3190 0010 00000000 		.4byte	.LFB7
 3191 0014 16000000 		.4byte	.LFE7-.LFB7
 3192 0018 00000000 		.4byte	.LFB8
 3193 001c 48000000 		.4byte	.LFE8-.LFB8
 3194 0020 00000000 		.4byte	.LFB10
 3195 0024 52000000 		.4byte	.LFE10-.LFB10
 3196 0028 00000000 		.4byte	.LFB9
 3197 002c 54000000 		.4byte	.LFE9-.LFB9
 3198 0030 00000000 		.4byte	.LFB11
 3199 0034 58000000 		.4byte	.LFE11-.LFB11
 3200 0038 00000000 		.4byte	.LFB12
 3201 003c 68000000 		.4byte	.LFE12-.LFB12
 3202 0040 00000000 		.4byte	.LFB14
 3203 0044 50000000 		.4byte	.LFE14-.LFB14
 3204 0048 00000000 		.4byte	.LFB15
 3205 004c 62000000 		.4byte	.LFE15-.LFB15
 3206 0050 00000000 		.4byte	.LFB13
 3207 0054 24000000 		.4byte	.LFE13-.LFB13
 3208 0058 00000000 		.4byte	.LFB16
 3209 005c 18000000 		.4byte	.LFE16-.LFB16
 3210 0060 00000000 		.4byte	0
 3211 0064 00000000 		.4byte	0
 3212              		.section	.debug_ranges,"",%progbits
 3213              	.Ldebug_ranges0:
 3214 0000 02000000 		.4byte	.LBB32
 3215 0004 04000000 		.4byte	.LBE32
 3216 0008 06000000 		.4byte	.LBB33
 3217 000c 0A000000 		.4byte	.LBE33
 3218 0010 00000000 		.4byte	0
 3219 0014 00000000 		.4byte	0
 3220 0018 10000000 		.4byte	.LBB37
 3221 001c 12000000 		.4byte	.LBE37
 3222 0020 14000000 		.4byte	.LBB42
ARM GAS  /tmp/ccMwYayC.s 			page 58


 3223 0024 16000000 		.4byte	.LBE42
 3224 0028 22000000 		.4byte	.LBB43
 3225 002c 24000000 		.4byte	.LBE43
 3226 0030 2A000000 		.4byte	.LBB44
 3227 0034 2C000000 		.4byte	.LBE44
 3228 0038 00000000 		.4byte	0
 3229 003c 00000000 		.4byte	0
 3230 0040 32000000 		.4byte	.LBB45
 3231 0044 4C000000 		.4byte	.LBE45
 3232 0048 50000000 		.4byte	.LBB46
 3233 004c 54000000 		.4byte	.LBE46
 3234 0050 00000000 		.4byte	0
 3235 0054 00000000 		.4byte	0
 3236 0058 1E000000 		.4byte	.LBB48
 3237 005c 3E000000 		.4byte	.LBE48
 3238 0060 42000000 		.4byte	.LBB53
 3239 0064 46000000 		.4byte	.LBE53
 3240 0068 50000000 		.4byte	.LBB54
 3241 006c 60000000 		.4byte	.LBE54
 3242 0070 64000000 		.4byte	.LBB55
 3243 0074 68000000 		.4byte	.LBE55
 3244 0078 00000000 		.4byte	0
 3245 007c 00000000 		.4byte	0
 3246 0080 30000000 		.4byte	.LBB49
 3247 0084 3E000000 		.4byte	.LBE49
 3248 0088 42000000 		.4byte	.LBB50
 3249 008c 46000000 		.4byte	.LBE50
 3250 0090 50000000 		.4byte	.LBB51
 3251 0094 60000000 		.4byte	.LBE51
 3252 0098 64000000 		.4byte	.LBB52
 3253 009c 68000000 		.4byte	.LBE52
 3254 00a0 00000000 		.4byte	0
 3255 00a4 00000000 		.4byte	0
 3256 00a8 0C000000 		.4byte	.LBB56
 3257 00ac 0E000000 		.4byte	.LBE56
 3258 00b0 10000000 		.4byte	.LBB61
 3259 00b4 12000000 		.4byte	.LBE61
 3260 00b8 14000000 		.4byte	.LBB62
 3261 00bc 16000000 		.4byte	.LBE62
 3262 00c0 20000000 		.4byte	.LBB63
 3263 00c4 22000000 		.4byte	.LBE63
 3264 00c8 00000000 		.4byte	0
 3265 00cc 00000000 		.4byte	0
 3266 00d0 2E000000 		.4byte	.LBB64
 3267 00d4 48000000 		.4byte	.LBE64
 3268 00d8 4C000000 		.4byte	.LBB65
 3269 00dc 50000000 		.4byte	.LBE65
 3270 00e0 00000000 		.4byte	0
 3271 00e4 00000000 		.4byte	0
 3272 00e8 0C000000 		.4byte	.LBB66
 3273 00ec 0E000000 		.4byte	.LBE66
 3274 00f0 10000000 		.4byte	.LBB70
 3275 00f4 16000000 		.4byte	.LBE70
 3276 00f8 18000000 		.4byte	.LBB71
 3277 00fc 1A000000 		.4byte	.LBE71
 3278 0100 00000000 		.4byte	0
 3279 0104 00000000 		.4byte	0
ARM GAS  /tmp/ccMwYayC.s 			page 59


 3280 0108 40000000 		.4byte	.LBB72
 3281 010c 5A000000 		.4byte	.LBE72
 3282 0110 5E000000 		.4byte	.LBB73
 3283 0114 62000000 		.4byte	.LBE73
 3284 0118 00000000 		.4byte	0
 3285 011c 00000000 		.4byte	0
 3286 0120 00000000 		.4byte	.LFB7
 3287 0124 16000000 		.4byte	.LFE7
 3288 0128 00000000 		.4byte	.LFB8
 3289 012c 48000000 		.4byte	.LFE8
 3290 0130 00000000 		.4byte	.LFB10
 3291 0134 52000000 		.4byte	.LFE10
 3292 0138 00000000 		.4byte	.LFB9
 3293 013c 54000000 		.4byte	.LFE9
 3294 0140 00000000 		.4byte	.LFB11
 3295 0144 58000000 		.4byte	.LFE11
 3296 0148 00000000 		.4byte	.LFB12
 3297 014c 68000000 		.4byte	.LFE12
 3298 0150 00000000 		.4byte	.LFB14
 3299 0154 50000000 		.4byte	.LFE14
 3300 0158 00000000 		.4byte	.LFB15
 3301 015c 62000000 		.4byte	.LFE15
 3302 0160 00000000 		.4byte	.LFB13
 3303 0164 24000000 		.4byte	.LFE13
 3304 0168 00000000 		.4byte	.LFB16
 3305 016c 18000000 		.4byte	.LFE16
 3306 0170 00000000 		.4byte	0
 3307 0174 00000000 		.4byte	0
 3308              		.section	.debug_line,"",%progbits
 3309              	.Ldebug_line0:
 3310 0000 43030000 		.section	.debug_str,"MS",%progbits,1
 3310      02003E01 
 3310      00000201 
 3310      FB0E0D00 
 3310      01010101 
 3311              	.LASF43:
 3312 0000 705F6D73 		.ascii	"p_msg\000"
 3312      6700
 3313              	.LASF96:
 3314 0006 63684462 		.ascii	"chDbgPanic\000"
 3314      6750616E 
 3314      696300
 3315              	.LASF76:
 3316 0011 7264796D 		.ascii	"rdymsg\000"
 3316      736700
 3317              	.LASF16:
 3318 0018 75696E74 		.ascii	"uint64_t\000"
 3318      36345F74 
 3318      00
 3319              	.LASF90:
 3320 0021 63685363 		.ascii	"chSchDoRescheduleAhead\000"
 3320      68446F52 
 3320      65736368 
 3320      6564756C 
 3320      65416865 
 3321              	.LASF5:
 3322 0038 5F5F7569 		.ascii	"__uint8_t\000"
ARM GAS  /tmp/ccMwYayC.s 			page 60


 3322      6E74385F 
 3322      7400
 3323              	.LASF101:
 3324 0042 474E5520 		.ascii	"GNU C 4.8.2 -mcpu=cortex-m4 -mno-thumb-interwork -m"
 3324      4320342E 
 3324      382E3220 
 3324      2D6D6370 
 3324      753D636F 
 3325 0075 7468756D 		.ascii	"thumb -ggdb -O2 -fomit-frame-pointer -falign-functi"
 3325      62202D67 
 3325      67646220 
 3325      2D4F3220 
 3325      2D666F6D 
 3326 00a8 6F6E733D 		.ascii	"ons=16 -ffunction-sections -fdata-sections -fno-com"
 3326      3136202D 
 3326      6666756E 
 3326      6374696F 
 3326      6E2D7365 
 3327 00db 6D6F6E00 		.ascii	"mon\000"
 3328              	.LASF12:
 3329 00df 6C6F6E67 		.ascii	"long long unsigned int\000"
 3329      206C6F6E 
 3329      6720756E 
 3329      7369676E 
 3329      65642069 
 3330              	.LASF77:
 3331 00f6 65786974 		.ascii	"exitcode\000"
 3331      636F6465 
 3331      00
 3332              	.LASF30:
 3333 00ff 705F7072 		.ascii	"p_prio\000"
 3333      696F00
 3334              	.LASF105:
 3335 0106 5F736368 		.ascii	"_scheduler_init\000"
 3335      6564756C 
 3335      65725F69 
 3335      6E697400 
 3336              	.LASF10:
 3337 0116 6C6F6E67 		.ascii	"long long int\000"
 3337      206C6F6E 
 3337      6720696E 
 3337      7400
 3338              	.LASF1:
 3339 0124 7369676E 		.ascii	"signed char\000"
 3339      65642063 
 3339      68617200 
 3340              	.LASF95:
 3341 0130 6462675F 		.ascii	"dbg_check_unlock_from_isr\000"
 3341      63686563 
 3341      6B5F756E 
 3341      6C6F636B 
 3341      5F66726F 
 3342              	.LASF47:
 3343 014a 705F6D70 		.ascii	"p_mpool\000"
 3343      6F6F6C00 
 3344              	.LASF73:
 3345 0152 6D5F7175 		.ascii	"m_queue\000"
ARM GAS  /tmp/ccMwYayC.s 			page 61


 3345      65756500 
 3346              	.LASF102:
 3347 015a 2E2E2F2E 		.ascii	"../../../os/kernel/src/chschd.c\000"
 3347      2E2F2E2E 
 3347      2F6F732F 
 3347      6B65726E 
 3347      656C2F73 
 3348              	.LASF7:
 3349 017a 6C6F6E67 		.ascii	"long int\000"
 3349      20696E74 
 3349      00
 3350              	.LASF19:
 3351 0183 74737461 		.ascii	"tstate_t\000"
 3351      74655F74 
 3351      00
 3352              	.LASF32:
 3353 018c 705F6E65 		.ascii	"p_newer\000"
 3353      77657200 
 3354              	.LASF70:
 3355 0194 735F7175 		.ascii	"s_queue\000"
 3355      65756500 
 3356              	.LASF91:
 3357 019c 63685363 		.ascii	"chSchRescheduleS\000"
 3357      68526573 
 3357      63686564 
 3357      756C6553 
 3357      00
 3358              	.LASF8:
 3359 01ad 5F5F7569 		.ascii	"__uint32_t\000"
 3359      6E743332 
 3359      5F7400
 3360              	.LASF50:
 3361 01b8 72656761 		.ascii	"regarm_t\000"
 3361      726D5F74 
 3361      00
 3362              	.LASF58:
 3363 01c1 76745F70 		.ascii	"vt_prev\000"
 3363      72657600 
 3364              	.LASF92:
 3365 01c9 63685363 		.ascii	"chSchDoReschedule\000"
 3365      68446F52 
 3365      65736368 
 3365      6564756C 
 3365      6500
 3366              	.LASF26:
 3367 01db 636E745F 		.ascii	"cnt_t\000"
 3367      7400
 3368              	.LASF35:
 3369 01e1 705F7374 		.ascii	"p_stklimit\000"
 3369      6B6C696D 
 3369      697400
 3370              	.LASF0:
 3371 01ec 756E7369 		.ascii	"unsigned int\000"
 3371      676E6564 
 3371      20696E74 
 3371      00
 3372              	.LASF104:
ARM GAS  /tmp/ccMwYayC.s 			page 62


 3373 01f9 77616B65 		.ascii	"wakeup\000"
 3373      757000
 3374              	.LASF57:
 3375 0200 76745F6E 		.ascii	"vt_next\000"
 3375      65787400 
 3376              	.LASF99:
 3377 0208 6462675F 		.ascii	"dbg_trace\000"
 3377      74726163 
 3377      6500
 3378              	.LASF97:
 3379 0212 5F706F72 		.ascii	"_port_switch\000"
 3379      745F7377 
 3379      69746368 
 3379      00
 3380              	.LASF9:
 3381 021f 6C6F6E67 		.ascii	"long unsigned int\000"
 3381      20756E73 
 3381      69676E65 
 3381      6420696E 
 3381      7400
 3382              	.LASF55:
 3383 0231 76746675 		.ascii	"vtfunc_t\000"
 3383      6E635F74 
 3383      00
 3384              	.LASF71:
 3385 023a 735F636E 		.ascii	"s_cnt\000"
 3385      7400
 3386              	.LASF53:
 3387 0240 636F6E74 		.ascii	"context\000"
 3387      65787400 
 3388              	.LASF4:
 3389 0248 73686F72 		.ascii	"short unsigned int\000"
 3389      7420756E 
 3389      7369676E 
 3389      65642069 
 3389      6E7400
 3390              	.LASF88:
 3391 025b 63685363 		.ascii	"chSchWakeupS\000"
 3391      6857616B 
 3391      65757053 
 3391      00
 3392              	.LASF23:
 3393 0268 6D73675F 		.ascii	"msg_t\000"
 3393      7400
 3394              	.LASF65:
 3395 026e 725F6E65 		.ascii	"r_newer\000"
 3395      77657200 
 3396              	.LASF93:
 3397 0276 63684462 		.ascii	"chDbgCheckClassI\000"
 3397      67436865 
 3397      636B436C 
 3397      61737349 
 3397      00
 3398              	.LASF18:
 3399 0287 746D6F64 		.ascii	"tmode_t\000"
 3399      655F7400 
 3400              	.LASF98:
ARM GAS  /tmp/ccMwYayC.s 			page 63


 3401 028f 63684462 		.ascii	"chDbgCheckClassS\000"
 3401      67436865 
 3401      636B436C 
 3401      61737353 
 3401      00
 3402              	.LASF49:
 3403 02a0 54687265 		.ascii	"ThreadsList\000"
 3403      6164734C 
 3403      69737400 
 3404              	.LASF24:
 3405 02ac 6576656E 		.ascii	"eventmask_t\000"
 3405      746D6173 
 3405      6B5F7400 
 3406              	.LASF72:
 3407 02b8 4D757465 		.ascii	"Mutex\000"
 3407      7800
 3408              	.LASF51:
 3409 02be 73746B61 		.ascii	"stkalign_t\000"
 3409      6C69676E 
 3409      5F7400
 3410              	.LASF59:
 3411 02c9 76745F74 		.ascii	"vt_time\000"
 3411      696D6500 
 3412              	.LASF54:
 3413 02d1 73697A65 		.ascii	"sizetype\000"
 3413      74797065 
 3413      00
 3414              	.LASF60:
 3415 02da 76745F66 		.ascii	"vt_func\000"
 3415      756E6300 
 3416              	.LASF89:
 3417 02e2 63685363 		.ascii	"chSchDoRescheduleBehind\000"
 3417      68446F52 
 3417      65736368 
 3417      6564756C 
 3417      65426568 
 3418              	.LASF100:
 3419 02fa 63685654 		.ascii	"chVTSetI\000"
 3419      53657449 
 3419      00
 3420              	.LASF33:
 3421 0303 705F6F6C 		.ascii	"p_older\000"
 3421      64657200 
 3422              	.LASF64:
 3423 030b 725F6374 		.ascii	"r_ctx\000"
 3423      7800
 3424              	.LASF48:
 3425 0311 54687265 		.ascii	"ThreadsQueue\000"
 3425      61647351 
 3425      75657565 
 3425      00
 3426              	.LASF103:
 3427 031e 2F686F6D 		.ascii	"/home/mo/ARMProjects/ChibiOS_Sample/ChibiOS_2.6.5/t"
 3427      652F6D6F 
 3427      2F41524D 
 3427      50726F6A 
 3427      65637473 
ARM GAS  /tmp/ccMwYayC.s 			page 64


 3428 0351 65737468 		.ascii	"esthal/STM32F4xx/ADC\000"
 3428      616C2F53 
 3428      544D3332 
 3428      46347878 
 3428      2F414443 
 3429              	.LASF81:
 3430 0366 64657175 		.ascii	"dequeue\000"
 3430      65756500 
 3431              	.LASF67:
 3432 036e 725F6375 		.ascii	"r_current\000"
 3432      7272656E 
 3432      7400
 3433              	.LASF66:
 3434 0378 725F6F6C 		.ascii	"r_older\000"
 3434      64657200 
 3435              	.LASF11:
 3436 0380 5F5F7569 		.ascii	"__uint64_t\000"
 3436      6E743634 
 3436      5F7400
 3437              	.LASF20:
 3438 038b 74726566 		.ascii	"trefs_t\000"
 3438      735F7400 
 3439              	.LASF29:
 3440 0393 705F7072 		.ascii	"p_prev\000"
 3440      657600
 3441              	.LASF22:
 3442 039a 74707269 		.ascii	"tprio_t\000"
 3442      6F5F7400 
 3443              	.LASF17:
 3444 03a2 5F426F6F 		.ascii	"_Bool\000"
 3444      6C00
 3445              	.LASF14:
 3446 03a8 696E7433 		.ascii	"int32_t\000"
 3446      325F7400 
 3447              	.LASF2:
 3448 03b0 756E7369 		.ascii	"unsigned char\000"
 3448      676E6564 
 3448      20636861 
 3448      7200
 3449              	.LASF83:
 3450 03be 6E657773 		.ascii	"newstate\000"
 3450      74617465 
 3450      00
 3451              	.LASF45:
 3452 03c7 705F6D74 		.ascii	"p_mtxlist\000"
 3452      786C6973 
 3452      7400
 3453              	.LASF3:
 3454 03d1 73686F72 		.ascii	"short int\000"
 3454      7420696E 
 3454      7400
 3455              	.LASF36:
 3456 03db 705F7374 		.ascii	"p_state\000"
 3456      61746500 
 3457              	.LASF39:
 3458 03e3 705F7072 		.ascii	"p_preempt\000"
 3458      65656D70 
ARM GAS  /tmp/ccMwYayC.s 			page 65


 3458      7400
 3459              	.LASF63:
 3460 03ed 725F7072 		.ascii	"r_prio\000"
 3460      696F00
 3461              	.LASF79:
 3462 03f4 65776D61 		.ascii	"ewmask\000"
 3462      736B00
 3463              	.LASF28:
 3464 03fb 705F6E65 		.ascii	"p_next\000"
 3464      787400
 3465              	.LASF37:
 3466 0402 705F666C 		.ascii	"p_flags\000"
 3466      61677300 
 3467              	.LASF27:
 3468 040a 54687265 		.ascii	"Thread\000"
 3468      616400
 3469              	.LASF107:
 3470 0411 63685654 		.ascii	"chVTResetI\000"
 3470      52657365 
 3470      744900
 3471              	.LASF87:
 3472 041c 63685363 		.ascii	"chSchGoSleepS\000"
 3472      68476F53 
 3472      6C656570 
 3472      5300
 3473              	.LASF44:
 3474 042a 705F6570 		.ascii	"p_epending\000"
 3474      656E6469 
 3474      6E6700
 3475              	.LASF15:
 3476 0435 75696E74 		.ascii	"uint32_t\000"
 3476      33325F74 
 3476      00
 3477              	.LASF62:
 3478 043e 725F7175 		.ascii	"r_queue\000"
 3478      65756500 
 3479              	.LASF56:
 3480 0446 56697274 		.ascii	"VirtualTimer\000"
 3480      75616C54 
 3480      696D6572 
 3480      00
 3481              	.LASF21:
 3482 0453 74736C69 		.ascii	"tslices_t\000"
 3482      6365735F 
 3482      7400
 3483              	.LASF80:
 3484 045d 63686172 		.ascii	"char\000"
 3484      00
 3485              	.LASF82:
 3486 0462 6669666F 		.ascii	"fifo_remove\000"
 3486      5F72656D 
 3486      6F766500 
 3487              	.LASF84:
 3488 046e 63685363 		.ascii	"chSchReadyI\000"
 3488      68526561 
 3488      64794900 
 3489              	.LASF75:
ARM GAS  /tmp/ccMwYayC.s 			page 66


 3490 047a 6D5F6E65 		.ascii	"m_next\000"
 3490      787400
 3491              	.LASF25:
 3492 0481 73797374 		.ascii	"systime_t\000"
 3492      696D655F 
 3492      7400
 3493              	.LASF46:
 3494 048b 705F7265 		.ascii	"p_realprio\000"
 3494      616C7072 
 3494      696F00
 3495              	.LASF6:
 3496 0496 5F5F696E 		.ascii	"__int32_t\000"
 3496      7433325F 
 3496      7400
 3497              	.LASF40:
 3498 04a0 705F7469 		.ascii	"p_time\000"
 3498      6D6500
 3499              	.LASF52:
 3500 04a7 696E7463 		.ascii	"intctx\000"
 3500      747800
 3501              	.LASF42:
 3502 04ae 705F6D73 		.ascii	"p_msgqueue\000"
 3502      67717565 
 3502      756500
 3503              	.LASF86:
 3504 04b9 74696D65 		.ascii	"time\000"
 3504      00
 3505              	.LASF61:
 3506 04be 76745F70 		.ascii	"vt_par\000"
 3506      617200
 3507              	.LASF69:
 3508 04c5 53656D61 		.ascii	"Semaphore\000"
 3508      70686F72 
 3508      6500
 3509              	.LASF38:
 3510 04cf 705F7265 		.ascii	"p_refs\000"
 3510      667300
 3511              	.LASF68:
 3512 04d6 52656164 		.ascii	"ReadyList\000"
 3512      794C6973 
 3512      7400
 3513              	.LASF106:
 3514 04e0 726C6973 		.ascii	"rlist\000"
 3514      7400
 3515              	.LASF13:
 3516 04e6 75696E74 		.ascii	"uint8_t\000"
 3516      385F7400 
 3517              	.LASF94:
 3518 04ee 6462675F 		.ascii	"dbg_check_lock_from_isr\000"
 3518      63686563 
 3518      6B5F6C6F 
 3518      636B5F66 
 3518      726F6D5F 
 3519              	.LASF78:
 3520 0506 77746F62 		.ascii	"wtobjp\000"
 3520      6A7000
 3521              	.LASF34:
ARM GAS  /tmp/ccMwYayC.s 			page 67


 3522 050d 705F6E61 		.ascii	"p_name\000"
 3522      6D6500
 3523              	.LASF85:
 3524 0514 63685363 		.ascii	"chSchGoSleepTimeoutS\000"
 3524      68476F53 
 3524      6C656570 
 3524      54696D65 
 3524      6F757453 
 3525              	.LASF74:
 3526 0529 6D5F6F77 		.ascii	"m_owner\000"
 3526      6E657200 
 3527              	.LASF31:
 3528 0531 705F6374 		.ascii	"p_ctx\000"
 3528      7800
 3529              	.LASF41:
 3530 0537 705F7761 		.ascii	"p_waiting\000"
 3530      6974696E 
 3530      6700
 3531              		.ident	"GCC: (4.8.2-14ubuntu1+6) 4.8.2"
ARM GAS  /tmp/ccMwYayC.s 			page 68


DEFINED SYMBOLS
                            *ABS*:0000000000000000 chschd.c
     /tmp/ccMwYayC.s:19     .text._scheduler_init:0000000000000000 $t
     /tmp/ccMwYayC.s:25     .text._scheduler_init:0000000000000000 _scheduler_init
     /tmp/ccMwYayC.s:787    .bss.rlist:0000000000000000 .LANCHOR0
     /tmp/ccMwYayC.s:51     .text.chSchReadyI:0000000000000000 $t
     /tmp/ccMwYayC.s:57     .text.chSchReadyI:0000000000000000 chSchReadyI
     /tmp/ccMwYayC.s:780    .rodata.str1.4:0000000000000000 .LC0
     /tmp/ccMwYayC.s:124    .text.wakeup:0000000000000000 $t
     /tmp/ccMwYayC.s:129    .text.wakeup:0000000000000000 wakeup
     /tmp/ccMwYayC.s:161    .text.wakeup:000000000000001a $d
     /tmp/ccMwYayC.s:175    .text.wakeup:0000000000000028 $t
     /tmp/ccMwYayC.s:220    .text.chSchGoSleepS:0000000000000000 $t
     /tmp/ccMwYayC.s:226    .text.chSchGoSleepS:0000000000000000 chSchGoSleepS
     /tmp/ccMwYayC.s:783    .rodata.str1.4:0000000000000014 .LC1
     /tmp/ccMwYayC.s:319    .text.chSchGoSleepTimeoutS:0000000000000000 $t
     /tmp/ccMwYayC.s:325    .text.chSchGoSleepTimeoutS:0000000000000000 chSchGoSleepTimeoutS
     /tmp/ccMwYayC.s:399    .text.chSchWakeupS:0000000000000000 $t
     /tmp/ccMwYayC.s:405    .text.chSchWakeupS:0000000000000000 chSchWakeupS
     /tmp/ccMwYayC.s:507    .text.chSchDoRescheduleBehind:0000000000000000 $t
     /tmp/ccMwYayC.s:513    .text.chSchDoRescheduleBehind:0000000000000000 chSchDoRescheduleBehind
     /tmp/ccMwYayC.s:601    .text.chSchDoRescheduleAhead:0000000000000000 $t
     /tmp/ccMwYayC.s:607    .text.chSchDoRescheduleAhead:0000000000000000 chSchDoRescheduleAhead
     /tmp/ccMwYayC.s:709    .text.chSchRescheduleS:0000000000000000 $t
     /tmp/ccMwYayC.s:715    .text.chSchRescheduleS:0000000000000000 chSchRescheduleS
     /tmp/ccMwYayC.s:748    .text.chSchDoReschedule:0000000000000000 $t
     /tmp/ccMwYayC.s:754    .text.chSchDoReschedule:0000000000000000 chSchDoReschedule
     /tmp/ccMwYayC.s:790    .bss.rlist:0000000000000000 rlist
     /tmp/ccMwYayC.s:779    .rodata.str1.4:0000000000000000 $d
     /tmp/ccMwYayC.s:786    .bss.rlist:0000000000000000 $d
                     .debug_frame:0000000000000010 $d

UNDEFINED SYMBOLS
chDbgCheckClassI
chDbgPanic
dbg_check_lock_from_isr
dbg_check_unlock_from_isr
chDbgCheckClassS
dbg_trace
_port_switch
chVTSetI
chVTResetI
