ARM GAS  /tmp/ccmJtplN.s 			page 1


   1              		.syntax unified
   2              		.cpu cortex-m4
   3              		.fpu softvfp
   4              		.eabi_attribute 20, 1
   5              		.eabi_attribute 21, 1
   6              		.eabi_attribute 23, 3
   7              		.eabi_attribute 24, 1
   8              		.eabi_attribute 25, 1
   9              		.eabi_attribute 26, 1
  10              		.eabi_attribute 30, 2
  11              		.eabi_attribute 34, 1
  12              		.eabi_attribute 18, 4
  13              		.thumb
  14              		.file	"chsem.c"
  15              		.text
  16              	.Ltext0:
  17              		.cfi_sections	.debug_frame
  18              		.section	.text.chSemInit,"ax",%progbits
  19              		.align	2
  20              		.p2align 4,,15
  21              		.global	chSemInit
  22              		.thumb
  23              		.thumb_func
  24              		.type	chSemInit, %function
  25              	chSemInit:
  26              	.LFB7:
  27              		.file 1 "../../../os/kernel/src/chsem.c"
  28              		.loc 1 86 0
  29              		.cfi_startproc
  30              		@ args = 0, pretend = 0, frame = 0
  31              		@ frame_needed = 0, uses_anonymous_args = 0
  32              	.LVL0:
  33 0000 38B5     		push	{r3, r4, r5, lr}
  34              		.cfi_def_cfa_offset 16
  35              		.cfi_offset 3, -16
  36              		.cfi_offset 4, -12
  37              		.cfi_offset 5, -8
  38              		.cfi_offset 14, -4
  39              		.loc 1 88 0
  40 0002 D0F10103 		rsbs	r3, r0, #1
  41 0006 38BF     		it	cc
  42 0008 0023     		movcc	r3, #0
  43 000a 53EAD173 		orrs	r3, r3, r1, lsr #31
  44 000e 0446     		mov	r4, r0
  45              		.loc 1 86 0
  46 0010 0D46     		mov	r5, r1
  47              		.loc 1 88 0
  48 0012 05D0     		beq	.L2
  49              		.loc 1 88 0 is_stmt 0 discriminator 1
  50 0014 40F20000 		movw	r0, #:lower16:.LC0
  51              	.LVL1:
  52 0018 C0F20000 		movt	r0, #:upper16:.LC0
  53 001c FFF7FEFF 		bl	chDbgPanic
  54              	.LVL2:
  55              	.L2:
  56              		.loc 1 90 0 is_stmt 1
  57 0020 6460     		str	r4, [r4, #4]
ARM GAS  /tmp/ccmJtplN.s 			page 2


  58 0022 2460     		str	r4, [r4]
  59              		.loc 1 91 0
  60 0024 A560     		str	r5, [r4, #8]
  61 0026 38BD     		pop	{r3, r4, r5, pc}
  62              		.cfi_endproc
  63              	.LFE7:
  64              		.size	chSemInit, .-chSemInit
  65 0028 AFF30080 		.section	.text.chSemResetI,"ax",%progbits
  65      AFF30080 
  66              		.align	2
  67              		.p2align 4,,15
  68              		.global	chSemResetI
  69              		.thumb
  70              		.thumb_func
  71              		.type	chSemResetI, %function
  72              	chSemResetI:
  73              	.LFB9:
  74              		.loc 1 136 0
  75              		.cfi_startproc
  76              		@ args = 0, pretend = 0, frame = 0
  77              		@ frame_needed = 0, uses_anonymous_args = 0
  78              	.LVL3:
  79 0000 70B5     		push	{r4, r5, r6, lr}
  80              		.cfi_def_cfa_offset 16
  81              		.cfi_offset 4, -16
  82              		.cfi_offset 5, -12
  83              		.cfi_offset 6, -8
  84              		.cfi_offset 14, -4
  85              		.loc 1 136 0
  86 0002 0446     		mov	r4, r0
  87 0004 0E46     		mov	r6, r1
  88              		.loc 1 139 0
  89 0006 FFF7FEFF 		bl	chDbgCheckClassI
  90              	.LVL4:
  91              		.loc 1 140 0
  92 000a D4F10103 		rsbs	r3, r4, #1
  93 000e 38BF     		it	cc
  94 0010 0023     		movcc	r3, #0
  95 0012 53EAD673 		orrs	r3, r3, r6, lsr #31
  96 0016 20D1     		bne	.L22
  97              	.L8:
  98              		.loc 1 141 0
  99 0018 A568     		ldr	r5, [r4, #8]
 100 001a 2368     		ldr	r3, [r4]
 101 001c 002D     		cmp	r5, #0
 102 001e 19DB     		blt	.L9
 103              		.loc 1 141 0 is_stmt 0 discriminator 2
 104 0020 A342     		cmp	r3, r4
 105 0022 06D0     		beq	.L11
 106              	.L10:
 107              		.loc 1 141 0 discriminator 1
 108 0024 40F20000 		movw	r0, #:lower16:.LC2
 109 0028 C0F20000 		movt	r0, #:upper16:.LC2
 110 002c FFF7FEFF 		bl	chDbgPanic
 111              	.LVL5:
 112 0030 A568     		ldr	r5, [r4, #8]
 113              	.L11:
ARM GAS  /tmp/ccmJtplN.s 			page 3


 114              	.LVL6:
 115              		.loc 1 148 0 is_stmt 1
 116 0032 0135     		adds	r5, r5, #1
 117              	.LVL7:
 118 0034 002D     		cmp	r5, #0
 119              		.loc 1 147 0
 120 0036 A660     		str	r6, [r4, #8]
 121              	.LVL8:
 122              		.loc 1 148 0
 123 0038 0BDC     		bgt	.L7
 124              		.loc 1 149 0
 125 003a 6FF00106 		mvn	r6, #1
 126              	.LVL9:
 127              	.L14:
 128              	.LBB24:
 129              	.LBB25:
 130              		.file 2 "../../../os/kernel/include/chinline.h"
 131              		.loc 2 67 0
 132 003e 6068     		ldr	r0, [r4, #4]
 133              	.LVL10:
 134              		.loc 2 69 0
 135 0040 4368     		ldr	r3, [r0, #4]
 136 0042 6360     		str	r3, [r4, #4]
 137 0044 1C60     		str	r4, [r3]
 138              	.LBE25:
 139              	.LBE24:
 140              		.loc 1 149 0
 141 0046 FFF7FEFF 		bl	chSchReadyI
 142              	.LVL11:
 143              		.loc 1 148 0
 144 004a 0135     		adds	r5, r5, #1
 145              	.LVL12:
 146 004c 012D     		cmp	r5, #1
 147              		.loc 1 149 0
 148 004e 8662     		str	r6, [r0, #40]
 149              	.LVL13:
 150              		.loc 1 148 0
 151 0050 F5D1     		bne	.L14
 152              	.LVL14:
 153              	.L7:
 154 0052 70BD     		pop	{r4, r5, r6, pc}
 155              	.LVL15:
 156              	.L9:
 157              		.loc 1 141 0 discriminator 2
 158 0054 A342     		cmp	r3, r4
 159 0056 ECD1     		bne	.L11
 160 0058 E4E7     		b	.L10
 161              	.L22:
 162              		.loc 1 140 0 discriminator 1
 163 005a 40F20000 		movw	r0, #:lower16:.LC1
 164 005e C0F20000 		movt	r0, #:upper16:.LC1
 165 0062 FFF7FEFF 		bl	chDbgPanic
 166              	.LVL16:
 167 0066 D7E7     		b	.L8
 168              		.cfi_endproc
 169              	.LFE9:
 170              		.size	chSemResetI, .-chSemResetI
ARM GAS  /tmp/ccmJtplN.s 			page 4


 171 0068 AFF30080 		.section	.text.chSemReset,"ax",%progbits
 171      AFF30080 
 172              		.align	2
 173              		.p2align 4,,15
 174              		.global	chSemReset
 175              		.thumb
 176              		.thumb_func
 177              		.type	chSemReset, %function
 178              	chSemReset:
 179              	.LFB8:
 180              		.loc 1 109 0
 181              		.cfi_startproc
 182              		@ args = 0, pretend = 0, frame = 0
 183              		@ frame_needed = 0, uses_anonymous_args = 0
 184              	.LVL17:
 185 0000 38B5     		push	{r3, r4, r5, lr}
 186              		.cfi_def_cfa_offset 16
 187              		.cfi_offset 3, -16
 188              		.cfi_offset 4, -12
 189              		.cfi_offset 5, -8
 190              		.cfi_offset 14, -4
 191              		.loc 1 109 0
 192 0002 0546     		mov	r5, r0
 193 0004 0C46     		mov	r4, r1
 194              	.LBB26:
 195              		.loc 1 111 0
 196 0006 2023     		movs	r3, #32
 197              	@ 111 "../../../os/kernel/src/chsem.c" 1
 198 0008 83F31188 		msr     BASEPRI, r3
 199              	@ 0 "" 2
 200              		.thumb
 201              	.LBE26:
 202 000c FFF7FEFF 		bl	dbg_check_lock
 203              	.LVL18:
 204              		.loc 1 112 0
 205 0010 2846     		mov	r0, r5
 206 0012 2146     		mov	r1, r4
 207 0014 FFF7FEFF 		bl	chSemResetI
 208              	.LVL19:
 209              		.loc 1 113 0
 210 0018 FFF7FEFF 		bl	chSchRescheduleS
 211              	.LVL20:
 212              		.loc 1 114 0
 213 001c FFF7FEFF 		bl	dbg_check_unlock
 214              	.LVL21:
 215              	.LBB27:
 216 0020 0023     		movs	r3, #0
 217              	@ 114 "../../../os/kernel/src/chsem.c" 1
 218 0022 83F31188 		msr     BASEPRI, r3
 219              	@ 0 "" 2
 220              		.thumb
 221 0026 38BD     		pop	{r3, r4, r5, pc}
 222              	.LBE27:
 223              		.cfi_endproc
 224              	.LFE8:
 225              		.size	chSemReset, .-chSemReset
 226 0028 AFF30080 		.section	.text.chSemWaitS,"ax",%progbits
ARM GAS  /tmp/ccmJtplN.s 			page 5


 226      AFF30080 
 227              		.align	2
 228              		.p2align 4,,15
 229              		.global	chSemWaitS
 230              		.thumb
 231              		.thumb_func
 232              		.type	chSemWaitS, %function
 233              	chSemWaitS:
 234              	.LFB11:
 235              		.loc 1 185 0
 236              		.cfi_startproc
 237              		@ args = 0, pretend = 0, frame = 0
 238              		@ frame_needed = 0, uses_anonymous_args = 0
 239              	.LVL22:
 240 0000 38B5     		push	{r3, r4, r5, lr}
 241              		.cfi_def_cfa_offset 16
 242              		.cfi_offset 3, -16
 243              		.cfi_offset 4, -12
 244              		.cfi_offset 5, -8
 245              		.cfi_offset 14, -4
 246              		.loc 1 185 0
 247 0002 0446     		mov	r4, r0
 248              		.loc 1 187 0
 249 0004 FFF7FEFF 		bl	chDbgCheckClassS
 250              	.LVL23:
 251              		.loc 1 188 0
 252 0008 4CB3     		cbz	r4, .L33
 253              	.L25:
 254              		.loc 1 189 0
 255 000a A368     		ldr	r3, [r4, #8]
 256 000c 2268     		ldr	r2, [r4]
 257 000e 002B     		cmp	r3, #0
 258 0010 0EDB     		blt	.L26
 259              		.loc 1 189 0 is_stmt 0 discriminator 2
 260 0012 A242     		cmp	r2, r4
 261 0014 06D0     		beq	.L28
 262              	.L27:
 263              		.loc 1 189 0 discriminator 1
 264 0016 40F20000 		movw	r0, #:lower16:.LC4
 265 001a C0F20000 		movt	r0, #:upper16:.LC4
 266 001e FFF7FEFF 		bl	chDbgPanic
 267              	.LVL24:
 268 0022 A368     		ldr	r3, [r4, #8]
 269              	.L28:
 270              		.loc 1 194 0 is_stmt 1
 271 0024 013B     		subs	r3, r3, #1
 272 0026 002B     		cmp	r3, #0
 273 0028 A360     		str	r3, [r4, #8]
 274 002a 07DB     		blt	.L34
 275              	.L31:
 276              		.loc 1 200 0
 277 002c 0020     		movs	r0, #0
 278              		.loc 1 201 0
 279 002e 38BD     		pop	{r3, r4, r5, pc}
 280              	.LVL25:
 281              	.L26:
 282              		.loc 1 189 0 discriminator 2
ARM GAS  /tmp/ccmJtplN.s 			page 6


 283 0030 A242     		cmp	r2, r4
 284 0032 F0D0     		beq	.L27
 285              		.loc 1 194 0
 286 0034 013B     		subs	r3, r3, #1
 287 0036 002B     		cmp	r3, #0
 288 0038 A360     		str	r3, [r4, #8]
 289 003a F7DA     		bge	.L31
 290              	.L34:
 291              		.loc 1 195 0
 292 003c 40F20005 		movw	r5, #:lower16:rlist
 293 0040 C0F20005 		movt	r5, #:upper16:rlist
 294              		.loc 1 197 0
 295 0044 0320     		movs	r0, #3
 296              		.loc 1 195 0
 297 0046 AB69     		ldr	r3, [r5, #24]
 298 0048 9C62     		str	r4, [r3, #40]
 299              	.LVL26:
 300              	.LBB28:
 301              	.LBB29:
 302              		.loc 2 55 0
 303 004a 6268     		ldr	r2, [r4, #4]
 304              		.loc 2 54 0
 305 004c 1C60     		str	r4, [r3]
 306              		.loc 2 55 0
 307 004e 5A60     		str	r2, [r3, #4]
 308              		.loc 2 56 0
 309 0050 6360     		str	r3, [r4, #4]
 310              	.LVL27:
 311 0052 1360     		str	r3, [r2]
 312              	.LVL28:
 313              	.LBE29:
 314              	.LBE28:
 315              		.loc 1 197 0
 316 0054 FFF7FEFF 		bl	chSchGoSleepS
 317              	.LVL29:
 318              		.loc 1 198 0
 319 0058 AB69     		ldr	r3, [r5, #24]
 320 005a 986A     		ldr	r0, [r3, #40]
 321 005c 38BD     		pop	{r3, r4, r5, pc}
 322              	.LVL30:
 323              	.L33:
 324              		.loc 1 188 0 discriminator 1
 325 005e 40F20000 		movw	r0, #:lower16:.LC3
 326 0062 C0F20000 		movt	r0, #:upper16:.LC3
 327 0066 FFF7FEFF 		bl	chDbgPanic
 328              	.LVL31:
 329 006a CEE7     		b	.L25
 330              		.cfi_endproc
 331              	.LFE11:
 332              		.size	chSemWaitS, .-chSemWaitS
 333 006c AFF30080 		.section	.text.chSemWait,"ax",%progbits
 334              		.align	2
 335              		.p2align 4,,15
 336              		.global	chSemWait
 337              		.thumb
 338              		.thumb_func
 339              		.type	chSemWait, %function
ARM GAS  /tmp/ccmJtplN.s 			page 7


 340              	chSemWait:
 341              	.LFB10:
 342              		.loc 1 164 0
 343              		.cfi_startproc
 344              		@ args = 0, pretend = 0, frame = 0
 345              		@ frame_needed = 0, uses_anonymous_args = 0
 346              	.LVL32:
 347 0000 10B5     		push	{r4, lr}
 348              		.cfi_def_cfa_offset 8
 349              		.cfi_offset 4, -8
 350              		.cfi_offset 14, -4
 351              	.LBB30:
 352              		.loc 1 167 0
 353 0002 2023     		movs	r3, #32
 354              	.LBE30:
 355              		.loc 1 164 0
 356 0004 0446     		mov	r4, r0
 357              	.LBB31:
 358              		.loc 1 167 0
 359              	@ 167 "../../../os/kernel/src/chsem.c" 1
 360 0006 83F31188 		msr     BASEPRI, r3
 361              	@ 0 "" 2
 362              		.thumb
 363              	.LBE31:
 364 000a FFF7FEFF 		bl	dbg_check_lock
 365              	.LVL33:
 366              		.loc 1 168 0
 367 000e 2046     		mov	r0, r4
 368 0010 FFF7FEFF 		bl	chSemWaitS
 369              	.LVL34:
 370 0014 0446     		mov	r4, r0
 371              	.LVL35:
 372              		.loc 1 169 0
 373 0016 FFF7FEFF 		bl	dbg_check_unlock
 374              	.LVL36:
 375              	.LBB32:
 376 001a 0023     		movs	r3, #0
 377              	@ 169 "../../../os/kernel/src/chsem.c" 1
 378 001c 83F31188 		msr     BASEPRI, r3
 379              	@ 0 "" 2
 380              		.thumb
 381              	.LBE32:
 382              		.loc 1 171 0
 383 0020 2046     		mov	r0, r4
 384 0022 10BD     		pop	{r4, pc}
 385              		.cfi_endproc
 386              	.LFE10:
 387              		.size	chSemWait, .-chSemWait
 388 0024 AFF30080 		.section	.text.chSemWaitTimeoutS,"ax",%progbits
 388      AFF30080 
 388      AFF30080 
 389              		.align	2
 390              		.p2align 4,,15
 391              		.global	chSemWaitTimeoutS
 392              		.thumb
 393              		.thumb_func
 394              		.type	chSemWaitTimeoutS, %function
ARM GAS  /tmp/ccmJtplN.s 			page 8


 395              	chSemWaitTimeoutS:
 396              	.LFB13:
 397              		.loc 1 250 0
 398              		.cfi_startproc
 399              		@ args = 0, pretend = 0, frame = 0
 400              		@ frame_needed = 0, uses_anonymous_args = 0
 401              	.LVL37:
 402 0000 38B5     		push	{r3, r4, r5, lr}
 403              		.cfi_def_cfa_offset 16
 404              		.cfi_offset 3, -16
 405              		.cfi_offset 4, -12
 406              		.cfi_offset 5, -8
 407              		.cfi_offset 14, -4
 408              		.loc 1 250 0
 409 0002 0446     		mov	r4, r0
 410 0004 0D46     		mov	r5, r1
 411              		.loc 1 252 0
 412 0006 FFF7FEFF 		bl	chDbgCheckClassS
 413              	.LVL38:
 414              		.loc 1 253 0
 415 000a 5CB3     		cbz	r4, .L45
 416              	.L37:
 417              		.loc 1 254 0
 418 000c A368     		ldr	r3, [r4, #8]
 419 000e 2268     		ldr	r2, [r4]
 420 0010 002B     		cmp	r3, #0
 421 0012 0EDB     		blt	.L38
 422              		.loc 1 254 0 is_stmt 0 discriminator 2
 423 0014 A242     		cmp	r2, r4
 424 0016 0ED0     		beq	.L43
 425              	.L39:
 426              		.loc 1 254 0 discriminator 1
 427 0018 40F20000 		movw	r0, #:lower16:.LC6
 428 001c C0F20000 		movt	r0, #:upper16:.LC6
 429 0020 FFF7FEFF 		bl	chDbgPanic
 430              	.LVL39:
 431 0024 A268     		ldr	r2, [r4, #8]
 432              		.loc 1 259 0 is_stmt 1 discriminator 1
 433 0026 531E     		subs	r3, r2, #1
 434 0028 002B     		cmp	r3, #0
 435 002a A360     		str	r3, [r4, #8]
 436 002c 08DB     		blt	.L46
 437              	.L44:
 438              		.loc 1 268 0
 439 002e 0020     		movs	r0, #0
 440              		.loc 1 269 0
 441 0030 38BD     		pop	{r3, r4, r5, pc}
 442              	.LVL40:
 443              	.L38:
 444              		.loc 1 254 0 discriminator 2
 445 0032 A242     		cmp	r2, r4
 446 0034 F0D0     		beq	.L39
 447              	.L43:
 448 0036 1A46     		mov	r2, r3
 449              		.loc 1 259 0
 450 0038 531E     		subs	r3, r2, #1
 451 003a 002B     		cmp	r3, #0
ARM GAS  /tmp/ccmJtplN.s 			page 9


 452 003c A360     		str	r3, [r4, #8]
 453 003e F6DA     		bge	.L44
 454              	.L46:
 455              		.loc 1 260 0
 456 0040 BDB1     		cbz	r5, .L47
 457              		.loc 1 264 0
 458 0042 40F20003 		movw	r3, #:lower16:rlist
 459 0046 C0F20003 		movt	r3, #:upper16:rlist
 460              		.loc 1 266 0
 461 004a 2946     		mov	r1, r5
 462              		.loc 1 264 0
 463 004c 9B69     		ldr	r3, [r3, #24]
 464 004e 9C62     		str	r4, [r3, #40]
 465              	.LVL41:
 466              	.LBB33:
 467              	.LBB34:
 468              		.loc 2 55 0
 469 0050 6268     		ldr	r2, [r4, #4]
 470              		.loc 2 54 0
 471 0052 1C60     		str	r4, [r3]
 472              		.loc 2 55 0
 473 0054 5A60     		str	r2, [r3, #4]
 474              	.LBE34:
 475              	.LBE33:
 476              		.loc 1 266 0
 477 0056 0320     		movs	r0, #3
 478              	.LBB36:
 479              	.LBB35:
 480              		.loc 2 56 0
 481 0058 6360     		str	r3, [r4, #4]
 482              	.LVL42:
 483 005a 1360     		str	r3, [r2]
 484              	.LVL43:
 485              	.LBE35:
 486              	.LBE36:
 487              		.loc 1 269 0
 488 005c BDE83840 		pop	{r3, r4, r5, lr}
 489              	.LVL44:
 490              		.loc 1 266 0
 491 0060 FFF7FEBF 		b	chSchGoSleepTimeoutS
 492              	.LVL45:
 493              	.L45:
 494              		.loc 1 253 0 discriminator 1
 495 0064 40F20000 		movw	r0, #:lower16:.LC5
 496 0068 C0F20000 		movt	r0, #:upper16:.LC5
 497 006c FFF7FEFF 		bl	chDbgPanic
 498              	.LVL46:
 499 0070 CCE7     		b	.L37
 500              	.L47:
 501              		.loc 1 261 0
 502 0072 A260     		str	r2, [r4, #8]
 503              		.loc 1 262 0
 504 0074 4FF0FF30 		mov	r0, #-1
 505 0078 38BD     		pop	{r3, r4, r5, pc}
 506              		.cfi_endproc
 507              	.LFE13:
 508              		.size	chSemWaitTimeoutS, .-chSemWaitTimeoutS
ARM GAS  /tmp/ccmJtplN.s 			page 10


 509 007a 00BFAFF3 		.section	.text.chSemWaitTimeout,"ax",%progbits
 509      0080
 510              		.align	2
 511              		.p2align 4,,15
 512              		.global	chSemWaitTimeout
 513              		.thumb
 514              		.thumb_func
 515              		.type	chSemWaitTimeout, %function
 516              	chSemWaitTimeout:
 517              	.LFB12:
 518              		.loc 1 222 0
 519              		.cfi_startproc
 520              		@ args = 0, pretend = 0, frame = 0
 521              		@ frame_needed = 0, uses_anonymous_args = 0
 522              	.LVL47:
 523 0000 38B5     		push	{r3, r4, r5, lr}
 524              		.cfi_def_cfa_offset 16
 525              		.cfi_offset 3, -16
 526              		.cfi_offset 4, -12
 527              		.cfi_offset 5, -8
 528              		.cfi_offset 14, -4
 529              		.loc 1 222 0
 530 0002 0546     		mov	r5, r0
 531 0004 0C46     		mov	r4, r1
 532              	.LBB37:
 533              		.loc 1 225 0
 534 0006 2023     		movs	r3, #32
 535              	@ 225 "../../../os/kernel/src/chsem.c" 1
 536 0008 83F31188 		msr     BASEPRI, r3
 537              	@ 0 "" 2
 538              		.thumb
 539              	.LBE37:
 540 000c FFF7FEFF 		bl	dbg_check_lock
 541              	.LVL48:
 542              		.loc 1 226 0
 543 0010 2146     		mov	r1, r4
 544 0012 2846     		mov	r0, r5
 545 0014 FFF7FEFF 		bl	chSemWaitTimeoutS
 546              	.LVL49:
 547 0018 0446     		mov	r4, r0
 548              	.LVL50:
 549              		.loc 1 227 0
 550 001a FFF7FEFF 		bl	dbg_check_unlock
 551              	.LVL51:
 552              	.LBB38:
 553 001e 0023     		movs	r3, #0
 554              	@ 227 "../../../os/kernel/src/chsem.c" 1
 555 0020 83F31188 		msr     BASEPRI, r3
 556              	@ 0 "" 2
 557              		.thumb
 558              	.LBE38:
 559              		.loc 1 229 0
 560 0024 2046     		mov	r0, r4
 561 0026 38BD     		pop	{r3, r4, r5, pc}
 562              		.cfi_endproc
 563              	.LFE12:
 564              		.size	chSemWaitTimeout, .-chSemWaitTimeout
ARM GAS  /tmp/ccmJtplN.s 			page 11


 565 0028 AFF30080 		.section	.text.chSemSignal,"ax",%progbits
 565      AFF30080 
 566              		.align	2
 567              		.p2align 4,,15
 568              		.global	chSemSignal
 569              		.thumb
 570              		.thumb_func
 571              		.type	chSemSignal, %function
 572              	chSemSignal:
 573              	.LFB14:
 574              		.loc 1 278 0
 575              		.cfi_startproc
 576              		@ args = 0, pretend = 0, frame = 0
 577              		@ frame_needed = 0, uses_anonymous_args = 0
 578              	.LVL52:
 579 0000 10B5     		push	{r4, lr}
 580              		.cfi_def_cfa_offset 8
 581              		.cfi_offset 4, -8
 582              		.cfi_offset 14, -4
 583              		.loc 1 280 0
 584 0002 0446     		mov	r4, r0
 585 0004 58B3     		cbz	r0, .L55
 586              	.LVL53:
 587              	.L50:
 588              		.loc 1 281 0
 589 0006 A368     		ldr	r3, [r4, #8]
 590 0008 002B     		cmp	r3, #0
 591 000a 2368     		ldr	r3, [r4]
 592 000c 17DB     		blt	.L51
 593              		.loc 1 281 0 is_stmt 0 discriminator 2
 594 000e A342     		cmp	r3, r4
 595 0010 05D0     		beq	.L53
 596              	.L52:
 597              		.loc 1 281 0 discriminator 1
 598 0012 40F20000 		movw	r0, #:lower16:.LC8
 599 0016 C0F20000 		movt	r0, #:upper16:.LC8
 600 001a FFF7FEFF 		bl	chDbgPanic
 601              	.LVL54:
 602              	.L53:
 603              	.LBB39:
 604              		.loc 1 286 0 is_stmt 1
 605 001e 2023     		movs	r3, #32
 606              	@ 286 "../../../os/kernel/src/chsem.c" 1
 607 0020 83F31188 		msr     BASEPRI, r3
 608              	@ 0 "" 2
 609              		.thumb
 610              	.LBE39:
 611 0024 FFF7FEFF 		bl	dbg_check_lock
 612              	.LVL55:
 613              		.loc 1 287 0
 614 0028 A368     		ldr	r3, [r4, #8]
 615 002a 0133     		adds	r3, r3, #1
 616 002c 002B     		cmp	r3, #0
 617 002e A360     		str	r3, [r4, #8]
 618 0030 08DD     		ble	.L56
 619              		.loc 1 289 0
 620 0032 FFF7FEFF 		bl	dbg_check_unlock
ARM GAS  /tmp/ccmJtplN.s 			page 12


 621              	.LVL56:
 622              	.LBB40:
 623 0036 0023     		movs	r3, #0
 624              	@ 289 "../../../os/kernel/src/chsem.c" 1
 625 0038 83F31188 		msr     BASEPRI, r3
 626              	@ 0 "" 2
 627              		.thumb
 628 003c 10BD     		pop	{r4, pc}
 629              	.LVL57:
 630              	.L51:
 631              	.LBE40:
 632              		.loc 1 281 0 discriminator 2
 633 003e A342     		cmp	r3, r4
 634 0040 EDD1     		bne	.L53
 635 0042 E6E7     		b	.L52
 636              	.L56:
 637              	.LVL58:
 638              	.LBB41:
 639              	.LBB42:
 640              		.loc 2 60 0
 641 0044 2068     		ldr	r0, [r4]
 642              	.LVL59:
 643              		.loc 2 62 0
 644 0046 0368     		ldr	r3, [r0]
 645              	.LBE42:
 646              	.LBE41:
 647              		.loc 1 288 0
 648 0048 0021     		movs	r1, #0
 649              	.LBB44:
 650              	.LBB43:
 651              		.loc 2 62 0
 652 004a 2360     		str	r3, [r4]
 653 004c 5C60     		str	r4, [r3, #4]
 654              	.LBE43:
 655              	.LBE44:
 656              		.loc 1 288 0
 657 004e FFF7FEFF 		bl	chSchWakeupS
 658              	.LVL60:
 659              		.loc 1 289 0
 660 0052 FFF7FEFF 		bl	dbg_check_unlock
 661              	.LVL61:
 662              	.LBB45:
 663 0056 0023     		movs	r3, #0
 664              	@ 289 "../../../os/kernel/src/chsem.c" 1
 665 0058 83F31188 		msr     BASEPRI, r3
 666              	@ 0 "" 2
 667              		.thumb
 668 005c 10BD     		pop	{r4, pc}
 669              	.LVL62:
 670              	.L55:
 671              	.LBE45:
 672              		.loc 1 280 0 discriminator 1
 673 005e 40F20000 		movw	r0, #:lower16:.LC7
 674              	.LVL63:
 675 0062 C0F20000 		movt	r0, #:upper16:.LC7
 676 0066 FFF7FEFF 		bl	chDbgPanic
 677              	.LVL64:
ARM GAS  /tmp/ccmJtplN.s 			page 13


 678 006a CCE7     		b	.L50
 679              		.cfi_endproc
 680              	.LFE14:
 681              		.size	chSemSignal, .-chSemSignal
 682 006c AFF30080 		.section	.text.chSemSignalI,"ax",%progbits
 683              		.align	2
 684              		.p2align 4,,15
 685              		.global	chSemSignalI
 686              		.thumb
 687              		.thumb_func
 688              		.type	chSemSignalI, %function
 689              	chSemSignalI:
 690              	.LFB15:
 691              		.loc 1 303 0
 692              		.cfi_startproc
 693              		@ args = 0, pretend = 0, frame = 0
 694              		@ frame_needed = 0, uses_anonymous_args = 0
 695              	.LVL65:
 696 0000 10B5     		push	{r4, lr}
 697              		.cfi_def_cfa_offset 8
 698              		.cfi_offset 4, -8
 699              		.cfi_offset 14, -4
 700              		.loc 1 303 0
 701 0002 0446     		mov	r4, r0
 702              		.loc 1 305 0
 703 0004 FFF7FEFF 		bl	chDbgCheckClassI
 704              	.LVL66:
 705              		.loc 1 306 0
 706 0008 14B3     		cbz	r4, .L65
 707              	.L58:
 708              		.loc 1 307 0
 709 000a A368     		ldr	r3, [r4, #8]
 710 000c 2268     		ldr	r2, [r4]
 711 000e 002B     		cmp	r3, #0
 712 0010 0DDB     		blt	.L59
 713              		.loc 1 307 0 is_stmt 0 discriminator 2
 714 0012 A242     		cmp	r2, r4
 715 0014 06D0     		beq	.L61
 716              	.L60:
 717              		.loc 1 307 0 discriminator 1
 718 0016 40F20000 		movw	r0, #:lower16:.LC10
 719 001a C0F20000 		movt	r0, #:upper16:.LC10
 720 001e FFF7FEFF 		bl	chDbgPanic
 721              	.LVL67:
 722 0022 A368     		ldr	r3, [r4, #8]
 723              	.L61:
 724              		.loc 1 312 0 is_stmt 1
 725 0024 0133     		adds	r3, r3, #1
 726 0026 002B     		cmp	r3, #0
 727 0028 A360     		str	r3, [r4, #8]
 728 002a 06DD     		ble	.L66
 729              	.L57:
 730 002c 10BD     		pop	{r4, pc}
 731              	.LVL68:
 732              	.L59:
 733              		.loc 1 307 0 discriminator 2
 734 002e A242     		cmp	r2, r4
ARM GAS  /tmp/ccmJtplN.s 			page 14


 735 0030 F1D0     		beq	.L60
 736              		.loc 1 312 0
 737 0032 0133     		adds	r3, r3, #1
 738 0034 002B     		cmp	r3, #0
 739 0036 A360     		str	r3, [r4, #8]
 740 0038 F8DC     		bgt	.L57
 741              	.L66:
 742              	.LVL69:
 743              	.LBB46:
 744              	.LBB47:
 745              	.LBB48:
 746              		.loc 2 60 0
 747 003a 2368     		ldr	r3, [r4]
 748              	.LVL70:
 749              		.loc 2 62 0
 750 003c 1A68     		ldr	r2, [r3]
 751              	.LBE48:
 752              	.LBE47:
 753              		.loc 1 316 0
 754 003e 0021     		movs	r1, #0
 755              	.LBB50:
 756              	.LBB49:
 757              		.loc 2 62 0
 758 0040 2260     		str	r2, [r4]
 759 0042 5460     		str	r4, [r2, #4]
 760              	.LBE49:
 761              	.LBE50:
 762              		.loc 1 316 0
 763 0044 9962     		str	r1, [r3, #40]
 764              		.loc 1 317 0
 765 0046 1846     		mov	r0, r3
 766              	.LBE46:
 767              		.loc 1 319 0
 768 0048 BDE81040 		pop	{r4, lr}
 769              	.LVL71:
 770              	.LBB51:
 771              		.loc 1 317 0
 772 004c FFF7FEBF 		b	chSchReadyI
 773              	.LVL72:
 774              	.L65:
 775              	.LBE51:
 776              		.loc 1 306 0 discriminator 1
 777 0050 40F20000 		movw	r0, #:lower16:.LC9
 778 0054 C0F20000 		movt	r0, #:upper16:.LC9
 779 0058 FFF7FEFF 		bl	chDbgPanic
 780              	.LVL73:
 781 005c D5E7     		b	.L58
 782              		.cfi_endproc
 783              	.LFE15:
 784              		.size	chSemSignalI, .-chSemSignalI
 785 005e 00BF     		.section	.text.chSemAddCounterI,"ax",%progbits
 786              		.align	2
 787              		.p2align 4,,15
 788              		.global	chSemAddCounterI
 789              		.thumb
 790              		.thumb_func
 791              		.type	chSemAddCounterI, %function
ARM GAS  /tmp/ccmJtplN.s 			page 15


 792              	chSemAddCounterI:
 793              	.LFB16:
 794              		.loc 1 334 0
 795              		.cfi_startproc
 796              		@ args = 0, pretend = 0, frame = 0
 797              		@ frame_needed = 0, uses_anonymous_args = 0
 798              	.LVL74:
 799 0000 70B5     		push	{r4, r5, r6, lr}
 800              		.cfi_def_cfa_offset 16
 801              		.cfi_offset 4, -16
 802              		.cfi_offset 5, -12
 803              		.cfi_offset 6, -8
 804              		.cfi_offset 14, -4
 805              		.loc 1 334 0
 806 0002 0546     		mov	r5, r0
 807 0004 0C46     		mov	r4, r1
 808              		.loc 1 336 0
 809 0006 FFF7FEFF 		bl	chDbgCheckClassI
 810              	.LVL75:
 811              		.loc 1 337 0
 812 000a 002D     		cmp	r5, #0
 813 000c 18BF     		it	ne
 814 000e 002C     		cmpne	r4, #0
 815 0010 23DD     		ble	.L82
 816              	.L68:
 817              		.loc 1 338 0
 818 0012 AB68     		ldr	r3, [r5, #8]
 819 0014 002B     		cmp	r3, #0
 820 0016 2B68     		ldr	r3, [r5]
 821 0018 1CDB     		blt	.L69
 822              		.loc 1 338 0 is_stmt 0 discriminator 2
 823 001a AB42     		cmp	r3, r5
 824 001c 05D0     		beq	.L71
 825              	.L70:
 826              		.loc 1 338 0 discriminator 1
 827 001e 40F20000 		movw	r0, #:lower16:.LC12
 828 0022 C0F20000 		movt	r0, #:upper16:.LC12
 829 0026 FFF7FEFF 		bl	chDbgPanic
 830              	.LVL76:
 831              	.L71:
 832              		.loc 1 343 0 is_stmt 1 discriminator 1
 833 002a 002C     		cmp	r4, #0
 834 002c 11DD     		ble	.L67
 835              		.loc 1 345 0
 836 002e 0026     		movs	r6, #0
 837 0030 01E0     		b	.L75
 838              	.L73:
 839              	.LVL77:
 840              		.loc 1 343 0
 841 0032 013C     		subs	r4, r4, #1
 842              	.LVL78:
 843 0034 0DD0     		beq	.L67
 844              	.LVL79:
 845              	.L75:
 846              		.loc 1 344 0
 847 0036 AB68     		ldr	r3, [r5, #8]
 848 0038 0133     		adds	r3, r3, #1
ARM GAS  /tmp/ccmJtplN.s 			page 16


 849 003a 002B     		cmp	r3, #0
 850 003c AB60     		str	r3, [r5, #8]
 851 003e F8DC     		bgt	.L73
 852              	.LVL80:
 853              	.LBB52:
 854              	.LBB53:
 855              		.loc 2 60 0
 856 0040 2868     		ldr	r0, [r5]
 857              	.LVL81:
 858              		.loc 2 62 0
 859 0042 0368     		ldr	r3, [r0]
 860 0044 2B60     		str	r3, [r5]
 861 0046 5D60     		str	r5, [r3, #4]
 862              	.LBE53:
 863              	.LBE52:
 864              		.loc 1 345 0
 865 0048 FFF7FEFF 		bl	chSchReadyI
 866              	.LVL82:
 867              		.loc 1 343 0
 868 004c 013C     		subs	r4, r4, #1
 869              	.LVL83:
 870              		.loc 1 345 0
 871 004e 8662     		str	r6, [r0, #40]
 872              	.LVL84:
 873              		.loc 1 343 0
 874 0050 F1D1     		bne	.L75
 875              	.LVL85:
 876              	.L67:
 877 0052 70BD     		pop	{r4, r5, r6, pc}
 878              	.LVL86:
 879              	.L69:
 880              		.loc 1 338 0 discriminator 2
 881 0054 AB42     		cmp	r3, r5
 882 0056 E8D1     		bne	.L71
 883 0058 E1E7     		b	.L70
 884              	.L82:
 885              		.loc 1 337 0 discriminator 1
 886 005a 40F20000 		movw	r0, #:lower16:.LC11
 887 005e C0F20000 		movt	r0, #:upper16:.LC11
 888 0062 FFF7FEFF 		bl	chDbgPanic
 889              	.LVL87:
 890 0066 D4E7     		b	.L68
 891              		.cfi_endproc
 892              	.LFE16:
 893              		.size	chSemAddCounterI, .-chSemAddCounterI
 894 0068 AFF30080 		.section	.text.chSemSignalWait,"ax",%progbits
 894      AFF30080 
 895              		.align	2
 896              		.p2align 4,,15
 897              		.global	chSemSignalWait
 898              		.thumb
 899              		.thumb_func
 900              		.type	chSemSignalWait, %function
 901              	chSemSignalWait:
 902              	.LFB17:
 903              		.loc 1 366 0
 904              		.cfi_startproc
ARM GAS  /tmp/ccmJtplN.s 			page 17


 905              		@ args = 0, pretend = 0, frame = 0
 906              		@ frame_needed = 0, uses_anonymous_args = 0
 907              	.LVL88:
 908              		.loc 1 369 0
 909 0000 0029     		cmp	r1, #0
 910 0002 18BF     		it	ne
 911 0004 0028     		cmpne	r0, #0
 912              		.loc 1 366 0
 913 0006 38B5     		push	{r3, r4, r5, lr}
 914              		.cfi_def_cfa_offset 16
 915              		.cfi_offset 3, -16
 916              		.cfi_offset 4, -12
 917              		.cfi_offset 5, -8
 918              		.cfi_offset 14, -4
 919              		.loc 1 369 0
 920 0008 0546     		mov	r5, r0
 921 000a 0C46     		mov	r4, r1
 922 000c 39D0     		beq	.L98
 923              	.LVL89:
 924              	.L84:
 925              		.loc 1 370 0
 926 000e AB68     		ldr	r3, [r5, #8]
 927 0010 002B     		cmp	r3, #0
 928 0012 2B68     		ldr	r3, [r5]
 929 0014 2CDB     		blt	.L85
 930              		.loc 1 370 0 is_stmt 0 discriminator 2
 931 0016 AB42     		cmp	r3, r5
 932 0018 05D0     		beq	.L87
 933              	.L86:
 934              		.loc 1 370 0 discriminator 1
 935 001a 40F20000 		movw	r0, #:lower16:.LC14
 936 001e C0F20000 		movt	r0, #:upper16:.LC14
 937 0022 FFF7FEFF 		bl	chDbgPanic
 938              	.LVL90:
 939              	.L87:
 940              		.loc 1 374 0 is_stmt 1
 941 0026 A368     		ldr	r3, [r4, #8]
 942 0028 002B     		cmp	r3, #0
 943 002a 2368     		ldr	r3, [r4]
 944 002c 26DB     		blt	.L88
 945              	.L101:
 946              		.loc 1 374 0 is_stmt 0 discriminator 2
 947 002e A342     		cmp	r3, r4
 948 0030 05D0     		beq	.L90
 949              	.L89:
 950              		.loc 1 374 0 discriminator 1
 951 0032 40F20000 		movw	r0, #:lower16:.LC15
 952 0036 C0F20000 		movt	r0, #:upper16:.LC15
 953 003a FFF7FEFF 		bl	chDbgPanic
 954              	.LVL91:
 955              	.L90:
 956              	.LBB54:
 957              		.loc 1 379 0 is_stmt 1
 958 003e 2023     		movs	r3, #32
 959              	@ 379 "../../../os/kernel/src/chsem.c" 1
 960 0040 83F31188 		msr     BASEPRI, r3
 961              	@ 0 "" 2
ARM GAS  /tmp/ccmJtplN.s 			page 18


 962              		.thumb
 963              	.LBE54:
 964 0044 FFF7FEFF 		bl	dbg_check_lock
 965              	.LVL92:
 966              		.loc 1 380 0
 967 0048 AB68     		ldr	r3, [r5, #8]
 968 004a 0133     		adds	r3, r3, #1
 969 004c 002B     		cmp	r3, #0
 970 004e AB60     		str	r3, [r5, #8]
 971 0050 2EDD     		ble	.L99
 972              	.L91:
 973              		.loc 1 382 0
 974 0052 A368     		ldr	r3, [r4, #8]
 975 0054 013B     		subs	r3, r3, #1
 976 0056 002B     		cmp	r3, #0
 977 0058 A360     		str	r3, [r4, #8]
 978 005a 19DB     		blt	.L100
 979              		.loc 1 390 0
 980 005c FFF7FEFF 		bl	chSchRescheduleS
 981              	.LVL93:
 982              		.loc 1 391 0
 983 0060 0024     		movs	r4, #0
 984              	.LVL94:
 985              	.L93:
 986              		.loc 1 393 0
 987 0062 FFF7FEFF 		bl	dbg_check_unlock
 988              	.LVL95:
 989              	.LBB55:
 990 0066 0023     		movs	r3, #0
 991              	@ 393 "../../../os/kernel/src/chsem.c" 1
 992 0068 83F31188 		msr     BASEPRI, r3
 993              	@ 0 "" 2
 994              		.thumb
 995              	.LBE55:
 996              		.loc 1 395 0
 997 006c 2046     		mov	r0, r4
 998 006e 38BD     		pop	{r3, r4, r5, pc}
 999              	.LVL96:
 1000              	.L85:
 1001              		.loc 1 370 0 discriminator 2
 1002 0070 AB42     		cmp	r3, r5
 1003 0072 D2D0     		beq	.L86
 1004              		.loc 1 374 0
 1005 0074 A368     		ldr	r3, [r4, #8]
 1006 0076 002B     		cmp	r3, #0
 1007 0078 2368     		ldr	r3, [r4]
 1008 007a D8DA     		bge	.L101
 1009              	.L88:
 1010              		.loc 1 374 0 is_stmt 0 discriminator 2
 1011 007c A342     		cmp	r3, r4
 1012 007e DED1     		bne	.L90
 1013 0080 D7E7     		b	.L89
 1014              	.LVL97:
 1015              	.L98:
 1016              		.loc 1 369 0 is_stmt 1 discriminator 1
 1017 0082 40F20000 		movw	r0, #:lower16:.LC13
 1018              	.LVL98:
ARM GAS  /tmp/ccmJtplN.s 			page 19


 1019 0086 C0F20000 		movt	r0, #:upper16:.LC13
 1020 008a FFF7FEFF 		bl	chDbgPanic
 1021              	.LVL99:
 1022 008e BEE7     		b	.L84
 1023              	.L100:
 1024              	.LBB56:
 1025              		.loc 1 383 0
 1026 0090 40F20003 		movw	r3, #:lower16:rlist
 1027 0094 C0F20003 		movt	r3, #:upper16:rlist
 1028              	.LBB57:
 1029              	.LBB58:
 1030              		.loc 2 55 0
 1031 0098 6268     		ldr	r2, [r4, #4]
 1032              	.LBE58:
 1033              	.LBE57:
 1034              		.loc 1 383 0
 1035 009a 9D69     		ldr	r5, [r3, #24]
 1036              	.LVL100:
 1037              		.loc 1 386 0
 1038 009c 0320     		movs	r0, #3
 1039              	.LBB60:
 1040              	.LBB59:
 1041              		.loc 2 54 0
 1042 009e 2C60     		str	r4, [r5]
 1043              		.loc 2 55 0
 1044 00a0 6A60     		str	r2, [r5, #4]
 1045              		.loc 2 56 0
 1046 00a2 6560     		str	r5, [r4, #4]
 1047 00a4 1560     		str	r5, [r2]
 1048              	.LBE59:
 1049              	.LBE60:
 1050              		.loc 1 385 0
 1051 00a6 AC62     		str	r4, [r5, #40]
 1052              		.loc 1 386 0
 1053 00a8 FFF7FEFF 		bl	chSchGoSleepS
 1054              	.LVL101:
 1055              		.loc 1 387 0
 1056 00ac AC6A     		ldr	r4, [r5, #40]
 1057              	.LVL102:
 1058              	.LBE56:
 1059 00ae D8E7     		b	.L93
 1060              	.LVL103:
 1061              	.L99:
 1062              	.LBB61:
 1063              	.LBB62:
 1064              		.loc 2 60 0
 1065 00b0 2868     		ldr	r0, [r5]
 1066              	.LVL104:
 1067              		.loc 2 62 0
 1068 00b2 0368     		ldr	r3, [r0]
 1069 00b4 2B60     		str	r3, [r5]
 1070 00b6 5D60     		str	r5, [r3, #4]
 1071              	.LBE62:
 1072              	.LBE61:
 1073              		.loc 1 381 0
 1074 00b8 FFF7FEFF 		bl	chSchReadyI
 1075              	.LVL105:
ARM GAS  /tmp/ccmJtplN.s 			page 20


 1076 00bc 0023     		movs	r3, #0
 1077 00be 8362     		str	r3, [r0, #40]
 1078 00c0 C7E7     		b	.L91
 1079              		.cfi_endproc
 1080              	.LFE17:
 1081              		.size	chSemSignalWait, .-chSemSignalWait
 1082 00c2 00BFAFF3 		.section	.rodata.str1.4,"aMS",%progbits,1
 1082      0080AFF3 
 1082      0080AFF3 
 1082      0080
 1083              		.align	2
 1084              	.LC0:
 1085 0000 22636853 		.ascii	"\"chSemInit\"()\000"
 1085      656D496E 
 1085      69742228 
 1085      2900
 1086 000e 0000     		.space	2
 1087              	.LC1:
 1088 0010 22636853 		.ascii	"\"chSemResetI\"()\000"
 1088      656D5265 
 1088      73657449 
 1088      22282900 
 1089              	.LC2:
 1090 0020 63685365 		.ascii	"chSemResetI(), #1\000"
 1090      6D526573 
 1090      65744928 
 1090      292C2023 
 1090      3100
 1091 0032 0000     		.space	2
 1092              	.LC3:
 1093 0034 22636853 		.ascii	"\"chSemWaitS\"()\000"
 1093      656D5761 
 1093      69745322 
 1093      282900
 1094 0043 00       		.space	1
 1095              	.LC4:
 1096 0044 63685365 		.ascii	"chSemWaitS(), #1\000"
 1096      6D576169 
 1096      74532829 
 1096      2C202331 
 1096      00
 1097 0055 000000   		.space	3
 1098              	.LC5:
 1099 0058 22636853 		.ascii	"\"chSemWaitTimeoutS\"()\000"
 1099      656D5761 
 1099      69745469 
 1099      6D656F75 
 1099      74532228 
 1100 006e 0000     		.space	2
 1101              	.LC6:
 1102 0070 63685365 		.ascii	"chSemWaitTimeoutS(), #1\000"
 1102      6D576169 
 1102      7454696D 
 1102      656F7574 
 1102      5328292C 
 1103              	.LC7:
 1104 0088 22636853 		.ascii	"\"chSemSignal\"()\000"
ARM GAS  /tmp/ccmJtplN.s 			page 21


 1104      656D5369 
 1104      676E616C 
 1104      22282900 
 1105              	.LC8:
 1106 0098 63685365 		.ascii	"chSemSignal(), #1\000"
 1106      6D536967 
 1106      6E616C28 
 1106      292C2023 
 1106      3100
 1107 00aa 0000     		.space	2
 1108              	.LC9:
 1109 00ac 22636853 		.ascii	"\"chSemSignalI\"()\000"
 1109      656D5369 
 1109      676E616C 
 1109      49222829 
 1109      00
 1110 00bd 000000   		.space	3
 1111              	.LC10:
 1112 00c0 63685365 		.ascii	"chSemSignalI(), #1\000"
 1112      6D536967 
 1112      6E616C49 
 1112      28292C20 
 1112      233100
 1113 00d3 00       		.space	1
 1114              	.LC11:
 1115 00d4 22636853 		.ascii	"\"chSemAddCounterI\"()\000"
 1115      656D4164 
 1115      64436F75 
 1115      6E746572 
 1115      49222829 
 1116 00e9 000000   		.space	3
 1117              	.LC12:
 1118 00ec 63685365 		.ascii	"chSemAddCounterI(), #1\000"
 1118      6D416464 
 1118      436F756E 
 1118      74657249 
 1118      28292C20 
 1119 0103 00       		.space	1
 1120              	.LC13:
 1121 0104 22636853 		.ascii	"\"chSemSignalWait\"()\000"
 1121      656D5369 
 1121      676E616C 
 1121      57616974 
 1121      22282900 
 1122              	.LC14:
 1123 0118 63685365 		.ascii	"chSemSignalWait(), #1\000"
 1123      6D536967 
 1123      6E616C57 
 1123      61697428 
 1123      292C2023 
 1124 012e 0000     		.space	2
 1125              	.LC15:
 1126 0130 63685365 		.ascii	"chSemSignalWait(), #2\000"
 1126      6D536967 
 1126      6E616C57 
 1126      61697428 
 1126      292C2023 
ARM GAS  /tmp/ccmJtplN.s 			page 22


 1127 0146 0000     		.text
 1128              	.Letext0:
 1129              		.file 3 "/usr/include/newlib/machine/_default_types.h"
 1130              		.file 4 "/usr/include/newlib/stdint.h"
 1131              		.file 5 "../../../os/ports/GCC/ARMCMx/chtypes.h"
 1132              		.file 6 "../../../os/kernel/include/chlists.h"
 1133              		.file 7 "../../../os/kernel/include/chthreads.h"
 1134              		.file 8 "../../../os/ports/GCC/ARMCMx/chcore_v7m.h"
 1135              		.file 9 "../../../os/kernel/include/chschd.h"
 1136              		.file 10 "../../../os/kernel/include/chsem.h"
 1137              		.file 11 "../../../os/kernel/include/chmtx.h"
 1138              		.file 12 "../../../os/kernel/include/chdebug.h"