ARM GAS  /tmp/ccfZHwAn.s 			page 1


   1              		.syntax unified
   2              		.cpu cortex-m4
   3              		.fpu softvfp
   4              		.eabi_attribute 20, 1
   5              		.eabi_attribute 21, 1
   6              		.eabi_attribute 23, 3
   7              		.eabi_attribute 24, 1
   8              		.eabi_attribute 25, 1
   9              		.eabi_attribute 26, 1
  10              		.eabi_attribute 30, 2
  11              		.eabi_attribute 34, 1
  12              		.eabi_attribute 18, 4
  13              		.thumb
  14              		.file	"chsys.c"
  15              		.text
  16              	.Ltext0:
  17              		.cfi_sections	.debug_frame
  18              		.section	.text._idle_thread,"ax",%progbits
  19              		.align	2
  20              		.p2align 4,,15
  21              		.global	_idle_thread
  22              		.thumb
  23              		.thumb_func
  24              		.type	_idle_thread, %function
  25              	_idle_thread:
  26              	.LFB7:
  27              		.file 1 "../../../os/kernel/src/chsys.c"
  28              		.loc 1 61 0
  29              		.cfi_startproc
  30              		@ Volatile: function does not return.
  31              		@ args = 0, pretend = 0, frame = 0
  32              		@ frame_needed = 0, uses_anonymous_args = 0
  33              		@ link register save eliminated.
  34              	.LVL0:
  35              		.loc 1 64 0
  36 0000 40F20002 		movw	r2, #:lower16:rlist
  37 0004 C0F20002 		movt	r2, #:upper16:rlist
  38 0008 40F20003 		movw	r3, #:lower16:.LC0
  39 000c 9269     		ldr	r2, [r2, #24]
  40 000e C0F20003 		movt	r3, #:upper16:.LC0
  41 0012 9361     		str	r3, [r2, #24]
  42              	.L2:
  43 0014 FEE7     		b	.L2
  44              		.cfi_endproc
  45              	.LFE7:
  46              		.size	_idle_thread, .-_idle_thread
  47 0016 00BFAFF3 		.section	.text.chSysInit,"ax",%progbits
  47      0080AFF3 
  47      0080
  48              		.align	2
  49              		.p2align 4,,15
  50              		.global	chSysInit
  51              		.thumb
  52              		.thumb_func
  53              		.type	chSysInit, %function
  54              	chSysInit:
  55              	.LFB8:
ARM GAS  /tmp/ccfZHwAn.s 			page 2


  56              		.loc 1 84 0
  57              		.cfi_startproc
  58              		@ args = 0, pretend = 0, frame = 0
  59              		@ frame_needed = 0, uses_anonymous_args = 0
  60 0000 10B5     		push	{r4, lr}
  61              		.cfi_def_cfa_offset 8
  62              		.cfi_offset 4, -8
  63              		.cfi_offset 14, -4
  64 0002 82B0     		sub	sp, sp, #8
  65              		.cfi_def_cfa_offset 16
  66              		.loc 1 90 0
  67 0004 FFF7FEFF 		bl	_port_init
  68              	.LVL1:
  69              		.loc 1 91 0
  70 0008 FFF7FEFF 		bl	_scheduler_init
  71              	.LVL2:
  72              		.loc 1 92 0
  73 000c FFF7FEFF 		bl	_vt_init
  74              	.LVL3:
  75              		.loc 1 94 0
  76 0010 FFF7FEFF 		bl	_core_init
  77              	.LVL4:
  78              		.loc 1 97 0
  79 0014 FFF7FEFF 		bl	_heap_init
  80              	.LVL5:
  81              		.loc 1 100 0
  82 0018 FFF7FEFF 		bl	_trace_init
  83              	.LVL6:
  84              		.loc 1 104 0
  85 001c 40F20000 		movw	r0, #:lower16:.LANCHOR0
  86 0020 4021     		movs	r1, #64
  87 0022 C0F20000 		movt	r0, #:upper16:.LANCHOR0
  88 0026 FFF7FEFF 		bl	_thread_init
  89              	.LVL7:
  90              		.loc 1 109 0
  91 002a 40F20002 		movw	r2, #:lower16:__main_thread_stack_base__
  92              		.loc 1 104 0
  93 002e 40F20003 		movw	r3, #:lower16:rlist
  94              		.loc 1 105 0
  95 0032 0121     		movs	r1, #1
  96              		.loc 1 109 0
  97 0034 C0F20002 		movt	r2, #:upper16:__main_thread_stack_base__
  98              		.loc 1 104 0
  99 0038 C0F20003 		movt	r3, #:upper16:rlist
 100              		.loc 1 105 0
 101 003c 80F82010 		strb	r1, [r0, #32]
 102              		.loc 1 109 0
 103 0040 C261     		str	r2, [r0, #28]
 104              		.loc 1 104 0
 105 0042 9861     		str	r0, [r3, #24]
 106              		.loc 1 111 0
 107 0044 FFF7FEFF 		bl	dbg_check_enable
 108              	.LVL8:
 109              	.LBB2:
 110 0048 0023     		movs	r3, #0
 111              	@ 111 "../../../os/kernel/src/chsys.c" 1
 112 004a 83F31188 		msr     BASEPRI, r3                    
ARM GAS  /tmp/ccfZHwAn.s 			page 3


 113 004e 62B6     		cpsie   i
 114              	@ 0 "" 2
 115              		.thumb
 116              	.LBE2:
 117              		.loc 1 115 0
 118 0050 40F20003 		movw	r3, #:lower16:rlist
 119 0054 C0F20003 		movt	r3, #:upper16:rlist
 120 0058 40F20002 		movw	r2, #:lower16:ch_debug
 121 005c 9C69     		ldr	r4, [r3, #24]
 122 005e C0F20002 		movt	r2, #:upper16:ch_debug
 123              		.loc 1 121 0
 124 0062 0021     		movs	r1, #0
 125 0064 40F20000 		movw	r0, #:lower16:.LANCHOR1
 126 0068 40F20003 		movw	r3, #:lower16:_idle_thread
 127              		.loc 1 115 0
 128 006c A261     		str	r2, [r4, #24]
 129              		.loc 1 121 0
 130 006e C0F20003 		movt	r3, #:upper16:_idle_thread
 131 0072 0091     		str	r1, [sp]
 132 0074 0122     		movs	r2, #1
 133 0076 E021     		movs	r1, #224
 134 0078 C0F20000 		movt	r0, #:upper16:.LANCHOR1
 135 007c FFF7FEFF 		bl	chThdCreateStatic
 136              	.LVL9:
 137              		.loc 1 124 0
 138 0080 02B0     		add	sp, sp, #8
 139              		@ sp needed
 140 0082 10BD     		pop	{r4, pc}
 141              		.cfi_endproc
 142              	.LFE8:
 143              		.size	chSysInit, .-chSysInit
 144 0084 AFF30080 		.section	.text.chSysTimerHandlerI,"ax",%progbits
 144      AFF30080 
 144      AFF30080 
 145              		.align	2
 146              		.p2align 4,,15
 147              		.global	chSysTimerHandlerI
 148              		.thumb
 149              		.thumb_func
 150              		.type	chSysTimerHandlerI, %function
 151              	chSysTimerHandlerI:
 152              	.LFB9:
 153              		.loc 1 137 0
 154              		.cfi_startproc
 155              		@ args = 0, pretend = 0, frame = 0
 156              		@ frame_needed = 0, uses_anonymous_args = 0
 157 0000 F8B5     		push	{r3, r4, r5, r6, r7, lr}
 158              		.cfi_def_cfa_offset 24
 159              		.cfi_offset 3, -24
 160              		.cfi_offset 4, -20
 161              		.cfi_offset 5, -16
 162              		.cfi_offset 6, -12
 163              		.cfi_offset 7, -8
 164              		.cfi_offset 14, -4
 165              		.loc 1 139 0
 166 0002 FFF7FEFF 		bl	chDbgCheckClassI
 167              	.LVL10:
ARM GAS  /tmp/ccfZHwAn.s 			page 4


 168              		.loc 1 143 0
 169 0006 40F20003 		movw	r3, #:lower16:rlist
 170 000a C0F20003 		movt	r3, #:upper16:rlist
 171 000e 9A69     		ldr	r2, [r3, #24]
 172 0010 92F82330 		ldrb	r3, [r2, #35]	@ zero_extendqisi2
 173 0014 13B1     		cbz	r3, .L6
 174              		.loc 1 145 0
 175 0016 013B     		subs	r3, r3, #1
 176 0018 82F82330 		strb	r3, [r2, #35]
 177              	.L6:
 178              		.loc 1 148 0
 179 001c 516A     		ldr	r1, [r2, #36]
 180              		.loc 1 150 0
 181 001e 40F20003 		movw	r3, #:lower16:vtlist
 182 0022 C0F20003 		movt	r3, #:upper16:vtlist
 183              		.loc 1 148 0
 184 0026 0131     		adds	r1, r1, #1
 185 0028 5162     		str	r1, [r2, #36]
 186              		.loc 1 150 0
 187 002a DA68     		ldr	r2, [r3, #12]
 188 002c 1C68     		ldr	r4, [r3]
 189 002e 0132     		adds	r2, r2, #1
 190 0030 9C42     		cmp	r4, r3
 191 0032 DA60     		str	r2, [r3, #12]
 192 0034 1DD0     		beq	.L5
 193              	.LBB3:
 194              		.loc 1 150 0 is_stmt 0 discriminator 1
 195 0036 A768     		ldr	r7, [r4, #8]
 196 0038 013F     		subs	r7, r7, #1
 197 003a A760     		str	r7, [r4, #8]
 198              	.LVL11:
 199 003c CFB9     		cbnz	r7, .L5
 200              		.loc 1 150 0
 201 003e 1E46     		mov	r6, r3
 202              	.L9:
 203              	.LBB4:
 204              		.loc 1 150 0 discriminator 2
 205 0040 2268     		ldr	r2, [r4]
 206 0042 E568     		ldr	r5, [r4, #12]
 207              	.LVL12:
 208 0044 E760     		str	r7, [r4, #12]
 209 0046 5360     		str	r3, [r2, #4]
 210 0048 1A60     		str	r2, [r3]
 211 004a FFF7FEFF 		bl	dbg_check_unlock_from_isr
 212              	.LVL13:
 213              	.LBB5:
 214 004e 0023     		movs	r3, #0
 215              	@ 150 "../../../os/kernel/src/chsys.c" 1
 216 0050 83F31188 		msr     BASEPRI, r3
 217              	@ 0 "" 2
 218              		.thumb
 219              	.LBE5:
 220 0054 2069     		ldr	r0, [r4, #16]
 221 0056 A847     		blx	r5
 222              	.LVL14:
 223              	.LBB6:
 224 0058 2023     		movs	r3, #32
ARM GAS  /tmp/ccfZHwAn.s 			page 5


 225              	@ 150 "../../../os/kernel/src/chsys.c" 1
 226 005a 83F31188 		msr     BASEPRI, r3
 227              	@ 0 "" 2
 228              		.thumb
 229              	.LBE6:
 230 005e FFF7FEFF 		bl	dbg_check_lock_from_isr
 231              	.LVL15:
 232              	.LBE4:
 233 0062 3468     		ldr	r4, [r6]
 234              	.LVL16:
 235 0064 A268     		ldr	r2, [r4, #8]
 236 0066 40F20003 		movw	r3, #:lower16:vtlist
 237 006a C0F20003 		movt	r3, #:upper16:vtlist
 238 006e 002A     		cmp	r2, #0
 239 0070 E6D0     		beq	.L9
 240              	.LVL17:
 241              	.L5:
 242 0072 F8BD     		pop	{r3, r4, r5, r6, r7, pc}
 243              	.LBE3:
 244              		.cfi_endproc
 245              	.LFE9:
 246              		.size	chSysTimerHandlerI, .-chSysTimerHandlerI
 247              		.global	_idle_thread_wa
 248 0074 AFF30080 		.section	.rodata.str1.4,"aMS",%progbits,1
 248      AFF30080 
 248      AFF30080 
 249              		.align	2
 250              	.LC0:
 251 0000 69646C65 		.ascii	"idle\000"
 251      00
 252 0005 000000   		.section	.bss.mainthread.4842,"aw",%nobits
 253              		.align	2
 254              		.set	.LANCHOR0,. + 0
 255              		.type	mainthread.4842, %object
 256              		.size	mainthread.4842, 76
 257              	mainthread.4842:
 258 0000 00000000 		.space	76
 258      00000000 
 258      00000000 
 258      00000000 
 258      00000000 
 259              		.section	.bss._idle_thread_wa,"aw",%nobits
 260              		.align	3
 261              		.set	.LANCHOR1,. + 0
 262              		.type	_idle_thread_wa, %object
 263              		.size	_idle_thread_wa, 224
 264              	_idle_thread_wa:
 265 0000 00000000 		.space	224
 265      00000000 
 265      00000000 
 265      00000000 
 265      00000000 
 266              		.text
 267              	.Letext0:
 268              		.file 2 "/usr/lib/gcc/arm-none-eabi/4.8.2/include/stddef.h"
 269              		.file 3 "/usr/include/newlib/machine/_default_types.h"
 270              		.file 4 "/usr/include/newlib/stdint.h"
ARM GAS  /tmp/ccfZHwAn.s 			page 6


 271              		.file 5 "../../../os/ports/GCC/ARMCMx/chtypes.h"
 272              		.file 6 "../../../os/kernel/include/chlists.h"
 273              		.file 7 "../../../os/kernel/include/chthreads.h"
 274              		.file 8 "../../../os/ports/GCC/ARMCMx/chcore_v7m.h"
 275              		.file 9 "../../../os/kernel/include/chvt.h"
 276              		.file 10 "../../../os/kernel/include/chschd.h"
 277              		.file 11 "../../../os/kernel/include/chmtx.h"
 278              		.file 12 "../../../os/kernel/include/chregistry.h"
 279              		.file 13 "../../../os/kernel/include/chmemcore.h"
 280              		.file 14 "../../../os/kernel/include/chheap.h"
 281              		.file 15 "../../../os/kernel/include/chdebug.h"