ARM GAS  /tmp/ccDGUR6A.s 			page 1


   1              		.syntax unified
   2              		.cpu cortex-m4
   3              		.fpu softvfp
   4              		.eabi_attribute 20, 1
   5              		.eabi_attribute 21, 1
   6              		.eabi_attribute 23, 3
   7              		.eabi_attribute 24, 1
   8              		.eabi_attribute 25, 1
   9              		.eabi_attribute 26, 1
  10              		.eabi_attribute 30, 2
  11              		.eabi_attribute 34, 1
  12              		.eabi_attribute 18, 4
  13              		.thumb
  14              		.file	"chvt.c"
  15              		.text
  16              	.Ltext0:
  17              		.cfi_sections	.debug_frame
  18              		.section	.text._vt_init,"ax",%progbits
  19              		.align	2
  20              		.p2align 4,,15
  21              		.global	_vt_init
  22              		.thumb
  23              		.thumb_func
  24              		.type	_vt_init, %function
  25              	_vt_init:
  26              	.LFB7:
  27              		.file 1 "../../../os/kernel/src/chvt.c"
  28              		.loc 1 50 0
  29              		.cfi_startproc
  30              		@ args = 0, pretend = 0, frame = 0
  31              		@ frame_needed = 0, uses_anonymous_args = 0
  32              		@ link register save eliminated.
  33              		.loc 1 52 0
  34 0000 40F20003 		movw	r3, #:lower16:.LANCHOR0
  35 0004 C0F20003 		movt	r3, #:upper16:.LANCHOR0
  36              		.loc 1 53 0
  37 0008 4FF0FF31 		mov	r1, #-1
  38              		.loc 1 54 0
  39 000c 0022     		movs	r2, #0
  40              		.loc 1 52 0
  41 000e 5B60     		str	r3, [r3, #4]
  42 0010 1B60     		str	r3, [r3]
  43              		.loc 1 53 0
  44 0012 9960     		str	r1, [r3, #8]
  45              		.loc 1 54 0
  46 0014 DA60     		str	r2, [r3, #12]
  47 0016 7047     		bx	lr
  48              		.cfi_endproc
  49              	.LFE7:
  50              		.size	_vt_init, .-_vt_init
  51 0018 AFF30080 		.section	.text.chVTSetI,"ax",%progbits
  51      AFF30080 
  52              		.align	2
  53              		.p2align 4,,15
  54              		.global	chVTSetI
  55              		.thumb
  56              		.thumb_func
ARM GAS  /tmp/ccDGUR6A.s 			page 2


  57              		.type	chVTSetI, %function
  58              	chVTSetI:
  59              	.LFB8:
  60              		.loc 1 76 0
  61              		.cfi_startproc
  62              		@ args = 0, pretend = 0, frame = 0
  63              		@ frame_needed = 0, uses_anonymous_args = 0
  64              	.LVL0:
  65 0000 F8B5     		push	{r3, r4, r5, r6, r7, lr}
  66              		.cfi_def_cfa_offset 24
  67              		.cfi_offset 3, -24
  68              		.cfi_offset 4, -20
  69              		.cfi_offset 5, -16
  70              		.cfi_offset 6, -12
  71              		.cfi_offset 7, -8
  72              		.cfi_offset 14, -4
  73              		.loc 1 76 0
  74 0002 0546     		mov	r5, r0
  75 0004 1646     		mov	r6, r2
  76 0006 0C46     		mov	r4, r1
  77 0008 1F46     		mov	r7, r3
  78              		.loc 1 79 0
  79 000a FFF7FEFF 		bl	chDbgCheckClassI
  80              	.LVL1:
  81              		.loc 1 80 0
  82 000e 002E     		cmp	r6, #0
  83 0010 18BF     		it	ne
  84 0012 002D     		cmpne	r5, #0
  85 0014 1CD0     		beq	.L3
  86              		.loc 1 80 0 is_stmt 0 discriminator 2
  87 0016 DCB1     		cbz	r4, .L3
  88              	.L4:
  89              		.loc 1 85 0 is_stmt 1
  90 0018 40F20001 		movw	r1, #:lower16:.LANCHOR0
  91 001c C0F20001 		movt	r1, #:upper16:.LANCHOR0
  92              		.loc 1 83 0
  93 0020 2F61     		str	r7, [r5, #16]
  94              		.loc 1 85 0
  95 0022 0B68     		ldr	r3, [r1]
  96              	.LVL2:
  97              		.loc 1 84 0
  98 0024 EE60     		str	r6, [r5, #12]
  99              		.loc 1 86 0
 100 0026 9A68     		ldr	r2, [r3, #8]
 101 0028 9442     		cmp	r4, r2
 102 002a 04D9     		bls	.L5
 103              	.L6:
 104              		.loc 1 88 0
 105 002c 1B68     		ldr	r3, [r3]
 106              	.LVL3:
 107              		.loc 1 87 0
 108 002e A41A     		subs	r4, r4, r2
 109              	.LVL4:
 110              		.loc 1 86 0
 111 0030 9A68     		ldr	r2, [r3, #8]
 112 0032 A242     		cmp	r2, r4
 113 0034 FAD3     		bcc	.L6
ARM GAS  /tmp/ccDGUR6A.s 			page 3


 114              	.L5:
 115              		.loc 1 91 0
 116 0036 5A68     		ldr	r2, [r3, #4]
 117 0038 2B60     		str	r3, [r5]
 118 003a 6A60     		str	r2, [r5, #4]
 119              		.loc 1 94 0
 120 003c 8B42     		cmp	r3, r1
 121              		.loc 1 92 0
 122 003e 5D60     		str	r5, [r3, #4]
 123 0040 1560     		str	r5, [r2]
 124              		.loc 1 93 0
 125 0042 AC60     		str	r4, [r5, #8]
 126              		.loc 1 95 0
 127 0044 1EBF     		ittt	ne
 128 0046 9A68     		ldrne	r2, [r3, #8]
 129 0048 C4EB0204 		rsbne	r4, r4, r2
 130              	.LVL5:
 131 004c 9C60     		strne	r4, [r3, #8]
 132              	.LVL6:
 133 004e F8BD     		pop	{r3, r4, r5, r6, r7, pc}
 134              	.LVL7:
 135              	.L3:
 136              		.loc 1 80 0 discriminator 1
 137 0050 40F20000 		movw	r0, #:lower16:.LC0
 138 0054 C0F20000 		movt	r0, #:upper16:.LC0
 139 0058 FFF7FEFF 		bl	chDbgPanic
 140              	.LVL8:
 141 005c DCE7     		b	.L4
 142              		.cfi_endproc
 143              	.LFE8:
 144              		.size	chVTSetI, .-chVTSetI
 145 005e 00BF     		.section	.text.chVTResetI,"ax",%progbits
 146              		.align	2
 147              		.p2align 4,,15
 148              		.global	chVTResetI
 149              		.thumb
 150              		.thumb_func
 151              		.type	chVTResetI, %function
 152              	chVTResetI:
 153              	.LFB9:
 154              		.loc 1 106 0
 155              		.cfi_startproc
 156              		@ args = 0, pretend = 0, frame = 0
 157              		@ frame_needed = 0, uses_anonymous_args = 0
 158              	.LVL9:
 159 0000 10B5     		push	{r4, lr}
 160              		.cfi_def_cfa_offset 8
 161              		.cfi_offset 4, -8
 162              		.cfi_offset 14, -4
 163              		.loc 1 106 0
 164 0002 0446     		mov	r4, r0
 165              		.loc 1 108 0
 166 0004 FFF7FEFF 		bl	chDbgCheckClassI
 167              	.LVL10:
 168              		.loc 1 109 0
 169 0008 9CB1     		cbz	r4, .L13
 170              	.L10:
ARM GAS  /tmp/ccDGUR6A.s 			page 4


 171              		.loc 1 110 0
 172 000a E368     		ldr	r3, [r4, #12]
 173 000c C3B1     		cbz	r3, .L14
 174              	.L11:
 175              		.loc 1 114 0
 176 000e 2368     		ldr	r3, [r4]
 177 0010 40F20002 		movw	r2, #:lower16:.LANCHOR0
 178 0014 C0F20002 		movt	r2, #:upper16:.LANCHOR0
 179 0018 9342     		cmp	r3, r2
 180              		.loc 1 115 0
 181 001a 1FBF     		itttt	ne
 182 001c 9968     		ldrne	r1, [r3, #8]
 183 001e A268     		ldrne	r2, [r4, #8]
 184 0020 5218     		addne	r2, r2, r1
 185 0022 9A60     		strne	r2, [r3, #8]
 186              		.loc 1 116 0
 187 0024 6268     		ldr	r2, [r4, #4]
 188 0026 1360     		str	r3, [r2]
 189              		.loc 1 117 0
 190 0028 2368     		ldr	r3, [r4]
 191              		.loc 1 118 0
 192 002a 0021     		movs	r1, #0
 193              		.loc 1 117 0
 194 002c 5A60     		str	r2, [r3, #4]
 195              		.loc 1 118 0
 196 002e E160     		str	r1, [r4, #12]
 197 0030 10BD     		pop	{r4, pc}
 198              	.LVL11:
 199              	.L13:
 200              		.loc 1 109 0 discriminator 1
 201 0032 40F20000 		movw	r0, #:lower16:.LC1
 202 0036 C0F20000 		movt	r0, #:upper16:.LC1
 203 003a FFF7FEFF 		bl	chDbgPanic
 204              	.LVL12:
 205 003e E4E7     		b	.L10
 206              	.L14:
 207              		.loc 1 110 0 discriminator 1
 208 0040 40F20000 		movw	r0, #:lower16:.LC2
 209 0044 C0F20000 		movt	r0, #:upper16:.LC2
 210 0048 FFF7FEFF 		bl	chDbgPanic
 211              	.LVL13:
 212 004c DFE7     		b	.L11
 213              		.cfi_endproc
 214              	.LFE9:
 215              		.size	chVTResetI, .-chVTResetI
 216              		.global	vtlist
 217 004e 00BF     		.section	.bss.vtlist,"aw",%nobits
 218              		.align	2
 219              		.set	.LANCHOR0,. + 0
 220              		.type	vtlist, %object
 221              		.size	vtlist, 16
 222              	vtlist:
 223 0000 00000000 		.space	16
 223      00000000 
 223      00000000 
 223      00000000 
 224              		.section	.rodata.str1.4,"aMS",%progbits,1
ARM GAS  /tmp/ccDGUR6A.s 			page 5


 225              		.align	2
 226              	.LC0:
 227 0000 22636856 		.ascii	"\"chVTSetI\"()\000"
 227      54536574 
 227      49222829 
 227      00
 228 000d 000000   		.space	3
 229              	.LC1:
 230 0010 22636856 		.ascii	"\"chVTResetI\"()\000"
 230      54526573 
 230      65744922 
 230      282900
 231 001f 00       		.space	1
 232              	.LC2:
 233 0020 63685654 		.ascii	"chVTResetI(), #1\000"
 233      52657365 
 233      74492829 
 233      2C202331 
 233      00
 234 0031 000000   		.text
 235              	.Letext0:
 236              		.file 2 "/usr/include/newlib/machine/_default_types.h"
 237              		.file 3 "/usr/include/newlib/stdint.h"
 238              		.file 4 "../../../os/ports/GCC/ARMCMx/chtypes.h"
 239              		.file 5 "../../../os/kernel/include/chvt.h"
 240              		.file 6 "../../../os/kernel/include/chdebug.h"