ARM GAS  /tmp/ccObl4ZW.s 			page 1


   1              		.syntax unified
   2              		.cpu cortex-m4
   3              		.fpu softvfp
   4              		.eabi_attribute 20, 1
   5              		.eabi_attribute 21, 1
   6              		.eabi_attribute 23, 3
   7              		.eabi_attribute 24, 1
   8              		.eabi_attribute 25, 1
   9              		.eabi_attribute 26, 1
  10              		.eabi_attribute 30, 2
  11              		.eabi_attribute 34, 1
  12              		.eabi_attribute 18, 4
  13              		.thumb
  14              		.file	"hal.c"
  15              		.text
  16              	.Ltext0:
  17              		.cfi_sections	.debug_frame
  18              		.section	.text.halInit,"ax",%progbits
  19              		.align	2
  20              		.p2align 4,,15
  21              		.global	halInit
  22              		.thumb
  23              		.thumb_func
  24              		.type	halInit, %function
  25              	halInit:
  26              	.LFB118:
  27              		.file 1 "../../../os/hal/src/hal.c"
  28              		.loc 1 68 0
  29              		.cfi_startproc
  30              		@ args = 0, pretend = 0, frame = 0
  31              		@ frame_needed = 0, uses_anonymous_args = 0
  32 0000 08B5     		push	{r3, lr}
  33              		.cfi_def_cfa_offset 8
  34              		.cfi_offset 3, -8
  35              		.cfi_offset 14, -4
  36              		.loc 1 70 0
  37 0002 FFF7FEFF 		bl	hal_lld_init
  38              	.LVL0:
  39              		.loc 1 73 0
  40 0006 FFF7FEFF 		bl	tmInit
  41              	.LVL1:
  42              		.loc 1 76 0
  43 000a 40F20000 		movw	r0, #:lower16:pal_default_config
  44 000e C0F20000 		movt	r0, #:upper16:pal_default_config
  45 0012 FFF7FEFF 		bl	_pal_lld_init
  46              	.LVL2:
  47              		.loc 1 79 0
  48 0016 FFF7FEFF 		bl	adcInit
  49              	.LVL3:
  50              		.loc 1 128 0
  51 001a BDE80840 		pop	{r3, lr}
  52              		.loc 1 127 0
  53 001e FFF7FEBF 		b	boardInit
  54              	.LVL4:
  55              		.cfi_endproc
  56              	.LFE118:
  57              		.size	halInit, .-halInit
ARM GAS  /tmp/ccObl4ZW.s 			page 2


  58 0022 00BFAFF3 		.section	.text.halIsCounterWithin,"ax",%progbits
  58      0080AFF3 
  58      0080AFF3 
  58      0080
  59              		.align	2
  60              		.p2align 4,,15
  61              		.global	halIsCounterWithin
  62              		.thumb
  63              		.thumb_func
  64              		.type	halIsCounterWithin, %function
  65              	halIsCounterWithin:
  66              	.LFB119:
  67              		.loc 1 174 0
  68              		.cfi_startproc
  69              		@ args = 0, pretend = 0, frame = 0
  70              		@ frame_needed = 0, uses_anonymous_args = 0
  71              		@ link register save eliminated.
  72              	.LVL5:
  73              		.loc 1 175 0
  74 0000 4FF48053 		mov	r3, #4096
  75 0004 CEF20003 		movt	r3, 57344
  76              		.loc 1 177 0
  77 0008 8142     		cmp	r1, r0
  78              		.loc 1 174 0
  79 000a 0246     		mov	r2, r0
  80              		.loc 1 175 0
  81 000c 5B68     		ldr	r3, [r3, #4]
  82              	.LVL6:
  83              		.loc 1 177 0
  84 000e 09D8     		bhi	.L6
  85              		.loc 1 178 0 discriminator 2
  86 0010 8342     		cmp	r3, r0
  87 0012 34BF     		ite	cc
  88 0014 0022     		movcc	r2, #0
  89 0016 0122     		movcs	r2, #1
  90 0018 8B42     		cmp	r3, r1
  91 001a 2CBF     		ite	cs
  92 001c 1046     		movcs	r0, r2
  93 001e 42F00100 		orrcc	r0, r2, #1
  94              	.LVL7:
  95              		.loc 1 179 0 discriminator 2
  96 0022 7047     		bx	lr
  97              	.LVL8:
  98              	.L6:
  99              		.loc 1 177 0 discriminator 1
 100 0024 8B42     		cmp	r3, r1
 101 0026 2CBF     		ite	cs
 102 0028 0020     		movcs	r0, #0
 103              	.LVL9:
 104 002a 0120     		movcc	r0, #1
 105 002c 9342     		cmp	r3, r2
 106 002e 38BF     		it	cc
 107 0030 0020     		movcc	r0, #0
 108 0032 7047     		bx	lr
 109              		.cfi_endproc
 110              	.LFE119:
 111              		.size	halIsCounterWithin, .-halIsCounterWithin
ARM GAS  /tmp/ccObl4ZW.s 			page 3


 112 0034 AFF30080 		.section	.text.halPolledDelay,"ax",%progbits
 112      AFF30080 
 112      AFF30080 
 113              		.align	2
 114              		.p2align 4,,15
 115              		.global	halPolledDelay
 116              		.thumb
 117              		.thumb_func
 118              		.type	halPolledDelay, %function
 119              	halPolledDelay:
 120              	.LFB120:
 121              		.loc 1 193 0
 122              		.cfi_startproc
 123              		@ args = 0, pretend = 0, frame = 0
 124              		@ frame_needed = 0, uses_anonymous_args = 0
 125              		@ link register save eliminated.
 126              	.LVL10:
 127              		.loc 1 194 0
 128 0000 4FF48053 		mov	r3, #4096
 129 0004 CEF20003 		movt	r3, 57344
 130              		.loc 1 193 0
 131 0008 10B4     		push	{r4}
 132              		.cfi_def_cfa_offset 4
 133              		.cfi_offset 4, -4
 134              		.loc 1 194 0
 135 000a 5A68     		ldr	r2, [r3, #4]
 136              	.LVL11:
 137              	.LBB4:
 138              	.LBB5:
 139              		.loc 1 175 0
 140 000c 1C46     		mov	r4, r3
 141              	.LBE5:
 142              	.LBE4:
 143              		.loc 1 195 0
 144 000e 1044     		add	r0, r0, r2
 145              	.LVL12:
 146              	.L11:
 147              	.LBB8:
 148              	.LBB6:
 149              		.loc 1 177 0 discriminator 1
 150 0010 8242     		cmp	r2, r0
 151              		.loc 1 175 0 discriminator 1
 152 0012 6368     		ldr	r3, [r4, #4]
 153              	.LVL13:
 154              		.loc 1 177 0 discriminator 1
 155 0014 0BD2     		bcs	.L8
 156              		.loc 1 177 0 is_stmt 0
 157 0016 9842     		cmp	r0, r3
 158 0018 94BF     		ite	ls
 159 001a 0021     		movls	r1, #0
 160 001c 0121     		movhi	r1, #1
 161 001e 9A42     		cmp	r2, r3
 162 0020 88BF     		it	hi
 163 0022 0021     		movhi	r1, #0
 164              	.LBE6:
 165              	.LBE8:
 166              		.loc 1 196 0 is_stmt 1
ARM GAS  /tmp/ccObl4ZW.s 			page 4


 167 0024 0029     		cmp	r1, #0
 168 0026 F3D1     		bne	.L11
 169              	.L12:
 170              		.loc 1 198 0
 171 0028 5DF8044B 		ldr	r4, [sp], #4
 172 002c 7047     		bx	lr
 173              	.L8:
 174              	.LBB9:
 175              	.LBB7:
 176              		.loc 1 178 0
 177 002e 9A42     		cmp	r2, r3
 178 0030 8CBF     		ite	hi
 179 0032 0021     		movhi	r1, #0
 180 0034 0121     		movls	r1, #1
 181 0036 9842     		cmp	r0, r3
 182 0038 88BF     		it	hi
 183 003a 41F00101 		orrhi	r1, r1, #1
 184              	.LBE7:
 185              	.LBE9:
 186              		.loc 1 196 0
 187 003e 0029     		cmp	r1, #0
 188 0040 E6D1     		bne	.L11
 189 0042 F1E7     		b	.L12
 190              		.cfi_endproc
 191              	.LFE120:
 192              		.size	halPolledDelay, .-halPolledDelay
 193 0044 AFF30080 		.text
 193      AFF30080 
 193      AFF30080 
 194              	.Letext0:
 195              		.file 2 "/usr/include/newlib/machine/_default_types.h"
 196              		.file 3 "/usr/include/newlib/stdint.h"
 197              		.file 4 "../../../os/ports/GCC/ARMCMx/chtypes.h"
 198              		.file 5 "../../../os/ports/common/ARMCMx/nvic.h"
 199              		.file 6 "../../../os/hal/platforms/STM32F4xx/hal_lld.h"
 200              		.file 7 "../../../os/hal/platforms/STM32/GPIOv2/pal_lld.h"
 201              		.file 8 "../../../os/ports/common/ARMCMx/CMSIS/include/core_cm4.h"
 202              		.file 9 "../../../os/hal/include/tm.h"
 203              		.file 10 "../../../os/hal/include/adc.h"
 204              		.file 11 "../../../boards/ST_STM32F4_DISCOVERY/board.h"