ARM GAS  /tmp/ccTeMzA3.s 			page 1


   1              		.syntax unified
   2              		.cpu cortex-m4
   3              		.fpu softvfp
   4              		.eabi_attribute 20, 1
   5              		.eabi_attribute 21, 1
   6              		.eabi_attribute 23, 3
   7              		.eabi_attribute 24, 1
   8              		.eabi_attribute 25, 1
   9              		.eabi_attribute 26, 1
  10              		.eabi_attribute 30, 2
  11              		.eabi_attribute 34, 1
  12              		.eabi_attribute 18, 4
  13              		.thumb
  14              		.file	"stm32_dma.c"
  15              		.text
  16              	.Ltext0:
  17              		.cfi_sections	.debug_frame
  18              		.section	.text.Vector6C,"ax",%progbits
  19              		.align	2
  20              		.p2align 4,,15
  21              		.global	Vector6C
  22              		.thumb
  23              		.thumb_func
  24              		.type	Vector6C, %function
  25              	Vector6C:
  26              	.LFB118:
  27              		.file 1 "../../../os/hal/platforms/STM32F4xx/stm32_dma.c"
  28              		.loc 1 128 0
  29              		.cfi_startproc
  30              		@ args = 0, pretend = 0, frame = 0
  31              		@ frame_needed = 0, uses_anonymous_args = 0
  32 0000 10B5     		push	{r4, lr}
  33              		.cfi_def_cfa_offset 8
  34              		.cfi_offset 4, -8
  35              		.cfi_offset 14, -4
  36              		.loc 1 131 0
  37 0002 FFF7FEFF 		bl	dbg_check_enter_isr
  38              	.LVL0:
  39              		.loc 1 133 0
  40 0006 4FF4C042 		mov	r2, #24576
  41 000a C4F20202 		movt	r2, 16386
  42              		.loc 1 135 0
  43 000e 40F20003 		movw	r3, #:lower16:.LANCHOR0
  44 0012 C0F20003 		movt	r3, #:upper16:.LANCHOR0
  45              		.loc 1 133 0
  46 0016 1168     		ldr	r1, [r2]
  47              		.loc 1 135 0
  48 0018 1C68     		ldr	r4, [r3]
  49              		.loc 1 133 0
  50 001a 01F03D01 		and	r1, r1, #61
  51              	.LVL1:
  52              		.loc 1 134 0
  53 001e 9160     		str	r1, [r2, #8]
  54              		.loc 1 135 0
  55 0020 0CB1     		cbz	r4, .L2
  56              		.loc 1 136 0
  57 0022 5868     		ldr	r0, [r3, #4]
ARM GAS  /tmp/ccTeMzA3.s 			page 2


  58 0024 A047     		blx	r4
  59              	.LVL2:
  60              	.L2:
  61              		.loc 1 138 0
  62 0026 FFF7FEFF 		bl	dbg_check_leave_isr
  63              	.LVL3:
  64              		.loc 1 139 0
  65 002a BDE81040 		pop	{r4, lr}
  66              		.loc 1 138 0
  67 002e FFF7FEBF 		b	_port_irq_epilogue
  68              	.LVL4:
  69              		.cfi_endproc
  70              	.LFE118:
  71              		.size	Vector6C, .-Vector6C
  72 0032 00BFAFF3 		.section	.text.Vector70,"ax",%progbits
  72      0080AFF3 
  72      0080AFF3 
  72      0080
  73              		.align	2
  74              		.p2align 4,,15
  75              		.global	Vector70
  76              		.thumb
  77              		.thumb_func
  78              		.type	Vector70, %function
  79              	Vector70:
  80              	.LFB119:
  81              		.loc 1 146 0
  82              		.cfi_startproc
  83              		@ args = 0, pretend = 0, frame = 0
  84              		@ frame_needed = 0, uses_anonymous_args = 0
  85 0000 10B5     		push	{r4, lr}
  86              		.cfi_def_cfa_offset 8
  87              		.cfi_offset 4, -8
  88              		.cfi_offset 14, -4
  89              		.loc 1 149 0
  90 0002 FFF7FEFF 		bl	dbg_check_enter_isr
  91              	.LVL5:
  92              		.loc 1 151 0
  93 0006 4FF4C042 		mov	r2, #24576
  94 000a C4F20202 		movt	r2, 16386
  95              		.loc 1 153 0
  96 000e 40F20003 		movw	r3, #:lower16:.LANCHOR0
  97              		.loc 1 151 0
  98 0012 1168     		ldr	r1, [r2]
  99              		.loc 1 153 0
 100 0014 C0F20003 		movt	r3, #:upper16:.LANCHOR0
 101              		.loc 1 151 0
 102 0018 8909     		lsrs	r1, r1, #6
 103 001a 01F03D01 		and	r1, r1, #61
 104              	.LVL6:
 105              		.loc 1 153 0
 106 001e 9C68     		ldr	r4, [r3, #8]
 107              		.loc 1 152 0
 108 0020 8801     		lsls	r0, r1, #6
 109 0022 9060     		str	r0, [r2, #8]
 110              		.loc 1 153 0
 111 0024 0CB1     		cbz	r4, .L8
ARM GAS  /tmp/ccTeMzA3.s 			page 3


 112              		.loc 1 154 0
 113 0026 D868     		ldr	r0, [r3, #12]
 114 0028 A047     		blx	r4
 115              	.LVL7:
 116              	.L8:
 117              		.loc 1 156 0
 118 002a FFF7FEFF 		bl	dbg_check_leave_isr
 119              	.LVL8:
 120              		.loc 1 157 0
 121 002e BDE81040 		pop	{r4, lr}
 122              		.loc 1 156 0
 123 0032 FFF7FEBF 		b	_port_irq_epilogue
 124              	.LVL9:
 125              		.cfi_endproc
 126              	.LFE119:
 127              		.size	Vector70, .-Vector70
 128 0036 00BFAFF3 		.section	.text.Vector74,"ax",%progbits
 128      0080AFF3 
 128      0080
 129              		.align	2
 130              		.p2align 4,,15
 131              		.global	Vector74
 132              		.thumb
 133              		.thumb_func
 134              		.type	Vector74, %function
 135              	Vector74:
 136              	.LFB120:
 137              		.loc 1 164 0
 138              		.cfi_startproc
 139              		@ args = 0, pretend = 0, frame = 0
 140              		@ frame_needed = 0, uses_anonymous_args = 0
 141 0000 10B5     		push	{r4, lr}
 142              		.cfi_def_cfa_offset 8
 143              		.cfi_offset 4, -8
 144              		.cfi_offset 14, -4
 145              		.loc 1 167 0
 146 0002 FFF7FEFF 		bl	dbg_check_enter_isr
 147              	.LVL10:
 148              		.loc 1 169 0
 149 0006 4FF4C042 		mov	r2, #24576
 150 000a C4F20202 		movt	r2, 16386
 151              		.loc 1 171 0
 152 000e 40F20003 		movw	r3, #:lower16:.LANCHOR0
 153              		.loc 1 169 0
 154 0012 1168     		ldr	r1, [r2]
 155              		.loc 1 171 0
 156 0014 C0F20003 		movt	r3, #:upper16:.LANCHOR0
 157              		.loc 1 169 0
 158 0018 090C     		lsrs	r1, r1, #16
 159 001a 01F03D01 		and	r1, r1, #61
 160              	.LVL11:
 161              		.loc 1 171 0
 162 001e 1C69     		ldr	r4, [r3, #16]
 163              		.loc 1 170 0
 164 0020 0804     		lsls	r0, r1, #16
 165 0022 9060     		str	r0, [r2, #8]
 166              		.loc 1 171 0
ARM GAS  /tmp/ccTeMzA3.s 			page 4


 167 0024 0CB1     		cbz	r4, .L13
 168              		.loc 1 172 0
 169 0026 5869     		ldr	r0, [r3, #20]
 170 0028 A047     		blx	r4
 171              	.LVL12:
 172              	.L13:
 173              		.loc 1 174 0
 174 002a FFF7FEFF 		bl	dbg_check_leave_isr
 175              	.LVL13:
 176              		.loc 1 175 0
 177 002e BDE81040 		pop	{r4, lr}
 178              		.loc 1 174 0
 179 0032 FFF7FEBF 		b	_port_irq_epilogue
 180              	.LVL14:
 181              		.cfi_endproc
 182              	.LFE120:
 183              		.size	Vector74, .-Vector74
 184 0036 00BFAFF3 		.section	.text.Vector78,"ax",%progbits
 184      0080AFF3 
 184      0080
 185              		.align	2
 186              		.p2align 4,,15
 187              		.global	Vector78
 188              		.thumb
 189              		.thumb_func
 190              		.type	Vector78, %function
 191              	Vector78:
 192              	.LFB121:
 193              		.loc 1 182 0
 194              		.cfi_startproc
 195              		@ args = 0, pretend = 0, frame = 0
 196              		@ frame_needed = 0, uses_anonymous_args = 0
 197 0000 10B5     		push	{r4, lr}
 198              		.cfi_def_cfa_offset 8
 199              		.cfi_offset 4, -8
 200              		.cfi_offset 14, -4
 201              		.loc 1 185 0
 202 0002 FFF7FEFF 		bl	dbg_check_enter_isr
 203              	.LVL15:
 204              		.loc 1 187 0
 205 0006 4FF4C042 		mov	r2, #24576
 206 000a C4F20202 		movt	r2, 16386
 207              		.loc 1 189 0
 208 000e 40F20003 		movw	r3, #:lower16:.LANCHOR0
 209              		.loc 1 187 0
 210 0012 1168     		ldr	r1, [r2]
 211              		.loc 1 189 0
 212 0014 C0F20003 		movt	r3, #:upper16:.LANCHOR0
 213              		.loc 1 187 0
 214 0018 890D     		lsrs	r1, r1, #22
 215 001a 01F03D01 		and	r1, r1, #61
 216              	.LVL16:
 217              		.loc 1 189 0
 218 001e 9C69     		ldr	r4, [r3, #24]
 219              		.loc 1 188 0
 220 0020 8805     		lsls	r0, r1, #22
 221 0022 9060     		str	r0, [r2, #8]
ARM GAS  /tmp/ccTeMzA3.s 			page 5


 222              		.loc 1 189 0
 223 0024 0CB1     		cbz	r4, .L18
 224              		.loc 1 190 0
 225 0026 D869     		ldr	r0, [r3, #28]
 226 0028 A047     		blx	r4
 227              	.LVL17:
 228              	.L18:
 229              		.loc 1 192 0
 230 002a FFF7FEFF 		bl	dbg_check_leave_isr
 231              	.LVL18:
 232              		.loc 1 193 0
 233 002e BDE81040 		pop	{r4, lr}
 234              		.loc 1 192 0
 235 0032 FFF7FEBF 		b	_port_irq_epilogue
 236              	.LVL19:
 237              		.cfi_endproc
 238              	.LFE121:
 239              		.size	Vector78, .-Vector78
 240 0036 00BFAFF3 		.section	.text.Vector7C,"ax",%progbits
 240      0080AFF3 
 240      0080
 241              		.align	2
 242              		.p2align 4,,15
 243              		.global	Vector7C
 244              		.thumb
 245              		.thumb_func
 246              		.type	Vector7C, %function
 247              	Vector7C:
 248              	.LFB122:
 249              		.loc 1 200 0
 250              		.cfi_startproc
 251              		@ args = 0, pretend = 0, frame = 0
 252              		@ frame_needed = 0, uses_anonymous_args = 0
 253 0000 10B5     		push	{r4, lr}
 254              		.cfi_def_cfa_offset 8
 255              		.cfi_offset 4, -8
 256              		.cfi_offset 14, -4
 257              		.loc 1 203 0
 258 0002 FFF7FEFF 		bl	dbg_check_enter_isr
 259              	.LVL20:
 260              		.loc 1 205 0
 261 0006 4FF4C042 		mov	r2, #24576
 262 000a C4F20202 		movt	r2, 16386
 263              		.loc 1 207 0
 264 000e 40F20003 		movw	r3, #:lower16:.LANCHOR0
 265 0012 C0F20003 		movt	r3, #:upper16:.LANCHOR0
 266              		.loc 1 205 0
 267 0016 5168     		ldr	r1, [r2, #4]
 268              		.loc 1 207 0
 269 0018 1C6A     		ldr	r4, [r3, #32]
 270              		.loc 1 205 0
 271 001a 01F03D01 		and	r1, r1, #61
 272              	.LVL21:
 273              		.loc 1 206 0
 274 001e D160     		str	r1, [r2, #12]
 275              		.loc 1 207 0
 276 0020 0CB1     		cbz	r4, .L23
ARM GAS  /tmp/ccTeMzA3.s 			page 6


 277              		.loc 1 208 0
 278 0022 586A     		ldr	r0, [r3, #36]
 279 0024 A047     		blx	r4
 280              	.LVL22:
 281              	.L23:
 282              		.loc 1 210 0
 283 0026 FFF7FEFF 		bl	dbg_check_leave_isr
 284              	.LVL23:
 285              		.loc 1 211 0
 286 002a BDE81040 		pop	{r4, lr}
 287              		.loc 1 210 0
 288 002e FFF7FEBF 		b	_port_irq_epilogue
 289              	.LVL24:
 290              		.cfi_endproc
 291              	.LFE122:
 292              		.size	Vector7C, .-Vector7C
 293 0032 00BFAFF3 		.section	.text.Vector80,"ax",%progbits
 293      0080AFF3 
 293      0080AFF3 
 293      0080
 294              		.align	2
 295              		.p2align 4,,15
 296              		.global	Vector80
 297              		.thumb
 298              		.thumb_func
 299              		.type	Vector80, %function
 300              	Vector80:
 301              	.LFB123:
 302              		.loc 1 218 0
 303              		.cfi_startproc
 304              		@ args = 0, pretend = 0, frame = 0
 305              		@ frame_needed = 0, uses_anonymous_args = 0
 306 0000 10B5     		push	{r4, lr}
 307              		.cfi_def_cfa_offset 8
 308              		.cfi_offset 4, -8
 309              		.cfi_offset 14, -4
 310              		.loc 1 221 0
 311 0002 FFF7FEFF 		bl	dbg_check_enter_isr
 312              	.LVL25:
 313              		.loc 1 223 0
 314 0006 4FF4C042 		mov	r2, #24576
 315 000a C4F20202 		movt	r2, 16386
 316              		.loc 1 225 0
 317 000e 40F20003 		movw	r3, #:lower16:.LANCHOR0
 318              		.loc 1 223 0
 319 0012 5168     		ldr	r1, [r2, #4]
 320              		.loc 1 225 0
 321 0014 C0F20003 		movt	r3, #:upper16:.LANCHOR0
 322              		.loc 1 223 0
 323 0018 8909     		lsrs	r1, r1, #6
 324 001a 01F03D01 		and	r1, r1, #61
 325              	.LVL26:
 326              		.loc 1 225 0
 327 001e 9C6A     		ldr	r4, [r3, #40]
 328              		.loc 1 224 0
 329 0020 8801     		lsls	r0, r1, #6
 330 0022 D060     		str	r0, [r2, #12]
ARM GAS  /tmp/ccTeMzA3.s 			page 7


 331              		.loc 1 225 0
 332 0024 0CB1     		cbz	r4, .L28
 333              		.loc 1 226 0
 334 0026 D86A     		ldr	r0, [r3, #44]
 335 0028 A047     		blx	r4
 336              	.LVL27:
 337              	.L28:
 338              		.loc 1 228 0
 339 002a FFF7FEFF 		bl	dbg_check_leave_isr
 340              	.LVL28:
 341              		.loc 1 229 0
 342 002e BDE81040 		pop	{r4, lr}
 343              		.loc 1 228 0
 344 0032 FFF7FEBF 		b	_port_irq_epilogue
 345              	.LVL29:
 346              		.cfi_endproc
 347              	.LFE123:
 348              		.size	Vector80, .-Vector80
 349 0036 00BFAFF3 		.section	.text.Vector84,"ax",%progbits
 349      0080AFF3 
 349      0080
 350              		.align	2
 351              		.p2align 4,,15
 352              		.global	Vector84
 353              		.thumb
 354              		.thumb_func
 355              		.type	Vector84, %function
 356              	Vector84:
 357              	.LFB124:
 358              		.loc 1 236 0
 359              		.cfi_startproc
 360              		@ args = 0, pretend = 0, frame = 0
 361              		@ frame_needed = 0, uses_anonymous_args = 0
 362 0000 10B5     		push	{r4, lr}
 363              		.cfi_def_cfa_offset 8
 364              		.cfi_offset 4, -8
 365              		.cfi_offset 14, -4
 366              		.loc 1 239 0
 367 0002 FFF7FEFF 		bl	dbg_check_enter_isr
 368              	.LVL30:
 369              		.loc 1 241 0
 370 0006 4FF4C042 		mov	r2, #24576
 371 000a C4F20202 		movt	r2, 16386
 372              		.loc 1 243 0
 373 000e 40F20003 		movw	r3, #:lower16:.LANCHOR0
 374              		.loc 1 241 0
 375 0012 5168     		ldr	r1, [r2, #4]
 376              		.loc 1 243 0
 377 0014 C0F20003 		movt	r3, #:upper16:.LANCHOR0
 378              		.loc 1 241 0
 379 0018 090C     		lsrs	r1, r1, #16
 380 001a 01F03D01 		and	r1, r1, #61
 381              	.LVL31:
 382              		.loc 1 243 0
 383 001e 1C6B     		ldr	r4, [r3, #48]
 384              		.loc 1 242 0
 385 0020 0804     		lsls	r0, r1, #16
ARM GAS  /tmp/ccTeMzA3.s 			page 8


 386 0022 D060     		str	r0, [r2, #12]
 387              		.loc 1 243 0
 388 0024 0CB1     		cbz	r4, .L33
 389              		.loc 1 244 0
 390 0026 586B     		ldr	r0, [r3, #52]
 391 0028 A047     		blx	r4
 392              	.LVL32:
 393              	.L33:
 394              		.loc 1 246 0
 395 002a FFF7FEFF 		bl	dbg_check_leave_isr
 396              	.LVL33:
 397              		.loc 1 247 0
 398 002e BDE81040 		pop	{r4, lr}
 399              		.loc 1 246 0
 400 0032 FFF7FEBF 		b	_port_irq_epilogue
 401              	.LVL34:
 402              		.cfi_endproc
 403              	.LFE124:
 404              		.size	Vector84, .-Vector84
 405 0036 00BFAFF3 		.section	.text.VectorFC,"ax",%progbits
 405      0080AFF3 
 405      0080
 406              		.align	2
 407              		.p2align 4,,15
 408              		.global	VectorFC
 409              		.thumb
 410              		.thumb_func
 411              		.type	VectorFC, %function
 412              	VectorFC:
 413              	.LFB125:
 414              		.loc 1 254 0
 415              		.cfi_startproc
 416              		@ args = 0, pretend = 0, frame = 0
 417              		@ frame_needed = 0, uses_anonymous_args = 0
 418 0000 10B5     		push	{r4, lr}
 419              		.cfi_def_cfa_offset 8
 420              		.cfi_offset 4, -8
 421              		.cfi_offset 14, -4
 422              		.loc 1 257 0
 423 0002 FFF7FEFF 		bl	dbg_check_enter_isr
 424              	.LVL35:
 425              		.loc 1 259 0
 426 0006 4FF4C042 		mov	r2, #24576
 427 000a C4F20202 		movt	r2, 16386
 428              		.loc 1 261 0
 429 000e 40F20003 		movw	r3, #:lower16:.LANCHOR0
 430              		.loc 1 259 0
 431 0012 5168     		ldr	r1, [r2, #4]
 432              		.loc 1 261 0
 433 0014 C0F20003 		movt	r3, #:upper16:.LANCHOR0
 434              		.loc 1 259 0
 435 0018 890D     		lsrs	r1, r1, #22
 436 001a 01F03D01 		and	r1, r1, #61
 437              	.LVL36:
 438              		.loc 1 261 0
 439 001e 9C6B     		ldr	r4, [r3, #56]
 440              		.loc 1 260 0
ARM GAS  /tmp/ccTeMzA3.s 			page 9


 441 0020 8805     		lsls	r0, r1, #22
 442 0022 D060     		str	r0, [r2, #12]
 443              		.loc 1 261 0
 444 0024 0CB1     		cbz	r4, .L38
 445              		.loc 1 262 0
 446 0026 D86B     		ldr	r0, [r3, #60]
 447 0028 A047     		blx	r4
 448              	.LVL37:
 449              	.L38:
 450              		.loc 1 264 0
 451 002a FFF7FEFF 		bl	dbg_check_leave_isr
 452              	.LVL38:
 453              		.loc 1 265 0
 454 002e BDE81040 		pop	{r4, lr}
 455              		.loc 1 264 0
 456 0032 FFF7FEBF 		b	_port_irq_epilogue
 457              	.LVL39:
 458              		.cfi_endproc
 459              	.LFE125:
 460              		.size	VectorFC, .-VectorFC
 461 0036 00BFAFF3 		.section	.text.Vector120,"ax",%progbits
 461      0080AFF3 
 461      0080
 462              		.align	2
 463              		.p2align 4,,15
 464              		.global	Vector120
 465              		.thumb
 466              		.thumb_func
 467              		.type	Vector120, %function
 468              	Vector120:
 469              	.LFB126:
 470              		.loc 1 272 0
 471              		.cfi_startproc
 472              		@ args = 0, pretend = 0, frame = 0
 473              		@ frame_needed = 0, uses_anonymous_args = 0
 474 0000 10B5     		push	{r4, lr}
 475              		.cfi_def_cfa_offset 8
 476              		.cfi_offset 4, -8
 477              		.cfi_offset 14, -4
 478              		.loc 1 275 0
 479 0002 FFF7FEFF 		bl	dbg_check_enter_isr
 480              	.LVL40:
 481              		.loc 1 277 0
 482 0006 4FF4C842 		mov	r2, #25600
 483 000a C4F20202 		movt	r2, 16386
 484              		.loc 1 279 0
 485 000e 40F20003 		movw	r3, #:lower16:.LANCHOR0
 486 0012 C0F20003 		movt	r3, #:upper16:.LANCHOR0
 487              		.loc 1 277 0
 488 0016 1168     		ldr	r1, [r2]
 489              		.loc 1 279 0
 490 0018 1C6C     		ldr	r4, [r3, #64]
 491              		.loc 1 277 0
 492 001a 01F03D01 		and	r1, r1, #61
 493              	.LVL41:
 494              		.loc 1 278 0
 495 001e 9160     		str	r1, [r2, #8]
ARM GAS  /tmp/ccTeMzA3.s 			page 10


 496              		.loc 1 279 0
 497 0020 0CB1     		cbz	r4, .L43
 498              		.loc 1 280 0
 499 0022 586C     		ldr	r0, [r3, #68]
 500 0024 A047     		blx	r4
 501              	.LVL42:
 502              	.L43:
 503              		.loc 1 282 0
 504 0026 FFF7FEFF 		bl	dbg_check_leave_isr
 505              	.LVL43:
 506              		.loc 1 283 0
 507 002a BDE81040 		pop	{r4, lr}
 508              		.loc 1 282 0
 509 002e FFF7FEBF 		b	_port_irq_epilogue
 510              	.LVL44:
 511              		.cfi_endproc
 512              	.LFE126:
 513              		.size	Vector120, .-Vector120
 514 0032 00BFAFF3 		.section	.text.Vector124,"ax",%progbits
 514      0080AFF3 
 514      0080AFF3 
 514      0080
 515              		.align	2
 516              		.p2align 4,,15
 517              		.global	Vector124
 518              		.thumb
 519              		.thumb_func
 520              		.type	Vector124, %function
 521              	Vector124:
 522              	.LFB127:
 523              		.loc 1 290 0
 524              		.cfi_startproc
 525              		@ args = 0, pretend = 0, frame = 0
 526              		@ frame_needed = 0, uses_anonymous_args = 0
 527 0000 10B5     		push	{r4, lr}
 528              		.cfi_def_cfa_offset 8
 529              		.cfi_offset 4, -8
 530              		.cfi_offset 14, -4
 531              		.loc 1 293 0
 532 0002 FFF7FEFF 		bl	dbg_check_enter_isr
 533              	.LVL45:
 534              		.loc 1 295 0
 535 0006 4FF4C842 		mov	r2, #25600
 536 000a C4F20202 		movt	r2, 16386
 537              		.loc 1 297 0
 538 000e 40F20003 		movw	r3, #:lower16:.LANCHOR0
 539              		.loc 1 295 0
 540 0012 1168     		ldr	r1, [r2]
 541              		.loc 1 297 0
 542 0014 C0F20003 		movt	r3, #:upper16:.LANCHOR0
 543              		.loc 1 295 0
 544 0018 8909     		lsrs	r1, r1, #6
 545 001a 01F03D01 		and	r1, r1, #61
 546              	.LVL46:
 547              		.loc 1 297 0
 548 001e 9C6C     		ldr	r4, [r3, #72]
 549              		.loc 1 296 0
ARM GAS  /tmp/ccTeMzA3.s 			page 11


 550 0020 8801     		lsls	r0, r1, #6
 551 0022 9060     		str	r0, [r2, #8]
 552              		.loc 1 297 0
 553 0024 0CB1     		cbz	r4, .L48
 554              		.loc 1 298 0
 555 0026 D86C     		ldr	r0, [r3, #76]
 556 0028 A047     		blx	r4
 557              	.LVL47:
 558              	.L48:
 559              		.loc 1 300 0
 560 002a FFF7FEFF 		bl	dbg_check_leave_isr
 561              	.LVL48:
 562              		.loc 1 301 0
 563 002e BDE81040 		pop	{r4, lr}
 564              		.loc 1 300 0
 565 0032 FFF7FEBF 		b	_port_irq_epilogue
 566              	.LVL49:
 567              		.cfi_endproc
 568              	.LFE127:
 569              		.size	Vector124, .-Vector124
 570 0036 00BFAFF3 		.section	.text.Vector128,"ax",%progbits
 570      0080AFF3 
 570      0080
 571              		.align	2
 572              		.p2align 4,,15
 573              		.global	Vector128
 574              		.thumb
 575              		.thumb_func
 576              		.type	Vector128, %function
 577              	Vector128:
 578              	.LFB128:
 579              		.loc 1 308 0
 580              		.cfi_startproc
 581              		@ args = 0, pretend = 0, frame = 0
 582              		@ frame_needed = 0, uses_anonymous_args = 0
 583 0000 10B5     		push	{r4, lr}
 584              		.cfi_def_cfa_offset 8
 585              		.cfi_offset 4, -8
 586              		.cfi_offset 14, -4
 587              		.loc 1 311 0
 588 0002 FFF7FEFF 		bl	dbg_check_enter_isr
 589              	.LVL50:
 590              		.loc 1 313 0
 591 0006 4FF4C842 		mov	r2, #25600
 592 000a C4F20202 		movt	r2, 16386
 593              		.loc 1 315 0
 594 000e 40F20003 		movw	r3, #:lower16:.LANCHOR0
 595              		.loc 1 313 0
 596 0012 1168     		ldr	r1, [r2]
 597              		.loc 1 315 0
 598 0014 C0F20003 		movt	r3, #:upper16:.LANCHOR0
 599              		.loc 1 313 0
 600 0018 090C     		lsrs	r1, r1, #16
 601 001a 01F03D01 		and	r1, r1, #61
 602              	.LVL51:
 603              		.loc 1 315 0
 604 001e 1C6D     		ldr	r4, [r3, #80]
ARM GAS  /tmp/ccTeMzA3.s 			page 12


 605              		.loc 1 314 0
 606 0020 0804     		lsls	r0, r1, #16
 607 0022 9060     		str	r0, [r2, #8]
 608              		.loc 1 315 0
 609 0024 0CB1     		cbz	r4, .L53
 610              		.loc 1 316 0
 611 0026 586D     		ldr	r0, [r3, #84]
 612 0028 A047     		blx	r4
 613              	.LVL52:
 614              	.L53:
 615              		.loc 1 318 0
 616 002a FFF7FEFF 		bl	dbg_check_leave_isr
 617              	.LVL53:
 618              		.loc 1 319 0
 619 002e BDE81040 		pop	{r4, lr}
 620              		.loc 1 318 0
 621 0032 FFF7FEBF 		b	_port_irq_epilogue
 622              	.LVL54:
 623              		.cfi_endproc
 624              	.LFE128:
 625              		.size	Vector128, .-Vector128
 626 0036 00BFAFF3 		.section	.text.Vector12C,"ax",%progbits
 626      0080AFF3 
 626      0080
 627              		.align	2
 628              		.p2align 4,,15
 629              		.global	Vector12C
 630              		.thumb
 631              		.thumb_func
 632              		.type	Vector12C, %function
 633              	Vector12C:
 634              	.LFB129:
 635              		.loc 1 326 0
 636              		.cfi_startproc
 637              		@ args = 0, pretend = 0, frame = 0
 638              		@ frame_needed = 0, uses_anonymous_args = 0
 639 0000 10B5     		push	{r4, lr}
 640              		.cfi_def_cfa_offset 8
 641              		.cfi_offset 4, -8
 642              		.cfi_offset 14, -4
 643              		.loc 1 329 0
 644 0002 FFF7FEFF 		bl	dbg_check_enter_isr
 645              	.LVL55:
 646              		.loc 1 331 0
 647 0006 4FF4C842 		mov	r2, #25600
 648 000a C4F20202 		movt	r2, 16386
 649              		.loc 1 333 0
 650 000e 40F20003 		movw	r3, #:lower16:.LANCHOR0
 651              		.loc 1 331 0
 652 0012 1168     		ldr	r1, [r2]
 653              		.loc 1 333 0
 654 0014 C0F20003 		movt	r3, #:upper16:.LANCHOR0
 655              		.loc 1 331 0
 656 0018 890D     		lsrs	r1, r1, #22
 657 001a 01F03D01 		and	r1, r1, #61
 658              	.LVL56:
 659              		.loc 1 333 0
ARM GAS  /tmp/ccTeMzA3.s 			page 13


 660 001e 9C6D     		ldr	r4, [r3, #88]
 661              		.loc 1 332 0
 662 0020 8805     		lsls	r0, r1, #22
 663 0022 9060     		str	r0, [r2, #8]
 664              		.loc 1 333 0
 665 0024 0CB1     		cbz	r4, .L58
 666              		.loc 1 334 0
 667 0026 D86D     		ldr	r0, [r3, #92]
 668 0028 A047     		blx	r4
 669              	.LVL57:
 670              	.L58:
 671              		.loc 1 336 0
 672 002a FFF7FEFF 		bl	dbg_check_leave_isr
 673              	.LVL58:
 674              		.loc 1 337 0
 675 002e BDE81040 		pop	{r4, lr}
 676              		.loc 1 336 0
 677 0032 FFF7FEBF 		b	_port_irq_epilogue
 678              	.LVL59:
 679              		.cfi_endproc
 680              	.LFE129:
 681              		.size	Vector12C, .-Vector12C
 682 0036 00BFAFF3 		.section	.text.Vector130,"ax",%progbits
 682      0080AFF3 
 682      0080
 683              		.align	2
 684              		.p2align 4,,15
 685              		.global	Vector130
 686              		.thumb
 687              		.thumb_func
 688              		.type	Vector130, %function
 689              	Vector130:
 690              	.LFB130:
 691              		.loc 1 344 0
 692              		.cfi_startproc
 693              		@ args = 0, pretend = 0, frame = 0
 694              		@ frame_needed = 0, uses_anonymous_args = 0
 695 0000 10B5     		push	{r4, lr}
 696              		.cfi_def_cfa_offset 8
 697              		.cfi_offset 4, -8
 698              		.cfi_offset 14, -4
 699              		.loc 1 347 0
 700 0002 FFF7FEFF 		bl	dbg_check_enter_isr
 701              	.LVL60:
 702              		.loc 1 349 0
 703 0006 4FF4C842 		mov	r2, #25600
 704 000a C4F20202 		movt	r2, 16386
 705              		.loc 1 351 0
 706 000e 40F20003 		movw	r3, #:lower16:.LANCHOR0
 707 0012 C0F20003 		movt	r3, #:upper16:.LANCHOR0
 708              		.loc 1 349 0
 709 0016 5168     		ldr	r1, [r2, #4]
 710              		.loc 1 351 0
 711 0018 1C6E     		ldr	r4, [r3, #96]
 712              		.loc 1 349 0
 713 001a 01F03D01 		and	r1, r1, #61
 714              	.LVL61:
ARM GAS  /tmp/ccTeMzA3.s 			page 14


 715              		.loc 1 350 0
 716 001e D160     		str	r1, [r2, #12]
 717              		.loc 1 351 0
 718 0020 0CB1     		cbz	r4, .L63
 719              		.loc 1 352 0
 720 0022 586E     		ldr	r0, [r3, #100]
 721 0024 A047     		blx	r4
 722              	.LVL62:
 723              	.L63:
 724              		.loc 1 354 0
 725 0026 FFF7FEFF 		bl	dbg_check_leave_isr
 726              	.LVL63:
 727              		.loc 1 355 0
 728 002a BDE81040 		pop	{r4, lr}
 729              		.loc 1 354 0
 730 002e FFF7FEBF 		b	_port_irq_epilogue
 731              	.LVL64:
 732              		.cfi_endproc
 733              	.LFE130:
 734              		.size	Vector130, .-Vector130
 735 0032 00BFAFF3 		.section	.text.Vector150,"ax",%progbits
 735      0080AFF3 
 735      0080AFF3 
 735      0080
 736              		.align	2
 737              		.p2align 4,,15
 738              		.global	Vector150
 739              		.thumb
 740              		.thumb_func
 741              		.type	Vector150, %function
 742              	Vector150:
 743              	.LFB131:
 744              		.loc 1 362 0
 745              		.cfi_startproc
 746              		@ args = 0, pretend = 0, frame = 0
 747              		@ frame_needed = 0, uses_anonymous_args = 0
 748 0000 10B5     		push	{r4, lr}
 749              		.cfi_def_cfa_offset 8
 750              		.cfi_offset 4, -8
 751              		.cfi_offset 14, -4
 752              		.loc 1 365 0
 753 0002 FFF7FEFF 		bl	dbg_check_enter_isr
 754              	.LVL65:
 755              		.loc 1 367 0
 756 0006 4FF4C842 		mov	r2, #25600
 757 000a C4F20202 		movt	r2, 16386
 758              		.loc 1 369 0
 759 000e 40F20003 		movw	r3, #:lower16:.LANCHOR0
 760              		.loc 1 367 0
 761 0012 5168     		ldr	r1, [r2, #4]
 762              		.loc 1 369 0
 763 0014 C0F20003 		movt	r3, #:upper16:.LANCHOR0
 764              		.loc 1 367 0
 765 0018 8909     		lsrs	r1, r1, #6
 766 001a 01F03D01 		and	r1, r1, #61
 767              	.LVL66:
 768              		.loc 1 369 0
ARM GAS  /tmp/ccTeMzA3.s 			page 15


 769 001e 9C6E     		ldr	r4, [r3, #104]
 770              		.loc 1 368 0
 771 0020 8801     		lsls	r0, r1, #6
 772 0022 D060     		str	r0, [r2, #12]
 773              		.loc 1 369 0
 774 0024 0CB1     		cbz	r4, .L68
 775              		.loc 1 370 0
 776 0026 D86E     		ldr	r0, [r3, #108]
 777 0028 A047     		blx	r4
 778              	.LVL67:
 779              	.L68:
 780              		.loc 1 372 0
 781 002a FFF7FEFF 		bl	dbg_check_leave_isr
 782              	.LVL68:
 783              		.loc 1 373 0
 784 002e BDE81040 		pop	{r4, lr}
 785              		.loc 1 372 0
 786 0032 FFF7FEBF 		b	_port_irq_epilogue
 787              	.LVL69:
 788              		.cfi_endproc
 789              	.LFE131:
 790              		.size	Vector150, .-Vector150
 791 0036 00BFAFF3 		.section	.text.Vector154,"ax",%progbits
 791      0080AFF3 
 791      0080
 792              		.align	2
 793              		.p2align 4,,15
 794              		.global	Vector154
 795              		.thumb
 796              		.thumb_func
 797              		.type	Vector154, %function
 798              	Vector154:
 799              	.LFB132:
 800              		.loc 1 380 0
 801              		.cfi_startproc
 802              		@ args = 0, pretend = 0, frame = 0
 803              		@ frame_needed = 0, uses_anonymous_args = 0
 804 0000 10B5     		push	{r4, lr}
 805              		.cfi_def_cfa_offset 8
 806              		.cfi_offset 4, -8
 807              		.cfi_offset 14, -4
 808              		.loc 1 383 0
 809 0002 FFF7FEFF 		bl	dbg_check_enter_isr
 810              	.LVL70:
 811              		.loc 1 385 0
 812 0006 4FF4C842 		mov	r2, #25600
 813 000a C4F20202 		movt	r2, 16386
 814              		.loc 1 387 0
 815 000e 40F20003 		movw	r3, #:lower16:.LANCHOR0
 816              		.loc 1 385 0
 817 0012 5168     		ldr	r1, [r2, #4]
 818              		.loc 1 387 0
 819 0014 C0F20003 		movt	r3, #:upper16:.LANCHOR0
 820              		.loc 1 385 0
 821 0018 090C     		lsrs	r1, r1, #16
 822 001a 01F03D01 		and	r1, r1, #61
 823              	.LVL71:
ARM GAS  /tmp/ccTeMzA3.s 			page 16


 824              		.loc 1 387 0
 825 001e 1C6F     		ldr	r4, [r3, #112]
 826              		.loc 1 386 0
 827 0020 0804     		lsls	r0, r1, #16
 828 0022 D060     		str	r0, [r2, #12]
 829              		.loc 1 387 0
 830 0024 0CB1     		cbz	r4, .L73
 831              		.loc 1 388 0
 832 0026 586F     		ldr	r0, [r3, #116]
 833 0028 A047     		blx	r4
 834              	.LVL72:
 835              	.L73:
 836              		.loc 1 390 0
 837 002a FFF7FEFF 		bl	dbg_check_leave_isr
 838              	.LVL73:
 839              		.loc 1 391 0
 840 002e BDE81040 		pop	{r4, lr}
 841              		.loc 1 390 0
 842 0032 FFF7FEBF 		b	_port_irq_epilogue
 843              	.LVL74:
 844              		.cfi_endproc
 845              	.LFE132:
 846              		.size	Vector154, .-Vector154
 847 0036 00BFAFF3 		.section	.text.Vector158,"ax",%progbits
 847      0080AFF3 
 847      0080
 848              		.align	2
 849              		.p2align 4,,15
 850              		.global	Vector158
 851              		.thumb
 852              		.thumb_func
 853              		.type	Vector158, %function
 854              	Vector158:
 855              	.LFB133:
 856              		.loc 1 398 0
 857              		.cfi_startproc
 858              		@ args = 0, pretend = 0, frame = 0
 859              		@ frame_needed = 0, uses_anonymous_args = 0
 860 0000 10B5     		push	{r4, lr}
 861              		.cfi_def_cfa_offset 8
 862              		.cfi_offset 4, -8
 863              		.cfi_offset 14, -4
 864              		.loc 1 401 0
 865 0002 FFF7FEFF 		bl	dbg_check_enter_isr
 866              	.LVL75:
 867              		.loc 1 403 0
 868 0006 4FF4C842 		mov	r2, #25600
 869 000a C4F20202 		movt	r2, 16386
 870              		.loc 1 405 0
 871 000e 40F20003 		movw	r3, #:lower16:.LANCHOR0
 872              		.loc 1 403 0
 873 0012 5168     		ldr	r1, [r2, #4]
 874              		.loc 1 405 0
 875 0014 C0F20003 		movt	r3, #:upper16:.LANCHOR0
 876              		.loc 1 403 0
 877 0018 890D     		lsrs	r1, r1, #22
 878 001a 01F03D01 		and	r1, r1, #61
ARM GAS  /tmp/ccTeMzA3.s 			page 17


 879              	.LVL76:
 880              		.loc 1 405 0
 881 001e 9C6F     		ldr	r4, [r3, #120]
 882              		.loc 1 404 0
 883 0020 8805     		lsls	r0, r1, #22
 884 0022 D060     		str	r0, [r2, #12]
 885              		.loc 1 405 0
 886 0024 0CB1     		cbz	r4, .L78
 887              		.loc 1 406 0
 888 0026 D86F     		ldr	r0, [r3, #124]
 889 0028 A047     		blx	r4
 890              	.LVL77:
 891              	.L78:
 892              		.loc 1 408 0
 893 002a FFF7FEFF 		bl	dbg_check_leave_isr
 894              	.LVL78:
 895              		.loc 1 409 0
 896 002e BDE81040 		pop	{r4, lr}
 897              		.loc 1 408 0
 898 0032 FFF7FEBF 		b	_port_irq_epilogue
 899              	.LVL79:
 900              		.cfi_endproc
 901              	.LFE133:
 902              		.size	Vector158, .-Vector158
 903 0036 00BFAFF3 		.section	.text.dmaInit,"ax",%progbits
 903      0080AFF3 
 903      0080
 904              		.align	2
 905              		.p2align 4,,15
 906              		.global	dmaInit
 907              		.thumb
 908              		.thumb_func
 909              		.type	dmaInit, %function
 910              	dmaInit:
 911              	.LFB134:
 912              		.loc 1 420 0
 913              		.cfi_startproc
 914              		@ args = 0, pretend = 0, frame = 0
 915              		@ frame_needed = 0, uses_anonymous_args = 0
 916              		@ link register save eliminated.
 917              		.loc 1 423 0
 918 0000 40F20003 		movw	r3, #:lower16:.LANCHOR1
 919 0004 C0F20003 		movt	r3, #:upper16:.LANCHOR1
 920              		.loc 1 420 0
 921 0008 30B4     		push	{r4, r5}
 922              		.cfi_def_cfa_offset 8
 923              		.cfi_offset 4, -8
 924              		.cfi_offset 5, -4
 925              		.loc 1 423 0
 926 000a 0021     		movs	r1, #0
 927 000c 40F20005 		movw	r5, #:lower16:.LANCHOR2
 928 0010 40F20004 		movw	r4, #:lower16:.LANCHOR0
 929 0014 1960     		str	r1, [r3]
 930              	.LVL80:
 931 0016 0A46     		mov	r2, r1
 932 0018 0B46     		mov	r3, r1
 933 001a C0F20005 		movt	r5, #:upper16:.LANCHOR2
ARM GAS  /tmp/ccTeMzA3.s 			page 18


 934 001e C0F20004 		movt	r4, #:upper16:.LANCHOR0
 935              	.LVL81:
 936              	.L84:
 937              		.loc 1 425 0 discriminator 2
 938 0022 E858     		ldr	r0, [r5, r3]
 939 0024 0C33     		adds	r3, r3, #12
 940              		.loc 1 424 0 discriminator 2
 941 0026 C02B     		cmp	r3, #192
 942              		.loc 1 425 0 discriminator 2
 943 0028 0160     		str	r1, [r0]
 944              		.loc 1 426 0 discriminator 2
 945 002a A150     		str	r1, [r4, r2]
 946 002c 02F10802 		add	r2, r2, #8
 947              		.loc 1 424 0 discriminator 2
 948 0030 F7D1     		bne	.L84
 949              		.loc 1 428 0
 950 0032 4FF4C041 		mov	r1, #24576
 951              		.loc 1 430 0
 952 0036 4FF4C842 		mov	r2, #25600
 953              		.loc 1 428 0
 954 003a C4F20201 		movt	r1, 16386
 955              		.loc 1 430 0
 956 003e C4F20202 		movt	r2, 16386
 957              		.loc 1 428 0
 958 0042 4FF0FF33 		mov	r3, #-1
 959 0046 8B60     		str	r3, [r1, #8]
 960              		.loc 1 432 0
 961 0048 30BC     		pop	{r4, r5}
 962              		.loc 1 429 0
 963 004a CB60     		str	r3, [r1, #12]
 964              		.loc 1 430 0
 965 004c 9360     		str	r3, [r2, #8]
 966              		.loc 1 431 0
 967 004e D360     		str	r3, [r2, #12]
 968              		.loc 1 432 0
 969 0050 7047     		bx	lr
 970              		.cfi_endproc
 971              	.LFE134:
 972              		.size	dmaInit, .-dmaInit
 973 0052 00BFAFF3 		.section	.text.dmaStreamAllocate,"ax",%progbits
 973      0080AFF3 
 973      0080AFF3 
 973      0080
 974              		.align	2
 975              		.p2align 4,,15
 976              		.global	dmaStreamAllocate
 977              		.thumb
 978              		.thumb_func
 979              		.type	dmaStreamAllocate, %function
 980              	dmaStreamAllocate:
 981              	.LFB135:
 982              		.loc 1 461 0
 983              		.cfi_startproc
 984              		@ args = 0, pretend = 0, frame = 16
 985              		@ frame_needed = 0, uses_anonymous_args = 0
 986              	.LVL82:
 987 0000 2DE9F041 		push	{r4, r5, r6, r7, r8, lr}
ARM GAS  /tmp/ccTeMzA3.s 			page 19


 988              		.cfi_def_cfa_offset 24
 989              		.cfi_offset 4, -24
 990              		.cfi_offset 5, -20
 991              		.cfi_offset 6, -16
 992              		.cfi_offset 7, -12
 993              		.cfi_offset 8, -8
 994              		.cfi_offset 14, -4
 995              		.loc 1 463 0
 996 0004 0646     		mov	r6, r0
 997              		.loc 1 461 0
 998 0006 84B0     		sub	sp, sp, #16
 999              		.cfi_def_cfa_offset 40
 1000              		.loc 1 463 0
 1001 0008 0028     		cmp	r0, #0
 1002 000a 4CD0     		beq	.L101
 1003              	.LVL83:
 1004              	.L87:
 1005              		.loc 1 466 0
 1006 000c 40F20004 		movw	r4, #:lower16:.LANCHOR1
 1007 0010 C0F20004 		movt	r4, #:upper16:.LANCHOR1
 1008 0014 777A     		ldrb	r7, [r6, #9]	@ zero_extendqisi2
 1009 0016 2068     		ldr	r0, [r4]
 1010 0018 0125     		movs	r5, #1
 1011 001a 05FA07F8 		lsl	r8, r5, r7
 1012 001e 18EA000F 		tst	r8, r0
 1013              		.loc 1 467 0
 1014 0022 18BF     		it	ne
 1015 0024 2846     		movne	r0, r5
 1016              		.loc 1 466 0
 1017 0026 3BD1     		bne	.L88
 1018              		.loc 1 470 0
 1019 0028 40F2000C 		movw	ip, #:lower16:.LANCHOR0
 1020 002c C0F2000C 		movt	ip, #:upper16:.LANCHOR0
 1021              		.loc 1 472 0
 1022 0030 48EA0000 		orr	r0, r8, r0
 1023              		.loc 1 471 0
 1024 0034 0CEBC705 		add	r5, ip, r7, lsl #3
 1025              		.loc 1 475 0
 1026 0038 10F0FF0F 		tst	r0, #255
 1027              		.loc 1 470 0
 1028 003c 4CF83720 		str	r2, [ip, r7, lsl #3]
 1029              		.loc 1 471 0
 1030 0040 6B60     		str	r3, [r5, #4]
 1031              		.loc 1 476 0
 1032 0042 1CBF     		itt	ne
 1033 0044 4FF46053 		movne	r3, #14336
 1034 0048 C4F20203 		movtne	r3, 16386
 1035              		.loc 1 472 0
 1036 004c 2060     		str	r0, [r4]
 1037              		.loc 1 476 0
 1038 004e 1EBF     		ittt	ne
 1039 0050 1C6B     		ldrne	r4, [r3, #48]
 1040 0052 44F40014 		orrne	r4, r4, #2097152
 1041 0056 1C63     		strne	r4, [r3, #48]
 1042              		.loc 1 477 0
 1043 0058 10F47F4F 		tst	r0, #65280
 1044              		.loc 1 478 0
ARM GAS  /tmp/ccTeMzA3.s 			page 20


 1045 005c 1CBF     		itt	ne
 1046 005e 4FF46053 		movne	r3, #14336
 1047 0062 C4F20203 		movtne	r3, 16386
 1048              		.loc 1 481 0
 1049 0066 3468     		ldr	r4, [r6]
 1050              		.loc 1 478 0
 1051 0068 1EBF     		ittt	ne
 1052 006a 186B     		ldrne	r0, [r3, #48]
 1053 006c 40F48000 		orrne	r0, r0, #4194304
 1054 0070 1863     		strne	r0, [r3, #48]
 1055              		.loc 1 481 0
 1056 0072 2368     		ldr	r3, [r4]
 1057 0074 23F01F03 		bic	r3, r3, #31
 1058 0078 2360     		str	r3, [r4]
 1059              	.L92:
 1060              		.loc 1 481 0 is_stmt 0 discriminator 1
 1061 007a 2368     		ldr	r3, [r4]
 1062 007c 13F00105 		ands	r5, r3, #1
 1063 0080 FBD1     		bne	.L92
 1064              		.loc 1 481 0 discriminator 2
 1065 0082 307A     		ldrb	r0, [r6, #8]	@ zero_extendqisi2
 1066 0084 7368     		ldr	r3, [r6, #4]
 1067 0086 3D27     		movs	r7, #61
 1068 0088 8740     		lsls	r7, r7, r0
 1069              		.loc 1 483 0 is_stmt 1 discriminator 2
 1070 008a 2120     		movs	r0, #33
 1071              		.loc 1 481 0 discriminator 2
 1072 008c 1F60     		str	r7, [r3]
 1073              		.loc 1 482 0 discriminator 2
 1074 008e 2560     		str	r5, [r4]
 1075              		.loc 1 483 0 discriminator 2
 1076 0090 6061     		str	r0, [r4, #20]
 1077              		.loc 1 489 0 discriminator 2
 1078 0092 1046     		mov	r0, r2
 1079              		.loc 1 486 0 discriminator 2
 1080 0094 22B1     		cbz	r2, .L88
 1081              		.loc 1 487 0
 1082 0096 B07A     		ldrb	r0, [r6, #10]	@ zero_extendqisi2
 1083 0098 0901     		lsls	r1, r1, #4
 1084 009a FFF7FEFF 		bl	nvicEnableVector
 1085              	.LVL84:
 1086              		.loc 1 489 0
 1087 009e 2846     		mov	r0, r5
 1088              	.L88:
 1089              		.loc 1 490 0
 1090 00a0 04B0     		add	sp, sp, #16
 1091              		@ sp needed
 1092 00a2 BDE8F081 		pop	{r4, r5, r6, r7, r8, pc}
 1093              	.LVL85:
 1094              	.L101:
 1095              		.loc 1 463 0 discriminator 1
 1096 00a6 40F20000 		movw	r0, #:lower16:.LC0
 1097              	.LVL86:
 1098 00aa C0F20000 		movt	r0, #:upper16:.LC0
 1099 00ae 0391     		str	r1, [sp, #12]
 1100 00b0 0292     		str	r2, [sp, #8]
 1101 00b2 0193     		str	r3, [sp, #4]
ARM GAS  /tmp/ccTeMzA3.s 			page 21


 1102 00b4 FFF7FEFF 		bl	chDbgPanic
 1103              	.LVL87:
 1104 00b8 019B     		ldr	r3, [sp, #4]
 1105 00ba 029A     		ldr	r2, [sp, #8]
 1106 00bc 0399     		ldr	r1, [sp, #12]
 1107 00be A5E7     		b	.L87
 1108              		.cfi_endproc
 1109              	.LFE135:
 1110              		.size	dmaStreamAllocate, .-dmaStreamAllocate
 1111              		.section	.text.dmaStreamRelease,"ax",%progbits
 1112              		.align	2
 1113              		.p2align 4,,15
 1114              		.global	dmaStreamRelease
 1115              		.thumb
 1116              		.thumb_func
 1117              		.type	dmaStreamRelease, %function
 1118              	dmaStreamRelease:
 1119              	.LFB136:
 1120              		.loc 1 505 0
 1121              		.cfi_startproc
 1122              		@ args = 0, pretend = 0, frame = 0
 1123              		@ frame_needed = 0, uses_anonymous_args = 0
 1124              	.LVL88:
 1125 0000 38B5     		push	{r3, r4, r5, lr}
 1126              		.cfi_def_cfa_offset 16
 1127              		.cfi_offset 3, -16
 1128              		.cfi_offset 4, -12
 1129              		.cfi_offset 5, -8
 1130              		.cfi_offset 14, -4
 1131              		.loc 1 507 0
 1132 0002 0546     		mov	r5, r0
 1133 0004 0028     		cmp	r0, #0
 1134 0006 35D0     		beq	.L107
 1135              	.LVL89:
 1136              	.L103:
 1137              		.loc 1 510 0
 1138 0008 40F20004 		movw	r4, #:lower16:.LANCHOR1
 1139 000c C0F20004 		movt	r4, #:upper16:.LANCHOR1
 1140 0010 6A7A     		ldrb	r2, [r5, #9]	@ zero_extendqisi2
 1141 0012 2368     		ldr	r3, [r4]
 1142 0014 0121     		movs	r1, #1
 1143 0016 01FA02F2 		lsl	r2, r1, r2
 1144 001a 1A42     		tst	r2, r3
 1145 001c 23D0     		beq	.L108
 1146              	.L104:
 1147              		.loc 1 514 0
 1148 001e A87A     		ldrb	r0, [r5, #10]	@ zero_extendqisi2
 1149 0020 FFF7FEFF 		bl	nvicDisableVector
 1150              	.LVL90:
 1151              		.loc 1 517 0
 1152 0024 6B7A     		ldrb	r3, [r5, #9]	@ zero_extendqisi2
 1153 0026 2268     		ldr	r2, [r4]
 1154 0028 0121     		movs	r1, #1
 1155 002a 01FA03F3 		lsl	r3, r1, r3
 1156 002e 22EA0303 		bic	r3, r2, r3
 1157              		.loc 1 520 0
 1158 0032 13F0FF0F 		tst	r3, #255
ARM GAS  /tmp/ccTeMzA3.s 			page 22


 1159              		.loc 1 521 0
 1160 0036 04BF     		itt	eq
 1161 0038 4FF46052 		moveq	r2, #14336
 1162 003c C4F20202 		movteq	r2, 16386
 1163              		.loc 1 517 0
 1164 0040 2360     		str	r3, [r4]
 1165              		.loc 1 521 0
 1166 0042 02BF     		ittt	eq
 1167 0044 116B     		ldreq	r1, [r2, #48]
 1168 0046 21F40011 		biceq	r1, r1, #2097152
 1169 004a 1163     		streq	r1, [r2, #48]
 1170              		.loc 1 522 0
 1171 004c 13F47F4F 		tst	r3, #65280
 1172              		.loc 1 523 0
 1173 0050 01BF     		itttt	eq
 1174 0052 4FF46053 		moveq	r3, #14336
 1175 0056 C4F20203 		movteq	r3, 16386
 1176 005a 1A6B     		ldreq	r2, [r3, #48]
 1177 005c 22F48002 		biceq	r2, r2, #4194304
 1178 0060 08BF     		it	eq
 1179 0062 1A63     		streq	r2, [r3, #48]
 1180 0064 38BD     		pop	{r3, r4, r5, pc}
 1181              	.LVL91:
 1182              	.L108:
 1183              		.loc 1 510 0 discriminator 1
 1184 0066 40F20000 		movw	r0, #:lower16:.LC2
 1185 006a C0F20000 		movt	r0, #:upper16:.LC2
 1186 006e FFF7FEFF 		bl	chDbgPanic
 1187              	.LVL92:
 1188 0072 D4E7     		b	.L104
 1189              	.LVL93:
 1190              	.L107:
 1191              		.loc 1 507 0 discriminator 1
 1192 0074 40F20000 		movw	r0, #:lower16:.LC1
 1193              	.LVL94:
 1194 0078 C0F20000 		movt	r0, #:upper16:.LC1
 1195 007c FFF7FEFF 		bl	chDbgPanic
 1196              	.LVL95:
 1197 0080 C2E7     		b	.L103
 1198              		.cfi_endproc
 1199              	.LFE136:
 1200              		.size	dmaStreamRelease, .-dmaStreamRelease
 1201              		.global	_stm32_dma_streams
 1202 0082 00BFAFF3 		.section	.rodata.str1.4,"aMS",%progbits,1
 1202      0080AFF3 
 1202      0080AFF3 
 1202      0080
 1203              		.align	2
 1204              	.LC0:
 1205 0000 22646D61 		.ascii	"\"dmaStreamAllocate\"()\000"
 1205      53747265 
 1205      616D416C 
 1205      6C6F6361 
 1205      74652228 
 1206 0016 0000     		.space	2
 1207              	.LC1:
 1208 0018 22646D61 		.ascii	"\"dmaStreamRelease\"()\000"
ARM GAS  /tmp/ccTeMzA3.s 			page 23


 1208      53747265 
 1208      616D5265 
 1208      6C656173 
 1208      65222829 
 1209 002d 000000   		.space	3
 1210              	.LC2:
 1211 0030 646D6153 		.ascii	"dmaStreamRelease(), #1\000"
 1211      74726561 
 1211      6D52656C 
 1211      65617365 
 1211      28292C20 
 1212 0047 00       		.section	.bss.dma_isr_redir,"aw",%nobits
 1213              		.align	2
 1214              		.set	.LANCHOR0,. + 0
 1215              		.type	dma_isr_redir, %object
 1216              		.size	dma_isr_redir, 128
 1217              	dma_isr_redir:
 1218 0000 00000000 		.space	128
 1218      00000000 
 1218      00000000 
 1218      00000000 
 1218      00000000 
 1219              		.section	.rodata._stm32_dma_streams,"a",%progbits
 1220              		.align	2
 1221              		.set	.LANCHOR2,. + 0
 1222              		.type	_stm32_dma_streams, %object
 1223              		.size	_stm32_dma_streams, 192
 1224              	_stm32_dma_streams:
 1225 0000 10600240 		.word	1073897488
 1226 0004 08600240 		.word	1073897480
 1227 0008 00       		.byte	0
 1228 0009 00       		.byte	0
 1229 000a 0B       		.byte	11
 1230 000b 00       		.space	1
 1231 000c 28600240 		.word	1073897512
 1232 0010 08600240 		.word	1073897480
 1233 0014 06       		.byte	6
 1234 0015 01       		.byte	1
 1235 0016 0C       		.byte	12
 1236 0017 00       		.space	1
 1237 0018 40600240 		.word	1073897536
 1238 001c 08600240 		.word	1073897480
 1239 0020 10       		.byte	16
 1240 0021 02       		.byte	2
 1241 0022 0D       		.byte	13
 1242 0023 00       		.space	1
 1243 0024 58600240 		.word	1073897560
 1244 0028 08600240 		.word	1073897480
 1245 002c 16       		.byte	22
 1246 002d 03       		.byte	3
 1247 002e 0E       		.byte	14
 1248 002f 00       		.space	1
 1249 0030 70600240 		.word	1073897584
 1250 0034 0C600240 		.word	1073897484
 1251 0038 00       		.byte	0
 1252 0039 04       		.byte	4
 1253 003a 0F       		.byte	15
ARM GAS  /tmp/ccTeMzA3.s 			page 24


 1254 003b 00       		.space	1
 1255 003c 88600240 		.word	1073897608
 1256 0040 0C600240 		.word	1073897484
 1257 0044 06       		.byte	6
 1258 0045 05       		.byte	5
 1259 0046 10       		.byte	16
 1260 0047 00       		.space	1
 1261 0048 A0600240 		.word	1073897632
 1262 004c 0C600240 		.word	1073897484
 1263 0050 10       		.byte	16
 1264 0051 06       		.byte	6
 1265 0052 11       		.byte	17
 1266 0053 00       		.space	1
 1267 0054 B8600240 		.word	1073897656
 1268 0058 0C600240 		.word	1073897484
 1269 005c 16       		.byte	22
 1270 005d 07       		.byte	7
 1271 005e 2F       		.byte	47
 1272 005f 00       		.space	1
 1273 0060 10640240 		.word	1073898512
 1274 0064 08640240 		.word	1073898504
 1275 0068 00       		.byte	0
 1276 0069 08       		.byte	8
 1277 006a 38       		.byte	56
 1278 006b 00       		.space	1
 1279 006c 28640240 		.word	1073898536
 1280 0070 08640240 		.word	1073898504
 1281 0074 06       		.byte	6
 1282 0075 09       		.byte	9
 1283 0076 39       		.byte	57
 1284 0077 00       		.space	1
 1285 0078 40640240 		.word	1073898560
 1286 007c 08640240 		.word	1073898504
 1287 0080 10       		.byte	16
 1288 0081 0A       		.byte	10
 1289 0082 3A       		.byte	58
 1290 0083 00       		.space	1
 1291 0084 58640240 		.word	1073898584
 1292 0088 08640240 		.word	1073898504
 1293 008c 16       		.byte	22
 1294 008d 0B       		.byte	11
 1295 008e 3B       		.byte	59
 1296 008f 00       		.space	1
 1297 0090 70640240 		.word	1073898608
 1298 0094 0C640240 		.word	1073898508
 1299 0098 00       		.byte	0
 1300 0099 0C       		.byte	12
 1301 009a 3C       		.byte	60
 1302 009b 00       		.space	1
 1303 009c 88640240 		.word	1073898632
 1304 00a0 0C640240 		.word	1073898508
 1305 00a4 06       		.byte	6
 1306 00a5 0D       		.byte	13
 1307 00a6 44       		.byte	68
 1308 00a7 00       		.space	1
 1309 00a8 A0640240 		.word	1073898656
 1310 00ac 0C640240 		.word	1073898508
ARM GAS  /tmp/ccTeMzA3.s 			page 25


 1311 00b0 10       		.byte	16
 1312 00b1 0E       		.byte	14
 1313 00b2 45       		.byte	69
 1314 00b3 00       		.space	1
 1315 00b4 B8640240 		.word	1073898680
 1316 00b8 0C640240 		.word	1073898508
 1317 00bc 16       		.byte	22
 1318 00bd 0F       		.byte	15
 1319 00be 46       		.byte	70
 1320 00bf 00       		.space	1
 1321              		.section	.bss.dma_streams_mask,"aw",%nobits
 1322              		.align	2
 1323              		.set	.LANCHOR1,. + 0
 1324              		.type	dma_streams_mask, %object
 1325              		.size	dma_streams_mask, 4
 1326              	dma_streams_mask:
 1327 0000 00000000 		.space	4
 1328              		.text
 1329              	.Letext0:
 1330              		.file 2 "/usr/include/newlib/machine/_default_types.h"
 1331              		.file 3 "/usr/include/newlib/stdint.h"
 1332              		.file 4 "../../../os/ports/GCC/ARMCMx/chtypes.h"
 1333              		.file 5 "../../../os/hal/platforms/STM32F4xx/stm32f4xx.h"
 1334              		.file 6 "../../../os/hal/platforms/STM32F4xx/stm32_dma.h"
 1335              		.file 7 "../../../os/ports/common/ARMCMx/CMSIS/include/core_cm4.h"
 1336              		.file 8 "../../../os/kernel/include/chdebug.h"
 1337              		.file 9 "../../../os/ports/GCC/ARMCMx/chcore_v7m.h"
 1338              		.file 10 "../../../os/ports/common/ARMCMx/nvic.h"
 1339              		.section	.debug_info,"",%progbits
 1340              	.Ldebug_info0:
 1341 0000 780C0000 		.4byte	0xc78
 1342 0004 0400     		.2byte	0x4
 1343 0006 00000000 		.4byte	.Ldebug_abbrev0
 1344 000a 04       		.byte	0x4
 1345 000b 01       		.uleb128 0x1
 1346 000c 02010000 		.4byte	.LASF190
 1347 0010 01       		.byte	0x1
 1348 0011 F2020000 		.4byte	.LASF191
 1349 0015 80000000 		.4byte	.LASF192
 1350 0019 00000000 		.4byte	.Ldebug_ranges0+0
 1351 001d 00000000 		.4byte	0
 1352 0021 00000000 		.4byte	.Ldebug_line0
 1353 0025 02       		.uleb128 0x2
 1354 0026 04       		.byte	0x4
 1355 0027 05       		.byte	0x5
 1356 0028 696E7400 		.ascii	"int\000"
 1357 002c 03       		.uleb128 0x3
 1358 002d 04       		.byte	0x4
 1359 002e 07       		.byte	0x7
 1360 002f B7030000 		.4byte	.LASF0
 1361 0033 03       		.uleb128 0x3
 1362 0034 01       		.byte	0x1
 1363 0035 06       		.byte	0x6
 1364 0036 64020000 		.4byte	.LASF1
 1365 003a 04       		.uleb128 0x4
 1366 003b D5000000 		.4byte	.LASF5
 1367 003f 02       		.byte	0x2
ARM GAS  /tmp/ccTeMzA3.s 			page 26


 1368 0040 1C       		.byte	0x1c
 1369 0041 45000000 		.4byte	0x45
 1370 0045 03       		.uleb128 0x3
 1371 0046 01       		.byte	0x1
 1372 0047 08       		.byte	0x8
 1373 0048 D8060000 		.4byte	.LASF2
 1374 004c 03       		.uleb128 0x3
 1375 004d 02       		.byte	0x2
 1376 004e 05       		.byte	0x5
 1377 004f 1F070000 		.4byte	.LASF3
 1378 0053 03       		.uleb128 0x3
 1379 0054 02       		.byte	0x2
 1380 0055 07       		.byte	0x7
 1381 0056 8F040000 		.4byte	.LASF4
 1382 005a 04       		.uleb128 0x4
 1383 005b 57080000 		.4byte	.LASF6
 1384 005f 02       		.byte	0x2
 1385 0060 37       		.byte	0x37
 1386 0061 65000000 		.4byte	0x65
 1387 0065 03       		.uleb128 0x3
 1388 0066 04       		.byte	0x4
 1389 0067 05       		.byte	0x5
 1390 0068 BB020000 		.4byte	.LASF7
 1391 006c 04       		.uleb128 0x4
 1392 006d 7C030000 		.4byte	.LASF8
 1393 0071 02       		.byte	0x2
 1394 0072 38       		.byte	0x38
 1395 0073 77000000 		.4byte	0x77
 1396 0077 03       		.uleb128 0x3
 1397 0078 04       		.byte	0x4
 1398 0079 07       		.byte	0x7
 1399 007a 2E040000 		.4byte	.LASF9
 1400 007e 03       		.uleb128 0x3
 1401 007f 08       		.byte	0x8
 1402 0080 05       		.byte	0x5
 1403 0081 56020000 		.4byte	.LASF10
 1404 0085 03       		.uleb128 0x3
 1405 0086 08       		.byte	0x8
 1406 0087 07       		.byte	0x7
 1407 0088 AD010000 		.4byte	.LASF11
 1408 008c 04       		.uleb128 0x4
 1409 008d 3D090000 		.4byte	.LASF12
 1410 0091 03       		.byte	0x3
 1411 0092 2A       		.byte	0x2a
 1412 0093 3A000000 		.4byte	0x3a
 1413 0097 04       		.uleb128 0x4
 1414 0098 D0060000 		.4byte	.LASF13
 1415 009c 03       		.byte	0x3
 1416 009d 41       		.byte	0x41
 1417 009e 5A000000 		.4byte	0x5a
 1418 00a2 04       		.uleb128 0x4
 1419 00a3 22030000 		.4byte	.LASF14
 1420 00a7 03       		.byte	0x3
 1421 00a8 42       		.byte	0x42
 1422 00a9 6C000000 		.4byte	0x6c
 1423 00ad 04       		.uleb128 0x4
 1424 00ae 9B020000 		.4byte	.LASF15
ARM GAS  /tmp/ccTeMzA3.s 			page 27


 1425 00b2 04       		.byte	0x4
 1426 00b3 2B       		.byte	0x2b
 1427 00b4 B8000000 		.4byte	0xb8
 1428 00b8 03       		.uleb128 0x3
 1429 00b9 01       		.byte	0x1
 1430 00ba 02       		.byte	0x2
 1431 00bb CA060000 		.4byte	.LASF16
 1432 00bf 05       		.uleb128 0x5
 1433 00c0 04       		.byte	0x4
 1434 00c1 06       		.uleb128 0x6
 1435 00c2 A2000000 		.4byte	0xa2
 1436 00c6 03       		.uleb128 0x3
 1437 00c7 04       		.byte	0x4
 1438 00c8 07       		.byte	0x7
 1439 00c9 69050000 		.4byte	.LASF17
 1440 00cd 07       		.uleb128 0x7
 1441 00ce 04       		.byte	0x4
 1442 00cf D3000000 		.4byte	0xd3
 1443 00d3 08       		.uleb128 0x8
 1444 00d4 D8000000 		.4byte	0xd8
 1445 00d8 03       		.uleb128 0x3
 1446 00d9 01       		.byte	0x1
 1447 00da 08       		.byte	0x8
 1448 00db F0070000 		.4byte	.LASF18
 1449 00df 09       		.uleb128 0x9
 1450 00e0 5E050000 		.4byte	.LASF193
 1451 00e4 01       		.byte	0x1
 1452 00e5 05       		.byte	0x5
 1453 00e6 AA       		.byte	0xaa
 1454 00e7 1A030000 		.4byte	0x31a
 1455 00eb 0A       		.uleb128 0xa
 1456 00ec 43080000 		.4byte	.LASF19
 1457 00f0 72       		.sleb128 -14
 1458 00f1 0A       		.uleb128 0xa
 1459 00f2 FC030000 		.4byte	.LASF20
 1460 00f6 74       		.sleb128 -12
 1461 00f7 0A       		.uleb128 0xa
 1462 00f8 0F080000 		.4byte	.LASF21
 1463 00fc 75       		.sleb128 -11
 1464 00fd 0A       		.uleb128 0xa
 1465 00fe B5070000 		.4byte	.LASF22
 1466 0102 76       		.sleb128 -10
 1467 0103 0A       		.uleb128 0xa
 1468 0104 83040000 		.4byte	.LASF23
 1469 0108 7B       		.sleb128 -5
 1470 0109 0A       		.uleb128 0xa
 1471 010a B6080000 		.4byte	.LASF24
 1472 010e 7C       		.sleb128 -4
 1473 010f 0A       		.uleb128 0xa
 1474 0110 5D030000 		.4byte	.LASF25
 1475 0114 7E       		.sleb128 -2
 1476 0115 0A       		.uleb128 0xa
 1477 0116 2C050000 		.4byte	.LASF26
 1478 011a 7F       		.sleb128 -1
 1479 011b 0A       		.uleb128 0xa
 1480 011c 12020000 		.4byte	.LASF27
 1481 0120 00       		.sleb128 0
ARM GAS  /tmp/ccTeMzA3.s 			page 28


 1482 0121 0A       		.uleb128 0xa
 1483 0122 28000000 		.4byte	.LASF28
 1484 0126 01       		.sleb128 1
 1485 0127 0A       		.uleb128 0xa
 1486 0128 81080000 		.4byte	.LASF29
 1487 012c 02       		.sleb128 2
 1488 012d 0A       		.uleb128 0xa
 1489 012e 04020000 		.4byte	.LASF30
 1490 0132 03       		.sleb128 3
 1491 0133 0A       		.uleb128 0xa
 1492 0134 7B070000 		.4byte	.LASF31
 1493 0138 04       		.sleb128 4
 1494 0139 0A       		.uleb128 0xa
 1495 013a F5090000 		.4byte	.LASF32
 1496 013e 05       		.sleb128 5
 1497 013f 0A       		.uleb128 0xa
 1498 0140 0D090000 		.4byte	.LASF33
 1499 0144 06       		.sleb128 6
 1500 0145 0A       		.uleb128 0xa
 1501 0146 190A0000 		.4byte	.LASF34
 1502 014a 07       		.sleb128 7
 1503 014b 0A       		.uleb128 0xa
 1504 014c 60070000 		.4byte	.LASF35
 1505 0150 08       		.sleb128 8
 1506 0151 0A       		.uleb128 0xa
 1507 0152 DB050000 		.4byte	.LASF36
 1508 0156 09       		.sleb128 9
 1509 0157 0A       		.uleb128 0xa
 1510 0158 06070000 		.4byte	.LASF37
 1511 015c 0A       		.sleb128 10
 1512 015d 0A       		.uleb128 0xa
 1513 015e 240A0000 		.4byte	.LASF38
 1514 0162 0B       		.sleb128 11
 1515 0163 0A       		.uleb128 0xa
 1516 0164 EE040000 		.4byte	.LASF39
 1517 0168 0C       		.sleb128 12
 1518 0169 0A       		.uleb128 0xa
 1519 016a F0050000 		.4byte	.LASF40
 1520 016e 0D       		.sleb128 13
 1521 016f 0A       		.uleb128 0xa
 1522 0170 CE030000 		.4byte	.LASF41
 1523 0174 0E       		.sleb128 14
 1524 0175 0A       		.uleb128 0xa
 1525 0176 AD050000 		.4byte	.LASF42
 1526 017a 0F       		.sleb128 15
 1527 017b 0A       		.uleb128 0xa
 1528 017c CD020000 		.4byte	.LASF43
 1529 0180 10       		.sleb128 16
 1530 0181 0A       		.uleb128 0xa
 1531 0182 E0030000 		.4byte	.LASF44
 1532 0186 11       		.sleb128 17
 1533 0187 0A       		.uleb128 0xa
 1534 0188 9C090000 		.4byte	.LASF45
 1535 018c 12       		.sleb128 18
 1536 018d 0A       		.uleb128 0xa
 1537 018e BF040000 		.4byte	.LASF46
 1538 0192 13       		.sleb128 19
ARM GAS  /tmp/ccTeMzA3.s 			page 29


 1539 0193 0A       		.uleb128 0xa
 1540 0194 1A000000 		.4byte	.LASF47
 1541 0198 14       		.sleb128 20
 1542 0199 0A       		.uleb128 0xa
 1543 019a 9F010000 		.4byte	.LASF48
 1544 019e 15       		.sleb128 21
 1545 019f 0A       		.uleb128 0xa
 1546 01a0 C7090000 		.4byte	.LASF49
 1547 01a4 16       		.sleb128 22
 1548 01a5 0A       		.uleb128 0xa
 1549 01a6 61000000 		.4byte	.LASF50
 1550 01aa 17       		.sleb128 23
 1551 01ab 0A       		.uleb128 0xa
 1552 01ac E6060000 		.4byte	.LASF51
 1553 01b0 18       		.sleb128 24
 1554 01b1 0A       		.uleb128 0xa
 1555 01b2 7B050000 		.4byte	.LASF52
 1556 01b6 19       		.sleb128 25
 1557 01b7 0A       		.uleb128 0xa
 1558 01b8 3E070000 		.4byte	.LASF53
 1559 01bc 1A       		.sleb128 26
 1560 01bd 0A       		.uleb128 0xa
 1561 01be 39050000 		.4byte	.LASF54
 1562 01c2 1B       		.sleb128 27
 1563 01c3 0A       		.uleb128 0xa
 1564 01c4 03090000 		.4byte	.LASF55
 1565 01c8 1C       		.sleb128 28
 1566 01c9 0A       		.uleb128 0xa
 1567 01ca 0F0A0000 		.4byte	.LASF56
 1568 01ce 1D       		.sleb128 29
 1569 01cf 0A       		.uleb128 0xa
 1570 01d0 FA010000 		.4byte	.LASF57
 1571 01d4 1E       		.sleb128 30
 1572 01d5 0A       		.uleb128 0xa
 1573 01d6 C8000000 		.4byte	.LASF58
 1574 01da 1F       		.sleb128 31
 1575 01db 0A       		.uleb128 0xa
 1576 01dc 8F090000 		.4byte	.LASF59
 1577 01e0 20       		.sleb128 32
 1578 01e1 0A       		.uleb128 0xa
 1579 01e2 A0050000 		.4byte	.LASF60
 1580 01e6 21       		.sleb128 33
 1581 01e7 0A       		.uleb128 0xa
 1582 01e8 ED010000 		.4byte	.LASF61
 1583 01ec 22       		.sleb128 34
 1584 01ed 0A       		.uleb128 0xa
 1585 01ee E4040000 		.4byte	.LASF62
 1586 01f2 23       		.sleb128 35
 1587 01f3 0A       		.uleb128 0xa
 1588 01f4 E6050000 		.4byte	.LASF63
 1589 01f8 24       		.sleb128 36
 1590 01f9 0A       		.uleb128 0xa
 1591 01fa 18090000 		.4byte	.LASF64
 1592 01fe 25       		.sleb128 37
 1593 01ff 0A       		.uleb128 0xa
 1594 0200 A9070000 		.4byte	.LASF65
 1595 0204 26       		.sleb128 38
ARM GAS  /tmp/ccTeMzA3.s 			page 30


 1596 0205 0A       		.uleb128 0xa
 1597 0206 E8080000 		.4byte	.LASF66
 1598 020a 27       		.sleb128 39
 1599 020b 0A       		.uleb128 0xa
 1600 020c D5040000 		.4byte	.LASF67
 1601 0210 28       		.sleb128 40
 1602 0211 0A       		.uleb128 0xa
 1603 0212 C4010000 		.4byte	.LASF68
 1604 0216 29       		.sleb128 41
 1605 0217 0A       		.uleb128 0xa
 1606 0218 4C030000 		.4byte	.LASF69
 1607 021c 2A       		.sleb128 42
 1608 021d 0A       		.uleb128 0xa
 1609 021e 18050000 		.4byte	.LASF70
 1610 0222 2B       		.sleb128 43
 1611 0223 0A       		.uleb128 0xa
 1612 0224 69030000 		.4byte	.LASF71
 1613 0228 2C       		.sleb128 44
 1614 0229 0A       		.uleb128 0xa
 1615 022a 46050000 		.4byte	.LASF72
 1616 022e 2D       		.sleb128 45
 1617 022f 0A       		.uleb128 0xa
 1618 0230 41020000 		.4byte	.LASF73
 1619 0234 2E       		.sleb128 46
 1620 0235 0A       		.uleb128 0xa
 1621 0236 DE070000 		.4byte	.LASF74
 1622 023a 2F       		.sleb128 47
 1623 023b 0A       		.uleb128 0xa
 1624 023c C0060000 		.4byte	.LASF75
 1625 0240 30       		.sleb128 48
 1626 0241 0A       		.uleb128 0xa
 1627 0242 1C020000 		.4byte	.LASF76
 1628 0246 31       		.sleb128 49
 1629 0247 0A       		.uleb128 0xa
 1630 0248 D1050000 		.4byte	.LASF77
 1631 024c 32       		.sleb128 50
 1632 024d 0A       		.uleb128 0xa
 1633 024e 9B060000 		.4byte	.LASF78
 1634 0252 33       		.sleb128 51
 1635 0253 0A       		.uleb128 0xa
 1636 0254 41030000 		.4byte	.LASF79
 1637 0258 34       		.sleb128 52
 1638 0259 0A       		.uleb128 0xa
 1639 025a 33070000 		.4byte	.LASF80
 1640 025e 35       		.sleb128 53
 1641 025f 0A       		.uleb128 0xa
 1642 0260 2B030000 		.4byte	.LASF81
 1643 0264 36       		.sleb128 54
 1644 0265 0A       		.uleb128 0xa
 1645 0266 26080000 		.4byte	.LASF82
 1646 026a 37       		.sleb128 55
 1647 026b 0A       		.uleb128 0xa
 1648 026c C8080000 		.4byte	.LASF83
 1649 0270 38       		.sleb128 56
 1650 0271 0A       		.uleb128 0xa
 1651 0272 A5090000 		.4byte	.LASF84
 1652 0276 39       		.sleb128 57
ARM GAS  /tmp/ccTeMzA3.s 			page 31


 1653 0277 0A       		.uleb128 0xa
 1654 0278 A2040000 		.4byte	.LASF85
 1655 027c 3A       		.sleb128 58
 1656 027d 0A       		.uleb128 0xa
 1657 027e 8E050000 		.4byte	.LASF86
 1658 0282 3B       		.sleb128 59
 1659 0283 0A       		.uleb128 0xa
 1660 0284 AE060000 		.4byte	.LASF87
 1661 0288 3C       		.sleb128 60
 1662 0289 0A       		.uleb128 0xa
 1663 028a 72050000 		.4byte	.LASF88
 1664 028e 3D       		.sleb128 61
 1665 028f 0A       		.uleb128 0xa
 1666 0290 E4020000 		.4byte	.LASF89
 1667 0294 3E       		.sleb128 62
 1668 0295 0A       		.uleb128 0xa
 1669 0296 02060000 		.4byte	.LASF90
 1670 029a 3F       		.sleb128 63
 1671 029b 0A       		.uleb128 0xa
 1672 029c 31000000 		.4byte	.LASF91
 1673 02a0 C000     		.sleb128 64
 1674 02a2 0A       		.uleb128 0xa
 1675 02a3 70020000 		.4byte	.LASF92
 1676 02a7 C100     		.sleb128 65
 1677 02a9 0A       		.uleb128 0xa
 1678 02aa E7090000 		.4byte	.LASF93
 1679 02ae C200     		.sleb128 66
 1680 02b0 0A       		.uleb128 0xa
 1681 02b1 94070000 		.4byte	.LASF94
 1682 02b5 C300     		.sleb128 67
 1683 02b7 0A       		.uleb128 0xa
 1684 02b8 DF000000 		.4byte	.LASF95
 1685 02bc C400     		.sleb128 68
 1686 02be 0A       		.uleb128 0xa
 1687 02bf 4F000000 		.4byte	.LASF96
 1688 02c3 C500     		.sleb128 69
 1689 02c5 0A       		.uleb128 0xa
 1690 02c6 91030000 		.4byte	.LASF97
 1691 02ca C600     		.sleb128 70
 1692 02cc 0A       		.uleb128 0xa
 1693 02cd BF050000 		.4byte	.LASF98
 1694 02d1 C700     		.sleb128 71
 1695 02d3 0A       		.uleb128 0xa
 1696 02d4 21040000 		.4byte	.LASF99
 1697 02d8 C800     		.sleb128 72
 1698 02da 0A       		.uleb128 0xa
 1699 02db 6E000000 		.4byte	.LASF100
 1700 02df C900     		.sleb128 73
 1701 02e1 0A       		.uleb128 0xa
 1702 02e2 6F040000 		.4byte	.LASF101
 1703 02e6 CA00     		.sleb128 74
 1704 02e8 0A       		.uleb128 0xa
 1705 02e9 30080000 		.4byte	.LASF102
 1706 02ed CB00     		.sleb128 75
 1707 02ef 0A       		.uleb128 0xa
 1708 02f0 FE090000 		.4byte	.LASF103
 1709 02f4 CC00     		.sleb128 76
ARM GAS  /tmp/ccTeMzA3.s 			page 32


 1710 02f6 0A       		.uleb128 0xa
 1711 02f7 2B060000 		.4byte	.LASF104
 1712 02fb CD00     		.sleb128 77
 1713 02fd 0A       		.uleb128 0xa
 1714 02fe 4B090000 		.4byte	.LASF105
 1715 0302 CE00     		.sleb128 78
 1716 0304 0A       		.uleb128 0xa
 1717 0305 7E020000 		.4byte	.LASF106
 1718 0309 CF00     		.sleb128 79
 1719 030b 0A       		.uleb128 0xa
 1720 030c 11070000 		.4byte	.LASF107
 1721 0310 D000     		.sleb128 80
 1722 0312 0A       		.uleb128 0xa
 1723 0313 6D090000 		.4byte	.LASF108
 1724 0317 D100     		.sleb128 81
 1725 0319 00       		.byte	0
 1726 031a 0B       		.uleb128 0xb
 1727 031b A2000000 		.4byte	0xa2
 1728 031f 2A030000 		.4byte	0x32a
 1729 0323 0C       		.uleb128 0xc
 1730 0324 C6000000 		.4byte	0xc6
 1731 0328 01       		.byte	0x1
 1732 0329 00       		.byte	0
 1733 032a 06       		.uleb128 0x6
 1734 032b 97000000 		.4byte	0x97
 1735 032f 0D       		.uleb128 0xd
 1736 0330 18       		.byte	0x18
 1737 0331 05       		.byte	0x5
 1738 0332 B102     		.2byte	0x2b1
 1739 0334 86030000 		.4byte	0x386
 1740 0338 0E       		.uleb128 0xe
 1741 0339 435200   		.ascii	"CR\000"
 1742 033c 05       		.byte	0x5
 1743 033d B302     		.2byte	0x2b3
 1744 033f C1000000 		.4byte	0xc1
 1745 0343 00       		.byte	0
 1746 0344 0F       		.uleb128 0xf
 1747 0345 61080000 		.4byte	.LASF109
 1748 0349 05       		.byte	0x5
 1749 034a B402     		.2byte	0x2b4
 1750 034c C1000000 		.4byte	0xc1
 1751 0350 04       		.byte	0x4
 1752 0351 0E       		.uleb128 0xe
 1753 0352 50415200 		.ascii	"PAR\000"
 1754 0356 05       		.byte	0x5
 1755 0357 B502     		.2byte	0x2b5
 1756 0359 C1000000 		.4byte	0xc1
 1757 035d 08       		.byte	0x8
 1758 035e 0F       		.uleb128 0xf
 1759 035f 3F000000 		.4byte	.LASF110
 1760 0363 05       		.byte	0x5
 1761 0364 B602     		.2byte	0x2b6
 1762 0366 C1000000 		.4byte	0xc1
 1763 036a 0C       		.byte	0xc
 1764 036b 0F       		.uleb128 0xf
 1765 036c DA080000 		.4byte	.LASF111
 1766 0370 05       		.byte	0x5
ARM GAS  /tmp/ccTeMzA3.s 			page 33


 1767 0371 B702     		.2byte	0x2b7
 1768 0373 C1000000 		.4byte	0xc1
 1769 0377 10       		.byte	0x10
 1770 0378 0E       		.uleb128 0xe
 1771 0379 46435200 		.ascii	"FCR\000"
 1772 037d 05       		.byte	0x5
 1773 037e B802     		.2byte	0x2b8
 1774 0380 C1000000 		.4byte	0xc1
 1775 0384 14       		.byte	0x14
 1776 0385 00       		.byte	0
 1777 0386 10       		.uleb128 0x10
 1778 0387 66080000 		.4byte	.LASF112
 1779 038b 05       		.byte	0x5
 1780 038c B902     		.2byte	0x2b9
 1781 038e 2F030000 		.4byte	0x32f
 1782 0392 0D       		.uleb128 0xd
 1783 0393 10       		.byte	0x10
 1784 0394 05       		.byte	0x5
 1785 0395 BB02     		.2byte	0x2bb
 1786 0397 D0030000 		.4byte	0x3d0
 1787 039b 0F       		.uleb128 0xf
 1788 039c 7B000000 		.4byte	.LASF113
 1789 03a0 05       		.byte	0x5
 1790 03a1 BD02     		.2byte	0x2bd
 1791 03a3 C1000000 		.4byte	0xc1
 1792 03a7 00       		.byte	0
 1793 03a8 0F       		.uleb128 0xf
 1794 03a9 09050000 		.4byte	.LASF114
 1795 03ad 05       		.byte	0x5
 1796 03ae BE02     		.2byte	0x2be
 1797 03b0 C1000000 		.4byte	0xc1
 1798 03b4 04       		.byte	0x4
 1799 03b5 0F       		.uleb128 0xf
 1800 03b6 63050000 		.4byte	.LASF115
 1801 03ba 05       		.byte	0x5
 1802 03bb BF02     		.2byte	0x2bf
 1803 03bd C1000000 		.4byte	0xc1
 1804 03c1 08       		.byte	0x8
 1805 03c2 0F       		.uleb128 0xf
 1806 03c3 C1090000 		.4byte	.LASF116
 1807 03c7 05       		.byte	0x5
 1808 03c8 C002     		.2byte	0x2c0
 1809 03ca C1000000 		.4byte	0xc1
 1810 03ce 0C       		.byte	0xc
 1811 03cf 00       		.byte	0
 1812 03d0 10       		.uleb128 0x10
 1813 03d1 AB030000 		.4byte	.LASF117
 1814 03d5 05       		.byte	0x5
 1815 03d6 C102     		.2byte	0x2c1
 1816 03d8 92030000 		.4byte	0x392
 1817 03dc 0D       		.uleb128 0xd
 1818 03dd 90       		.byte	0x90
 1819 03de 05       		.byte	0x5
 1820 03df 5804     		.2byte	0x458
 1821 03e1 85050000 		.4byte	0x585
 1822 03e5 0E       		.uleb128 0xe
 1823 03e6 435200   		.ascii	"CR\000"
ARM GAS  /tmp/ccTeMzA3.s 			page 34


 1824 03e9 05       		.byte	0x5
 1825 03ea 5A04     		.2byte	0x45a
 1826 03ec C1000000 		.4byte	0xc1
 1827 03f0 00       		.byte	0
 1828 03f1 0F       		.uleb128 0xf
 1829 03f2 39030000 		.4byte	.LASF118
 1830 03f6 05       		.byte	0x5
 1831 03f7 5B04     		.2byte	0x45b
 1832 03f9 C1000000 		.4byte	0xc1
 1833 03fd 04       		.byte	0x4
 1834 03fe 0F       		.uleb128 0xf
 1835 03ff 76090000 		.4byte	.LASF119
 1836 0403 05       		.byte	0x5
 1837 0404 5C04     		.2byte	0x45c
 1838 0406 C1000000 		.4byte	0xc1
 1839 040a 08       		.byte	0x8
 1840 040b 0E       		.uleb128 0xe
 1841 040c 43495200 		.ascii	"CIR\000"
 1842 0410 05       		.byte	0x5
 1843 0411 5D04     		.2byte	0x45d
 1844 0413 C1000000 		.4byte	0xc1
 1845 0417 0C       		.byte	0xc
 1846 0418 0F       		.uleb128 0xf
 1847 0419 88020000 		.4byte	.LASF120
 1848 041d 05       		.byte	0x5
 1849 041e 5E04     		.2byte	0x45e
 1850 0420 C1000000 		.4byte	0xc1
 1851 0424 10       		.byte	0x10
 1852 0425 0F       		.uleb128 0xf
 1853 0426 1D080000 		.4byte	.LASF121
 1854 042a 05       		.byte	0x5
 1855 042b 5F04     		.2byte	0x45f
 1856 042d C1000000 		.4byte	0xc1
 1857 0431 14       		.byte	0x14
 1858 0432 0F       		.uleb128 0xf
 1859 0433 CC040000 		.4byte	.LASF122
 1860 0437 05       		.byte	0x5
 1861 0438 6004     		.2byte	0x460
 1862 043a C1000000 		.4byte	0xc1
 1863 043e 18       		.byte	0x18
 1864 043f 0F       		.uleb128 0xf
 1865 0440 42060000 		.4byte	.LASF123
 1866 0444 05       		.byte	0x5
 1867 0445 6104     		.2byte	0x461
 1868 0447 A2000000 		.4byte	0xa2
 1869 044b 1C       		.byte	0x1c
 1870 044c 0F       		.uleb128 0xf
 1871 044d 22060000 		.4byte	.LASF124
 1872 0451 05       		.byte	0x5
 1873 0452 6204     		.2byte	0x462
 1874 0454 C1000000 		.4byte	0xc1
 1875 0458 20       		.byte	0x20
 1876 0459 0F       		.uleb128 0xf
 1877 045a C4020000 		.4byte	.LASF125
 1878 045e 05       		.byte	0x5
 1879 045f 6304     		.2byte	0x463
 1880 0461 C1000000 		.4byte	0xc1
ARM GAS  /tmp/ccTeMzA3.s 			page 35


 1881 0465 24       		.byte	0x24
 1882 0466 0F       		.uleb128 0xf
 1883 0467 4C060000 		.4byte	.LASF126
 1884 046b 05       		.byte	0x5
 1885 046c 6404     		.2byte	0x464
 1886 046e 1A030000 		.4byte	0x31a
 1887 0472 28       		.byte	0x28
 1888 0473 0F       		.uleb128 0xf
 1889 0474 A3030000 		.4byte	.LASF127
 1890 0478 05       		.byte	0x5
 1891 0479 6504     		.2byte	0x465
 1892 047b C1000000 		.4byte	0xc1
 1893 047f 30       		.byte	0x30
 1894 0480 0F       		.uleb128 0xf
 1895 0481 79080000 		.4byte	.LASF128
 1896 0485 05       		.byte	0x5
 1897 0486 6604     		.2byte	0x466
 1898 0488 C1000000 		.4byte	0xc1
 1899 048c 34       		.byte	0x34
 1900 048d 0F       		.uleb128 0xf
 1901 048e 73070000 		.4byte	.LASF129
 1902 0492 05       		.byte	0x5
 1903 0493 6704     		.2byte	0x467
 1904 0495 C1000000 		.4byte	0xc1
 1905 0499 38       		.byte	0x38
 1906 049a 0F       		.uleb128 0xf
 1907 049b 56060000 		.4byte	.LASF130
 1908 049f 05       		.byte	0x5
 1909 04a0 6804     		.2byte	0x468
 1910 04a2 A2000000 		.4byte	0xa2
 1911 04a6 3C       		.byte	0x3c
 1912 04a7 0F       		.uleb128 0xf
 1913 04a8 CE070000 		.4byte	.LASF131
 1914 04ac 05       		.byte	0x5
 1915 04ad 6904     		.2byte	0x469
 1916 04af C1000000 		.4byte	0xc1
 1917 04b3 40       		.byte	0x40
 1918 04b4 0F       		.uleb128 0xf
 1919 04b5 6B070000 		.4byte	.LASF132
 1920 04b9 05       		.byte	0x5
 1921 04ba 6A04     		.2byte	0x46a
 1922 04bc C1000000 		.4byte	0xc1
 1923 04c0 44       		.byte	0x44
 1924 04c1 0F       		.uleb128 0xf
 1925 04c2 60060000 		.4byte	.LASF133
 1926 04c6 05       		.byte	0x5
 1927 04c7 6B04     		.2byte	0x46b
 1928 04c9 1A030000 		.4byte	0x31a
 1929 04cd 48       		.byte	0x48
 1930 04ce 0F       		.uleb128 0xf
 1931 04cf 26020000 		.4byte	.LASF134
 1932 04d3 05       		.byte	0x5
 1933 04d4 6C04     		.2byte	0x46c
 1934 04d6 C1000000 		.4byte	0xc1
 1935 04da 50       		.byte	0x50
 1936 04db 0F       		.uleb128 0xf
 1937 04dc 0F060000 		.4byte	.LASF135
ARM GAS  /tmp/ccTeMzA3.s 			page 36


 1938 04e0 05       		.byte	0x5
 1939 04e1 6D04     		.2byte	0x46d
 1940 04e3 C1000000 		.4byte	0xc1
 1941 04e7 54       		.byte	0x54
 1942 04e8 0F       		.uleb128 0xf
 1943 04e9 29070000 		.4byte	.LASF136
 1944 04ed 05       		.byte	0x5
 1945 04ee 6E04     		.2byte	0x46e
 1946 04f0 C1000000 		.4byte	0xc1
 1947 04f4 58       		.byte	0x58
 1948 04f5 0F       		.uleb128 0xf
 1949 04f6 6A060000 		.4byte	.LASF137
 1950 04fa 05       		.byte	0x5
 1951 04fb 6F04     		.2byte	0x46f
 1952 04fd A2000000 		.4byte	0xa2
 1953 0501 5C       		.byte	0x5c
 1954 0502 0F       		.uleb128 0xf
 1955 0503 10000000 		.4byte	.LASF138
 1956 0507 05       		.byte	0x5
 1957 0508 7004     		.2byte	0x470
 1958 050a C1000000 		.4byte	0xc1
 1959 050e 60       		.byte	0x60
 1960 050f 0F       		.uleb128 0xf
 1961 0510 0E050000 		.4byte	.LASF139
 1962 0514 05       		.byte	0x5
 1963 0515 7104     		.2byte	0x471
 1964 0517 C1000000 		.4byte	0xc1
 1965 051b 64       		.byte	0x64
 1966 051c 0F       		.uleb128 0xf
 1967 051d 74060000 		.4byte	.LASF140
 1968 0521 05       		.byte	0x5
 1969 0522 7204     		.2byte	0x472
 1970 0524 1A030000 		.4byte	0x31a
 1971 0528 68       		.byte	0x68
 1972 0529 0F       		.uleb128 0xf
 1973 052a 24090000 		.4byte	.LASF141
 1974 052e 05       		.byte	0x5
 1975 052f 7304     		.2byte	0x473
 1976 0531 C1000000 		.4byte	0xc1
 1977 0535 70       		.byte	0x70
 1978 0536 0E       		.uleb128 0xe
 1979 0537 43535200 		.ascii	"CSR\000"
 1980 053b 05       		.byte	0x5
 1981 053c 7404     		.2byte	0x474
 1982 053e C1000000 		.4byte	0xc1
 1983 0542 74       		.byte	0x74
 1984 0543 0F       		.uleb128 0xf
 1985 0544 7E060000 		.4byte	.LASF142
 1986 0548 05       		.byte	0x5
 1987 0549 7504     		.2byte	0x475
 1988 054b 1A030000 		.4byte	0x31a
 1989 054f 78       		.byte	0x78
 1990 0550 0F       		.uleb128 0xf
 1991 0551 F4080000 		.4byte	.LASF143
 1992 0555 05       		.byte	0x5
 1993 0556 7604     		.2byte	0x476
 1994 0558 C1000000 		.4byte	0xc1
ARM GAS  /tmp/ccTeMzA3.s 			page 37


 1995 055c 80       		.byte	0x80
 1996 055d 0F       		.uleb128 0xf
 1997 055e B4040000 		.4byte	.LASF144
 1998 0562 05       		.byte	0x5
 1999 0563 7704     		.2byte	0x477
 2000 0565 C1000000 		.4byte	0xc1
 2001 0569 84       		.byte	0x84
 2002 056a 0F       		.uleb128 0xf
 2003 056b 37060000 		.4byte	.LASF145
 2004 056f 05       		.byte	0x5
 2005 0570 7804     		.2byte	0x478
 2006 0572 C1000000 		.4byte	0xc1
 2007 0576 88       		.byte	0x88
 2008 0577 0F       		.uleb128 0xf
 2009 0578 4E020000 		.4byte	.LASF146
 2010 057c 05       		.byte	0x5
 2011 057d 7904     		.2byte	0x479
 2012 057f C1000000 		.4byte	0xc1
 2013 0583 8C       		.byte	0x8c
 2014 0584 00       		.byte	0
 2015 0585 10       		.uleb128 0x10
 2016 0586 40040000 		.4byte	.LASF147
 2017 058a 05       		.byte	0x5
 2018 058b 7B04     		.2byte	0x47b
 2019 058d DC030000 		.4byte	0x3dc
 2020 0591 11       		.uleb128 0x11
 2021 0592 0C       		.byte	0xc
 2022 0593 06       		.byte	0x6
 2023 0594 DA       		.byte	0xda
 2024 0595 D6050000 		.4byte	0x5d6
 2025 0599 12       		.uleb128 0x12
 2026 059a FB000000 		.4byte	.LASF148
 2027 059e 06       		.byte	0x6
 2028 059f DB       		.byte	0xdb
 2029 05a0 D6050000 		.4byte	0x5d6
 2030 05a4 00       		.byte	0
 2031 05a5 12       		.uleb128 0x12
 2032 05a6 86070000 		.4byte	.LASF149
 2033 05aa 06       		.byte	0x6
 2034 05ab DC       		.byte	0xdc
 2035 05ac DC050000 		.4byte	0x5dc
 2036 05b0 04       		.byte	0x4
 2037 05b1 12       		.uleb128 0x12
 2038 05b2 5F040000 		.4byte	.LASF150
 2039 05b6 06       		.byte	0x6
 2040 05b7 DD       		.byte	0xdd
 2041 05b8 8C000000 		.4byte	0x8c
 2042 05bc 08       		.byte	0x8
 2043 05bd 12       		.uleb128 0x12
 2044 05be 87030000 		.4byte	.LASF151
 2045 05c2 06       		.byte	0x6
 2046 05c3 DF       		.byte	0xdf
 2047 05c4 8C000000 		.4byte	0x8c
 2048 05c8 09       		.byte	0x9
 2049 05c9 12       		.uleb128 0x12
 2050 05ca D3010000 		.4byte	.LASF152
 2051 05ce 06       		.byte	0x6
ARM GAS  /tmp/ccTeMzA3.s 			page 38


 2052 05cf E0       		.byte	0xe0
 2053 05d0 8C000000 		.4byte	0x8c
 2054 05d4 0A       		.byte	0xa
 2055 05d5 00       		.byte	0
 2056 05d6 07       		.uleb128 0x7
 2057 05d7 04       		.byte	0x4
 2058 05d8 86030000 		.4byte	0x386
 2059 05dc 07       		.uleb128 0x7
 2060 05dd 04       		.byte	0x4
 2061 05de C1000000 		.4byte	0xc1
 2062 05e2 04       		.uleb128 0x4
 2063 05e3 88060000 		.4byte	.LASF153
 2064 05e7 06       		.byte	0x6
 2065 05e8 E1       		.byte	0xe1
 2066 05e9 91050000 		.4byte	0x591
 2067 05ed 04       		.uleb128 0x4
 2068 05ee 12040000 		.4byte	.LASF154
 2069 05f2 06       		.byte	0x6
 2070 05f3 EA       		.byte	0xea
 2071 05f4 F8050000 		.4byte	0x5f8
 2072 05f8 07       		.uleb128 0x7
 2073 05f9 04       		.byte	0x4
 2074 05fa FE050000 		.4byte	0x5fe
 2075 05fe 13       		.uleb128 0x13
 2076 05ff 0E060000 		.4byte	0x60e
 2077 0603 14       		.uleb128 0x14
 2078 0604 BF000000 		.4byte	0xbf
 2079 0608 14       		.uleb128 0x14
 2080 0609 A2000000 		.4byte	0xa2
 2081 060d 00       		.byte	0
 2082 060e 07       		.uleb128 0x7
 2083 060f 04       		.byte	0x4
 2084 0610 14060000 		.4byte	0x614
 2085 0614 08       		.uleb128 0x8
 2086 0615 E2050000 		.4byte	0x5e2
 2087 0619 11       		.uleb128 0x11
 2088 061a 08       		.byte	0x8
 2089 061b 01       		.byte	0x1
 2090 061c 64       		.byte	0x64
 2091 061d 3A060000 		.4byte	0x63a
 2092 0621 12       		.uleb128 0x12
 2093 0622 19060000 		.4byte	.LASF155
 2094 0626 01       		.byte	0x1
 2095 0627 65       		.byte	0x65
 2096 0628 ED050000 		.4byte	0x5ed
 2097 062c 00       		.byte	0
 2098 062d 12       		.uleb128 0x12
 2099 062e 56070000 		.4byte	.LASF156
 2100 0632 01       		.byte	0x1
 2101 0633 66       		.byte	0x66
 2102 0634 BF000000 		.4byte	0xbf
 2103 0638 04       		.byte	0x4
 2104 0639 00       		.byte	0
 2105 063a 04       		.uleb128 0x4
 2106 063b 00000000 		.4byte	.LASF157
 2107 063f 01       		.byte	0x1
 2108 0640 67       		.byte	0x67
ARM GAS  /tmp/ccTeMzA3.s 			page 39


 2109 0641 19060000 		.4byte	0x619
 2110 0645 15       		.uleb128 0x15
 2111 0646 A5060000 		.4byte	.LASF158
 2112 064a 01       		.byte	0x1
 2113 064b 80       		.byte	0x80
 2114 064c 00000000 		.4byte	.LFB118
 2115 0650 32000000 		.4byte	.LFE118-.LFB118
 2116 0654 01       		.uleb128 0x1
 2117 0655 9C       		.byte	0x9c
 2118 0656 8D060000 		.4byte	0x68d
 2119 065a 16       		.uleb128 0x16
 2120 065b 45090000 		.4byte	.LASF160
 2121 065f 01       		.byte	0x1
 2122 0660 81       		.byte	0x81
 2123 0661 A2000000 		.4byte	0xa2
 2124 0665 00000000 		.4byte	.LLST0
 2125 0669 17       		.uleb128 0x17
 2126 066a 06000000 		.4byte	.LVL0
 2127 066e 2F0C0000 		.4byte	0xc2f
 2128 0672 18       		.uleb128 0x18
 2129 0673 26000000 		.4byte	.LVL2
 2130 0677 02       		.uleb128 0x2
 2131 0678 74       		.byte	0x74
 2132 0679 00       		.sleb128 0
 2133 067a 17       		.uleb128 0x17
 2134 067b 2A000000 		.4byte	.LVL3
 2135 067f 360C0000 		.4byte	0xc36
 2136 0683 19       		.uleb128 0x19
 2137 0684 32000000 		.4byte	.LVL4
 2138 0688 3D0C0000 		.4byte	0xc3d
 2139 068c 00       		.byte	0
 2140 068d 15       		.uleb128 0x15
 2141 068e 8B070000 		.4byte	.LASF159
 2142 0692 01       		.byte	0x1
 2143 0693 92       		.byte	0x92
 2144 0694 00000000 		.4byte	.LFB119
 2145 0698 36000000 		.4byte	.LFE119-.LFB119
 2146 069c 01       		.uleb128 0x1
 2147 069d 9C       		.byte	0x9c
 2148 069e D5060000 		.4byte	0x6d5
 2149 06a2 16       		.uleb128 0x16
 2150 06a3 45090000 		.4byte	.LASF160
 2151 06a7 01       		.byte	0x1
 2152 06a8 93       		.byte	0x93
 2153 06a9 A2000000 		.4byte	0xa2
 2154 06ad 13000000 		.4byte	.LLST1
 2155 06b1 17       		.uleb128 0x17
 2156 06b2 06000000 		.4byte	.LVL5
 2157 06b6 2F0C0000 		.4byte	0xc2f
 2158 06ba 18       		.uleb128 0x18
 2159 06bb 2A000000 		.4byte	.LVL7
 2160 06bf 02       		.uleb128 0x2
 2161 06c0 74       		.byte	0x74
 2162 06c1 00       		.sleb128 0
 2163 06c2 17       		.uleb128 0x17
 2164 06c3 2E000000 		.4byte	.LVL8
 2165 06c7 360C0000 		.4byte	0xc36
ARM GAS  /tmp/ccTeMzA3.s 			page 40


 2166 06cb 19       		.uleb128 0x19
 2167 06cc 36000000 		.4byte	.LVL9
 2168 06d0 3D0C0000 		.4byte	0xc3d
 2169 06d4 00       		.byte	0
 2170 06d5 15       		.uleb128 0x15
 2171 06d6 A0070000 		.4byte	.LASF161
 2172 06da 01       		.byte	0x1
 2173 06db A4       		.byte	0xa4
 2174 06dc 00000000 		.4byte	.LFB120
 2175 06e0 36000000 		.4byte	.LFE120-.LFB120
 2176 06e4 01       		.uleb128 0x1
 2177 06e5 9C       		.byte	0x9c
 2178 06e6 1D070000 		.4byte	0x71d
 2179 06ea 16       		.uleb128 0x16
 2180 06eb 45090000 		.4byte	.LASF160
 2181 06ef 01       		.byte	0x1
 2182 06f0 A5       		.byte	0xa5
 2183 06f1 A2000000 		.4byte	0xa2
 2184 06f5 26000000 		.4byte	.LLST2
 2185 06f9 17       		.uleb128 0x17
 2186 06fa 06000000 		.4byte	.LVL10
 2187 06fe 2F0C0000 		.4byte	0xc2f
 2188 0702 18       		.uleb128 0x18
 2189 0703 2A000000 		.4byte	.LVL12
 2190 0707 02       		.uleb128 0x2
 2191 0708 74       		.byte	0x74
 2192 0709 00       		.sleb128 0
 2193 070a 17       		.uleb128 0x17
 2194 070b 2E000000 		.4byte	.LVL13
 2195 070f 360C0000 		.4byte	0xc36
 2196 0713 19       		.uleb128 0x19
 2197 0714 36000000 		.4byte	.LVL14
 2198 0718 3D0C0000 		.4byte	0xc3d
 2199 071c 00       		.byte	0
 2200 071d 15       		.uleb128 0x15
 2201 071e C5070000 		.4byte	.LASF162
 2202 0722 01       		.byte	0x1
 2203 0723 B6       		.byte	0xb6
 2204 0724 00000000 		.4byte	.LFB121
 2205 0728 36000000 		.4byte	.LFE121-.LFB121
 2206 072c 01       		.uleb128 0x1
 2207 072d 9C       		.byte	0x9c
 2208 072e 65070000 		.4byte	0x765
 2209 0732 16       		.uleb128 0x16
 2210 0733 45090000 		.4byte	.LASF160
 2211 0737 01       		.byte	0x1
 2212 0738 B7       		.byte	0xb7
 2213 0739 A2000000 		.4byte	0xa2
 2214 073d 39000000 		.4byte	.LLST3
 2215 0741 17       		.uleb128 0x17
 2216 0742 06000000 		.4byte	.LVL15
 2217 0746 2F0C0000 		.4byte	0xc2f
 2218 074a 18       		.uleb128 0x18
 2219 074b 2A000000 		.4byte	.LVL17
 2220 074f 02       		.uleb128 0x2
 2221 0750 74       		.byte	0x74
 2222 0751 00       		.sleb128 0
ARM GAS  /tmp/ccTeMzA3.s 			page 41


 2223 0752 17       		.uleb128 0x17
 2224 0753 2E000000 		.4byte	.LVL18
 2225 0757 360C0000 		.4byte	0xc36
 2226 075b 19       		.uleb128 0x19
 2227 075c 36000000 		.4byte	.LVL19
 2228 0760 3D0C0000 		.4byte	0xc3d
 2229 0764 00       		.byte	0
 2230 0765 15       		.uleb128 0x15
 2231 0766 06080000 		.4byte	.LASF163
 2232 076a 01       		.byte	0x1
 2233 076b C8       		.byte	0xc8
 2234 076c 00000000 		.4byte	.LFB122
 2235 0770 32000000 		.4byte	.LFE122-.LFB122
 2236 0774 01       		.uleb128 0x1
 2237 0775 9C       		.byte	0x9c
 2238 0776 AD070000 		.4byte	0x7ad
 2239 077a 16       		.uleb128 0x16
 2240 077b 45090000 		.4byte	.LASF160
 2241 077f 01       		.byte	0x1
 2242 0780 C9       		.byte	0xc9
 2243 0781 A2000000 		.4byte	0xa2
 2244 0785 4C000000 		.4byte	.LLST4
 2245 0789 17       		.uleb128 0x17
 2246 078a 06000000 		.4byte	.LVL20
 2247 078e 2F0C0000 		.4byte	0xc2f
 2248 0792 18       		.uleb128 0x18
 2249 0793 26000000 		.4byte	.LVL22
 2250 0797 02       		.uleb128 0x2
 2251 0798 74       		.byte	0x74
 2252 0799 00       		.sleb128 0
 2253 079a 17       		.uleb128 0x17
 2254 079b 2A000000 		.4byte	.LVL23
 2255 079f 360C0000 		.4byte	0xc36
 2256 07a3 19       		.uleb128 0x19
 2257 07a4 32000000 		.4byte	.LVL24
 2258 07a8 3D0C0000 		.4byte	0xc3d
 2259 07ac 00       		.byte	0
 2260 07ad 15       		.uleb128 0x15
 2261 07ae DF080000 		.4byte	.LASF164
 2262 07b2 01       		.byte	0x1
 2263 07b3 DA       		.byte	0xda
 2264 07b4 00000000 		.4byte	.LFB123
 2265 07b8 36000000 		.4byte	.LFE123-.LFB123
 2266 07bc 01       		.uleb128 0x1
 2267 07bd 9C       		.byte	0x9c
 2268 07be F5070000 		.4byte	0x7f5
 2269 07c2 16       		.uleb128 0x16
 2270 07c3 45090000 		.4byte	.LASF160
 2271 07c7 01       		.byte	0x1
 2272 07c8 DB       		.byte	0xdb
 2273 07c9 A2000000 		.4byte	0xa2
 2274 07cd 5F000000 		.4byte	.LLST5
 2275 07d1 17       		.uleb128 0x17
 2276 07d2 06000000 		.4byte	.LVL25
 2277 07d6 2F0C0000 		.4byte	0xc2f
 2278 07da 18       		.uleb128 0x18
 2279 07db 2A000000 		.4byte	.LVL27
ARM GAS  /tmp/ccTeMzA3.s 			page 42


 2280 07df 02       		.uleb128 0x2
 2281 07e0 74       		.byte	0x74
 2282 07e1 00       		.sleb128 0
 2283 07e2 17       		.uleb128 0x17
 2284 07e3 2E000000 		.4byte	.LVL28
 2285 07e7 360C0000 		.4byte	0xc36
 2286 07eb 19       		.uleb128 0x19
 2287 07ec 36000000 		.4byte	.LVL29
 2288 07f0 3D0C0000 		.4byte	0xc3d
 2289 07f4 00       		.byte	0
 2290 07f5 15       		.uleb128 0x15
 2291 07f6 FA080000 		.4byte	.LASF165
 2292 07fa 01       		.byte	0x1
 2293 07fb EC       		.byte	0xec
 2294 07fc 00000000 		.4byte	.LFB124
 2295 0800 36000000 		.4byte	.LFE124-.LFB124
 2296 0804 01       		.uleb128 0x1
 2297 0805 9C       		.byte	0x9c
 2298 0806 3D080000 		.4byte	0x83d
 2299 080a 16       		.uleb128 0x16
 2300 080b 45090000 		.4byte	.LASF160
 2301 080f 01       		.byte	0x1
 2302 0810 ED       		.byte	0xed
 2303 0811 A2000000 		.4byte	0xa2
 2304 0815 72000000 		.4byte	.LLST6
 2305 0819 17       		.uleb128 0x17
 2306 081a 06000000 		.4byte	.LVL30
 2307 081e 2F0C0000 		.4byte	0xc2f
 2308 0822 18       		.uleb128 0x18
 2309 0823 2A000000 		.4byte	.LVL32
 2310 0827 02       		.uleb128 0x2
 2311 0828 74       		.byte	0x74
 2312 0829 00       		.sleb128 0
 2313 082a 17       		.uleb128 0x17
 2314 082b 2E000000 		.4byte	.LVL33
 2315 082f 360C0000 		.4byte	0xc36
 2316 0833 19       		.uleb128 0x19
 2317 0834 36000000 		.4byte	.LVL34
 2318 0838 3D0C0000 		.4byte	0xc3d
 2319 083c 00       		.byte	0
 2320 083d 15       		.uleb128 0x15
 2321 083e 66040000 		.4byte	.LASF166
 2322 0842 01       		.byte	0x1
 2323 0843 FE       		.byte	0xfe
 2324 0844 00000000 		.4byte	.LFB125
 2325 0848 36000000 		.4byte	.LFE125-.LFB125
 2326 084c 01       		.uleb128 0x1
 2327 084d 9C       		.byte	0x9c
 2328 084e 85080000 		.4byte	0x885
 2329 0852 16       		.uleb128 0x16
 2330 0853 45090000 		.4byte	.LASF160
 2331 0857 01       		.byte	0x1
 2332 0858 FF       		.byte	0xff
 2333 0859 A2000000 		.4byte	0xa2
 2334 085d 85000000 		.4byte	.LLST7
 2335 0861 17       		.uleb128 0x17
 2336 0862 06000000 		.4byte	.LVL35
ARM GAS  /tmp/ccTeMzA3.s 			page 43


 2337 0866 2F0C0000 		.4byte	0xc2f
 2338 086a 18       		.uleb128 0x18
 2339 086b 2A000000 		.4byte	.LVL37
 2340 086f 02       		.uleb128 0x2
 2341 0870 74       		.byte	0x74
 2342 0871 00       		.sleb128 0
 2343 0872 17       		.uleb128 0x17
 2344 0873 2E000000 		.4byte	.LVL38
 2345 0877 360C0000 		.4byte	0xc36
 2346 087b 19       		.uleb128 0x19
 2347 087c 36000000 		.4byte	.LVL39
 2348 0880 3D0C0000 		.4byte	0xc3d
 2349 0884 00       		.byte	0
 2350 0885 1A       		.uleb128 0x1a
 2351 0886 63090000 		.4byte	.LASF167
 2352 088a 01       		.byte	0x1
 2353 088b 1001     		.2byte	0x110
 2354 088d 00000000 		.4byte	.LFB126
 2355 0891 32000000 		.4byte	.LFE126-.LFB126
 2356 0895 01       		.uleb128 0x1
 2357 0896 9C       		.byte	0x9c
 2358 0897 CF080000 		.4byte	0x8cf
 2359 089b 1B       		.uleb128 0x1b
 2360 089c 45090000 		.4byte	.LASF160
 2361 08a0 01       		.byte	0x1
 2362 08a1 1101     		.2byte	0x111
 2363 08a3 A2000000 		.4byte	0xa2
 2364 08a7 98000000 		.4byte	.LLST8
 2365 08ab 17       		.uleb128 0x17
 2366 08ac 06000000 		.4byte	.LVL40
 2367 08b0 2F0C0000 		.4byte	0xc2f
 2368 08b4 18       		.uleb128 0x18
 2369 08b5 26000000 		.4byte	.LVL42
 2370 08b9 02       		.uleb128 0x2
 2371 08ba 74       		.byte	0x74
 2372 08bb 00       		.sleb128 0
 2373 08bc 17       		.uleb128 0x17
 2374 08bd 2A000000 		.4byte	.LVL43
 2375 08c1 360C0000 		.4byte	0xc36
 2376 08c5 19       		.uleb128 0x19
 2377 08c6 32000000 		.4byte	.LVL44
 2378 08ca 3D0C0000 		.4byte	0xc3d
 2379 08ce 00       		.byte	0
 2380 08cf 1A       		.uleb128 0x1a
 2381 08d0 7B090000 		.4byte	.LASF168
 2382 08d4 01       		.byte	0x1
 2383 08d5 2201     		.2byte	0x122
 2384 08d7 00000000 		.4byte	.LFB127
 2385 08db 36000000 		.4byte	.LFE127-.LFB127
 2386 08df 01       		.uleb128 0x1
 2387 08e0 9C       		.byte	0x9c
 2388 08e1 19090000 		.4byte	0x919
 2389 08e5 1B       		.uleb128 0x1b
 2390 08e6 45090000 		.4byte	.LASF160
 2391 08ea 01       		.byte	0x1
 2392 08eb 2301     		.2byte	0x123
 2393 08ed A2000000 		.4byte	0xa2
ARM GAS  /tmp/ccTeMzA3.s 			page 44


 2394 08f1 AB000000 		.4byte	.LLST9
 2395 08f5 17       		.uleb128 0x17
 2396 08f6 06000000 		.4byte	.LVL45
 2397 08fa 2F0C0000 		.4byte	0xc2f
 2398 08fe 18       		.uleb128 0x18
 2399 08ff 2A000000 		.4byte	.LVL47
 2400 0903 02       		.uleb128 0x2
 2401 0904 74       		.byte	0x74
 2402 0905 00       		.sleb128 0
 2403 0906 17       		.uleb128 0x17
 2404 0907 2E000000 		.4byte	.LVL48
 2405 090b 360C0000 		.4byte	0xc36
 2406 090f 19       		.uleb128 0x19
 2407 0910 36000000 		.4byte	.LVL49
 2408 0914 3D0C0000 		.4byte	0xc3d
 2409 0918 00       		.byte	0
 2410 0919 1A       		.uleb128 0x1a
 2411 091a 85090000 		.4byte	.LASF169
 2412 091e 01       		.byte	0x1
 2413 091f 3401     		.2byte	0x134
 2414 0921 00000000 		.4byte	.LFB128
 2415 0925 36000000 		.4byte	.LFE128-.LFB128
 2416 0929 01       		.uleb128 0x1
 2417 092a 9C       		.byte	0x9c
 2418 092b 63090000 		.4byte	0x963
 2419 092f 1B       		.uleb128 0x1b
 2420 0930 45090000 		.4byte	.LASF160
 2421 0934 01       		.byte	0x1
 2422 0935 3501     		.2byte	0x135
 2423 0937 A2000000 		.4byte	0xa2
 2424 093b BE000000 		.4byte	.LLST10
 2425 093f 17       		.uleb128 0x17
 2426 0940 06000000 		.4byte	.LVL50
 2427 0944 2F0C0000 		.4byte	0xc2f
 2428 0948 18       		.uleb128 0x18
 2429 0949 2A000000 		.4byte	.LVL52
 2430 094d 02       		.uleb128 0x2
 2431 094e 74       		.byte	0x74
 2432 094f 00       		.sleb128 0
 2433 0950 17       		.uleb128 0x17
 2434 0951 2E000000 		.4byte	.LVL53
 2435 0955 360C0000 		.4byte	0xc36
 2436 0959 19       		.uleb128 0x19
 2437 095a 36000000 		.4byte	.LVL54
 2438 095e 3D0C0000 		.4byte	0xc3d
 2439 0962 00       		.byte	0
 2440 0963 1A       		.uleb128 0x1a
 2441 0964 B7090000 		.4byte	.LASF170
 2442 0968 01       		.byte	0x1
 2443 0969 4601     		.2byte	0x146
 2444 096b 00000000 		.4byte	.LFB129
 2445 096f 36000000 		.4byte	.LFE129-.LFB129
 2446 0973 01       		.uleb128 0x1
 2447 0974 9C       		.byte	0x9c
 2448 0975 AD090000 		.4byte	0x9ad
 2449 0979 1B       		.uleb128 0x1b
 2450 097a 45090000 		.4byte	.LASF160
ARM GAS  /tmp/ccTeMzA3.s 			page 45


 2451 097e 01       		.byte	0x1
 2452 097f 4701     		.2byte	0x147
 2453 0981 A2000000 		.4byte	0xa2
 2454 0985 D1000000 		.4byte	.LLST11
 2455 0989 17       		.uleb128 0x17
 2456 098a 06000000 		.4byte	.LVL55
 2457 098e 2F0C0000 		.4byte	0xc2f
 2458 0992 18       		.uleb128 0x18
 2459 0993 2A000000 		.4byte	.LVL57
 2460 0997 02       		.uleb128 0x2
 2461 0998 74       		.byte	0x74
 2462 0999 00       		.sleb128 0
 2463 099a 17       		.uleb128 0x17
 2464 099b 2E000000 		.4byte	.LVL58
 2465 099f 360C0000 		.4byte	0xc36
 2466 09a3 19       		.uleb128 0x19
 2467 09a4 36000000 		.4byte	.LVL59
 2468 09a8 3D0C0000 		.4byte	0xc3d
 2469 09ac 00       		.byte	0
 2470 09ad 1A       		.uleb128 0x1a
 2471 09ae F1000000 		.4byte	.LASF171
 2472 09b2 01       		.byte	0x1
 2473 09b3 5801     		.2byte	0x158
 2474 09b5 00000000 		.4byte	.LFB130
 2475 09b9 32000000 		.4byte	.LFE130-.LFB130
 2476 09bd 01       		.uleb128 0x1
 2477 09be 9C       		.byte	0x9c
 2478 09bf F7090000 		.4byte	0x9f7
 2479 09c3 1B       		.uleb128 0x1b
 2480 09c4 45090000 		.4byte	.LASF160
 2481 09c8 01       		.byte	0x1
 2482 09c9 5901     		.2byte	0x159
 2483 09cb A2000000 		.4byte	0xa2
 2484 09cf E4000000 		.4byte	.LLST12
 2485 09d3 17       		.uleb128 0x17
 2486 09d4 06000000 		.4byte	.LVL60
 2487 09d8 2F0C0000 		.4byte	0xc2f
 2488 09dc 18       		.uleb128 0x18
 2489 09dd 26000000 		.4byte	.LVL62
 2490 09e1 02       		.uleb128 0x2
 2491 09e2 74       		.byte	0x74
 2492 09e3 00       		.sleb128 0
 2493 09e4 17       		.uleb128 0x17
 2494 09e5 2A000000 		.4byte	.LVL63
 2495 09e9 360C0000 		.4byte	0xc36
 2496 09ed 19       		.uleb128 0x19
 2497 09ee 32000000 		.4byte	.LVL64
 2498 09f2 3D0C0000 		.4byte	0xc3d
 2499 09f6 00       		.byte	0
 2500 09f7 1A       		.uleb128 0x1a
 2501 09f8 C4030000 		.4byte	.LASF172
 2502 09fc 01       		.byte	0x1
 2503 09fd 6A01     		.2byte	0x16a
 2504 09ff 00000000 		.4byte	.LFB131
 2505 0a03 36000000 		.4byte	.LFE131-.LFB131
 2506 0a07 01       		.uleb128 0x1
 2507 0a08 9C       		.byte	0x9c
ARM GAS  /tmp/ccTeMzA3.s 			page 46


 2508 0a09 410A0000 		.4byte	0xa41
 2509 0a0d 1B       		.uleb128 0x1b
 2510 0a0e 45090000 		.4byte	.LASF160
 2511 0a12 01       		.byte	0x1
 2512 0a13 6B01     		.2byte	0x16b
 2513 0a15 A2000000 		.4byte	0xa2
 2514 0a19 F7000000 		.4byte	.LLST13
 2515 0a1d 17       		.uleb128 0x17
 2516 0a1e 06000000 		.4byte	.LVL65
 2517 0a22 2F0C0000 		.4byte	0xc2f
 2518 0a26 18       		.uleb128 0x18
 2519 0a27 2A000000 		.4byte	.LVL67
 2520 0a2b 02       		.uleb128 0x2
 2521 0a2c 74       		.byte	0x74
 2522 0a2d 00       		.sleb128 0
 2523 0a2e 17       		.uleb128 0x17
 2524 0a2f 2E000000 		.4byte	.LVL68
 2525 0a33 360C0000 		.4byte	0xc36
 2526 0a37 19       		.uleb128 0x19
 2527 0a38 36000000 		.4byte	.LVL69
 2528 0a3c 3D0C0000 		.4byte	0xc3d
 2529 0a40 00       		.byte	0
 2530 0a41 1A       		.uleb128 0x1a
 2531 0a42 F2030000 		.4byte	.LASF173
 2532 0a46 01       		.byte	0x1
 2533 0a47 7C01     		.2byte	0x17c
 2534 0a49 00000000 		.4byte	.LFB132
 2535 0a4d 36000000 		.4byte	.LFE132-.LFB132
 2536 0a51 01       		.uleb128 0x1
 2537 0a52 9C       		.byte	0x9c
 2538 0a53 8B0A0000 		.4byte	0xa8b
 2539 0a57 1B       		.uleb128 0x1b
 2540 0a58 45090000 		.4byte	.LASF160
 2541 0a5c 01       		.byte	0x1
 2542 0a5d 7D01     		.2byte	0x17d
 2543 0a5f A2000000 		.4byte	0xa2
 2544 0a63 0A010000 		.4byte	.LLST14
 2545 0a67 17       		.uleb128 0x17
 2546 0a68 06000000 		.4byte	.LVL70
 2547 0a6c 2F0C0000 		.4byte	0xc2f
 2548 0a70 18       		.uleb128 0x18
 2549 0a71 2A000000 		.4byte	.LVL72
 2550 0a75 02       		.uleb128 0x2
 2551 0a76 74       		.byte	0x74
 2552 0a77 00       		.sleb128 0
 2553 0a78 17       		.uleb128 0x17
 2554 0a79 2E000000 		.4byte	.LVL73
 2555 0a7d 360C0000 		.4byte	0xc36
 2556 0a81 19       		.uleb128 0x19
 2557 0a82 36000000 		.4byte	.LVL74
 2558 0a86 3D0C0000 		.4byte	0xc3d
 2559 0a8a 00       		.byte	0
 2560 0a8b 1A       		.uleb128 0x1a
 2561 0a8c 91020000 		.4byte	.LASF174
 2562 0a90 01       		.byte	0x1
 2563 0a91 8E01     		.2byte	0x18e
 2564 0a93 00000000 		.4byte	.LFB133
ARM GAS  /tmp/ccTeMzA3.s 			page 47


 2565 0a97 36000000 		.4byte	.LFE133-.LFB133
 2566 0a9b 01       		.uleb128 0x1
 2567 0a9c 9C       		.byte	0x9c
 2568 0a9d D50A0000 		.4byte	0xad5
 2569 0aa1 1B       		.uleb128 0x1b
 2570 0aa2 45090000 		.4byte	.LASF160
 2571 0aa6 01       		.byte	0x1
 2572 0aa7 8F01     		.2byte	0x18f
 2573 0aa9 A2000000 		.4byte	0xa2
 2574 0aad 1D010000 		.4byte	.LLST15
 2575 0ab1 17       		.uleb128 0x17
 2576 0ab2 06000000 		.4byte	.LVL75
 2577 0ab6 2F0C0000 		.4byte	0xc2f
 2578 0aba 18       		.uleb128 0x18
 2579 0abb 2A000000 		.4byte	.LVL77
 2580 0abf 02       		.uleb128 0x2
 2581 0ac0 74       		.byte	0x74
 2582 0ac1 00       		.sleb128 0
 2583 0ac2 17       		.uleb128 0x17
 2584 0ac3 2E000000 		.4byte	.LVL78
 2585 0ac7 360C0000 		.4byte	0xc36
 2586 0acb 19       		.uleb128 0x19
 2587 0acc 36000000 		.4byte	.LVL79
 2588 0ad0 3D0C0000 		.4byte	0xc3d
 2589 0ad4 00       		.byte	0
 2590 0ad5 1A       		.uleb128 0x1a
 2591 0ad6 D6070000 		.4byte	.LASF175
 2592 0ada 01       		.byte	0x1
 2593 0adb A401     		.2byte	0x1a4
 2594 0add 00000000 		.4byte	.LFB134
 2595 0ae1 52000000 		.4byte	.LFE134-.LFB134
 2596 0ae5 01       		.uleb128 0x1
 2597 0ae6 9C       		.byte	0x9c
 2598 0ae7 FA0A0000 		.4byte	0xafa
 2599 0aeb 1C       		.uleb128 0x1c
 2600 0aec 6900     		.ascii	"i\000"
 2601 0aee 01       		.byte	0x1
 2602 0aef A501     		.2byte	0x1a5
 2603 0af1 25000000 		.4byte	0x25
 2604 0af5 30010000 		.4byte	.LLST16
 2605 0af9 00       		.byte	0
 2606 0afa 1D       		.uleb128 0x1d
 2607 0afb D5090000 		.4byte	.LASF194
 2608 0aff 01       		.byte	0x1
 2609 0b00 CA01     		.2byte	0x1ca
 2610 0b02 AD000000 		.4byte	0xad
 2611 0b06 00000000 		.4byte	.LFB135
 2612 0b0a C0000000 		.4byte	.LFE135-.LFB135
 2613 0b0e 01       		.uleb128 0x1
 2614 0b0f 9C       		.byte	0x9c
 2615 0b10 710B0000 		.4byte	0xb71
 2616 0b14 1E       		.uleb128 0x1e
 2617 0b15 B4020000 		.4byte	.LASF176
 2618 0b19 01       		.byte	0x1
 2619 0b1a CA01     		.2byte	0x1ca
 2620 0b1c 0E060000 		.4byte	0x60e
 2621 0b20 44010000 		.4byte	.LLST17
ARM GAS  /tmp/ccTeMzA3.s 			page 48


 2622 0b24 1E       		.uleb128 0x1e
 2623 0b25 00050000 		.4byte	.LASF177
 2624 0b29 01       		.byte	0x1
 2625 0b2a CB01     		.2byte	0x1cb
 2626 0b2c A2000000 		.4byte	0xa2
 2627 0b30 78010000 		.4byte	.LLST18
 2628 0b34 1E       		.uleb128 0x1e
 2629 0b35 DF020000 		.4byte	.LASF178
 2630 0b39 01       		.byte	0x1
 2631 0b3a CC01     		.2byte	0x1cc
 2632 0b3c ED050000 		.4byte	0x5ed
 2633 0b40 B2010000 		.4byte	.LLST19
 2634 0b44 1E       		.uleb128 0x1e
 2635 0b45 CB050000 		.4byte	.LASF179
 2636 0b49 01       		.byte	0x1
 2637 0b4a CD01     		.2byte	0x1cd
 2638 0b4c BF000000 		.4byte	0xbf
 2639 0b50 EC010000 		.4byte	.LLST20
 2640 0b54 17       		.uleb128 0x17
 2641 0b55 9E000000 		.4byte	.LVL84
 2642 0b59 450C0000 		.4byte	0xc45
 2643 0b5d 1F       		.uleb128 0x1f
 2644 0b5e B8000000 		.4byte	.LVL87
 2645 0b62 5C0C0000 		.4byte	0xc5c
 2646 0b66 20       		.uleb128 0x20
 2647 0b67 01       		.uleb128 0x1
 2648 0b68 50       		.byte	0x50
 2649 0b69 05       		.uleb128 0x5
 2650 0b6a 03       		.byte	0x3
 2651 0b6b 00000000 		.4byte	.LC0
 2652 0b6f 00       		.byte	0
 2653 0b70 00       		.byte	0
 2654 0b71 1A       		.uleb128 0x1a
 2655 0b72 F5070000 		.4byte	.LASF180
 2656 0b76 01       		.byte	0x1
 2657 0b77 F901     		.2byte	0x1f9
 2658 0b79 00000000 		.4byte	.LFB136
 2659 0b7d 82000000 		.4byte	.LFE136-.LFB136
 2660 0b81 01       		.uleb128 0x1
 2661 0b82 9C       		.byte	0x9c
 2662 0b83 CB0B0000 		.4byte	0xbcb
 2663 0b87 1E       		.uleb128 0x1e
 2664 0b88 B4020000 		.4byte	.LASF176
 2665 0b8c 01       		.byte	0x1
 2666 0b8d F901     		.2byte	0x1f9
 2667 0b8f 0E060000 		.4byte	0x60e
 2668 0b93 26020000 		.4byte	.LLST21
 2669 0b97 17       		.uleb128 0x17
 2670 0b98 24000000 		.4byte	.LVL90
 2671 0b9c 6D0C0000 		.4byte	0xc6d
 2672 0ba0 21       		.uleb128 0x21
 2673 0ba1 72000000 		.4byte	.LVL92
 2674 0ba5 5C0C0000 		.4byte	0xc5c
 2675 0ba9 B70B0000 		.4byte	0xbb7
 2676 0bad 20       		.uleb128 0x20
 2677 0bae 01       		.uleb128 0x1
 2678 0baf 50       		.byte	0x50
ARM GAS  /tmp/ccTeMzA3.s 			page 49


 2679 0bb0 05       		.uleb128 0x5
 2680 0bb1 03       		.byte	0x3
 2681 0bb2 30000000 		.4byte	.LC2
 2682 0bb6 00       		.byte	0
 2683 0bb7 1F       		.uleb128 0x1f
 2684 0bb8 80000000 		.4byte	.LVL95
 2685 0bbc 5C0C0000 		.4byte	0xc5c
 2686 0bc0 20       		.uleb128 0x20
 2687 0bc1 01       		.uleb128 0x1
 2688 0bc2 50       		.byte	0x50
 2689 0bc3 05       		.uleb128 0x5
 2690 0bc4 03       		.byte	0x3
 2691 0bc5 18000000 		.4byte	.LC1
 2692 0bc9 00       		.byte	0
 2693 0bca 00       		.byte	0
 2694 0bcb 22       		.uleb128 0x22
 2695 0bcc 91080000 		.4byte	.LASF181
 2696 0bd0 01       		.byte	0x1
 2697 0bd1 6C       		.byte	0x6c
 2698 0bd2 A2000000 		.4byte	0xa2
 2699 0bd6 05       		.uleb128 0x5
 2700 0bd7 03       		.byte	0x3
 2701 0bd8 00000000 		.4byte	dma_streams_mask
 2702 0bdc 0B       		.uleb128 0xb
 2703 0bdd 3A060000 		.4byte	0x63a
 2704 0be1 EC0B0000 		.4byte	0xbec
 2705 0be5 0C       		.uleb128 0xc
 2706 0be6 C6000000 		.4byte	0xc6
 2707 0bea 0F       		.byte	0xf
 2708 0beb 00       		.byte	0
 2709 0bec 22       		.uleb128 0x22
 2710 0bed 55090000 		.4byte	.LASF182
 2711 0bf1 01       		.byte	0x1
 2712 0bf2 71       		.byte	0x71
 2713 0bf3 DC0B0000 		.4byte	0xbdc
 2714 0bf7 05       		.uleb128 0x5
 2715 0bf8 03       		.byte	0x3
 2716 0bf9 00000000 		.4byte	dma_isr_redir
 2717 0bfd 23       		.uleb128 0x23
 2718 0bfe F9060000 		.4byte	.LASF183
 2719 0c02 07       		.byte	0x7
 2720 0c03 9806     		.2byte	0x698
 2721 0c05 2A030000 		.4byte	0x32a
 2722 0c09 0B       		.uleb128 0xb
 2723 0c0a E2050000 		.4byte	0x5e2
 2724 0c0e 190C0000 		.4byte	0xc19
 2725 0c12 0C       		.uleb128 0xc
 2726 0c13 C6000000 		.4byte	0xc6
 2727 0c17 0F       		.byte	0xf
 2728 0c18 00       		.byte	0
 2729 0c19 24       		.uleb128 0x24
 2730 0c1a DA010000 		.4byte	.LASF184
 2731 0c1e 01       		.byte	0x1
 2732 0c1f 4A       		.byte	0x4a
 2733 0c20 2A0C0000 		.4byte	0xc2a
 2734 0c24 05       		.uleb128 0x5
 2735 0c25 03       		.byte	0x3
ARM GAS  /tmp/ccTeMzA3.s 			page 50


 2736 0c26 00000000 		.4byte	_stm32_dma_streams
 2737 0c2a 08       		.uleb128 0x8
 2738 0c2b 090C0000 		.4byte	0xc09
 2739 0c2f 25       		.uleb128 0x25
 2740 0c30 29090000 		.4byte	.LASF185
 2741 0c34 08       		.byte	0x8
 2742 0c35 EB       		.byte	0xeb
 2743 0c36 25       		.uleb128 0x25
 2744 0c37 A2080000 		.4byte	.LASF186
 2745 0c3b 08       		.byte	0x8
 2746 0c3c EC       		.byte	0xec
 2747 0c3d 26       		.uleb128 0x26
 2748 0c3e 4C040000 		.4byte	.LASF187
 2749 0c42 09       		.byte	0x9
 2750 0c43 0302     		.2byte	0x203
 2751 0c45 27       		.uleb128 0x27
 2752 0c46 30020000 		.4byte	.LASF188
 2753 0c4a 0A       		.byte	0xa
 2754 0c4b 2301     		.2byte	0x123
 2755 0c4d 5C0C0000 		.4byte	0xc5c
 2756 0c51 14       		.uleb128 0x14
 2757 0c52 A2000000 		.4byte	0xa2
 2758 0c56 14       		.uleb128 0x14
 2759 0c57 A2000000 		.4byte	0xa2
 2760 0c5b 00       		.byte	0
 2761 0c5c 28       		.uleb128 0x28
 2762 0c5d 44000000 		.4byte	.LASF189
 2763 0c61 08       		.byte	0x8
 2764 0c62 F6       		.byte	0xf6
 2765 0c63 6D0C0000 		.4byte	0xc6d
 2766 0c67 14       		.uleb128 0x14
 2767 0c68 CD000000 		.4byte	0xcd
 2768 0c6c 00       		.byte	0
 2769 0c6d 29       		.uleb128 0x29
 2770 0c6e A2020000 		.4byte	.LASF195
 2771 0c72 0A       		.byte	0xa
 2772 0c73 2401     		.2byte	0x124
 2773 0c75 14       		.uleb128 0x14
 2774 0c76 A2000000 		.4byte	0xa2
 2775 0c7a 00       		.byte	0
 2776 0c7b 00       		.byte	0
 2777              		.section	.debug_abbrev,"",%progbits
 2778              	.Ldebug_abbrev0:
 2779 0000 01       		.uleb128 0x1
 2780 0001 11       		.uleb128 0x11
 2781 0002 01       		.byte	0x1
 2782 0003 25       		.uleb128 0x25
 2783 0004 0E       		.uleb128 0xe
 2784 0005 13       		.uleb128 0x13
 2785 0006 0B       		.uleb128 0xb
 2786 0007 03       		.uleb128 0x3
 2787 0008 0E       		.uleb128 0xe
 2788 0009 1B       		.uleb128 0x1b
 2789 000a 0E       		.uleb128 0xe
 2790 000b 55       		.uleb128 0x55
 2791 000c 17       		.uleb128 0x17
 2792 000d 11       		.uleb128 0x11
ARM GAS  /tmp/ccTeMzA3.s 			page 51


 2793 000e 01       		.uleb128 0x1
 2794 000f 10       		.uleb128 0x10
 2795 0010 17       		.uleb128 0x17
 2796 0011 00       		.byte	0
 2797 0012 00       		.byte	0
 2798 0013 02       		.uleb128 0x2
 2799 0014 24       		.uleb128 0x24
 2800 0015 00       		.byte	0
 2801 0016 0B       		.uleb128 0xb
 2802 0017 0B       		.uleb128 0xb
 2803 0018 3E       		.uleb128 0x3e
 2804 0019 0B       		.uleb128 0xb
 2805 001a 03       		.uleb128 0x3
 2806 001b 08       		.uleb128 0x8
 2807 001c 00       		.byte	0
 2808 001d 00       		.byte	0
 2809 001e 03       		.uleb128 0x3
 2810 001f 24       		.uleb128 0x24
 2811 0020 00       		.byte	0
 2812 0021 0B       		.uleb128 0xb
 2813 0022 0B       		.uleb128 0xb
 2814 0023 3E       		.uleb128 0x3e
 2815 0024 0B       		.uleb128 0xb
 2816 0025 03       		.uleb128 0x3
 2817 0026 0E       		.uleb128 0xe
 2818 0027 00       		.byte	0
 2819 0028 00       		.byte	0
 2820 0029 04       		.uleb128 0x4
 2821 002a 16       		.uleb128 0x16
 2822 002b 00       		.byte	0
 2823 002c 03       		.uleb128 0x3
 2824 002d 0E       		.uleb128 0xe
 2825 002e 3A       		.uleb128 0x3a
 2826 002f 0B       		.uleb128 0xb
 2827 0030 3B       		.uleb128 0x3b
 2828 0031 0B       		.uleb128 0xb
 2829 0032 49       		.uleb128 0x49
 2830 0033 13       		.uleb128 0x13
 2831 0034 00       		.byte	0
 2832 0035 00       		.byte	0
 2833 0036 05       		.uleb128 0x5
 2834 0037 0F       		.uleb128 0xf
 2835 0038 00       		.byte	0
 2836 0039 0B       		.uleb128 0xb
 2837 003a 0B       		.uleb128 0xb
 2838 003b 00       		.byte	0
 2839 003c 00       		.byte	0
 2840 003d 06       		.uleb128 0x6
 2841 003e 35       		.uleb128 0x35
 2842 003f 00       		.byte	0
 2843 0040 49       		.uleb128 0x49
 2844 0041 13       		.uleb128 0x13
 2845 0042 00       		.byte	0
 2846 0043 00       		.byte	0
 2847 0044 07       		.uleb128 0x7
 2848 0045 0F       		.uleb128 0xf
 2849 0046 00       		.byte	0
ARM GAS  /tmp/ccTeMzA3.s 			page 52


 2850 0047 0B       		.uleb128 0xb
 2851 0048 0B       		.uleb128 0xb
 2852 0049 49       		.uleb128 0x49
 2853 004a 13       		.uleb128 0x13
 2854 004b 00       		.byte	0
 2855 004c 00       		.byte	0
 2856 004d 08       		.uleb128 0x8
 2857 004e 26       		.uleb128 0x26
 2858 004f 00       		.byte	0
 2859 0050 49       		.uleb128 0x49
 2860 0051 13       		.uleb128 0x13
 2861 0052 00       		.byte	0
 2862 0053 00       		.byte	0
 2863 0054 09       		.uleb128 0x9
 2864 0055 04       		.uleb128 0x4
 2865 0056 01       		.byte	0x1
 2866 0057 03       		.uleb128 0x3
 2867 0058 0E       		.uleb128 0xe
 2868 0059 0B       		.uleb128 0xb
 2869 005a 0B       		.uleb128 0xb
 2870 005b 3A       		.uleb128 0x3a
 2871 005c 0B       		.uleb128 0xb
 2872 005d 3B       		.uleb128 0x3b
 2873 005e 0B       		.uleb128 0xb
 2874 005f 01       		.uleb128 0x1
 2875 0060 13       		.uleb128 0x13
 2876 0061 00       		.byte	0
 2877 0062 00       		.byte	0
 2878 0063 0A       		.uleb128 0xa
 2879 0064 28       		.uleb128 0x28
 2880 0065 00       		.byte	0
 2881 0066 03       		.uleb128 0x3
 2882 0067 0E       		.uleb128 0xe
 2883 0068 1C       		.uleb128 0x1c
 2884 0069 0D       		.uleb128 0xd
 2885 006a 00       		.byte	0
 2886 006b 00       		.byte	0
 2887 006c 0B       		.uleb128 0xb
 2888 006d 01       		.uleb128 0x1
 2889 006e 01       		.byte	0x1
 2890 006f 49       		.uleb128 0x49
 2891 0070 13       		.uleb128 0x13
 2892 0071 01       		.uleb128 0x1
 2893 0072 13       		.uleb128 0x13
 2894 0073 00       		.byte	0
 2895 0074 00       		.byte	0
 2896 0075 0C       		.uleb128 0xc
 2897 0076 21       		.uleb128 0x21
 2898 0077 00       		.byte	0
 2899 0078 49       		.uleb128 0x49
 2900 0079 13       		.uleb128 0x13
 2901 007a 2F       		.uleb128 0x2f
 2902 007b 0B       		.uleb128 0xb
 2903 007c 00       		.byte	0
 2904 007d 00       		.byte	0
 2905 007e 0D       		.uleb128 0xd
 2906 007f 13       		.uleb128 0x13
ARM GAS  /tmp/ccTeMzA3.s 			page 53


 2907 0080 01       		.byte	0x1
 2908 0081 0B       		.uleb128 0xb
 2909 0082 0B       		.uleb128 0xb
 2910 0083 3A       		.uleb128 0x3a
 2911 0084 0B       		.uleb128 0xb
 2912 0085 3B       		.uleb128 0x3b
 2913 0086 05       		.uleb128 0x5
 2914 0087 01       		.uleb128 0x1
 2915 0088 13       		.uleb128 0x13
 2916 0089 00       		.byte	0
 2917 008a 00       		.byte	0
 2918 008b 0E       		.uleb128 0xe
 2919 008c 0D       		.uleb128 0xd
 2920 008d 00       		.byte	0
 2921 008e 03       		.uleb128 0x3
 2922 008f 08       		.uleb128 0x8
 2923 0090 3A       		.uleb128 0x3a
 2924 0091 0B       		.uleb128 0xb
 2925 0092 3B       		.uleb128 0x3b
 2926 0093 05       		.uleb128 0x5
 2927 0094 49       		.uleb128 0x49
 2928 0095 13       		.uleb128 0x13
 2929 0096 38       		.uleb128 0x38
 2930 0097 0B       		.uleb128 0xb
 2931 0098 00       		.byte	0
 2932 0099 00       		.byte	0
 2933 009a 0F       		.uleb128 0xf
 2934 009b 0D       		.uleb128 0xd
 2935 009c 00       		.byte	0
 2936 009d 03       		.uleb128 0x3
 2937 009e 0E       		.uleb128 0xe
 2938 009f 3A       		.uleb128 0x3a
 2939 00a0 0B       		.uleb128 0xb
 2940 00a1 3B       		.uleb128 0x3b
 2941 00a2 05       		.uleb128 0x5
 2942 00a3 49       		.uleb128 0x49
 2943 00a4 13       		.uleb128 0x13
 2944 00a5 38       		.uleb128 0x38
 2945 00a6 0B       		.uleb128 0xb
 2946 00a7 00       		.byte	0
 2947 00a8 00       		.byte	0
 2948 00a9 10       		.uleb128 0x10
 2949 00aa 16       		.uleb128 0x16
 2950 00ab 00       		.byte	0
 2951 00ac 03       		.uleb128 0x3
 2952 00ad 0E       		.uleb128 0xe
 2953 00ae 3A       		.uleb128 0x3a
 2954 00af 0B       		.uleb128 0xb
 2955 00b0 3B       		.uleb128 0x3b
 2956 00b1 05       		.uleb128 0x5
 2957 00b2 49       		.uleb128 0x49
 2958 00b3 13       		.uleb128 0x13
 2959 00b4 00       		.byte	0
 2960 00b5 00       		.byte	0
 2961 00b6 11       		.uleb128 0x11
 2962 00b7 13       		.uleb128 0x13
 2963 00b8 01       		.byte	0x1
ARM GAS  /tmp/ccTeMzA3.s 			page 54


 2964 00b9 0B       		.uleb128 0xb
 2965 00ba 0B       		.uleb128 0xb
 2966 00bb 3A       		.uleb128 0x3a
 2967 00bc 0B       		.uleb128 0xb
 2968 00bd 3B       		.uleb128 0x3b
 2969 00be 0B       		.uleb128 0xb
 2970 00bf 01       		.uleb128 0x1
 2971 00c0 13       		.uleb128 0x13
 2972 00c1 00       		.byte	0
 2973 00c2 00       		.byte	0
 2974 00c3 12       		.uleb128 0x12
 2975 00c4 0D       		.uleb128 0xd
 2976 00c5 00       		.byte	0
 2977 00c6 03       		.uleb128 0x3
 2978 00c7 0E       		.uleb128 0xe
 2979 00c8 3A       		.uleb128 0x3a
 2980 00c9 0B       		.uleb128 0xb
 2981 00ca 3B       		.uleb128 0x3b
 2982 00cb 0B       		.uleb128 0xb
 2983 00cc 49       		.uleb128 0x49
 2984 00cd 13       		.uleb128 0x13
 2985 00ce 38       		.uleb128 0x38
 2986 00cf 0B       		.uleb128 0xb
 2987 00d0 00       		.byte	0
 2988 00d1 00       		.byte	0
 2989 00d2 13       		.uleb128 0x13
 2990 00d3 15       		.uleb128 0x15
 2991 00d4 01       		.byte	0x1
 2992 00d5 27       		.uleb128 0x27
 2993 00d6 19       		.uleb128 0x19
 2994 00d7 01       		.uleb128 0x1
 2995 00d8 13       		.uleb128 0x13
 2996 00d9 00       		.byte	0
 2997 00da 00       		.byte	0
 2998 00db 14       		.uleb128 0x14
 2999 00dc 05       		.uleb128 0x5
 3000 00dd 00       		.byte	0
 3001 00de 49       		.uleb128 0x49
 3002 00df 13       		.uleb128 0x13
 3003 00e0 00       		.byte	0
 3004 00e1 00       		.byte	0
 3005 00e2 15       		.uleb128 0x15
 3006 00e3 2E       		.uleb128 0x2e
 3007 00e4 01       		.byte	0x1
 3008 00e5 3F       		.uleb128 0x3f
 3009 00e6 19       		.uleb128 0x19
 3010 00e7 03       		.uleb128 0x3
 3011 00e8 0E       		.uleb128 0xe
 3012 00e9 3A       		.uleb128 0x3a
 3013 00ea 0B       		.uleb128 0xb
 3014 00eb 3B       		.uleb128 0x3b
 3015 00ec 0B       		.uleb128 0xb
 3016 00ed 27       		.uleb128 0x27
 3017 00ee 19       		.uleb128 0x19
 3018 00ef 11       		.uleb128 0x11
 3019 00f0 01       		.uleb128 0x1
 3020 00f1 12       		.uleb128 0x12
ARM GAS  /tmp/ccTeMzA3.s 			page 55


 3021 00f2 06       		.uleb128 0x6
 3022 00f3 40       		.uleb128 0x40
 3023 00f4 18       		.uleb128 0x18
 3024 00f5 9742     		.uleb128 0x2117
 3025 00f7 19       		.uleb128 0x19
 3026 00f8 01       		.uleb128 0x1
 3027 00f9 13       		.uleb128 0x13
 3028 00fa 00       		.byte	0
 3029 00fb 00       		.byte	0
 3030 00fc 16       		.uleb128 0x16
 3031 00fd 34       		.uleb128 0x34
 3032 00fe 00       		.byte	0
 3033 00ff 03       		.uleb128 0x3
 3034 0100 0E       		.uleb128 0xe
 3035 0101 3A       		.uleb128 0x3a
 3036 0102 0B       		.uleb128 0xb
 3037 0103 3B       		.uleb128 0x3b
 3038 0104 0B       		.uleb128 0xb
 3039 0105 49       		.uleb128 0x49
 3040 0106 13       		.uleb128 0x13
 3041 0107 02       		.uleb128 0x2
 3042 0108 17       		.uleb128 0x17
 3043 0109 00       		.byte	0
 3044 010a 00       		.byte	0
 3045 010b 17       		.uleb128 0x17
 3046 010c 898201   		.uleb128 0x4109
 3047 010f 00       		.byte	0
 3048 0110 11       		.uleb128 0x11
 3049 0111 01       		.uleb128 0x1
 3050 0112 31       		.uleb128 0x31
 3051 0113 13       		.uleb128 0x13
 3052 0114 00       		.byte	0
 3053 0115 00       		.byte	0
 3054 0116 18       		.uleb128 0x18
 3055 0117 898201   		.uleb128 0x4109
 3056 011a 00       		.byte	0
 3057 011b 11       		.uleb128 0x11
 3058 011c 01       		.uleb128 0x1
 3059 011d 9342     		.uleb128 0x2113
 3060 011f 18       		.uleb128 0x18
 3061 0120 00       		.byte	0
 3062 0121 00       		.byte	0
 3063 0122 19       		.uleb128 0x19
 3064 0123 898201   		.uleb128 0x4109
 3065 0126 00       		.byte	0
 3066 0127 11       		.uleb128 0x11
 3067 0128 01       		.uleb128 0x1
 3068 0129 9542     		.uleb128 0x2115
 3069 012b 19       		.uleb128 0x19
 3070 012c 31       		.uleb128 0x31
 3071 012d 13       		.uleb128 0x13
 3072 012e 00       		.byte	0
 3073 012f 00       		.byte	0
 3074 0130 1A       		.uleb128 0x1a
 3075 0131 2E       		.uleb128 0x2e
 3076 0132 01       		.byte	0x1
 3077 0133 3F       		.uleb128 0x3f
ARM GAS  /tmp/ccTeMzA3.s 			page 56


 3078 0134 19       		.uleb128 0x19
 3079 0135 03       		.uleb128 0x3
 3080 0136 0E       		.uleb128 0xe
 3081 0137 3A       		.uleb128 0x3a
 3082 0138 0B       		.uleb128 0xb
 3083 0139 3B       		.uleb128 0x3b
 3084 013a 05       		.uleb128 0x5
 3085 013b 27       		.uleb128 0x27
 3086 013c 19       		.uleb128 0x19
 3087 013d 11       		.uleb128 0x11
 3088 013e 01       		.uleb128 0x1
 3089 013f 12       		.uleb128 0x12
 3090 0140 06       		.uleb128 0x6
 3091 0141 40       		.uleb128 0x40
 3092 0142 18       		.uleb128 0x18
 3093 0143 9742     		.uleb128 0x2117
 3094 0145 19       		.uleb128 0x19
 3095 0146 01       		.uleb128 0x1
 3096 0147 13       		.uleb128 0x13
 3097 0148 00       		.byte	0
 3098 0149 00       		.byte	0
 3099 014a 1B       		.uleb128 0x1b
 3100 014b 34       		.uleb128 0x34
 3101 014c 00       		.byte	0
 3102 014d 03       		.uleb128 0x3
 3103 014e 0E       		.uleb128 0xe
 3104 014f 3A       		.uleb128 0x3a
 3105 0150 0B       		.uleb128 0xb
 3106 0151 3B       		.uleb128 0x3b
 3107 0152 05       		.uleb128 0x5
 3108 0153 49       		.uleb128 0x49
 3109 0154 13       		.uleb128 0x13
 3110 0155 02       		.uleb128 0x2
 3111 0156 17       		.uleb128 0x17
 3112 0157 00       		.byte	0
 3113 0158 00       		.byte	0
 3114 0159 1C       		.uleb128 0x1c
 3115 015a 34       		.uleb128 0x34
 3116 015b 00       		.byte	0
 3117 015c 03       		.uleb128 0x3
 3118 015d 08       		.uleb128 0x8
 3119 015e 3A       		.uleb128 0x3a
 3120 015f 0B       		.uleb128 0xb
 3121 0160 3B       		.uleb128 0x3b
 3122 0161 05       		.uleb128 0x5
 3123 0162 49       		.uleb128 0x49
 3124 0163 13       		.uleb128 0x13
 3125 0164 02       		.uleb128 0x2
 3126 0165 17       		.uleb128 0x17
 3127 0166 00       		.byte	0
 3128 0167 00       		.byte	0
 3129 0168 1D       		.uleb128 0x1d
 3130 0169 2E       		.uleb128 0x2e
 3131 016a 01       		.byte	0x1
 3132 016b 3F       		.uleb128 0x3f
 3133 016c 19       		.uleb128 0x19
 3134 016d 03       		.uleb128 0x3
ARM GAS  /tmp/ccTeMzA3.s 			page 57


 3135 016e 0E       		.uleb128 0xe
 3136 016f 3A       		.uleb128 0x3a
 3137 0170 0B       		.uleb128 0xb
 3138 0171 3B       		.uleb128 0x3b
 3139 0172 05       		.uleb128 0x5
 3140 0173 27       		.uleb128 0x27
 3141 0174 19       		.uleb128 0x19
 3142 0175 49       		.uleb128 0x49
 3143 0176 13       		.uleb128 0x13
 3144 0177 11       		.uleb128 0x11
 3145 0178 01       		.uleb128 0x1
 3146 0179 12       		.uleb128 0x12
 3147 017a 06       		.uleb128 0x6
 3148 017b 40       		.uleb128 0x40
 3149 017c 18       		.uleb128 0x18
 3150 017d 9742     		.uleb128 0x2117
 3151 017f 19       		.uleb128 0x19
 3152 0180 01       		.uleb128 0x1
 3153 0181 13       		.uleb128 0x13
 3154 0182 00       		.byte	0
 3155 0183 00       		.byte	0
 3156 0184 1E       		.uleb128 0x1e
 3157 0185 05       		.uleb128 0x5
 3158 0186 00       		.byte	0
 3159 0187 03       		.uleb128 0x3
 3160 0188 0E       		.uleb128 0xe
 3161 0189 3A       		.uleb128 0x3a
 3162 018a 0B       		.uleb128 0xb
 3163 018b 3B       		.uleb128 0x3b
 3164 018c 05       		.uleb128 0x5
 3165 018d 49       		.uleb128 0x49
 3166 018e 13       		.uleb128 0x13
 3167 018f 02       		.uleb128 0x2
 3168 0190 17       		.uleb128 0x17
 3169 0191 00       		.byte	0
 3170 0192 00       		.byte	0
 3171 0193 1F       		.uleb128 0x1f
 3172 0194 898201   		.uleb128 0x4109
 3173 0197 01       		.byte	0x1
 3174 0198 11       		.uleb128 0x11
 3175 0199 01       		.uleb128 0x1
 3176 019a 31       		.uleb128 0x31
 3177 019b 13       		.uleb128 0x13
 3178 019c 00       		.byte	0
 3179 019d 00       		.byte	0
 3180 019e 20       		.uleb128 0x20
 3181 019f 8A8201   		.uleb128 0x410a
 3182 01a2 00       		.byte	0
 3183 01a3 02       		.uleb128 0x2
 3184 01a4 18       		.uleb128 0x18
 3185 01a5 9142     		.uleb128 0x2111
 3186 01a7 18       		.uleb128 0x18
 3187 01a8 00       		.byte	0
 3188 01a9 00       		.byte	0
 3189 01aa 21       		.uleb128 0x21
 3190 01ab 898201   		.uleb128 0x4109
 3191 01ae 01       		.byte	0x1
ARM GAS  /tmp/ccTeMzA3.s 			page 58


 3192 01af 11       		.uleb128 0x11
 3193 01b0 01       		.uleb128 0x1
 3194 01b1 31       		.uleb128 0x31
 3195 01b2 13       		.uleb128 0x13
 3196 01b3 01       		.uleb128 0x1
 3197 01b4 13       		.uleb128 0x13
 3198 01b5 00       		.byte	0
 3199 01b6 00       		.byte	0
 3200 01b7 22       		.uleb128 0x22
 3201 01b8 34       		.uleb128 0x34
 3202 01b9 00       		.byte	0
 3203 01ba 03       		.uleb128 0x3
 3204 01bb 0E       		.uleb128 0xe
 3205 01bc 3A       		.uleb128 0x3a
 3206 01bd 0B       		.uleb128 0xb
 3207 01be 3B       		.uleb128 0x3b
 3208 01bf 0B       		.uleb128 0xb
 3209 01c0 49       		.uleb128 0x49
 3210 01c1 13       		.uleb128 0x13
 3211 01c2 02       		.uleb128 0x2
 3212 01c3 18       		.uleb128 0x18
 3213 01c4 00       		.byte	0
 3214 01c5 00       		.byte	0
 3215 01c6 23       		.uleb128 0x23
 3216 01c7 34       		.uleb128 0x34
 3217 01c8 00       		.byte	0
 3218 01c9 03       		.uleb128 0x3
 3219 01ca 0E       		.uleb128 0xe
 3220 01cb 3A       		.uleb128 0x3a
 3221 01cc 0B       		.uleb128 0xb
 3222 01cd 3B       		.uleb128 0x3b
 3223 01ce 05       		.uleb128 0x5
 3224 01cf 49       		.uleb128 0x49
 3225 01d0 13       		.uleb128 0x13
 3226 01d1 3F       		.uleb128 0x3f
 3227 01d2 19       		.uleb128 0x19
 3228 01d3 3C       		.uleb128 0x3c
 3229 01d4 19       		.uleb128 0x19
 3230 01d5 00       		.byte	0
 3231 01d6 00       		.byte	0
 3232 01d7 24       		.uleb128 0x24
 3233 01d8 34       		.uleb128 0x34
 3234 01d9 00       		.byte	0
 3235 01da 03       		.uleb128 0x3
 3236 01db 0E       		.uleb128 0xe
 3237 01dc 3A       		.uleb128 0x3a
 3238 01dd 0B       		.uleb128 0xb
 3239 01de 3B       		.uleb128 0x3b
 3240 01df 0B       		.uleb128 0xb
 3241 01e0 49       		.uleb128 0x49
 3242 01e1 13       		.uleb128 0x13
 3243 01e2 3F       		.uleb128 0x3f
 3244 01e3 19       		.uleb128 0x19
 3245 01e4 02       		.uleb128 0x2
 3246 01e5 18       		.uleb128 0x18
 3247 01e6 00       		.byte	0
 3248 01e7 00       		.byte	0
ARM GAS  /tmp/ccTeMzA3.s 			page 59


 3249 01e8 25       		.uleb128 0x25
 3250 01e9 2E       		.uleb128 0x2e
 3251 01ea 00       		.byte	0
 3252 01eb 3F       		.uleb128 0x3f
 3253 01ec 19       		.uleb128 0x19
 3254 01ed 03       		.uleb128 0x3
 3255 01ee 0E       		.uleb128 0xe
 3256 01ef 3A       		.uleb128 0x3a
 3257 01f0 0B       		.uleb128 0xb
 3258 01f1 3B       		.uleb128 0x3b
 3259 01f2 0B       		.uleb128 0xb
 3260 01f3 27       		.uleb128 0x27
 3261 01f4 19       		.uleb128 0x19
 3262 01f5 3C       		.uleb128 0x3c
 3263 01f6 19       		.uleb128 0x19
 3264 01f7 00       		.byte	0
 3265 01f8 00       		.byte	0
 3266 01f9 26       		.uleb128 0x26
 3267 01fa 2E       		.uleb128 0x2e
 3268 01fb 00       		.byte	0
 3269 01fc 3F       		.uleb128 0x3f
 3270 01fd 19       		.uleb128 0x19
 3271 01fe 03       		.uleb128 0x3
 3272 01ff 0E       		.uleb128 0xe
 3273 0200 3A       		.uleb128 0x3a
 3274 0201 0B       		.uleb128 0xb
 3275 0202 3B       		.uleb128 0x3b
 3276 0203 05       		.uleb128 0x5
 3277 0204 27       		.uleb128 0x27
 3278 0205 19       		.uleb128 0x19
 3279 0206 3C       		.uleb128 0x3c
 3280 0207 19       		.uleb128 0x19
 3281 0208 00       		.byte	0
 3282 0209 00       		.byte	0
 3283 020a 27       		.uleb128 0x27
 3284 020b 2E       		.uleb128 0x2e
 3285 020c 01       		.byte	0x1
 3286 020d 3F       		.uleb128 0x3f
 3287 020e 19       		.uleb128 0x19
 3288 020f 03       		.uleb128 0x3
 3289 0210 0E       		.uleb128 0xe
 3290 0211 3A       		.uleb128 0x3a
 3291 0212 0B       		.uleb128 0xb
 3292 0213 3B       		.uleb128 0x3b
 3293 0214 05       		.uleb128 0x5
 3294 0215 27       		.uleb128 0x27
 3295 0216 19       		.uleb128 0x19
 3296 0217 3C       		.uleb128 0x3c
 3297 0218 19       		.uleb128 0x19
 3298 0219 01       		.uleb128 0x1
 3299 021a 13       		.uleb128 0x13
 3300 021b 00       		.byte	0
 3301 021c 00       		.byte	0
 3302 021d 28       		.uleb128 0x28
 3303 021e 2E       		.uleb128 0x2e
 3304 021f 01       		.byte	0x1
 3305 0220 3F       		.uleb128 0x3f
ARM GAS  /tmp/ccTeMzA3.s 			page 60


 3306 0221 19       		.uleb128 0x19
 3307 0222 03       		.uleb128 0x3
 3308 0223 0E       		.uleb128 0xe
 3309 0224 3A       		.uleb128 0x3a
 3310 0225 0B       		.uleb128 0xb
 3311 0226 3B       		.uleb128 0x3b
 3312 0227 0B       		.uleb128 0xb
 3313 0228 27       		.uleb128 0x27
 3314 0229 19       		.uleb128 0x19
 3315 022a 3C       		.uleb128 0x3c
 3316 022b 19       		.uleb128 0x19
 3317 022c 01       		.uleb128 0x1
 3318 022d 13       		.uleb128 0x13
 3319 022e 00       		.byte	0
 3320 022f 00       		.byte	0
 3321 0230 29       		.uleb128 0x29
 3322 0231 2E       		.uleb128 0x2e
 3323 0232 01       		.byte	0x1
 3324 0233 3F       		.uleb128 0x3f
 3325 0234 19       		.uleb128 0x19
 3326 0235 03       		.uleb128 0x3
 3327 0236 0E       		.uleb128 0xe
 3328 0237 3A       		.uleb128 0x3a
 3329 0238 0B       		.uleb128 0xb
 3330 0239 3B       		.uleb128 0x3b
 3331 023a 05       		.uleb128 0x5
 3332 023b 27       		.uleb128 0x27
 3333 023c 19       		.uleb128 0x19
 3334 023d 3C       		.uleb128 0x3c
 3335 023e 19       		.uleb128 0x19
 3336 023f 00       		.byte	0
 3337 0240 00       		.byte	0
 3338 0241 00       		.byte	0
 3339              		.section	.debug_loc,"",%progbits
 3340              	.Ldebug_loc0:
 3341              	.LLST0:
 3342 0000 1E000000 		.4byte	.LVL1
 3343 0004 25000000 		.4byte	.LVL2-1
 3344 0008 0100     		.2byte	0x1
 3345 000a 51       		.byte	0x51
 3346 000b 00000000 		.4byte	0
 3347 000f 00000000 		.4byte	0
 3348              	.LLST1:
 3349 0013 1E000000 		.4byte	.LVL6
 3350 0017 29000000 		.4byte	.LVL7-1
 3351 001b 0100     		.2byte	0x1
 3352 001d 51       		.byte	0x51
 3353 001e 00000000 		.4byte	0
 3354 0022 00000000 		.4byte	0
 3355              	.LLST2:
 3356 0026 1E000000 		.4byte	.LVL11
 3357 002a 29000000 		.4byte	.LVL12-1
 3358 002e 0100     		.2byte	0x1
 3359 0030 51       		.byte	0x51
 3360 0031 00000000 		.4byte	0
 3361 0035 00000000 		.4byte	0
 3362              	.LLST3:
ARM GAS  /tmp/ccTeMzA3.s 			page 61


 3363 0039 1E000000 		.4byte	.LVL16
 3364 003d 29000000 		.4byte	.LVL17-1
 3365 0041 0100     		.2byte	0x1
 3366 0043 51       		.byte	0x51
 3367 0044 00000000 		.4byte	0
 3368 0048 00000000 		.4byte	0
 3369              	.LLST4:
 3370 004c 1E000000 		.4byte	.LVL21
 3371 0050 25000000 		.4byte	.LVL22-1
 3372 0054 0100     		.2byte	0x1
 3373 0056 51       		.byte	0x51
 3374 0057 00000000 		.4byte	0
 3375 005b 00000000 		.4byte	0
 3376              	.LLST5:
 3377 005f 1E000000 		.4byte	.LVL26
 3378 0063 29000000 		.4byte	.LVL27-1
 3379 0067 0100     		.2byte	0x1
 3380 0069 51       		.byte	0x51
 3381 006a 00000000 		.4byte	0
 3382 006e 00000000 		.4byte	0
 3383              	.LLST6:
 3384 0072 1E000000 		.4byte	.LVL31
 3385 0076 29000000 		.4byte	.LVL32-1
 3386 007a 0100     		.2byte	0x1
 3387 007c 51       		.byte	0x51
 3388 007d 00000000 		.4byte	0
 3389 0081 00000000 		.4byte	0
 3390              	.LLST7:
 3391 0085 1E000000 		.4byte	.LVL36
 3392 0089 29000000 		.4byte	.LVL37-1
 3393 008d 0100     		.2byte	0x1
 3394 008f 51       		.byte	0x51
 3395 0090 00000000 		.4byte	0
 3396 0094 00000000 		.4byte	0
 3397              	.LLST8:
 3398 0098 1E000000 		.4byte	.LVL41
 3399 009c 25000000 		.4byte	.LVL42-1
 3400 00a0 0100     		.2byte	0x1
 3401 00a2 51       		.byte	0x51
 3402 00a3 00000000 		.4byte	0
 3403 00a7 00000000 		.4byte	0
 3404              	.LLST9:
 3405 00ab 1E000000 		.4byte	.LVL46
 3406 00af 29000000 		.4byte	.LVL47-1
 3407 00b3 0100     		.2byte	0x1
 3408 00b5 51       		.byte	0x51
 3409 00b6 00000000 		.4byte	0
 3410 00ba 00000000 		.4byte	0
 3411              	.LLST10:
 3412 00be 1E000000 		.4byte	.LVL51
 3413 00c2 29000000 		.4byte	.LVL52-1
 3414 00c6 0100     		.2byte	0x1
 3415 00c8 51       		.byte	0x51
 3416 00c9 00000000 		.4byte	0
 3417 00cd 00000000 		.4byte	0
 3418              	.LLST11:
 3419 00d1 1E000000 		.4byte	.LVL56
ARM GAS  /tmp/ccTeMzA3.s 			page 62


 3420 00d5 29000000 		.4byte	.LVL57-1
 3421 00d9 0100     		.2byte	0x1
 3422 00db 51       		.byte	0x51
 3423 00dc 00000000 		.4byte	0
 3424 00e0 00000000 		.4byte	0
 3425              	.LLST12:
 3426 00e4 1E000000 		.4byte	.LVL61
 3427 00e8 25000000 		.4byte	.LVL62-1
 3428 00ec 0100     		.2byte	0x1
 3429 00ee 51       		.byte	0x51
 3430 00ef 00000000 		.4byte	0
 3431 00f3 00000000 		.4byte	0
 3432              	.LLST13:
 3433 00f7 1E000000 		.4byte	.LVL66
 3434 00fb 29000000 		.4byte	.LVL67-1
 3435 00ff 0100     		.2byte	0x1
 3436 0101 51       		.byte	0x51
 3437 0102 00000000 		.4byte	0
 3438 0106 00000000 		.4byte	0
 3439              	.LLST14:
 3440 010a 1E000000 		.4byte	.LVL71
 3441 010e 29000000 		.4byte	.LVL72-1
 3442 0112 0100     		.2byte	0x1
 3443 0114 51       		.byte	0x51
 3444 0115 00000000 		.4byte	0
 3445 0119 00000000 		.4byte	0
 3446              	.LLST15:
 3447 011d 1E000000 		.4byte	.LVL76
 3448 0121 29000000 		.4byte	.LVL77-1
 3449 0125 0100     		.2byte	0x1
 3450 0127 51       		.byte	0x51
 3451 0128 00000000 		.4byte	0
 3452 012c 00000000 		.4byte	0
 3453              	.LLST16:
 3454 0130 16000000 		.4byte	.LVL80
 3455 0134 22000000 		.4byte	.LVL81
 3456 0138 0200     		.2byte	0x2
 3457 013a 30       		.byte	0x30
 3458 013b 9F       		.byte	0x9f
 3459 013c 00000000 		.4byte	0
 3460 0140 00000000 		.4byte	0
 3461              	.LLST17:
 3462 0144 00000000 		.4byte	.LVL82
 3463 0148 0C000000 		.4byte	.LVL83
 3464 014c 0100     		.2byte	0x1
 3465 014e 50       		.byte	0x50
 3466 014f 0C000000 		.4byte	.LVL83
 3467 0153 A6000000 		.4byte	.LVL85
 3468 0157 0100     		.2byte	0x1
 3469 0159 56       		.byte	0x56
 3470 015a A6000000 		.4byte	.LVL85
 3471 015e AA000000 		.4byte	.LVL86
 3472 0162 0100     		.2byte	0x1
 3473 0164 50       		.byte	0x50
 3474 0165 AA000000 		.4byte	.LVL86
 3475 0169 C0000000 		.4byte	.LFE135
 3476 016d 0100     		.2byte	0x1
ARM GAS  /tmp/ccTeMzA3.s 			page 63


 3477 016f 56       		.byte	0x56
 3478 0170 00000000 		.4byte	0
 3479 0174 00000000 		.4byte	0
 3480              	.LLST18:
 3481 0178 00000000 		.4byte	.LVL82
 3482 017c 0C000000 		.4byte	.LVL83
 3483 0180 0100     		.2byte	0x1
 3484 0182 51       		.byte	0x51
 3485 0183 0C000000 		.4byte	.LVL83
 3486 0187 A6000000 		.4byte	.LVL85
 3487 018b 0400     		.2byte	0x4
 3488 018d F3       		.byte	0xf3
 3489 018e 01       		.uleb128 0x1
 3490 018f 51       		.byte	0x51
 3491 0190 9F       		.byte	0x9f
 3492 0191 A6000000 		.4byte	.LVL85
 3493 0195 B7000000 		.4byte	.LVL87-1
 3494 0199 0100     		.2byte	0x1
 3495 019b 51       		.byte	0x51
 3496 019c B7000000 		.4byte	.LVL87-1
 3497 01a0 C0000000 		.4byte	.LFE135
 3498 01a4 0400     		.2byte	0x4
 3499 01a6 F3       		.byte	0xf3
 3500 01a7 01       		.uleb128 0x1
 3501 01a8 51       		.byte	0x51
 3502 01a9 9F       		.byte	0x9f
 3503 01aa 00000000 		.4byte	0
 3504 01ae 00000000 		.4byte	0
 3505              	.LLST19:
 3506 01b2 00000000 		.4byte	.LVL82
 3507 01b6 0C000000 		.4byte	.LVL83
 3508 01ba 0100     		.2byte	0x1
 3509 01bc 52       		.byte	0x52
 3510 01bd 0C000000 		.4byte	.LVL83
 3511 01c1 A6000000 		.4byte	.LVL85
 3512 01c5 0400     		.2byte	0x4
 3513 01c7 F3       		.byte	0xf3
 3514 01c8 01       		.uleb128 0x1
 3515 01c9 52       		.byte	0x52
 3516 01ca 9F       		.byte	0x9f
 3517 01cb A6000000 		.4byte	.LVL85
 3518 01cf B7000000 		.4byte	.LVL87-1
 3519 01d3 0100     		.2byte	0x1
 3520 01d5 52       		.byte	0x52
 3521 01d6 B7000000 		.4byte	.LVL87-1
 3522 01da C0000000 		.4byte	.LFE135
 3523 01de 0400     		.2byte	0x4
 3524 01e0 F3       		.byte	0xf3
 3525 01e1 01       		.uleb128 0x1
 3526 01e2 52       		.byte	0x52
 3527 01e3 9F       		.byte	0x9f
 3528 01e4 00000000 		.4byte	0
 3529 01e8 00000000 		.4byte	0
 3530              	.LLST20:
 3531 01ec 00000000 		.4byte	.LVL82
 3532 01f0 0C000000 		.4byte	.LVL83
 3533 01f4 0100     		.2byte	0x1
ARM GAS  /tmp/ccTeMzA3.s 			page 64


 3534 01f6 53       		.byte	0x53
 3535 01f7 0C000000 		.4byte	.LVL83
 3536 01fb A6000000 		.4byte	.LVL85
 3537 01ff 0400     		.2byte	0x4
 3538 0201 F3       		.byte	0xf3
 3539 0202 01       		.uleb128 0x1
 3540 0203 53       		.byte	0x53
 3541 0204 9F       		.byte	0x9f
 3542 0205 A6000000 		.4byte	.LVL85
 3543 0209 B7000000 		.4byte	.LVL87-1
 3544 020d 0100     		.2byte	0x1
 3545 020f 53       		.byte	0x53
 3546 0210 B7000000 		.4byte	.LVL87-1
 3547 0214 C0000000 		.4byte	.LFE135
 3548 0218 0400     		.2byte	0x4
 3549 021a F3       		.byte	0xf3
 3550 021b 01       		.uleb128 0x1
 3551 021c 53       		.byte	0x53
 3552 021d 9F       		.byte	0x9f
 3553 021e 00000000 		.4byte	0
 3554 0222 00000000 		.4byte	0
 3555              	.LLST21:
 3556 0226 00000000 		.4byte	.LVL88
 3557 022a 08000000 		.4byte	.LVL89
 3558 022e 0100     		.2byte	0x1
 3559 0230 50       		.byte	0x50
 3560 0231 08000000 		.4byte	.LVL89
 3561 0235 74000000 		.4byte	.LVL93
 3562 0239 0100     		.2byte	0x1
 3563 023b 55       		.byte	0x55
 3564 023c 74000000 		.4byte	.LVL93
 3565 0240 78000000 		.4byte	.LVL94
 3566 0244 0100     		.2byte	0x1
 3567 0246 50       		.byte	0x50
 3568 0247 78000000 		.4byte	.LVL94
 3569 024b 82000000 		.4byte	.LFE136
 3570 024f 0100     		.2byte	0x1
 3571 0251 55       		.byte	0x55
 3572 0252 00000000 		.4byte	0
 3573 0256 00000000 		.4byte	0
 3574              		.section	.debug_aranges,"",%progbits
 3575 0000 AC000000 		.4byte	0xac
 3576 0004 0200     		.2byte	0x2
 3577 0006 00000000 		.4byte	.Ldebug_info0
 3578 000a 04       		.byte	0x4
 3579 000b 00       		.byte	0
 3580 000c 0000     		.2byte	0
 3581 000e 0000     		.2byte	0
 3582 0010 00000000 		.4byte	.LFB118
 3583 0014 32000000 		.4byte	.LFE118-.LFB118
 3584 0018 00000000 		.4byte	.LFB119
 3585 001c 36000000 		.4byte	.LFE119-.LFB119
 3586 0020 00000000 		.4byte	.LFB120
 3587 0024 36000000 		.4byte	.LFE120-.LFB120
 3588 0028 00000000 		.4byte	.LFB121
 3589 002c 36000000 		.4byte	.LFE121-.LFB121
 3590 0030 00000000 		.4byte	.LFB122
ARM GAS  /tmp/ccTeMzA3.s 			page 65


 3591 0034 32000000 		.4byte	.LFE122-.LFB122
 3592 0038 00000000 		.4byte	.LFB123
 3593 003c 36000000 		.4byte	.LFE123-.LFB123
 3594 0040 00000000 		.4byte	.LFB124
 3595 0044 36000000 		.4byte	.LFE124-.LFB124
 3596 0048 00000000 		.4byte	.LFB125
 3597 004c 36000000 		.4byte	.LFE125-.LFB125
 3598 0050 00000000 		.4byte	.LFB126
 3599 0054 32000000 		.4byte	.LFE126-.LFB126
 3600 0058 00000000 		.4byte	.LFB127
 3601 005c 36000000 		.4byte	.LFE127-.LFB127
 3602 0060 00000000 		.4byte	.LFB128
 3603 0064 36000000 		.4byte	.LFE128-.LFB128
 3604 0068 00000000 		.4byte	.LFB129
 3605 006c 36000000 		.4byte	.LFE129-.LFB129
 3606 0070 00000000 		.4byte	.LFB130
 3607 0074 32000000 		.4byte	.LFE130-.LFB130
 3608 0078 00000000 		.4byte	.LFB131
 3609 007c 36000000 		.4byte	.LFE131-.LFB131
 3610 0080 00000000 		.4byte	.LFB132
 3611 0084 36000000 		.4byte	.LFE132-.LFB132
 3612 0088 00000000 		.4byte	.LFB133
 3613 008c 36000000 		.4byte	.LFE133-.LFB133
 3614 0090 00000000 		.4byte	.LFB134
 3615 0094 52000000 		.4byte	.LFE134-.LFB134
 3616 0098 00000000 		.4byte	.LFB135
 3617 009c C0000000 		.4byte	.LFE135-.LFB135
 3618 00a0 00000000 		.4byte	.LFB136
 3619 00a4 82000000 		.4byte	.LFE136-.LFB136
 3620 00a8 00000000 		.4byte	0
 3621 00ac 00000000 		.4byte	0
 3622              		.section	.debug_ranges,"",%progbits
 3623              	.Ldebug_ranges0:
 3624 0000 00000000 		.4byte	.LFB118
 3625 0004 32000000 		.4byte	.LFE118
 3626 0008 00000000 		.4byte	.LFB119
 3627 000c 36000000 		.4byte	.LFE119
 3628 0010 00000000 		.4byte	.LFB120
 3629 0014 36000000 		.4byte	.LFE120
 3630 0018 00000000 		.4byte	.LFB121
 3631 001c 36000000 		.4byte	.LFE121
 3632 0020 00000000 		.4byte	.LFB122
 3633 0024 32000000 		.4byte	.LFE122
 3634 0028 00000000 		.4byte	.LFB123
 3635 002c 36000000 		.4byte	.LFE123
 3636 0030 00000000 		.4byte	.LFB124
 3637 0034 36000000 		.4byte	.LFE124
 3638 0038 00000000 		.4byte	.LFB125
 3639 003c 36000000 		.4byte	.LFE125
 3640 0040 00000000 		.4byte	.LFB126
 3641 0044 32000000 		.4byte	.LFE126
 3642 0048 00000000 		.4byte	.LFB127
 3643 004c 36000000 		.4byte	.LFE127
 3644 0050 00000000 		.4byte	.LFB128
 3645 0054 36000000 		.4byte	.LFE128
 3646 0058 00000000 		.4byte	.LFB129
 3647 005c 36000000 		.4byte	.LFE129
ARM GAS  /tmp/ccTeMzA3.s 			page 66


 3648 0060 00000000 		.4byte	.LFB130
 3649 0064 32000000 		.4byte	.LFE130
 3650 0068 00000000 		.4byte	.LFB131
 3651 006c 36000000 		.4byte	.LFE131
 3652 0070 00000000 		.4byte	.LFB132
 3653 0074 36000000 		.4byte	.LFE132
 3654 0078 00000000 		.4byte	.LFB133
 3655 007c 36000000 		.4byte	.LFE133
 3656 0080 00000000 		.4byte	.LFB134
 3657 0084 52000000 		.4byte	.LFE134
 3658 0088 00000000 		.4byte	.LFB135
 3659 008c C0000000 		.4byte	.LFE135
 3660 0090 00000000 		.4byte	.LFB136
 3661 0094 82000000 		.4byte	.LFE136
 3662 0098 00000000 		.4byte	0
 3663 009c 00000000 		.4byte	0
 3664              		.section	.debug_line,"",%progbits
 3665              	.Ldebug_line0:
 3666 0000 02040000 		.section	.debug_str,"MS",%progbits,1
 3666      02007C01 
 3666      00000201 
 3666      FB0E0D00 
 3666      01010101 
 3667              	.LASF157:
 3668 0000 646D615F 		.ascii	"dma_isr_redir_t\000"
 3668      6973725F 
 3668      72656469 
 3668      725F7400 
 3669              	.LASF138:
 3670 0010 41504231 		.ascii	"APB1LPENR\000"
 3670      4C50454E 
 3670      5200
 3671              	.LASF47:
 3672 001a 43414E31 		.ascii	"CAN1_RX0_IRQn\000"
 3672      5F525830 
 3672      5F495251 
 3672      6E00
 3673              	.LASF28:
 3674 0028 5056445F 		.ascii	"PVD_IRQn\000"
 3674      4952516E 
 3674      00
 3675              	.LASF91:
 3676 0031 43414E32 		.ascii	"CAN2_RX0_IRQn\000"
 3676      5F525830 
 3676      5F495251 
 3676      6E00
 3677              	.LASF110:
 3678 003f 4D304152 		.ascii	"M0AR\000"
 3678      00
 3679              	.LASF189:
 3680 0044 63684462 		.ascii	"chDbgPanic\000"
 3680      6750616E 
 3680      696300
 3681              	.LASF96:
 3682 004f 444D4132 		.ascii	"DMA2_Stream6_IRQn\000"
 3682      5F537472 
 3682      65616D36 
ARM GAS  /tmp/ccTeMzA3.s 			page 67


 3682      5F495251 
 3682      6E00
 3683              	.LASF50:
 3684 0061 45585449 		.ascii	"EXTI9_5_IRQn\000"
 3684      395F355F 
 3684      4952516E 
 3684      00
 3685              	.LASF100:
 3686 006e 49324333 		.ascii	"I2C3_ER_IRQn\000"
 3686      5F45525F 
 3686      4952516E 
 3686      00
 3687              	.LASF113:
 3688 007b 4C495352 		.ascii	"LISR\000"
 3688      00
 3689              	.LASF192:
 3690 0080 2F686F6D 		.ascii	"/home/mo/ARMProjects/ChibiOS_Sample/ChibiOS_2.6.5/t"
 3690      652F6D6F 
 3690      2F41524D 
 3690      50726F6A 
 3690      65637473 
 3691 00b3 65737468 		.ascii	"esthal/STM32F4xx/ADC\000"
 3691      616C2F53 
 3691      544D3332 
 3691      46347878 
 3691      2F414443 
 3692              	.LASF58:
 3693 00c8 49324331 		.ascii	"I2C1_EV_IRQn\000"
 3693      5F45565F 
 3693      4952516E 
 3693      00
 3694              	.LASF5:
 3695 00d5 5F5F7569 		.ascii	"__uint8_t\000"
 3695      6E74385F 
 3695      7400
 3696              	.LASF95:
 3697 00df 444D4132 		.ascii	"DMA2_Stream5_IRQn\000"
 3697      5F537472 
 3697      65616D35 
 3697      5F495251 
 3697      6E00
 3698              	.LASF171:
 3699 00f1 56656374 		.ascii	"Vector130\000"
 3699      6F723133 
 3699      3000
 3700              	.LASF148:
 3701 00fb 73747265 		.ascii	"stream\000"
 3701      616D00
 3702              	.LASF190:
 3703 0102 474E5520 		.ascii	"GNU C 4.8.2 -mcpu=cortex-m4 -mno-thumb-interwork -m"
 3703      4320342E 
 3703      382E3220 
 3703      2D6D6370 
 3703      753D636F 
 3704 0135 7468756D 		.ascii	"thumb -ggdb -O2 -fomit-frame-pointer -falign-functi"
 3704      62202D67 
 3704      67646220 
ARM GAS  /tmp/ccTeMzA3.s 			page 68


 3704      2D4F3220 
 3704      2D666F6D 
 3705 0168 6F6E733D 		.ascii	"ons=16 -ffunction-sections -fdata-sections -fno-com"
 3705      3136202D 
 3705      6666756E 
 3705      6374696F 
 3705      6E2D7365 
 3706 019b 6D6F6E00 		.ascii	"mon\000"
 3707              	.LASF48:
 3708 019f 43414E31 		.ascii	"CAN1_RX1_IRQn\000"
 3708      5F525831 
 3708      5F495251 
 3708      6E00
 3709              	.LASF11:
 3710 01ad 6C6F6E67 		.ascii	"long long unsigned int\000"
 3710      206C6F6E 
 3710      6720756E 
 3710      7369676E 
 3710      65642069 
 3711              	.LASF68:
 3712 01c4 5254435F 		.ascii	"RTC_Alarm_IRQn\000"
 3712      416C6172 
 3712      6D5F4952 
 3712      516E00
 3713              	.LASF152:
 3714 01d3 76656374 		.ascii	"vector\000"
 3714      6F7200
 3715              	.LASF184:
 3716 01da 5F73746D 		.ascii	"_stm32_dma_streams\000"
 3716      33325F64 
 3716      6D615F73 
 3716      74726561 
 3716      6D7300
 3717              	.LASF61:
 3718 01ed 49324332 		.ascii	"I2C2_ER_IRQn\000"
 3718      5F45525F 
 3718      4952516E 
 3718      00
 3719              	.LASF57:
 3720 01fa 54494D34 		.ascii	"TIM4_IRQn\000"
 3720      5F495251 
 3720      6E00
 3721              	.LASF30:
 3722 0204 5254435F 		.ascii	"RTC_WKUP_IRQn\000"
 3722      574B5550 
 3722      5F495251 
 3722      6E00
 3723              	.LASF27:
 3724 0212 57574447 		.ascii	"WWDG_IRQn\000"
 3724      5F495251 
 3724      6E00
 3725              	.LASF76:
 3726 021c 5344494F 		.ascii	"SDIO_IRQn\000"
 3726      5F495251 
 3726      6E00
 3727              	.LASF134:
 3728 0226 41484231 		.ascii	"AHB1LPENR\000"
ARM GAS  /tmp/ccTeMzA3.s 			page 69


 3728      4C50454E 
 3728      5200
 3729              	.LASF188:
 3730 0230 6E766963 		.ascii	"nvicEnableVector\000"
 3730      456E6162 
 3730      6C655665 
 3730      63746F72 
 3730      00
 3731              	.LASF73:
 3732 0241 54494D38 		.ascii	"TIM8_CC_IRQn\000"
 3732      5F43435F 
 3732      4952516E 
 3732      00
 3733              	.LASF146:
 3734 024e 44434B43 		.ascii	"DCKCFGR\000"
 3734      46475200 
 3735              	.LASF10:
 3736 0256 6C6F6E67 		.ascii	"long long int\000"
 3736      206C6F6E 
 3736      6720696E 
 3736      7400
 3737              	.LASF1:
 3738 0264 7369676E 		.ascii	"signed char\000"
 3738      65642063 
 3738      68617200 
 3739              	.LASF92:
 3740 0270 43414E32 		.ascii	"CAN2_RX1_IRQn\000"
 3740      5F525831 
 3740      5F495251 
 3740      6E00
 3741              	.LASF106:
 3742 027e 43525950 		.ascii	"CRYP_IRQn\000"
 3742      5F495251 
 3742      6E00
 3743              	.LASF120:
 3744 0288 41484231 		.ascii	"AHB1RSTR\000"
 3744      52535452 
 3744      00
 3745              	.LASF174:
 3746 0291 56656374 		.ascii	"Vector158\000"
 3746      6F723135 
 3746      3800
 3747              	.LASF15:
 3748 029b 626F6F6C 		.ascii	"bool_t\000"
 3748      5F7400
 3749              	.LASF195:
 3750 02a2 6E766963 		.ascii	"nvicDisableVector\000"
 3750      44697361 
 3750      626C6556 
 3750      6563746F 
 3750      7200
 3751              	.LASF176:
 3752 02b4 646D6173 		.ascii	"dmastp\000"
 3752      747000
 3753              	.LASF7:
 3754 02bb 6C6F6E67 		.ascii	"long int\000"
 3754      20696E74 
ARM GAS  /tmp/ccTeMzA3.s 			page 70


 3754      00
 3755              	.LASF125:
 3756 02c4 41504232 		.ascii	"APB2RSTR\000"
 3756      52535452 
 3756      00
 3757              	.LASF43:
 3758 02cd 444D4131 		.ascii	"DMA1_Stream5_IRQn\000"
 3758      5F537472 
 3758      65616D35 
 3758      5F495251 
 3758      6E00
 3759              	.LASF178:
 3760 02df 66756E63 		.ascii	"func\000"
 3760      00
 3761              	.LASF89:
 3762 02e4 4554485F 		.ascii	"ETH_WKUP_IRQn\000"
 3762      574B5550 
 3762      5F495251 
 3762      6E00
 3763              	.LASF191:
 3764 02f2 2E2E2F2E 		.ascii	"../../../os/hal/platforms/STM32F4xx/stm32_dma.c\000"
 3764      2E2F2E2E 
 3764      2F6F732F 
 3764      68616C2F 
 3764      706C6174 
 3765              	.LASF14:
 3766 0322 75696E74 		.ascii	"uint32_t\000"
 3766      33325F74 
 3766      00
 3767              	.LASF81:
 3768 032b 54494D36 		.ascii	"TIM6_DAC_IRQn\000"
 3768      5F444143 
 3768      5F495251 
 3768      6E00
 3769              	.LASF118:
 3770 0339 504C4C43 		.ascii	"PLLCFGR\000"
 3770      46475200 
 3771              	.LASF79:
 3772 0341 55415254 		.ascii	"UART4_IRQn\000"
 3772      345F4952 
 3772      516E00
 3773              	.LASF69:
 3774 034c 4F54475F 		.ascii	"OTG_FS_WKUP_IRQn\000"
 3774      46535F57 
 3774      4B55505F 
 3774      4952516E 
 3774      00
 3775              	.LASF25:
 3776 035d 50656E64 		.ascii	"PendSV_IRQn\000"
 3776      53565F49 
 3776      52516E00 
 3777              	.LASF71:
 3778 0369 54494D38 		.ascii	"TIM8_UP_TIM13_IRQn\000"
 3778      5F55505F 
 3778      54494D31 
 3778      335F4952 
 3778      516E00
ARM GAS  /tmp/ccTeMzA3.s 			page 71


 3779              	.LASF8:
 3780 037c 5F5F7569 		.ascii	"__uint32_t\000"
 3780      6E743332 
 3780      5F7400
 3781              	.LASF151:
 3782 0387 73656C66 		.ascii	"selfindex\000"
 3782      696E6465 
 3782      7800
 3783              	.LASF97:
 3784 0391 444D4132 		.ascii	"DMA2_Stream7_IRQn\000"
 3784      5F537472 
 3784      65616D37 
 3784      5F495251 
 3784      6E00
 3785              	.LASF127:
 3786 03a3 41484231 		.ascii	"AHB1ENR\000"
 3786      454E5200 
 3787              	.LASF117:
 3788 03ab 444D415F 		.ascii	"DMA_TypeDef\000"
 3788      54797065 
 3788      44656600 
 3789              	.LASF0:
 3790 03b7 756E7369 		.ascii	"unsigned int\000"
 3790      676E6564 
 3790      20696E74 
 3790      00
 3791              	.LASF172:
 3792 03c4 56656374 		.ascii	"Vector150\000"
 3792      6F723135 
 3792      3000
 3793              	.LASF41:
 3794 03ce 444D4131 		.ascii	"DMA1_Stream3_IRQn\000"
 3794      5F537472 
 3794      65616D33 
 3794      5F495251 
 3794      6E00
 3795              	.LASF44:
 3796 03e0 444D4131 		.ascii	"DMA1_Stream6_IRQn\000"
 3796      5F537472 
 3796      65616D36 
 3796      5F495251 
 3796      6E00
 3797              	.LASF173:
 3798 03f2 56656374 		.ascii	"Vector154\000"
 3798      6F723135 
 3798      3400
 3799              	.LASF20:
 3800 03fc 4D656D6F 		.ascii	"MemoryManagement_IRQn\000"
 3800      72794D61 
 3800      6E616765 
 3800      6D656E74 
 3800      5F495251 
 3801              	.LASF154:
 3802 0412 73746D33 		.ascii	"stm32_dmaisr_t\000"
 3802      325F646D 
 3802      61697372 
 3802      5F7400
ARM GAS  /tmp/ccTeMzA3.s 			page 72


 3803              	.LASF99:
 3804 0421 49324333 		.ascii	"I2C3_EV_IRQn\000"
 3804      5F45565F 
 3804      4952516E 
 3804      00
 3805              	.LASF9:
 3806 042e 6C6F6E67 		.ascii	"long unsigned int\000"
 3806      20756E73 
 3806      69676E65 
 3806      6420696E 
 3806      7400
 3807              	.LASF147:
 3808 0440 5243435F 		.ascii	"RCC_TypeDef\000"
 3808      54797065 
 3808      44656600 
 3809              	.LASF187:
 3810 044c 5F706F72 		.ascii	"_port_irq_epilogue\000"
 3810      745F6972 
 3810      715F6570 
 3810      696C6F67 
 3810      756500
 3811              	.LASF150:
 3812 045f 69736869 		.ascii	"ishift\000"
 3812      667400
 3813              	.LASF166:
 3814 0466 56656374 		.ascii	"VectorFC\000"
 3814      6F724643 
 3814      00
 3815              	.LASF101:
 3816 046f 4F54475F 		.ascii	"OTG_HS_EP1_OUT_IRQn\000"
 3816      48535F45 
 3816      50315F4F 
 3816      55545F49 
 3816      52516E00 
 3817              	.LASF23:
 3818 0483 53564361 		.ascii	"SVCall_IRQn\000"
 3818      6C6C5F49 
 3818      52516E00 
 3819              	.LASF4:
 3820 048f 73686F72 		.ascii	"short unsigned int\000"
 3820      7420756E 
 3820      7369676E 
 3820      65642069 
 3820      6E7400
 3821              	.LASF85:
 3822 04a2 444D4132 		.ascii	"DMA2_Stream2_IRQn\000"
 3822      5F537472 
 3822      65616D32 
 3822      5F495251 
 3822      6E00
 3823              	.LASF144:
 3824 04b4 504C4C49 		.ascii	"PLLI2SCFGR\000"
 3824      32534346 
 3824      475200
 3825              	.LASF46:
 3826 04bf 43414E31 		.ascii	"CAN1_TX_IRQn\000"
 3826      5F54585F 
ARM GAS  /tmp/ccTeMzA3.s 			page 73


 3826      4952516E 
 3826      00
 3827              	.LASF122:
 3828 04cc 41484233 		.ascii	"AHB3RSTR\000"
 3828      52535452 
 3828      00
 3829              	.LASF67:
 3830 04d5 45585449 		.ascii	"EXTI15_10_IRQn\000"
 3830      31355F31 
 3830      305F4952 
 3830      516E00
 3831              	.LASF62:
 3832 04e4 53504931 		.ascii	"SPI1_IRQn\000"
 3832      5F495251 
 3832      6E00
 3833              	.LASF39:
 3834 04ee 444D4131 		.ascii	"DMA1_Stream1_IRQn\000"
 3834      5F537472 
 3834      65616D31 
 3834      5F495251 
 3834      6E00
 3835              	.LASF177:
 3836 0500 7072696F 		.ascii	"priority\000"
 3836      72697479 
 3836      00
 3837              	.LASF114:
 3838 0509 48495352 		.ascii	"HISR\000"
 3838      00
 3839              	.LASF139:
 3840 050e 41504232 		.ascii	"APB2LPENR\000"
 3840      4C50454E 
 3840      5200
 3841              	.LASF70:
 3842 0518 54494D38 		.ascii	"TIM8_BRK_TIM12_IRQn\000"
 3842      5F42524B 
 3842      5F54494D 
 3842      31325F49 
 3842      52516E00 
 3843              	.LASF26:
 3844 052c 53797354 		.ascii	"SysTick_IRQn\000"
 3844      69636B5F 
 3844      4952516E 
 3844      00
 3845              	.LASF54:
 3846 0539 54494D31 		.ascii	"TIM1_CC_IRQn\000"
 3846      5F43435F 
 3846      4952516E 
 3846      00
 3847              	.LASF72:
 3848 0546 54494D38 		.ascii	"TIM8_TRG_COM_TIM14_IRQn\000"
 3848      5F545247 
 3848      5F434F4D 
 3848      5F54494D 
 3848      31345F49 
 3849              	.LASF193:
 3850 055e 4952516E 		.ascii	"IRQn\000"
 3850      00
ARM GAS  /tmp/ccTeMzA3.s 			page 74


 3851              	.LASF115:
 3852 0563 4C494643 		.ascii	"LIFCR\000"
 3852      5200
 3853              	.LASF17:
 3854 0569 73697A65 		.ascii	"sizetype\000"
 3854      74797065 
 3854      00
 3855              	.LASF88:
 3856 0572 4554485F 		.ascii	"ETH_IRQn\000"
 3856      4952516E 
 3856      00
 3857              	.LASF52:
 3858 057b 54494D31 		.ascii	"TIM1_UP_TIM10_IRQn\000"
 3858      5F55505F 
 3858      54494D31 
 3858      305F4952 
 3858      516E00
 3859              	.LASF86:
 3860 058e 444D4132 		.ascii	"DMA2_Stream3_IRQn\000"
 3860      5F537472 
 3860      65616D33 
 3860      5F495251 
 3860      6E00
 3861              	.LASF60:
 3862 05a0 49324332 		.ascii	"I2C2_EV_IRQn\000"
 3862      5F45565F 
 3862      4952516E 
 3862      00
 3863              	.LASF42:
 3864 05ad 444D4131 		.ascii	"DMA1_Stream4_IRQn\000"
 3864      5F537472 
 3864      65616D34 
 3864      5F495251 
 3864      6E00
 3865              	.LASF98:
 3866 05bf 55534152 		.ascii	"USART6_IRQn\000"
 3866      54365F49 
 3866      52516E00 
 3867              	.LASF179:
 3868 05cb 70617261 		.ascii	"param\000"
 3868      6D00
 3869              	.LASF77:
 3870 05d1 54494D35 		.ascii	"TIM5_IRQn\000"
 3870      5F495251 
 3870      6E00
 3871              	.LASF36:
 3872 05db 45585449 		.ascii	"EXTI3_IRQn\000"
 3872      335F4952 
 3872      516E00
 3873              	.LASF63:
 3874 05e6 53504932 		.ascii	"SPI2_IRQn\000"
 3874      5F495251 
 3874      6E00
 3875              	.LASF40:
 3876 05f0 444D4131 		.ascii	"DMA1_Stream2_IRQn\000"
 3876      5F537472 
 3876      65616D32 
ARM GAS  /tmp/ccTeMzA3.s 			page 75


 3876      5F495251 
 3876      6E00
 3877              	.LASF90:
 3878 0602 43414E32 		.ascii	"CAN2_TX_IRQn\000"
 3878      5F54585F 
 3878      4952516E 
 3878      00
 3879              	.LASF135:
 3880 060f 41484232 		.ascii	"AHB2LPENR\000"
 3880      4C50454E 
 3880      5200
 3881              	.LASF155:
 3882 0619 646D615F 		.ascii	"dma_func\000"
 3882      66756E63 
 3882      00
 3883              	.LASF124:
 3884 0622 41504231 		.ascii	"APB1RSTR\000"
 3884      52535452 
 3884      00
 3885              	.LASF104:
 3886 062b 4F54475F 		.ascii	"OTG_HS_IRQn\000"
 3886      48535F49 
 3886      52516E00 
 3887              	.LASF145:
 3888 0637 504C4C53 		.ascii	"PLLSAICFGR\000"
 3888      41494346 
 3888      475200
 3889              	.LASF123:
 3890 0642 52455345 		.ascii	"RESERVED0\000"
 3890      52564544 
 3890      3000
 3891              	.LASF126:
 3892 064c 52455345 		.ascii	"RESERVED1\000"
 3892      52564544 
 3892      3100
 3893              	.LASF130:
 3894 0656 52455345 		.ascii	"RESERVED2\000"
 3894      52564544 
 3894      3200
 3895              	.LASF133:
 3896 0660 52455345 		.ascii	"RESERVED3\000"
 3896      52564544 
 3896      3300
 3897              	.LASF137:
 3898 066a 52455345 		.ascii	"RESERVED4\000"
 3898      52564544 
 3898      3400
 3899              	.LASF140:
 3900 0674 52455345 		.ascii	"RESERVED5\000"
 3900      52564544 
 3900      3500
 3901              	.LASF142:
 3902 067e 52455345 		.ascii	"RESERVED6\000"
 3902      52564544 
 3902      3600
 3903              	.LASF153:
 3904 0688 73746D33 		.ascii	"stm32_dma_stream_t\000"
ARM GAS  /tmp/ccTeMzA3.s 			page 76


 3904      325F646D 
 3904      615F7374 
 3904      7265616D 
 3904      5F7400
 3905              	.LASF78:
 3906 069b 53504933 		.ascii	"SPI3_IRQn\000"
 3906      5F495251 
 3906      6E00
 3907              	.LASF158:
 3908 06a5 56656374 		.ascii	"Vector6C\000"
 3908      6F723643 
 3908      00
 3909              	.LASF87:
 3910 06ae 444D4132 		.ascii	"DMA2_Stream4_IRQn\000"
 3910      5F537472 
 3910      65616D34 
 3910      5F495251 
 3910      6E00
 3911              	.LASF75:
 3912 06c0 46534D43 		.ascii	"FSMC_IRQn\000"
 3912      5F495251 
 3912      6E00
 3913              	.LASF16:
 3914 06ca 5F426F6F 		.ascii	"_Bool\000"
 3914      6C00
 3915              	.LASF13:
 3916 06d0 696E7433 		.ascii	"int32_t\000"
 3916      325F7400 
 3917              	.LASF2:
 3918 06d8 756E7369 		.ascii	"unsigned char\000"
 3918      676E6564 
 3918      20636861 
 3918      7200
 3919              	.LASF51:
 3920 06e6 54494D31 		.ascii	"TIM1_BRK_TIM9_IRQn\000"
 3920      5F42524B 
 3920      5F54494D 
 3920      395F4952 
 3920      516E00
 3921              	.LASF183:
 3922 06f9 49544D5F 		.ascii	"ITM_RxBuffer\000"
 3922      52784275 
 3922      66666572 
 3922      00
 3923              	.LASF37:
 3924 0706 45585449 		.ascii	"EXTI4_IRQn\000"
 3924      345F4952 
 3924      516E00
 3925              	.LASF107:
 3926 0711 48415348 		.ascii	"HASH_RNG_IRQn\000"
 3926      5F524E47 
 3926      5F495251 
 3926      6E00
 3927              	.LASF3:
 3928 071f 73686F72 		.ascii	"short int\000"
 3928      7420696E 
 3928      7400
ARM GAS  /tmp/ccTeMzA3.s 			page 77


 3929              	.LASF136:
 3930 0729 41484233 		.ascii	"AHB3LPENR\000"
 3930      4C50454E 
 3930      5200
 3931              	.LASF80:
 3932 0733 55415254 		.ascii	"UART5_IRQn\000"
 3932      355F4952 
 3932      516E00
 3933              	.LASF53:
 3934 073e 54494D31 		.ascii	"TIM1_TRG_COM_TIM11_IRQn\000"
 3934      5F545247 
 3934      5F434F4D 
 3934      5F54494D 
 3934      31315F49 
 3935              	.LASF156:
 3936 0756 646D615F 		.ascii	"dma_param\000"
 3936      70617261 
 3936      6D00
 3937              	.LASF35:
 3938 0760 45585449 		.ascii	"EXTI2_IRQn\000"
 3938      325F4952 
 3938      516E00
 3939              	.LASF132:
 3940 076b 41504232 		.ascii	"APB2ENR\000"
 3940      454E5200 
 3941              	.LASF129:
 3942 0773 41484233 		.ascii	"AHB3ENR\000"
 3942      454E5200 
 3943              	.LASF31:
 3944 077b 464C4153 		.ascii	"FLASH_IRQn\000"
 3944      485F4952 
 3944      516E00
 3945              	.LASF149:
 3946 0786 69666372 		.ascii	"ifcr\000"
 3946      00
 3947              	.LASF159:
 3948 078b 56656374 		.ascii	"Vector70\000"
 3948      6F723730 
 3948      00
 3949              	.LASF94:
 3950 0794 4F54475F 		.ascii	"OTG_FS_IRQn\000"
 3950      46535F49 
 3950      52516E00 
 3951              	.LASF161:
 3952 07a0 56656374 		.ascii	"Vector74\000"
 3952      6F723734 
 3952      00
 3953              	.LASF65:
 3954 07a9 55534152 		.ascii	"USART2_IRQn\000"
 3954      54325F49 
 3954      52516E00 
 3955              	.LASF22:
 3956 07b5 55736167 		.ascii	"UsageFault_IRQn\000"
 3956      65466175 
 3956      6C745F49 
 3956      52516E00 
 3957              	.LASF162:
ARM GAS  /tmp/ccTeMzA3.s 			page 78


 3958 07c5 56656374 		.ascii	"Vector78\000"
 3958      6F723738 
 3958      00
 3959              	.LASF131:
 3960 07ce 41504231 		.ascii	"APB1ENR\000"
 3960      454E5200 
 3961              	.LASF175:
 3962 07d6 646D6149 		.ascii	"dmaInit\000"
 3962      6E697400 
 3963              	.LASF74:
 3964 07de 444D4131 		.ascii	"DMA1_Stream7_IRQn\000"
 3964      5F537472 
 3964      65616D37 
 3964      5F495251 
 3964      6E00
 3965              	.LASF18:
 3966 07f0 63686172 		.ascii	"char\000"
 3966      00
 3967              	.LASF180:
 3968 07f5 646D6153 		.ascii	"dmaStreamRelease\000"
 3968      74726561 
 3968      6D52656C 
 3968      65617365 
 3968      00
 3969              	.LASF163:
 3970 0806 56656374 		.ascii	"Vector7C\000"
 3970      6F723743 
 3970      00
 3971              	.LASF21:
 3972 080f 42757346 		.ascii	"BusFault_IRQn\000"
 3972      61756C74 
 3972      5F495251 
 3972      6E00
 3973              	.LASF121:
 3974 081d 41484232 		.ascii	"AHB2RSTR\000"
 3974      52535452 
 3974      00
 3975              	.LASF82:
 3976 0826 54494D37 		.ascii	"TIM7_IRQn\000"
 3976      5F495251 
 3976      6E00
 3977              	.LASF102:
 3978 0830 4F54475F 		.ascii	"OTG_HS_EP1_IN_IRQn\000"
 3978      48535F45 
 3978      50315F49 
 3978      4E5F4952 
 3978      516E00
 3979              	.LASF19:
 3980 0843 4E6F6E4D 		.ascii	"NonMaskableInt_IRQn\000"
 3980      61736B61 
 3980      626C6549 
 3980      6E745F49 
 3980      52516E00 
 3981              	.LASF6:
 3982 0857 5F5F696E 		.ascii	"__int32_t\000"
 3982      7433325F 
 3982      7400
ARM GAS  /tmp/ccTeMzA3.s 			page 79


 3983              	.LASF109:
 3984 0861 4E445452 		.ascii	"NDTR\000"
 3984      00
 3985              	.LASF112:
 3986 0866 444D415F 		.ascii	"DMA_Stream_TypeDef\000"
 3986      53747265 
 3986      616D5F54 
 3986      79706544 
 3986      656600
 3987              	.LASF128:
 3988 0879 41484232 		.ascii	"AHB2ENR\000"
 3988      454E5200 
 3989              	.LASF29:
 3990 0881 54414D50 		.ascii	"TAMP_STAMP_IRQn\000"
 3990      5F535441 
 3990      4D505F49 
 3990      52516E00 
 3991              	.LASF181:
 3992 0891 646D615F 		.ascii	"dma_streams_mask\000"
 3992      73747265 
 3992      616D735F 
 3992      6D61736B 
 3992      00
 3993              	.LASF186:
 3994 08a2 6462675F 		.ascii	"dbg_check_leave_isr\000"
 3994      63686563 
 3994      6B5F6C65 
 3994      6176655F 
 3994      69737200 
 3995              	.LASF24:
 3996 08b6 44656275 		.ascii	"DebugMonitor_IRQn\000"
 3996      674D6F6E 
 3996      69746F72 
 3996      5F495251 
 3996      6E00
 3997              	.LASF83:
 3998 08c8 444D4132 		.ascii	"DMA2_Stream0_IRQn\000"
 3998      5F537472 
 3998      65616D30 
 3998      5F495251 
 3998      6E00
 3999              	.LASF111:
 4000 08da 4D314152 		.ascii	"M1AR\000"
 4000      00
 4001              	.LASF164:
 4002 08df 56656374 		.ascii	"Vector80\000"
 4002      6F723830 
 4002      00
 4003              	.LASF66:
 4004 08e8 55534152 		.ascii	"USART3_IRQn\000"
 4004      54335F49 
 4004      52516E00 
 4005              	.LASF143:
 4006 08f4 53534347 		.ascii	"SSCGR\000"
 4006      5200
 4007              	.LASF165:
 4008 08fa 56656374 		.ascii	"Vector84\000"
ARM GAS  /tmp/ccTeMzA3.s 			page 80


 4008      6F723834 
 4008      00
 4009              	.LASF55:
 4010 0903 54494D32 		.ascii	"TIM2_IRQn\000"
 4010      5F495251 
 4010      6E00
 4011              	.LASF33:
 4012 090d 45585449 		.ascii	"EXTI0_IRQn\000"
 4012      305F4952 
 4012      516E00
 4013              	.LASF64:
 4014 0918 55534152 		.ascii	"USART1_IRQn\000"
 4014      54315F49 
 4014      52516E00 
 4015              	.LASF141:
 4016 0924 42444352 		.ascii	"BDCR\000"
 4016      00
 4017              	.LASF185:
 4018 0929 6462675F 		.ascii	"dbg_check_enter_isr\000"
 4018      63686563 
 4018      6B5F656E 
 4018      7465725F 
 4018      69737200 
 4019              	.LASF12:
 4020 093d 75696E74 		.ascii	"uint8_t\000"
 4020      385F7400 
 4021              	.LASF160:
 4022 0945 666C6167 		.ascii	"flags\000"
 4022      7300
 4023              	.LASF105:
 4024 094b 44434D49 		.ascii	"DCMI_IRQn\000"
 4024      5F495251 
 4024      6E00
 4025              	.LASF182:
 4026 0955 646D615F 		.ascii	"dma_isr_redir\000"
 4026      6973725F 
 4026      72656469 
 4026      7200
 4027              	.LASF167:
 4028 0963 56656374 		.ascii	"Vector120\000"
 4028      6F723132 
 4028      3000
 4029              	.LASF108:
 4030 096d 4650555F 		.ascii	"FPU_IRQn\000"
 4030      4952516E 
 4030      00
 4031              	.LASF119:
 4032 0976 43464752 		.ascii	"CFGR\000"
 4032      00
 4033              	.LASF168:
 4034 097b 56656374 		.ascii	"Vector124\000"
 4034      6F723132 
 4034      3400
 4035              	.LASF169:
 4036 0985 56656374 		.ascii	"Vector128\000"
 4036      6F723132 
 4036      3800
ARM GAS  /tmp/ccTeMzA3.s 			page 81


 4037              	.LASF59:
 4038 098f 49324331 		.ascii	"I2C1_ER_IRQn\000"
 4038      5F45525F 
 4038      4952516E 
 4038      00
 4039              	.LASF45:
 4040 099c 4144435F 		.ascii	"ADC_IRQn\000"
 4040      4952516E 
 4040      00
 4041              	.LASF84:
 4042 09a5 444D4132 		.ascii	"DMA2_Stream1_IRQn\000"
 4042      5F537472 
 4042      65616D31 
 4042      5F495251 
 4042      6E00
 4043              	.LASF170:
 4044 09b7 56656374 		.ascii	"Vector12C\000"
 4044      6F723132 
 4044      4300
 4045              	.LASF116:
 4046 09c1 48494643 		.ascii	"HIFCR\000"
 4046      5200
 4047              	.LASF49:
 4048 09c7 43414E31 		.ascii	"CAN1_SCE_IRQn\000"
 4048      5F534345 
 4048      5F495251 
 4048      6E00
 4049              	.LASF194:
 4050 09d5 646D6153 		.ascii	"dmaStreamAllocate\000"
 4050      74726561 
 4050      6D416C6C 
 4050      6F636174 
 4050      6500
 4051              	.LASF93:
 4052 09e7 43414E32 		.ascii	"CAN2_SCE_IRQn\000"
 4052      5F534345 
 4052      5F495251 
 4052      6E00
 4053              	.LASF32:
 4054 09f5 5243435F 		.ascii	"RCC_IRQn\000"
 4054      4952516E 
 4054      00
 4055              	.LASF103:
 4056 09fe 4F54475F 		.ascii	"OTG_HS_WKUP_IRQn\000"
 4056      48535F57 
 4056      4B55505F 
 4056      4952516E 
 4056      00
 4057              	.LASF56:
 4058 0a0f 54494D33 		.ascii	"TIM3_IRQn\000"
 4058      5F495251 
 4058      6E00
 4059              	.LASF34:
 4060 0a19 45585449 		.ascii	"EXTI1_IRQn\000"
 4060      315F4952 
 4060      516E00
 4061              	.LASF38:
ARM GAS  /tmp/ccTeMzA3.s 			page 82


 4062 0a24 444D4131 		.ascii	"DMA1_Stream0_IRQn\000"
 4062      5F537472 
 4062      65616D30 
 4062      5F495251 
 4062      6E00
 4063              		.ident	"GCC: (4.8.2-14ubuntu1+6) 4.8.2"
ARM GAS  /tmp/ccTeMzA3.s 			page 83


DEFINED SYMBOLS
                            *ABS*:0000000000000000 stm32_dma.c
     /tmp/ccTeMzA3.s:19     .text.Vector6C:0000000000000000 $t
     /tmp/ccTeMzA3.s:25     .text.Vector6C:0000000000000000 Vector6C
     /tmp/ccTeMzA3.s:1214   .bss.dma_isr_redir:0000000000000000 .LANCHOR0
     /tmp/ccTeMzA3.s:73     .text.Vector70:0000000000000000 $t
     /tmp/ccTeMzA3.s:79     .text.Vector70:0000000000000000 Vector70
     /tmp/ccTeMzA3.s:129    .text.Vector74:0000000000000000 $t
     /tmp/ccTeMzA3.s:135    .text.Vector74:0000000000000000 Vector74
     /tmp/ccTeMzA3.s:185    .text.Vector78:0000000000000000 $t
     /tmp/ccTeMzA3.s:191    .text.Vector78:0000000000000000 Vector78
     /tmp/ccTeMzA3.s:241    .text.Vector7C:0000000000000000 $t
     /tmp/ccTeMzA3.s:247    .text.Vector7C:0000000000000000 Vector7C
     /tmp/ccTeMzA3.s:294    .text.Vector80:0000000000000000 $t
     /tmp/ccTeMzA3.s:300    .text.Vector80:0000000000000000 Vector80
     /tmp/ccTeMzA3.s:350    .text.Vector84:0000000000000000 $t
     /tmp/ccTeMzA3.s:356    .text.Vector84:0000000000000000 Vector84
     /tmp/ccTeMzA3.s:406    .text.VectorFC:0000000000000000 $t
     /tmp/ccTeMzA3.s:412    .text.VectorFC:0000000000000000 VectorFC
     /tmp/ccTeMzA3.s:462    .text.Vector120:0000000000000000 $t
     /tmp/ccTeMzA3.s:468    .text.Vector120:0000000000000000 Vector120
     /tmp/ccTeMzA3.s:515    .text.Vector124:0000000000000000 $t
     /tmp/ccTeMzA3.s:521    .text.Vector124:0000000000000000 Vector124
     /tmp/ccTeMzA3.s:571    .text.Vector128:0000000000000000 $t
     /tmp/ccTeMzA3.s:577    .text.Vector128:0000000000000000 Vector128
     /tmp/ccTeMzA3.s:627    .text.Vector12C:0000000000000000 $t
     /tmp/ccTeMzA3.s:633    .text.Vector12C:0000000000000000 Vector12C
     /tmp/ccTeMzA3.s:683    .text.Vector130:0000000000000000 $t
     /tmp/ccTeMzA3.s:689    .text.Vector130:0000000000000000 Vector130
     /tmp/ccTeMzA3.s:736    .text.Vector150:0000000000000000 $t
     /tmp/ccTeMzA3.s:742    .text.Vector150:0000000000000000 Vector150
     /tmp/ccTeMzA3.s:792    .text.Vector154:0000000000000000 $t
     /tmp/ccTeMzA3.s:798    .text.Vector154:0000000000000000 Vector154
     /tmp/ccTeMzA3.s:848    .text.Vector158:0000000000000000 $t
     /tmp/ccTeMzA3.s:854    .text.Vector158:0000000000000000 Vector158
     /tmp/ccTeMzA3.s:904    .text.dmaInit:0000000000000000 $t
     /tmp/ccTeMzA3.s:910    .text.dmaInit:0000000000000000 dmaInit
     /tmp/ccTeMzA3.s:1323   .bss.dma_streams_mask:0000000000000000 .LANCHOR1
     /tmp/ccTeMzA3.s:1221   .rodata._stm32_dma_streams:0000000000000000 .LANCHOR2
     /tmp/ccTeMzA3.s:974    .text.dmaStreamAllocate:0000000000000000 $t
     /tmp/ccTeMzA3.s:980    .text.dmaStreamAllocate:0000000000000000 dmaStreamAllocate
     /tmp/ccTeMzA3.s:1204   .rodata.str1.4:0000000000000000 .LC0
     /tmp/ccTeMzA3.s:1112   .text.dmaStreamRelease:0000000000000000 $t
     /tmp/ccTeMzA3.s:1118   .text.dmaStreamRelease:0000000000000000 dmaStreamRelease
     /tmp/ccTeMzA3.s:1210   .rodata.str1.4:0000000000000030 .LC2
     /tmp/ccTeMzA3.s:1207   .rodata.str1.4:0000000000000018 .LC1
     /tmp/ccTeMzA3.s:1224   .rodata._stm32_dma_streams:0000000000000000 _stm32_dma_streams
     /tmp/ccTeMzA3.s:1203   .rodata.str1.4:0000000000000000 $d
     /tmp/ccTeMzA3.s:1213   .bss.dma_isr_redir:0000000000000000 $d
     /tmp/ccTeMzA3.s:1217   .bss.dma_isr_redir:0000000000000000 dma_isr_redir
     /tmp/ccTeMzA3.s:1220   .rodata._stm32_dma_streams:0000000000000000 $d
     /tmp/ccTeMzA3.s:1322   .bss.dma_streams_mask:0000000000000000 $d
     /tmp/ccTeMzA3.s:1326   .bss.dma_streams_mask:0000000000000000 dma_streams_mask
                     .debug_frame:0000000000000010 $d

UNDEFINED SYMBOLS
dbg_check_enter_isr
ARM GAS  /tmp/ccTeMzA3.s 			page 84


dbg_check_leave_isr
_port_irq_epilogue
nvicEnableVector
chDbgPanic
nvicDisableVector
