ARM GAS  /tmp/ccTeMzA3.s 			page 1


   1              		.syntax unified
   2              		.cpu cortex-m4
   3              		.fpu softvfp
   4              		.eabi_attribute 20, 1
   5              		.eabi_attribute 21, 1
   6              		.eabi_attribute 23, 3
   7              		.eabi_attribute 24, 1
   8              		.eabi_attribute 25, 1
   9              		.eabi_attribute 26, 1
  10              		.eabi_attribute 30, 2
  11              		.eabi_attribute 34, 1
  12              		.eabi_attribute 18, 4
  13              		.thumb
  14              		.file	"stm32_dma.c"
  15              		.text
  16              	.Ltext0:
  17              		.cfi_sections	.debug_frame
  18              		.section	.text.Vector6C,"ax",%progbits
  19              		.align	2
  20              		.p2align 4,,15
  21              		.global	Vector6C
  22              		.thumb
  23              		.thumb_func
  24              		.type	Vector6C, %function
  25              	Vector6C:
  26              	.LFB118:
  27              		.file 1 "../../../os/hal/platforms/STM32F4xx/stm32_dma.c"
  28              		.loc 1 128 0
  29              		.cfi_startproc
  30              		@ args = 0, pretend = 0, frame = 0
  31              		@ frame_needed = 0, uses_anonymous_args = 0
  32 0000 10B5     		push	{r4, lr}
  33              		.cfi_def_cfa_offset 8
  34              		.cfi_offset 4, -8
  35              		.cfi_offset 14, -4
  36              		.loc 1 131 0
  37 0002 FFF7FEFF 		bl	dbg_check_enter_isr
  38              	.LVL0:
  39              		.loc 1 133 0
  40 0006 4FF4C042 		mov	r2, #24576
  41 000a C4F20202 		movt	r2, 16386
  42              		.loc 1 135 0
  43 000e 40F20003 		movw	r3, #:lower16:.LANCHOR0
  44 0012 C0F20003 		movt	r3, #:upper16:.LANCHOR0
  45              		.loc 1 133 0
  46 0016 1168     		ldr	r1, [r2]
  47              		.loc 1 135 0
  48 0018 1C68     		ldr	r4, [r3]
  49              		.loc 1 133 0
  50 001a 01F03D01 		and	r1, r1, #61
  51              	.LVL1:
  52              		.loc 1 134 0
  53 001e 9160     		str	r1, [r2, #8]
  54              		.loc 1 135 0
  55 0020 0CB1     		cbz	r4, .L2
  56              		.loc 1 136 0
  57 0022 5868     		ldr	r0, [r3, #4]
ARM GAS  /tmp/ccTeMzA3.s 			page 2


  58 0024 A047     		blx	r4
  59              	.LVL2:
  60              	.L2:
  61              		.loc 1 138 0
  62 0026 FFF7FEFF 		bl	dbg_check_leave_isr
  63              	.LVL3:
  64              		.loc 1 139 0
  65 002a BDE81040 		pop	{r4, lr}
  66              		.loc 1 138 0
  67 002e FFF7FEBF 		b	_port_irq_epilogue
  68              	.LVL4:
  69              		.cfi_endproc
  70              	.LFE118:
  71              		.size	Vector6C, .-Vector6C
  72 0032 00BFAFF3 		.section	.text.Vector70,"ax",%progbits
  72      0080AFF3 
  72      0080AFF3 
  72      0080
  73              		.align	2
  74              		.p2align 4,,15
  75              		.global	Vector70
  76              		.thumb
  77              		.thumb_func
  78              		.type	Vector70, %function
  79              	Vector70:
  80              	.LFB119:
  81              		.loc 1 146 0
  82              		.cfi_startproc
  83              		@ args = 0, pretend = 0, frame = 0
  84              		@ frame_needed = 0, uses_anonymous_args = 0
  85 0000 10B5     		push	{r4, lr}
  86              		.cfi_def_cfa_offset 8
  87              		.cfi_offset 4, -8
  88              		.cfi_offset 14, -4
  89              		.loc 1 149 0
  90 0002 FFF7FEFF 		bl	dbg_check_enter_isr
  91              	.LVL5:
  92              		.loc 1 151 0
  93 0006 4FF4C042 		mov	r2, #24576
  94 000a C4F20202 		movt	r2, 16386
  95              		.loc 1 153 0
  96 000e 40F20003 		movw	r3, #:lower16:.LANCHOR0
  97              		.loc 1 151 0
  98 0012 1168     		ldr	r1, [r2]
  99              		.loc 1 153 0
 100 0014 C0F20003 		movt	r3, #:upper16:.LANCHOR0
 101              		.loc 1 151 0
 102 0018 8909     		lsrs	r1, r1, #6
 103 001a 01F03D01 		and	r1, r1, #61
 104              	.LVL6:
 105              		.loc 1 153 0
 106 001e 9C68     		ldr	r4, [r3, #8]
 107              		.loc 1 152 0
 108 0020 8801     		lsls	r0, r1, #6
 109 0022 9060     		str	r0, [r2, #8]
 110              		.loc 1 153 0
 111 0024 0CB1     		cbz	r4, .L8
ARM GAS  /tmp/ccTeMzA3.s 			page 3


 112              		.loc 1 154 0
 113 0026 D868     		ldr	r0, [r3, #12]
 114 0028 A047     		blx	r4
 115              	.LVL7:
 116              	.L8:
 117              		.loc 1 156 0
 118 002a FFF7FEFF 		bl	dbg_check_leave_isr
 119              	.LVL8:
 120              		.loc 1 157 0
 121 002e BDE81040 		pop	{r4, lr}
 122              		.loc 1 156 0
 123 0032 FFF7FEBF 		b	_port_irq_epilogue
 124              	.LVL9:
 125              		.cfi_endproc
 126              	.LFE119:
 127              		.size	Vector70, .-Vector70
 128 0036 00BFAFF3 		.section	.text.Vector74,"ax",%progbits
 128      0080AFF3 
 128      0080
 129              		.align	2
 130              		.p2align 4,,15
 131              		.global	Vector74
 132              		.thumb
 133              		.thumb_func
 134              		.type	Vector74, %function
 135              	Vector74:
 136              	.LFB120:
 137              		.loc 1 164 0
 138              		.cfi_startproc
 139              		@ args = 0, pretend = 0, frame = 0
 140              		@ frame_needed = 0, uses_anonymous_args = 0
 141 0000 10B5     		push	{r4, lr}
 142              		.cfi_def_cfa_offset 8
 143              		.cfi_offset 4, -8
 144              		.cfi_offset 14, -4
 145              		.loc 1 167 0
 146 0002 FFF7FEFF 		bl	dbg_check_enter_isr
 147              	.LVL10:
 148              		.loc 1 169 0
 149 0006 4FF4C042 		mov	r2, #24576
 150 000a C4F20202 		movt	r2, 16386
 151              		.loc 1 171 0
 152 000e 40F20003 		movw	r3, #:lower16:.LANCHOR0
 153              		.loc 1 169 0
 154 0012 1168     		ldr	r1, [r2]
 155              		.loc 1 171 0
 156 0014 C0F20003 		movt	r3, #:upper16:.LANCHOR0
 157              		.loc 1 169 0
 158 0018 090C     		lsrs	r1, r1, #16
 159 001a 01F03D01 		and	r1, r1, #61
 160              	.LVL11:
 161              		.loc 1 171 0
 162 001e 1C69     		ldr	r4, [r3, #16]
 163              		.loc 1 170 0
 164 0020 0804     		lsls	r0, r1, #16
 165 0022 9060     		str	r0, [r2, #8]
 166              		.loc 1 171 0
ARM GAS  /tmp/ccTeMzA3.s 			page 4


 167 0024 0CB1     		cbz	r4, .L13
 168              		.loc 1 172 0
 169 0026 5869     		ldr	r0, [r3, #20]
 170 0028 A047     		blx	r4
 171              	.LVL12:
 172              	.L13:
 173              		.loc 1 174 0
 174 002a FFF7FEFF 		bl	dbg_check_leave_isr
 175              	.LVL13:
 176              		.loc 1 175 0
 177 002e BDE81040 		pop	{r4, lr}
 178              		.loc 1 174 0
 179 0032 FFF7FEBF 		b	_port_irq_epilogue
 180              	.LVL14:
 181              		.cfi_endproc
 182              	.LFE120:
 183              		.size	Vector74, .-Vector74
 184 0036 00BFAFF3 		.section	.text.Vector78,"ax",%progbits
 184      0080AFF3 
 184      0080
 185              		.align	2
 186              		.p2align 4,,15
 187              		.global	Vector78
 188              		.thumb
 189              		.thumb_func
 190              		.type	Vector78, %function
 191              	Vector78:
 192              	.LFB121:
 193              		.loc 1 182 0
 194              		.cfi_startproc
 195              		@ args = 0, pretend = 0, frame = 0
 196              		@ frame_needed = 0, uses_anonymous_args = 0
 197 0000 10B5     		push	{r4, lr}
 198              		.cfi_def_cfa_offset 8
 199              		.cfi_offset 4, -8
 200              		.cfi_offset 14, -4
 201              		.loc 1 185 0
 202 0002 FFF7FEFF 		bl	dbg_check_enter_isr
 203              	.LVL15:
 204              		.loc 1 187 0
 205 0006 4FF4C042 		mov	r2, #24576
 206 000a C4F20202 		movt	r2, 16386
 207              		.loc 1 189 0
 208 000e 40F20003 		movw	r3, #:lower16:.LANCHOR0
 209              		.loc 1 187 0
 210 0012 1168     		ldr	r1, [r2]
 211              		.loc 1 189 0
 212 0014 C0F20003 		movt	r3, #:upper16:.LANCHOR0
 213              		.loc 1 187 0
 214 0018 890D     		lsrs	r1, r1, #22
 215 001a 01F03D01 		and	r1, r1, #61
 216              	.LVL16:
 217              		.loc 1 189 0
 218 001e 9C69     		ldr	r4, [r3, #24]
 219              		.loc 1 188 0
 220 0020 8805     		lsls	r0, r1, #22
 221 0022 9060     		str	r0, [r2, #8]
ARM GAS  /tmp/ccTeMzA3.s 			page 5


 222              		.loc 1 189 0
 223 0024 0CB1     		cbz	r4, .L18
 224              		.loc 1 190 0
 225 0026 D869     		ldr	r0, [r3, #28]
 226 0028 A047     		blx	r4
 227              	.LVL17:
 228              	.L18:
 229              		.loc 1 192 0
 230 002a FFF7FEFF 		bl	dbg_check_leave_isr
 231              	.LVL18:
 232              		.loc 1 193 0
 233 002e BDE81040 		pop	{r4, lr}
 234              		.loc 1 192 0
 235 0032 FFF7FEBF 		b	_port_irq_epilogue
 236              	.LVL19:
 237              		.cfi_endproc
 238              	.LFE121:
 239              		.size	Vector78, .-Vector78
 240 0036 00BFAFF3 		.section	.text.Vector7C,"ax",%progbits
 240      0080AFF3 
 240      0080
 241              		.align	2
 242              		.p2align 4,,15
 243              		.global	Vector7C
 244              		.thumb
 245              		.thumb_func
 246              		.type	Vector7C, %function
 247              	Vector7C:
 248              	.LFB122:
 249              		.loc 1 200 0
 250              		.cfi_startproc
 251              		@ args = 0, pretend = 0, frame = 0
 252              		@ frame_needed = 0, uses_anonymous_args = 0
 253 0000 10B5     		push	{r4, lr}
 254              		.cfi_def_cfa_offset 8
 255              		.cfi_offset 4, -8
 256              		.cfi_offset 14, -4
 257              		.loc 1 203 0
 258 0002 FFF7FEFF 		bl	dbg_check_enter_isr
 259              	.LVL20:
 260              		.loc 1 205 0
 261 0006 4FF4C042 		mov	r2, #24576
 262 000a C4F20202 		movt	r2, 16386
 263              		.loc 1 207 0
 264 000e 40F20003 		movw	r3, #:lower16:.LANCHOR0
 265 0012 C0F20003 		movt	r3, #:upper16:.LANCHOR0
 266              		.loc 1 205 0
 267 0016 5168     		ldr	r1, [r2, #4]
 268              		.loc 1 207 0
 269 0018 1C6A     		ldr	r4, [r3, #32]
 270              		.loc 1 205 0
 271 001a 01F03D01 		and	r1, r1, #61
 272              	.LVL21:
 273              		.loc 1 206 0
 274 001e D160     		str	r1, [r2, #12]
 275              		.loc 1 207 0
 276 0020 0CB1     		cbz	r4, .L23
ARM GAS  /tmp/ccTeMzA3.s 			page 6


 277              		.loc 1 208 0
 278 0022 586A     		ldr	r0, [r3, #36]
 279 0024 A047     		blx	r4
 280              	.LVL22:
 281              	.L23:
 282              		.loc 1 210 0
 283 0026 FFF7FEFF 		bl	dbg_check_leave_isr
 284              	.LVL23:
 285              		.loc 1 211 0
 286 002a BDE81040 		pop	{r4, lr}
 287              		.loc 1 210 0
 288 002e FFF7FEBF 		b	_port_irq_epilogue
 289              	.LVL24:
 290              		.cfi_endproc
 291              	.LFE122:
 292              		.size	Vector7C, .-Vector7C
 293 0032 00BFAFF3 		.section	.text.Vector80,"ax",%progbits
 293      0080AFF3 
 293      0080AFF3 
 293      0080
 294              		.align	2
 295              		.p2align 4,,15
 296              		.global	Vector80
 297              		.thumb
 298              		.thumb_func
 299              		.type	Vector80, %function
 300              	Vector80:
 301              	.LFB123:
 302              		.loc 1 218 0
 303              		.cfi_startproc
 304              		@ args = 0, pretend = 0, frame = 0
 305              		@ frame_needed = 0, uses_anonymous_args = 0
 306 0000 10B5     		push	{r4, lr}
 307              		.cfi_def_cfa_offset 8
 308              		.cfi_offset 4, -8
 309              		.cfi_offset 14, -4
 310              		.loc 1 221 0
 311 0002 FFF7FEFF 		bl	dbg_check_enter_isr
 312              	.LVL25:
 313              		.loc 1 223 0
 314 0006 4FF4C042 		mov	r2, #24576
 315 000a C4F20202 		movt	r2, 16386
 316              		.loc 1 225 0
 317 000e 40F20003 		movw	r3, #:lower16:.LANCHOR0
 318              		.loc 1 223 0
 319 0012 5168     		ldr	r1, [r2, #4]
 320              		.loc 1 225 0
 321 0014 C0F20003 		movt	r3, #:upper16:.LANCHOR0
 322              		.loc 1 223 0
 323 0018 8909     		lsrs	r1, r1, #6
 324 001a 01F03D01 		and	r1, r1, #61
 325              	.LVL26:
 326              		.loc 1 225 0
 327 001e 9C6A     		ldr	r4, [r3, #40]
 328              		.loc 1 224 0
 329 0020 8801     		lsls	r0, r1, #6
 330 0022 D060     		str	r0, [r2, #12]
ARM GAS  /tmp/ccTeMzA3.s 			page 7


 331              		.loc 1 225 0
 332 0024 0CB1     		cbz	r4, .L28
 333              		.loc 1 226 0
 334 0026 D86A     		ldr	r0, [r3, #44]
 335 0028 A047     		blx	r4
 336              	.LVL27:
 337              	.L28:
 338              		.loc 1 228 0
 339 002a FFF7FEFF 		bl	dbg_check_leave_isr
 340              	.LVL28:
 341              		.loc 1 229 0
 342 002e BDE81040 		pop	{r4, lr}
 343              		.loc 1 228 0
 344 0032 FFF7FEBF 		b	_port_irq_epilogue
 345              	.LVL29:
 346              		.cfi_endproc
 347              	.LFE123:
 348              		.size	Vector80, .-Vector80
 349 0036 00BFAFF3 		.section	.text.Vector84,"ax",%progbits
 349      0080AFF3 
 349      0080
 350              		.align	2
 351              		.p2align 4,,15
 352              		.global	Vector84
 353              		.thumb
 354              		.thumb_func
 355              		.type	Vector84, %function
 356              	Vector84:
 357              	.LFB124:
 358              		.loc 1 236 0
 359              		.cfi_startproc
 360              		@ args = 0, pretend = 0, frame = 0
 361              		@ frame_needed = 0, uses_anonymous_args = 0
 362 0000 10B5     		push	{r4, lr}
 363              		.cfi_def_cfa_offset 8
 364              		.cfi_offset 4, -8
 365              		.cfi_offset 14, -4
 366              		.loc 1 239 0
 367 0002 FFF7FEFF 		bl	dbg_check_enter_isr
 368              	.LVL30:
 369              		.loc 1 241 0
 370 0006 4FF4C042 		mov	r2, #24576
 371 000a C4F20202 		movt	r2, 16386
 372              		.loc 1 243 0
 373 000e 40F20003 		movw	r3, #:lower16:.LANCHOR0
 374              		.loc 1 241 0
 375 0012 5168     		ldr	r1, [r2, #4]
 376              		.loc 1 243 0
 377 0014 C0F20003 		movt	r3, #:upper16:.LANCHOR0
 378              		.loc 1 241 0
 379 0018 090C     		lsrs	r1, r1, #16
 380 001a 01F03D01 		and	r1, r1, #61
 381              	.LVL31:
 382              		.loc 1 243 0
 383 001e 1C6B     		ldr	r4, [r3, #48]
 384              		.loc 1 242 0
 385 0020 0804     		lsls	r0, r1, #16
ARM GAS  /tmp/ccTeMzA3.s 			page 8


 386 0022 D060     		str	r0, [r2, #12]
 387              		.loc 1 243 0
 388 0024 0CB1     		cbz	r4, .L33
 389              		.loc 1 244 0
 390 0026 586B     		ldr	r0, [r3, #52]
 391 0028 A047     		blx	r4
 392              	.LVL32:
 393              	.L33:
 394              		.loc 1 246 0
 395 002a FFF7FEFF 		bl	dbg_check_leave_isr
 396              	.LVL33:
 397              		.loc 1 247 0
 398 002e BDE81040 		pop	{r4, lr}
 399              		.loc 1 246 0
 400 0032 FFF7FEBF 		b	_port_irq_epilogue
 401              	.LVL34:
 402              		.cfi_endproc
 403              	.LFE124:
 404              		.size	Vector84, .-Vector84
 405 0036 00BFAFF3 		.section	.text.VectorFC,"ax",%progbits
 405      0080AFF3 
 405      0080
 406              		.align	2
 407              		.p2align 4,,15
 408              		.global	VectorFC
 409              		.thumb
 410              		.thumb_func
 411              		.type	VectorFC, %function
 412              	VectorFC:
 413              	.LFB125:
 414              		.loc 1 254 0
 415              		.cfi_startproc
 416              		@ args = 0, pretend = 0, frame = 0
 417              		@ frame_needed = 0, uses_anonymous_args = 0
 418 0000 10B5     		push	{r4, lr}
 419              		.cfi_def_cfa_offset 8
 420              		.cfi_offset 4, -8
 421              		.cfi_offset 14, -4
 422              		.loc 1 257 0
 423 0002 FFF7FEFF 		bl	dbg_check_enter_isr
 424              	.LVL35:
 425              		.loc 1 259 0
 426 0006 4FF4C042 		mov	r2, #24576
 427 000a C4F20202 		movt	r2, 16386
 428              		.loc 1 261 0
 429 000e 40F20003 		movw	r3, #:lower16:.LANCHOR0
 430              		.loc 1 259 0
 431 0012 5168     		ldr	r1, [r2, #4]
 432              		.loc 1 261 0
 433 0014 C0F20003 		movt	r3, #:upper16:.LANCHOR0
 434              		.loc 1 259 0
 435 0018 890D     		lsrs	r1, r1, #22
 436 001a 01F03D01 		and	r1, r1, #61
 437              	.LVL36:
 438              		.loc 1 261 0
 439 001e 9C6B     		ldr	r4, [r3, #56]
 440              		.loc 1 260 0
ARM GAS  /tmp/ccTeMzA3.s 			page 9


 441 0020 8805     		lsls	r0, r1, #22
 442 0022 D060     		str	r0, [r2, #12]
 443              		.loc 1 261 0
 444 0024 0CB1     		cbz	r4, .L38
 445              		.loc 1 262 0
 446 0026 D86B     		ldr	r0, [r3, #60]
 447 0028 A047     		blx	r4
 448              	.LVL37:
 449              	.L38:
 450              		.loc 1 264 0
 451 002a FFF7FEFF 		bl	dbg_check_leave_isr
 452              	.LVL38:
 453              		.loc 1 265 0
 454 002e BDE81040 		pop	{r4, lr}
 455              		.loc 1 264 0
 456 0032 FFF7FEBF 		b	_port_irq_epilogue
 457              	.LVL39:
 458              		.cfi_endproc
 459              	.LFE125:
 460              		.size	VectorFC, .-VectorFC
 461 0036 00BFAFF3 		.section	.text.Vector120,"ax",%progbits
 461      0080AFF3 
 461      0080
 462              		.align	2
 463              		.p2align 4,,15
 464              		.global	Vector120
 465              		.thumb
 466              		.thumb_func
 467              		.type	Vector120, %function
 468              	Vector120:
 469              	.LFB126:
 470              		.loc 1 272 0
 471              		.cfi_startproc
 472              		@ args = 0, pretend = 0, frame = 0
 473              		@ frame_needed = 0, uses_anonymous_args = 0
 474 0000 10B5     		push	{r4, lr}
 475              		.cfi_def_cfa_offset 8
 476              		.cfi_offset 4, -8
 477              		.cfi_offset 14, -4
 478              		.loc 1 275 0
 479 0002 FFF7FEFF 		bl	dbg_check_enter_isr
 480              	.LVL40:
 481              		.loc 1 277 0
 482 0006 4FF4C842 		mov	r2, #25600
 483 000a C4F20202 		movt	r2, 16386
 484              		.loc 1 279 0
 485 000e 40F20003 		movw	r3, #:lower16:.LANCHOR0
 486 0012 C0F20003 		movt	r3, #:upper16:.LANCHOR0
 487              		.loc 1 277 0
 488 0016 1168     		ldr	r1, [r2]
 489              		.loc 1 279 0
 490 0018 1C6C     		ldr	r4, [r3, #64]
 491              		.loc 1 277 0
 492 001a 01F03D01 		and	r1, r1, #61
 493              	.LVL41:
 494              		.loc 1 278 0
 495 001e 9160     		str	r1, [r2, #8]
ARM GAS  /tmp/ccTeMzA3.s 			page 10


 496              		.loc 1 279 0
 497 0020 0CB1     		cbz	r4, .L43
 498              		.loc 1 280 0
 499 0022 586C     		ldr	r0, [r3, #68]
 500 0024 A047     		blx	r4
 501              	.LVL42:
 502              	.L43:
 503              		.loc 1 282 0
 504 0026 FFF7FEFF 		bl	dbg_check_leave_isr
 505              	.LVL43:
 506              		.loc 1 283 0
 507 002a BDE81040 		pop	{r4, lr}
 508              		.loc 1 282 0
 509 002e FFF7FEBF 		b	_port_irq_epilogue
 510              	.LVL44:
 511              		.cfi_endproc
 512              	.LFE126:
 513              		.size	Vector120, .-Vector120
 514 0032 00BFAFF3 		.section	.text.Vector124,"ax",%progbits
 514      0080AFF3 
 514      0080AFF3 
 514      0080
 515              		.align	2
 516              		.p2align 4,,15
 517              		.global	Vector124
 518              		.thumb
 519              		.thumb_func
 520              		.type	Vector124, %function
 521              	Vector124:
 522              	.LFB127:
 523              		.loc 1 290 0
 524              		.cfi_startproc
 525              		@ args = 0, pretend = 0, frame = 0
 526              		@ frame_needed = 0, uses_anonymous_args = 0
 527 0000 10B5     		push	{r4, lr}
 528              		.cfi_def_cfa_offset 8
 529              		.cfi_offset 4, -8
 530              		.cfi_offset 14, -4
 531              		.loc 1 293 0
 532 0002 FFF7FEFF 		bl	dbg_check_enter_isr
 533              	.LVL45:
 534              		.loc 1 295 0
 535 0006 4FF4C842 		mov	r2, #25600
 536 000a C4F20202 		movt	r2, 16386
 537              		.loc 1 297 0
 538 000e 40F20003 		movw	r3, #:lower16:.LANCHOR0
 539              		.loc 1 295 0
 540 0012 1168     		ldr	r1, [r2]
 541              		.loc 1 297 0
 542 0014 C0F20003 		movt	r3, #:upper16:.LANCHOR0
 543              		.loc 1 295 0
 544 0018 8909     		lsrs	r1, r1, #6
 545 001a 01F03D01 		and	r1, r1, #61
 546              	.LVL46:
 547              		.loc 1 297 0
 548 001e 9C6C     		ldr	r4, [r3, #72]
 549              		.loc 1 296 0
ARM GAS  /tmp/ccTeMzA3.s 			page 11


 550 0020 8801     		lsls	r0, r1, #6
 551 0022 9060     		str	r0, [r2, #8]
 552              		.loc 1 297 0
 553 0024 0CB1     		cbz	r4, .L48
 554              		.loc 1 298 0
 555 0026 D86C     		ldr	r0, [r3, #76]
 556 0028 A047     		blx	r4
 557              	.LVL47:
 558              	.L48:
 559              		.loc 1 300 0
 560 002a FFF7FEFF 		bl	dbg_check_leave_isr
 561              	.LVL48:
 562              		.loc 1 301 0
 563 002e BDE81040 		pop	{r4, lr}
 564              		.loc 1 300 0
 565 0032 FFF7FEBF 		b	_port_irq_epilogue
 566              	.LVL49:
 567              		.cfi_endproc
 568              	.LFE127:
 569              		.size	Vector124, .-Vector124
 570 0036 00BFAFF3 		.section	.text.Vector128,"ax",%progbits
 570      0080AFF3 
 570      0080
 571              		.align	2
 572              		.p2align 4,,15
 573              		.global	Vector128
 574              		.thumb
 575              		.thumb_func
 576              		.type	Vector128, %function
 577              	Vector128:
 578              	.LFB128:
 579              		.loc 1 308 0
 580              		.cfi_startproc
 581              		@ args = 0, pretend = 0, frame = 0
 582              		@ frame_needed = 0, uses_anonymous_args = 0
 583 0000 10B5     		push	{r4, lr}
 584              		.cfi_def_cfa_offset 8
 585              		.cfi_offset 4, -8
 586              		.cfi_offset 14, -4
 587              		.loc 1 311 0
 588 0002 FFF7FEFF 		bl	dbg_check_enter_isr
 589              	.LVL50:
 590              		.loc 1 313 0
 591 0006 4FF4C842 		mov	r2, #25600
 592 000a C4F20202 		movt	r2, 16386
 593              		.loc 1 315 0
 594 000e 40F20003 		movw	r3, #:lower16:.LANCHOR0
 595              		.loc 1 313 0
 596 0012 1168     		ldr	r1, [r2]
 597              		.loc 1 315 0
 598 0014 C0F20003 		movt	r3, #:upper16:.LANCHOR0
 599              		.loc 1 313 0
 600 0018 090C     		lsrs	r1, r1, #16
 601 001a 01F03D01 		and	r1, r1, #61
 602              	.LVL51:
 603              		.loc 1 315 0
 604 001e 1C6D     		ldr	r4, [r3, #80]
ARM GAS  /tmp/ccTeMzA3.s 			page 12


 605              		.loc 1 314 0
 606 0020 0804     		lsls	r0, r1, #16
 607 0022 9060     		str	r0, [r2, #8]
 608              		.loc 1 315 0
 609 0024 0CB1     		cbz	r4, .L53
 610              		.loc 1 316 0
 611 0026 586D     		ldr	r0, [r3, #84]
 612 0028 A047     		blx	r4
 613              	.LVL52:
 614              	.L53:
 615              		.loc 1 318 0
 616 002a FFF7FEFF 		bl	dbg_check_leave_isr
 617              	.LVL53:
 618              		.loc 1 319 0
 619 002e BDE81040 		pop	{r4, lr}
 620              		.loc 1 318 0
 621 0032 FFF7FEBF 		b	_port_irq_epilogue
 622              	.LVL54:
 623              		.cfi_endproc
 624              	.LFE128:
 625              		.size	Vector128, .-Vector128
 626 0036 00BFAFF3 		.section	.text.Vector12C,"ax",%progbits
 626      0080AFF3 
 626      0080
 627              		.align	2
 628              		.p2align 4,,15
 629              		.global	Vector12C
 630              		.thumb
 631              		.thumb_func
 632              		.type	Vector12C, %function
 633              	Vector12C:
 634              	.LFB129:
 635              		.loc 1 326 0
 636              		.cfi_startproc
 637              		@ args = 0, pretend = 0, frame = 0
 638              		@ frame_needed = 0, uses_anonymous_args = 0
 639 0000 10B5     		push	{r4, lr}
 640              		.cfi_def_cfa_offset 8
 641              		.cfi_offset 4, -8
 642              		.cfi_offset 14, -4
 643              		.loc 1 329 0
 644 0002 FFF7FEFF 		bl	dbg_check_enter_isr
 645              	.LVL55:
 646              		.loc 1 331 0
 647 0006 4FF4C842 		mov	r2, #25600
 648 000a C4F20202 		movt	r2, 16386
 649              		.loc 1 333 0
 650 000e 40F20003 		movw	r3, #:lower16:.LANCHOR0
 651              		.loc 1 331 0
 652 0012 1168     		ldr	r1, [r2]
 653              		.loc 1 333 0
 654 0014 C0F20003 		movt	r3, #:upper16:.LANCHOR0
 655              		.loc 1 331 0
 656 0018 890D     		lsrs	r1, r1, #22
 657 001a 01F03D01 		and	r1, r1, #61
 658              	.LVL56:
 659              		.loc 1 333 0
ARM GAS  /tmp/ccTeMzA3.s 			page 13


 660 001e 9C6D     		ldr	r4, [r3, #88]
 661              		.loc 1 332 0
 662 0020 8805     		lsls	r0, r1, #22
 663 0022 9060     		str	r0, [r2, #8]
 664              		.loc 1 333 0
 665 0024 0CB1     		cbz	r4, .L58
 666              		.loc 1 334 0
 667 0026 D86D     		ldr	r0, [r3, #92]
 668 0028 A047     		blx	r4
 669              	.LVL57:
 670              	.L58:
 671              		.loc 1 336 0
 672 002a FFF7FEFF 		bl	dbg_check_leave_isr
 673              	.LVL58:
 674              		.loc 1 337 0
 675 002e BDE81040 		pop	{r4, lr}
 676              		.loc 1 336 0
 677 0032 FFF7FEBF 		b	_port_irq_epilogue
 678              	.LVL59:
 679              		.cfi_endproc
 680              	.LFE129:
 681              		.size	Vector12C, .-Vector12C
 682 0036 00BFAFF3 		.section	.text.Vector130,"ax",%progbits
 682      0080AFF3 
 682      0080
 683              		.align	2
 684              		.p2align 4,,15
 685              		.global	Vector130
 686              		.thumb
 687              		.thumb_func
 688              		.type	Vector130, %function
 689              	Vector130:
 690              	.LFB130:
 691              		.loc 1 344 0
 692              		.cfi_startproc
 693              		@ args = 0, pretend = 0, frame = 0
 694              		@ frame_needed = 0, uses_anonymous_args = 0
 695 0000 10B5     		push	{r4, lr}
 696              		.cfi_def_cfa_offset 8
 697              		.cfi_offset 4, -8
 698              		.cfi_offset 14, -4
 699              		.loc 1 347 0
 700 0002 FFF7FEFF 		bl	dbg_check_enter_isr
 701              	.LVL60:
 702              		.loc 1 349 0
 703 0006 4FF4C842 		mov	r2, #25600
 704 000a C4F20202 		movt	r2, 16386
 705              		.loc 1 351 0
 706 000e 40F20003 		movw	r3, #:lower16:.LANCHOR0
 707 0012 C0F20003 		movt	r3, #:upper16:.LANCHOR0
 708              		.loc 1 349 0
 709 0016 5168     		ldr	r1, [r2, #4]
 710              		.loc 1 351 0
 711 0018 1C6E     		ldr	r4, [r3, #96]
 712              		.loc 1 349 0
 713 001a 01F03D01 		and	r1, r1, #61
 714              	.LVL61:
ARM GAS  /tmp/ccTeMzA3.s 			page 14


 715              		.loc 1 350 0
 716 001e D160     		str	r1, [r2, #12]
 717              		.loc 1 351 0
 718 0020 0CB1     		cbz	r4, .L63
 719              		.loc 1 352 0
 720 0022 586E     		ldr	r0, [r3, #100]
 721 0024 A047     		blx	r4
 722              	.LVL62:
 723              	.L63:
 724              		.loc 1 354 0
 725 0026 FFF7FEFF 		bl	dbg_check_leave_isr
 726              	.LVL63:
 727              		.loc 1 355 0
 728 002a BDE81040 		pop	{r4, lr}
 729              		.loc 1 354 0
 730 002e FFF7FEBF 		b	_port_irq_epilogue
 731              	.LVL64:
 732              		.cfi_endproc
 733              	.LFE130:
 734              		.size	Vector130, .-Vector130
 735 0032 00BFAFF3 		.section	.text.Vector150,"ax",%progbits
 735      0080AFF3 
 735      0080AFF3 
 735      0080
 736              		.align	2
 737              		.p2align 4,,15
 738              		.global	Vector150
 739              		.thumb
 740              		.thumb_func
 741              		.type	Vector150, %function
 742              	Vector150:
 743              	.LFB131:
 744              		.loc 1 362 0
 745              		.cfi_startproc
 746              		@ args = 0, pretend = 0, frame = 0
 747              		@ frame_needed = 0, uses_anonymous_args = 0
 748 0000 10B5     		push	{r4, lr}
 749              		.cfi_def_cfa_offset 8
 750              		.cfi_offset 4, -8
 751              		.cfi_offset 14, -4
 752              		.loc 1 365 0
 753 0002 FFF7FEFF 		bl	dbg_check_enter_isr
 754              	.LVL65:
 755              		.loc 1 367 0
 756 0006 4FF4C842 		mov	r2, #25600
 757 000a C4F20202 		movt	r2, 16386
 758              		.loc 1 369 0
 759 000e 40F20003 		movw	r3, #:lower16:.LANCHOR0
 760              		.loc 1 367 0
 761 0012 5168     		ldr	r1, [r2, #4]
 762              		.loc 1 369 0
 763 0014 C0F20003 		movt	r3, #:upper16:.LANCHOR0
 764              		.loc 1 367 0
 765 0018 8909     		lsrs	r1, r1, #6
 766 001a 01F03D01 		and	r1, r1, #61
 767              	.LVL66:
 768              		.loc 1 369 0
ARM GAS  /tmp/ccTeMzA3.s 			page 15


 769 001e 9C6E     		ldr	r4, [r3, #104]
 770              		.loc 1 368 0
 771 0020 8801     		lsls	r0, r1, #6
 772 0022 D060     		str	r0, [r2, #12]
 773              		.loc 1 369 0
 774 0024 0CB1     		cbz	r4, .L68
 775              		.loc 1 370 0
 776 0026 D86E     		ldr	r0, [r3, #108]
 777 0028 A047     		blx	r4
 778              	.LVL67:
 779              	.L68:
 780              		.loc 1 372 0
 781 002a FFF7FEFF 		bl	dbg_check_leave_isr
 782              	.LVL68:
 783              		.loc 1 373 0
 784 002e BDE81040 		pop	{r4, lr}
 785              		.loc 1 372 0
 786 0032 FFF7FEBF 		b	_port_irq_epilogue
 787              	.LVL69:
 788              		.cfi_endproc
 789              	.LFE131:
 790              		.size	Vector150, .-Vector150
 791 0036 00BFAFF3 		.section	.text.Vector154,"ax",%progbits
 791      0080AFF3 
 791      0080
 792              		.align	2
 793              		.p2align 4,,15
 794              		.global	Vector154
 795              		.thumb
 796              		.thumb_func
 797              		.type	Vector154, %function
 798              	Vector154:
 799              	.LFB132:
 800              		.loc 1 380 0
 801              		.cfi_startproc
 802              		@ args = 0, pretend = 0, frame = 0
 803              		@ frame_needed = 0, uses_anonymous_args = 0
 804 0000 10B5     		push	{r4, lr}
 805              		.cfi_def_cfa_offset 8
 806              		.cfi_offset 4, -8
 807              		.cfi_offset 14, -4
 808              		.loc 1 383 0
 809 0002 FFF7FEFF 		bl	dbg_check_enter_isr
 810              	.LVL70:
 811              		.loc 1 385 0
 812 0006 4FF4C842 		mov	r2, #25600
 813 000a C4F20202 		movt	r2, 16386
 814              		.loc 1 387 0
 815 000e 40F20003 		movw	r3, #:lower16:.LANCHOR0
 816              		.loc 1 385 0
 817 0012 5168     		ldr	r1, [r2, #4]
 818              		.loc 1 387 0
 819 0014 C0F20003 		movt	r3, #:upper16:.LANCHOR0
 820              		.loc 1 385 0
 821 0018 090C     		lsrs	r1, r1, #16
 822 001a 01F03D01 		and	r1, r1, #61
 823              	.LVL71:
ARM GAS  /tmp/ccTeMzA3.s 			page 16


 824              		.loc 1 387 0
 825 001e 1C6F     		ldr	r4, [r3, #112]
 826              		.loc 1 386 0
 827 0020 0804     		lsls	r0, r1, #16
 828 0022 D060     		str	r0, [r2, #12]
 829              		.loc 1 387 0
 830 0024 0CB1     		cbz	r4, .L73
 831              		.loc 1 388 0
 832 0026 586F     		ldr	r0, [r3, #116]
 833 0028 A047     		blx	r4
 834              	.LVL72:
 835              	.L73:
 836              		.loc 1 390 0
 837 002a FFF7FEFF 		bl	dbg_check_leave_isr
 838              	.LVL73:
 839              		.loc 1 391 0
 840 002e BDE81040 		pop	{r4, lr}
 841              		.loc 1 390 0
 842 0032 FFF7FEBF 		b	_port_irq_epilogue
 843              	.LVL74:
 844              		.cfi_endproc
 845              	.LFE132:
 846              		.size	Vector154, .-Vector154
 847 0036 00BFAFF3 		.section	.text.Vector158,"ax",%progbits
 847      0080AFF3 
 847      0080
 848              		.align	2
 849              		.p2align 4,,15
 850              		.global	Vector158
 851              		.thumb
 852              		.thumb_func
 853              		.type	Vector158, %function
 854              	Vector158:
 855              	.LFB133:
 856              		.loc 1 398 0
 857              		.cfi_startproc
 858              		@ args = 0, pretend = 0, frame = 0
 859              		@ frame_needed = 0, uses_anonymous_args = 0
 860 0000 10B5     		push	{r4, lr}
 861              		.cfi_def_cfa_offset 8
 862              		.cfi_offset 4, -8
 863              		.cfi_offset 14, -4
 864              		.loc 1 401 0
 865 0002 FFF7FEFF 		bl	dbg_check_enter_isr
 866              	.LVL75:
 867              		.loc 1 403 0
 868 0006 4FF4C842 		mov	r2, #25600
 869 000a C4F20202 		movt	r2, 16386
 870              		.loc 1 405 0
 871 000e 40F20003 		movw	r3, #:lower16:.LANCHOR0
 872              		.loc 1 403 0
 873 0012 5168     		ldr	r1, [r2, #4]
 874              		.loc 1 405 0
 875 0014 C0F20003 		movt	r3, #:upper16:.LANCHOR0
 876              		.loc 1 403 0
 877 0018 890D     		lsrs	r1, r1, #22
 878 001a 01F03D01 		and	r1, r1, #61
ARM GAS  /tmp/ccTeMzA3.s 			page 17


 879              	.LVL76:
 880              		.loc 1 405 0
 881 001e 9C6F     		ldr	r4, [r3, #120]
 882              		.loc 1 404 0
 883 0020 8805     		lsls	r0, r1, #22
 884 0022 D060     		str	r0, [r2, #12]
 885              		.loc 1 405 0
 886 0024 0CB1     		cbz	r4, .L78
 887              		.loc 1 406 0
 888 0026 D86F     		ldr	r0, [r3, #124]
 889 0028 A047     		blx	r4
 890              	.LVL77:
 891              	.L78:
 892              		.loc 1 408 0
 893 002a FFF7FEFF 		bl	dbg_check_leave_isr
 894              	.LVL78:
 895              		.loc 1 409 0
 896 002e BDE81040 		pop	{r4, lr}
 897              		.loc 1 408 0
 898 0032 FFF7FEBF 		b	_port_irq_epilogue
 899              	.LVL79:
 900              		.cfi_endproc
 901              	.LFE133:
 902              		.size	Vector158, .-Vector158
 903 0036 00BFAFF3 		.section	.text.dmaInit,"ax",%progbits
 903      0080AFF3 
 903      0080
 904              		.align	2
 905              		.p2align 4,,15
 906              		.global	dmaInit
 907              		.thumb
 908              		.thumb_func
 909              		.type	dmaInit, %function
 910              	dmaInit:
 911              	.LFB134:
 912              		.loc 1 420 0
 913              		.cfi_startproc
 914              		@ args = 0, pretend = 0, frame = 0
 915              		@ frame_needed = 0, uses_anonymous_args = 0
 916              		@ link register save eliminated.
 917              		.loc 1 423 0
 918 0000 40F20003 		movw	r3, #:lower16:.LANCHOR1
 919 0004 C0F20003 		movt	r3, #:upper16:.LANCHOR1
 920              		.loc 1 420 0
 921 0008 30B4     		push	{r4, r5}
 922              		.cfi_def_cfa_offset 8
 923              		.cfi_offset 4, -8
 924              		.cfi_offset 5, -4
 925              		.loc 1 423 0
 926 000a 0021     		movs	r1, #0
 927 000c 40F20005 		movw	r5, #:lower16:.LANCHOR2
 928 0010 40F20004 		movw	r4, #:lower16:.LANCHOR0
 929 0014 1960     		str	r1, [r3]
 930              	.LVL80:
 931 0016 0A46     		mov	r2, r1
 932 0018 0B46     		mov	r3, r1
 933 001a C0F20005 		movt	r5, #:upper16:.LANCHOR2
ARM GAS  /tmp/ccTeMzA3.s 			page 18


 934 001e C0F20004 		movt	r4, #:upper16:.LANCHOR0
 935              	.LVL81:
 936              	.L84:
 937              		.loc 1 425 0 discriminator 2
 938 0022 E858     		ldr	r0, [r5, r3]
 939 0024 0C33     		adds	r3, r3, #12
 940              		.loc 1 424 0 discriminator 2
 941 0026 C02B     		cmp	r3, #192
 942              		.loc 1 425 0 discriminator 2
 943 0028 0160     		str	r1, [r0]
 944              		.loc 1 426 0 discriminator 2
 945 002a A150     		str	r1, [r4, r2]
 946 002c 02F10802 		add	r2, r2, #8
 947              		.loc 1 424 0 discriminator 2
 948 0030 F7D1     		bne	.L84
 949              		.loc 1 428 0
 950 0032 4FF4C041 		mov	r1, #24576
 951              		.loc 1 430 0
 952 0036 4FF4C842 		mov	r2, #25600
 953              		.loc 1 428 0
 954 003a C4F20201 		movt	r1, 16386
 955              		.loc 1 430 0
 956 003e C4F20202 		movt	r2, 16386
 957              		.loc 1 428 0
 958 0042 4FF0FF33 		mov	r3, #-1
 959 0046 8B60     		str	r3, [r1, #8]
 960              		.loc 1 432 0
 961 0048 30BC     		pop	{r4, r5}
 962              		.loc 1 429 0
 963 004a CB60     		str	r3, [r1, #12]
 964              		.loc 1 430 0
 965 004c 9360     		str	r3, [r2, #8]
 966              		.loc 1 431 0
 967 004e D360     		str	r3, [r2, #12]
 968              		.loc 1 432 0
 969 0050 7047     		bx	lr
 970              		.cfi_endproc
 971              	.LFE134:
 972              		.size	dmaInit, .-dmaInit
 973 0052 00BFAFF3 		.section	.text.dmaStreamAllocate,"ax",%progbits
 973      0080AFF3 
 973      0080AFF3 
 973      0080
 974              		.align	2
 975              		.p2align 4,,15
 976              		.global	dmaStreamAllocate
 977              		.thumb
 978              		.thumb_func
 979              		.type	dmaStreamAllocate, %function
 980              	dmaStreamAllocate:
 981              	.LFB135:
 982              		.loc 1 461 0
 983              		.cfi_startproc
 984              		@ args = 0, pretend = 0, frame = 16
 985              		@ frame_needed = 0, uses_anonymous_args = 0
 986              	.LVL82:
 987 0000 2DE9F041 		push	{r4, r5, r6, r7, r8, lr}
ARM GAS  /tmp/ccTeMzA3.s 			page 19


 988              		.cfi_def_cfa_offset 24
 989              		.cfi_offset 4, -24
 990              		.cfi_offset 5, -20
 991              		.cfi_offset 6, -16
 992              		.cfi_offset 7, -12
 993              		.cfi_offset 8, -8
 994              		.cfi_offset 14, -4
 995              		.loc 1 463 0
 996 0004 0646     		mov	r6, r0
 997              		.loc 1 461 0
 998 0006 84B0     		sub	sp, sp, #16
 999              		.cfi_def_cfa_offset 40
 1000              		.loc 1 463 0
 1001 0008 0028     		cmp	r0, #0
 1002 000a 4CD0     		beq	.L101
 1003              	.LVL83:
 1004              	.L87:
 1005              		.loc 1 466 0
 1006 000c 40F20004 		movw	r4, #:lower16:.LANCHOR1
 1007 0010 C0F20004 		movt	r4, #:upper16:.LANCHOR1
 1008 0014 777A     		ldrb	r7, [r6, #9]	@ zero_extendqisi2
 1009 0016 2068     		ldr	r0, [r4]
 1010 0018 0125     		movs	r5, #1
 1011 001a 05FA07F8 		lsl	r8, r5, r7
 1012 001e 18EA000F 		tst	r8, r0
 1013              		.loc 1 467 0
 1014 0022 18BF     		it	ne
 1015 0024 2846     		movne	r0, r5
 1016              		.loc 1 466 0
 1017 0026 3BD1     		bne	.L88
 1018              		.loc 1 470 0
 1019 0028 40F2000C 		movw	ip, #:lower16:.LANCHOR0
 1020 002c C0F2000C 		movt	ip, #:upper16:.LANCHOR0
 1021              		.loc 1 472 0
 1022 0030 48EA0000 		orr	r0, r8, r0
 1023              		.loc 1 471 0
 1024 0034 0CEBC705 		add	r5, ip, r7, lsl #3
 1025              		.loc 1 475 0
 1026 0038 10F0FF0F 		tst	r0, #255
 1027              		.loc 1 470 0
 1028 003c 4CF83720 		str	r2, [ip, r7, lsl #3]
 1029              		.loc 1 471 0
 1030 0040 6B60     		str	r3, [r5, #4]
 1031              		.loc 1 476 0
 1032 0042 1CBF     		itt	ne
 1033 0044 4FF46053 		movne	r3, #14336
 1034 0048 C4F20203 		movtne	r3, 16386
 1035              		.loc 1 472 0
 1036 004c 2060     		str	r0, [r4]
 1037              		.loc 1 476 0
 1038 004e 1EBF     		ittt	ne
 1039 0050 1C6B     		ldrne	r4, [r3, #48]
 1040 0052 44F40014 		orrne	r4, r4, #2097152
 1041 0056 1C63     		strne	r4, [r3, #48]
 1042              		.loc 1 477 0
 1043 0058 10F47F4F 		tst	r0, #65280
 1044              		.loc 1 478 0
ARM GAS  /tmp/ccTeMzA3.s 			page 20


 1045 005c 1CBF     		itt	ne
 1046 005e 4FF46053 		movne	r3, #14336
 1047 0062 C4F20203 		movtne	r3, 16386
 1048              		.loc 1 481 0
 1049 0066 3468     		ldr	r4, [r6]
 1050              		.loc 1 478 0
 1051 0068 1EBF     		ittt	ne
 1052 006a 186B     		ldrne	r0, [r3, #48]
 1053 006c 40F48000 		orrne	r0, r0, #4194304
 1054 0070 1863     		strne	r0, [r3, #48]
 1055              		.loc 1 481 0
 1056 0072 2368     		ldr	r3, [r4]
 1057 0074 23F01F03 		bic	r3, r3, #31
 1058 0078 2360     		str	r3, [r4]
 1059              	.L92:
 1060              		.loc 1 481 0 is_stmt 0 discriminator 1
 1061 007a 2368     		ldr	r3, [r4]
 1062 007c 13F00105 		ands	r5, r3, #1
 1063 0080 FBD1     		bne	.L92
 1064              		.loc 1 481 0 discriminator 2
 1065 0082 307A     		ldrb	r0, [r6, #8]	@ zero_extendqisi2
 1066 0084 7368     		ldr	r3, [r6, #4]
 1067 0086 3D27     		movs	r7, #61
 1068 0088 8740     		lsls	r7, r7, r0
 1069              		.loc 1 483 0 is_stmt 1 discriminator 2
 1070 008a 2120     		movs	r0, #33
 1071              		.loc 1 481 0 discriminator 2
 1072 008c 1F60     		str	r7, [r3]
 1073              		.loc 1 482 0 discriminator 2
 1074 008e 2560     		str	r5, [r4]
 1075              		.loc 1 483 0 discriminator 2
 1076 0090 6061     		str	r0, [r4, #20]
 1077              		.loc 1 489 0 discriminator 2
 1078 0092 1046     		mov	r0, r2
 1079              		.loc 1 486 0 discriminator 2
 1080 0094 22B1     		cbz	r2, .L88
 1081              		.loc 1 487 0
 1082 0096 B07A     		ldrb	r0, [r6, #10]	@ zero_extendqisi2
 1083 0098 0901     		lsls	r1, r1, #4
 1084 009a FFF7FEFF 		bl	nvicEnableVector
 1085              	.LVL84:
 1086              		.loc 1 489 0
 1087 009e 2846     		mov	r0, r5
 1088              	.L88:
 1089              		.loc 1 490 0
 1090 00a0 04B0     		add	sp, sp, #16
 1091              		@ sp needed
 1092 00a2 BDE8F081 		pop	{r4, r5, r6, r7, r8, pc}
 1093              	.LVL85:
 1094              	.L101:
 1095              		.loc 1 463 0 discriminator 1
 1096 00a6 40F20000 		movw	r0, #:lower16:.LC0
 1097              	.LVL86:
 1098 00aa C0F20000 		movt	r0, #:upper16:.LC0
 1099 00ae 0391     		str	r1, [sp, #12]
 1100 00b0 0292     		str	r2, [sp, #8]
 1101 00b2 0193     		str	r3, [sp, #4]
ARM GAS  /tmp/ccTeMzA3.s 			page 21


 1102 00b4 FFF7FEFF 		bl	chDbgPanic
 1103              	.LVL87:
 1104 00b8 019B     		ldr	r3, [sp, #4]
 1105 00ba 029A     		ldr	r2, [sp, #8]
 1106 00bc 0399     		ldr	r1, [sp, #12]
 1107 00be A5E7     		b	.L87
 1108              		.cfi_endproc
 1109              	.LFE135:
 1110              		.size	dmaStreamAllocate, .-dmaStreamAllocate
 1111              		.section	.text.dmaStreamRelease,"ax",%progbits
 1112              		.align	2
 1113              		.p2align 4,,15
 1114              		.global	dmaStreamRelease
 1115              		.thumb
 1116              		.thumb_func
 1117              		.type	dmaStreamRelease, %function
 1118              	dmaStreamRelease:
 1119              	.LFB136:
 1120              		.loc 1 505 0
 1121              		.cfi_startproc
 1122              		@ args = 0, pretend = 0, frame = 0
 1123              		@ frame_needed = 0, uses_anonymous_args = 0
 1124              	.LVL88:
 1125 0000 38B5     		push	{r3, r4, r5, lr}
 1126              		.cfi_def_cfa_offset 16
 1127              		.cfi_offset 3, -16
 1128              		.cfi_offset 4, -12
 1129              		.cfi_offset 5, -8
 1130              		.cfi_offset 14, -4
 1131              		.loc 1 507 0
 1132 0002 0546     		mov	r5, r0
 1133 0004 0028     		cmp	r0, #0
 1134 0006 35D0     		beq	.L107
 1135              	.LVL89:
 1136              	.L103:
 1137              		.loc 1 510 0
 1138 0008 40F20004 		movw	r4, #:lower16:.LANCHOR1
 1139 000c C0F20004 		movt	r4, #:upper16:.LANCHOR1
 1140 0010 6A7A     		ldrb	r2, [r5, #9]	@ zero_extendqisi2
 1141 0012 2368     		ldr	r3, [r4]
 1142 0014 0121     		movs	r1, #1
 1143 0016 01FA02F2 		lsl	r2, r1, r2
 1144 001a 1A42     		tst	r2, r3
 1145 001c 23D0     		beq	.L108
 1146              	.L104:
 1147              		.loc 1 514 0
 1148 001e A87A     		ldrb	r0, [r5, #10]	@ zero_extendqisi2
 1149 0020 FFF7FEFF 		bl	nvicDisableVector
 1150              	.LVL90:
 1151              		.loc 1 517 0
 1152 0024 6B7A     		ldrb	r3, [r5, #9]	@ zero_extendqisi2
 1153 0026 2268     		ldr	r2, [r4]
 1154 0028 0121     		movs	r1, #1
 1155 002a 01FA03F3 		lsl	r3, r1, r3
 1156 002e 22EA0303 		bic	r3, r2, r3
 1157              		.loc 1 520 0
 1158 0032 13F0FF0F 		tst	r3, #255
ARM GAS  /tmp/ccTeMzA3.s 			page 22


 1159              		.loc 1 521 0
 1160 0036 04BF     		itt	eq
 1161 0038 4FF46052 		moveq	r2, #14336
 1162 003c C4F20202 		movteq	r2, 16386
 1163              		.loc 1 517 0
 1164 0040 2360     		str	r3, [r4]
 1165              		.loc 1 521 0
 1166 0042 02BF     		ittt	eq
 1167 0044 116B     		ldreq	r1, [r2, #48]
 1168 0046 21F40011 		biceq	r1, r1, #2097152
 1169 004a 1163     		streq	r1, [r2, #48]
 1170              		.loc 1 522 0
 1171 004c 13F47F4F 		tst	r3, #65280
 1172              		.loc 1 523 0
 1173 0050 01BF     		itttt	eq
 1174 0052 4FF46053 		moveq	r3, #14336
 1175 0056 C4F20203 		movteq	r3, 16386
 1176 005a 1A6B     		ldreq	r2, [r3, #48]
 1177 005c 22F48002 		biceq	r2, r2, #4194304
 1178 0060 08BF     		it	eq
 1179 0062 1A63     		streq	r2, [r3, #48]
 1180 0064 38BD     		pop	{r3, r4, r5, pc}
 1181              	.LVL91:
 1182              	.L108:
 1183              		.loc 1 510 0 discriminator 1
 1184 0066 40F20000 		movw	r0, #:lower16:.LC2
 1185 006a C0F20000 		movt	r0, #:upper16:.LC2
 1186 006e FFF7FEFF 		bl	chDbgPanic
 1187              	.LVL92:
 1188 0072 D4E7     		b	.L104
 1189              	.LVL93:
 1190              	.L107:
 1191              		.loc 1 507 0 discriminator 1
 1192 0074 40F20000 		movw	r0, #:lower16:.LC1
 1193              	.LVL94:
 1194 0078 C0F20000 		movt	r0, #:upper16:.LC1
 1195 007c FFF7FEFF 		bl	chDbgPanic
 1196              	.LVL95:
 1197 0080 C2E7     		b	.L103
 1198              		.cfi_endproc
 1199              	.LFE136:
 1200              		.size	dmaStreamRelease, .-dmaStreamRelease
 1201              		.global	_stm32_dma_streams
 1202 0082 00BFAFF3 		.section	.rodata.str1.4,"aMS",%progbits,1
 1202      0080AFF3 
 1202      0080AFF3 
 1202      0080
 1203              		.align	2
 1204              	.LC0:
 1205 0000 22646D61 		.ascii	"\"dmaStreamAllocate\"()\000"
 1205      53747265 
 1205      616D416C 
 1205      6C6F6361 
 1205      74652228 
 1206 0016 0000     		.space	2
 1207              	.LC1:
 1208 0018 22646D61 		.ascii	"\"dmaStreamRelease\"()\000"
ARM GAS  /tmp/ccTeMzA3.s 			page 23


 1208      53747265 
 1208      616D5265 
 1208      6C656173 
 1208      65222829 
 1209 002d 000000   		.space	3
 1210              	.LC2:
 1211 0030 646D6153 		.ascii	"dmaStreamRelease(), #1\000"
 1211      74726561 
 1211      6D52656C 
 1211      65617365 
 1211      28292C20 
 1212 0047 00       		.section	.bss.dma_isr_redir,"aw",%nobits
 1213              		.align	2
 1214              		.set	.LANCHOR0,. + 0
 1215              		.type	dma_isr_redir, %object
 1216              		.size	dma_isr_redir, 128
 1217              	dma_isr_redir:
 1218 0000 00000000 		.space	128
 1218      00000000 
 1218      00000000 
 1218      00000000 
 1218      00000000 
 1219              		.section	.rodata._stm32_dma_streams,"a",%progbits
 1220              		.align	2
 1221              		.set	.LANCHOR2,. + 0
 1222              		.type	_stm32_dma_streams, %object
 1223              		.size	_stm32_dma_streams, 192
 1224              	_stm32_dma_streams:
 1225 0000 10600240 		.word	1073897488
 1226 0004 08600240 		.word	1073897480
 1227 0008 00       		.byte	0
 1228 0009 00       		.byte	0
 1229 000a 0B       		.byte	11
 1230 000b 00       		.space	1
 1231 000c 28600240 		.word	1073897512
 1232 0010 08600240 		.word	1073897480
 1233 0014 06       		.byte	6
 1234 0015 01       		.byte	1
 1235 0016 0C       		.byte	12
 1236 0017 00       		.space	1
 1237 0018 40600240 		.word	1073897536
 1238 001c 08600240 		.word	1073897480
 1239 0020 10       		.byte	16
 1240 0021 02       		.byte	2
 1241 0022 0D       		.byte	13
 1242 0023 00       		.space	1
 1243 0024 58600240 		.word	1073897560
 1244 0028 08600240 		.word	1073897480
 1245 002c 16       		.byte	22
 1246 002d 03       		.byte	3
 1247 002e 0E       		.byte	14
 1248 002f 00       		.space	1
 1249 0030 70600240 		.word	1073897584
 1250 0034 0C600240 		.word	1073897484
 1251 0038 00       		.byte	0
 1252 0039 04       		.byte	4
 1253 003a 0F       		.byte	15
ARM GAS  /tmp/ccTeMzA3.s 			page 24


 1254 003b 00       		.space	1
 1255 003c 88600240 		.word	1073897608
 1256 0040 0C600240 		.word	1073897484
 1257 0044 06       		.byte	6
 1258 0045 05       		.byte	5
 1259 0046 10       		.byte	16
 1260 0047 00       		.space	1
 1261 0048 A0600240 		.word	1073897632
 1262 004c 0C600240 		.word	1073897484
 1263 0050 10       		.byte	16
 1264 0051 06       		.byte	6
 1265 0052 11       		.byte	17
 1266 0053 00       		.space	1
 1267 0054 B8600240 		.word	1073897656
 1268 0058 0C600240 		.word	1073897484
 1269 005c 16       		.byte	22
 1270 005d 07       		.byte	7
 1271 005e 2F       		.byte	47
 1272 005f 00       		.space	1
 1273 0060 10640240 		.word	1073898512
 1274 0064 08640240 		.word	1073898504
 1275 0068 00       		.byte	0
 1276 0069 08       		.byte	8
 1277 006a 38       		.byte	56
 1278 006b 00       		.space	1
 1279 006c 28640240 		.word	1073898536
 1280 0070 08640240 		.word	1073898504
 1281 0074 06       		.byte	6
 1282 0075 09       		.byte	9
 1283 0076 39       		.byte	57
 1284 0077 00       		.space	1
 1285 0078 40640240 		.word	1073898560
 1286 007c 08640240 		.word	1073898504
 1287 0080 10       		.byte	16
 1288 0081 0A       		.byte	10
 1289 0082 3A       		.byte	58
 1290 0083 00       		.space	1
 1291 0084 58640240 		.word	1073898584
 1292 0088 08640240 		.word	1073898504
 1293 008c 16       		.byte	22
 1294 008d 0B       		.byte	11
 1295 008e 3B       		.byte	59
 1296 008f 00       		.space	1
 1297 0090 70640240 		.word	1073898608
 1298 0094 0C640240 		.word	1073898508
 1299 0098 00       		.byte	0
 1300 0099 0C       		.byte	12
 1301 009a 3C       		.byte	60
 1302 009b 00       		.space	1
 1303 009c 88640240 		.word	1073898632
 1304 00a0 0C640240 		.word	1073898508
 1305 00a4 06       		.byte	6
 1306 00a5 0D       		.byte	13
 1307 00a6 44       		.byte	68
 1308 00a7 00       		.space	1
 1309 00a8 A0640240 		.word	1073898656
 1310 00ac 0C640240 		.word	1073898508
ARM GAS  /tmp/ccTeMzA3.s 			page 25


 1311 00b0 10       		.byte	16
 1312 00b1 0E       		.byte	14
 1313 00b2 45       		.byte	69
 1314 00b3 00       		.space	1
 1315 00b4 B8640240 		.word	1073898680
 1316 00b8 0C640240 		.word	1073898508
 1317 00bc 16       		.byte	22
 1318 00bd 0F       		.byte	15
 1319 00be 46       		.byte	70
 1320 00bf 00       		.space	1
 1321              		.section	.bss.dma_streams_mask,"aw",%nobits
 1322              		.align	2
 1323              		.set	.LANCHOR1,. + 0
 1324              		.type	dma_streams_mask, %object
 1325              		.size	dma_streams_mask, 4
 1326              	dma_streams_mask:
 1327 0000 00000000 		.space	4
 1328              		.text
 1329              	.Letext0:
 1330              		.file 2 "/usr/include/newlib/machine/_default_types.h"
 1331              		.file 3 "/usr/include/newlib/stdint.h"
 1332              		.file 4 "../../../os/ports/GCC/ARMCMx/chtypes.h"
 1333              		.file 5 "../../../os/hal/platforms/STM32F4xx/stm32f4xx.h"
 1334              		.file 6 "../../../os/hal/platforms/STM32F4xx/stm32_dma.h"
 1335              		.file 7 "../../../os/ports/common/ARMCMx/CMSIS/include/core_cm4.h"
 1336              		.file 8 "../../../os/kernel/include/chdebug.h"
 1337              		.file 9 "../../../os/ports/GCC/ARMCMx/chcore_v7m.h"
 1338              		.file 10 "../../../os/ports/common/ARMCMx/nvic.h"