ARM GAS  /tmp/ccdpV52Q.s 			page 1


   1              		.syntax unified
   2              		.cpu cortex-m4
   3              		.fpu softvfp
   4              		.eabi_attribute 20, 1
   5              		.eabi_attribute 21, 1
   6              		.eabi_attribute 23, 3
   7              		.eabi_attribute 24, 1
   8              		.eabi_attribute 25, 1
   9              		.eabi_attribute 26, 1
  10              		.eabi_attribute 30, 2
  11              		.eabi_attribute 34, 1
  12              		.eabi_attribute 18, 4
  13              		.thumb
  14              		.file	"testthd.c"
  15              		.text
  16              	.Ltext0:
  17              		.cfi_sections	.debug_frame
  18              		.section	.text.thd1_execute,"ax",%progbits
  19              		.align	2
  20              		.p2align 4,,15
  21              		.thumb
  22              		.thumb_func
  23              		.type	thd1_execute, %function
  24              	thd1_execute:
  25              	.LFB8:
  26              		.file 1 "../../../test/testthd.c"
  27              		.loc 1 66 0
  28              		.cfi_startproc
  29              		@ args = 0, pretend = 0, frame = 0
  30              		@ frame_needed = 0, uses_anonymous_args = 0
  31 0000 F0B5     		push	{r4, r5, r6, r7, lr}
  32              		.cfi_def_cfa_offset 20
  33              		.cfi_offset 4, -20
  34              		.cfi_offset 5, -16
  35              		.cfi_offset 6, -12
  36              		.cfi_offset 7, -8
  37              		.cfi_offset 14, -4
  38              		.loc 1 68 0
  39 0002 40F20007 		movw	r7, #:lower16:rlist
  40 0006 C0F20007 		movt	r7, #:upper16:rlist
  41 000a 40F20006 		movw	r6, #:lower16:wa
  42 000e BB69     		ldr	r3, [r7, #24]
  43              		.loc 1 66 0
  44 0010 83B0     		sub	sp, sp, #12
  45              		.cfi_def_cfa_offset 32
  46              		.loc 1 68 0
  47 0012 C0F20006 		movt	r6, #:upper16:wa
  48 0016 9A68     		ldr	r2, [r3, #8]
  49 0018 3068     		ldr	r0, [r6]
  50 001a 40F20005 		movw	r5, #:lower16:thread
  51 001e 40F20001 		movw	r1, #:lower16:.LC0
  52 0022 C0F20005 		movt	r5, #:upper16:thread
  53 0026 C0F20001 		movt	r1, #:upper16:.LC0
  54 002a 2B46     		mov	r3, r5
  55 002c 0091     		str	r1, [sp]
  56 002e 053A     		subs	r2, r2, #5
  57 0030 4FF4A871 		mov	r1, #336
ARM GAS  /tmp/ccdpV52Q.s 			page 2


  58 0034 FFF7FEFF 		bl	chThdCreateStatic
  59              	.LVL0:
  60              		.loc 1 69 0
  61 0038 BA69     		ldr	r2, [r7, #24]
  62 003a 7368     		ldr	r3, [r6, #4]
  63 003c 9268     		ldr	r2, [r2, #8]
  64              		.loc 1 68 0
  65 003e 40F20004 		movw	r4, #:lower16:threads
  66 0042 C0F20004 		movt	r4, #:upper16:threads
  67              		.loc 1 69 0
  68 0046 40F20001 		movw	r1, #:lower16:.LC1
  69 004a C0F20001 		movt	r1, #:upper16:.LC1
  70              		.loc 1 68 0
  71 004e 2060     		str	r0, [r4]
  72              		.loc 1 69 0
  73 0050 0091     		str	r1, [sp]
  74 0052 043A     		subs	r2, r2, #4
  75 0054 1846     		mov	r0, r3
  76 0056 4FF4A871 		mov	r1, #336
  77 005a 2B46     		mov	r3, r5
  78 005c FFF7FEFF 		bl	chThdCreateStatic
  79              	.LVL1:
  80              		.loc 1 70 0
  81 0060 BA69     		ldr	r2, [r7, #24]
  82 0062 B368     		ldr	r3, [r6, #8]
  83 0064 9268     		ldr	r2, [r2, #8]
  84              		.loc 1 69 0
  85 0066 6060     		str	r0, [r4, #4]
  86              		.loc 1 70 0
  87 0068 40F20001 		movw	r1, #:lower16:.LC2
  88 006c C0F20001 		movt	r1, #:upper16:.LC2
  89 0070 0091     		str	r1, [sp]
  90 0072 033A     		subs	r2, r2, #3
  91 0074 1846     		mov	r0, r3
  92 0076 4FF4A871 		mov	r1, #336
  93 007a 2B46     		mov	r3, r5
  94 007c FFF7FEFF 		bl	chThdCreateStatic
  95              	.LVL2:
  96              		.loc 1 71 0
  97 0080 BA69     		ldr	r2, [r7, #24]
  98 0082 F368     		ldr	r3, [r6, #12]
  99 0084 9268     		ldr	r2, [r2, #8]
 100              		.loc 1 70 0
 101 0086 A060     		str	r0, [r4, #8]
 102              		.loc 1 71 0
 103 0088 40F20001 		movw	r1, #:lower16:.LC3
 104 008c C0F20001 		movt	r1, #:upper16:.LC3
 105 0090 0091     		str	r1, [sp]
 106 0092 023A     		subs	r2, r2, #2
 107 0094 1846     		mov	r0, r3
 108 0096 4FF4A871 		mov	r1, #336
 109 009a 2B46     		mov	r3, r5
 110 009c FFF7FEFF 		bl	chThdCreateStatic
 111              	.LVL3:
 112              		.loc 1 72 0
 113 00a0 BA69     		ldr	r2, [r7, #24]
 114 00a2 3369     		ldr	r3, [r6, #16]
ARM GAS  /tmp/ccdpV52Q.s 			page 3


 115 00a4 9268     		ldr	r2, [r2, #8]
 116              		.loc 1 71 0
 117 00a6 E060     		str	r0, [r4, #12]
 118              		.loc 1 72 0
 119 00a8 40F20001 		movw	r1, #:lower16:.LC4
 120 00ac C0F20001 		movt	r1, #:upper16:.LC4
 121 00b0 013A     		subs	r2, r2, #1
 122 00b2 0091     		str	r1, [sp]
 123 00b4 1846     		mov	r0, r3
 124 00b6 4FF4A871 		mov	r1, #336
 125 00ba 2B46     		mov	r3, r5
 126 00bc FFF7FEFF 		bl	chThdCreateStatic
 127              	.LVL4:
 128 00c0 2061     		str	r0, [r4, #16]
 129              		.loc 1 73 0
 130 00c2 FFF7FEFF 		bl	test_wait_threads
 131              	.LVL5:
 132              		.loc 1 74 0
 133 00c6 40F20001 		movw	r1, #:lower16:.LC5
 134 00ca C0F20001 		movt	r1, #:upper16:.LC5
 135 00ce 0120     		movs	r0, #1
 136              		.loc 1 75 0
 137 00d0 03B0     		add	sp, sp, #12
 138              		@ sp needed
 139 00d2 BDE8F040 		pop	{r4, r5, r6, r7, lr}
 140              		.loc 1 74 0
 141 00d6 FFF7FEBF 		b	_test_assert_sequence
 142              	.LVL6:
 143              		.cfi_endproc
 144              	.LFE8:
 145              		.size	thd1_execute, .-thd1_execute
 146 00da 00BFAFF3 		.section	.text.thread,"ax",%progbits
 146      0080
 147              		.align	2
 148              		.p2align 4,,15
 149              		.thumb
 150              		.thumb_func
 151              		.type	thread, %function
 152              	thread:
 153              	.LFB7:
 154              		.loc 1 60 0
 155              		.cfi_startproc
 156              		@ args = 0, pretend = 0, frame = 0
 157              		@ frame_needed = 0, uses_anonymous_args = 0
 158              	.LVL7:
 159 0000 08B5     		push	{r3, lr}
 160              		.cfi_def_cfa_offset 8
 161              		.cfi_offset 3, -8
 162              		.cfi_offset 14, -4
 163              		.loc 1 62 0
 164 0002 0078     		ldrb	r0, [r0]	@ zero_extendqisi2
 165              	.LVL8:
 166 0004 FFF7FEFF 		bl	test_emit_token
 167              	.LVL9:
 168              		.loc 1 64 0
 169 0008 0020     		movs	r0, #0
 170 000a 08BD     		pop	{r3, pc}
ARM GAS  /tmp/ccdpV52Q.s 			page 4


 171              		.cfi_endproc
 172              	.LFE7:
 173              		.size	thread, .-thread
 174 000c AFF30080 		.section	.text.thd2_execute,"ax",%progbits
 175              		.align	2
 176              		.p2align 4,,15
 177              		.thumb
 178              		.thumb_func
 179              		.type	thd2_execute, %function
 180              	thd2_execute:
 181              	.LFB9:
 182              		.loc 1 94 0
 183              		.cfi_startproc
 184              		@ args = 0, pretend = 0, frame = 0
 185              		@ frame_needed = 0, uses_anonymous_args = 0
 186 0000 F0B5     		push	{r4, r5, r6, r7, lr}
 187              		.cfi_def_cfa_offset 20
 188              		.cfi_offset 4, -20
 189              		.cfi_offset 5, -16
 190              		.cfi_offset 6, -12
 191              		.cfi_offset 7, -8
 192              		.cfi_offset 14, -4
 193              		.loc 1 96 0
 194 0002 40F20007 		movw	r7, #:lower16:rlist
 195 0006 C0F20007 		movt	r7, #:upper16:rlist
 196 000a 40F20006 		movw	r6, #:lower16:wa
 197 000e BB69     		ldr	r3, [r7, #24]
 198              		.loc 1 94 0
 199 0010 83B0     		sub	sp, sp, #12
 200              		.cfi_def_cfa_offset 32
 201              		.loc 1 96 0
 202 0012 C0F20006 		movt	r6, #:upper16:wa
 203 0016 9A68     		ldr	r2, [r3, #8]
 204 0018 7068     		ldr	r0, [r6, #4]
 205 001a 40F20005 		movw	r5, #:lower16:thread
 206 001e 40F20001 		movw	r1, #:lower16:.LC1
 207 0022 C0F20005 		movt	r5, #:upper16:thread
 208 0026 C0F20001 		movt	r1, #:upper16:.LC1
 209 002a 2B46     		mov	r3, r5
 210 002c 0091     		str	r1, [sp]
 211 002e 043A     		subs	r2, r2, #4
 212 0030 4FF4A871 		mov	r1, #336
 213 0034 FFF7FEFF 		bl	chThdCreateStatic
 214              	.LVL10:
 215              		.loc 1 97 0
 216 0038 BA69     		ldr	r2, [r7, #24]
 217 003a 3368     		ldr	r3, [r6]
 218 003c 9268     		ldr	r2, [r2, #8]
 219              		.loc 1 96 0
 220 003e 40F20004 		movw	r4, #:lower16:threads
 221 0042 C0F20004 		movt	r4, #:upper16:threads
 222              		.loc 1 97 0
 223 0046 40F20001 		movw	r1, #:lower16:.LC0
 224 004a C0F20001 		movt	r1, #:upper16:.LC0
 225              		.loc 1 96 0
 226 004e 6060     		str	r0, [r4, #4]
 227              		.loc 1 97 0
ARM GAS  /tmp/ccdpV52Q.s 			page 5


 228 0050 0091     		str	r1, [sp]
 229 0052 053A     		subs	r2, r2, #5
 230 0054 1846     		mov	r0, r3
 231 0056 4FF4A871 		mov	r1, #336
 232 005a 2B46     		mov	r3, r5
 233 005c FFF7FEFF 		bl	chThdCreateStatic
 234              	.LVL11:
 235              		.loc 1 98 0
 236 0060 BA69     		ldr	r2, [r7, #24]
 237 0062 3369     		ldr	r3, [r6, #16]
 238 0064 9268     		ldr	r2, [r2, #8]
 239              		.loc 1 97 0
 240 0066 2060     		str	r0, [r4]
 241              		.loc 1 98 0
 242 0068 40F20001 		movw	r1, #:lower16:.LC4
 243 006c C0F20001 		movt	r1, #:upper16:.LC4
 244 0070 0091     		str	r1, [sp]
 245 0072 013A     		subs	r2, r2, #1
 246 0074 1846     		mov	r0, r3
 247 0076 4FF4A871 		mov	r1, #336
 248 007a 2B46     		mov	r3, r5
 249 007c FFF7FEFF 		bl	chThdCreateStatic
 250              	.LVL12:
 251              		.loc 1 99 0
 252 0080 BA69     		ldr	r2, [r7, #24]
 253 0082 F368     		ldr	r3, [r6, #12]
 254 0084 9268     		ldr	r2, [r2, #8]
 255              		.loc 1 98 0
 256 0086 2061     		str	r0, [r4, #16]
 257              		.loc 1 99 0
 258 0088 40F20001 		movw	r1, #:lower16:.LC3
 259 008c C0F20001 		movt	r1, #:upper16:.LC3
 260 0090 0091     		str	r1, [sp]
 261 0092 023A     		subs	r2, r2, #2
 262 0094 1846     		mov	r0, r3
 263 0096 4FF4A871 		mov	r1, #336
 264 009a 2B46     		mov	r3, r5
 265 009c FFF7FEFF 		bl	chThdCreateStatic
 266              	.LVL13:
 267              	.LBB2:
 268              		.loc 1 101 0
 269 00a0 2023     		movs	r3, #32
 270              	.LBE2:
 271              		.loc 1 99 0
 272 00a2 E060     		str	r0, [r4, #12]
 273              	.LBB3:
 274              		.loc 1 101 0
 275              	@ 101 "../../../test/testthd.c" 1
 276 00a4 83F31188 		msr     BASEPRI, r3
 277              	@ 0 "" 2
 278              		.thumb
 279              	.LBE3:
 280 00a8 FFF7FEFF 		bl	dbg_check_lock
 281              	.LVL14:
 282              		.loc 1 102 0
 283 00ac 40F20002 		movw	r2, #:lower16:rlist
 284 00b0 C0F20002 		movt	r2, #:upper16:rlist
ARM GAS  /tmp/ccdpV52Q.s 			page 6


 285 00b4 40F20003 		movw	r3, #:lower16:wa
 286 00b8 9269     		ldr	r2, [r2, #24]
 287 00ba C0F20003 		movt	r3, #:upper16:wa
 288 00be 9268     		ldr	r2, [r2, #8]
 289 00c0 9868     		ldr	r0, [r3, #8]
 290 00c2 40F20001 		movw	r1, #:lower16:.LC2
 291 00c6 C0F20001 		movt	r1, #:upper16:.LC2
 292 00ca 40F20003 		movw	r3, #:lower16:thread
 293 00ce 033A     		subs	r2, r2, #3
 294 00d0 0091     		str	r1, [sp]
 295 00d2 C0F20003 		movt	r3, #:upper16:thread
 296 00d6 4FF4A871 		mov	r1, #336
 297 00da FFF7FEFF 		bl	chThdCreateI
 298              	.LVL15:
 299 00de 40F20003 		movw	r3, #:lower16:threads
 300 00e2 C0F20003 		movt	r3, #:upper16:threads
 301 00e6 9860     		str	r0, [r3, #8]
 302              		.loc 1 103 0
 303 00e8 FFF7FEFF 		bl	dbg_check_unlock
 304              	.LVL16:
 305              	.LBB4:
 306 00ec 0023     		movs	r3, #0
 307              	@ 103 "../../../test/testthd.c" 1
 308 00ee 83F31188 		msr     BASEPRI, r3
 309              	@ 0 "" 2
 310              		.thumb
 311              	.LBE4:
 312              		.loc 1 104 0
 313 00f2 40F20003 		movw	r3, #:lower16:threads
 314 00f6 C0F20003 		movt	r3, #:upper16:threads
 315 00fa 9868     		ldr	r0, [r3, #8]
 316 00fc FFF7FEFF 		bl	chThdResume
 317              	.LVL17:
 318              		.loc 1 105 0
 319 0100 FFF7FEFF 		bl	test_wait_threads
 320              	.LVL18:
 321              		.loc 1 106 0
 322 0104 40F20001 		movw	r1, #:lower16:.LC5
 323 0108 C0F20001 		movt	r1, #:upper16:.LC5
 324 010c 0120     		movs	r0, #1
 325              		.loc 1 107 0
 326 010e 03B0     		add	sp, sp, #12
 327              		@ sp needed
 328 0110 BDE8F040 		pop	{r4, r5, r6, r7, lr}
 329              		.loc 1 106 0
 330 0114 FFF7FEBF 		b	_test_assert_sequence
 331              	.LVL19:
 332              		.cfi_endproc
 333              	.LFE9:
 334              		.size	thd2_execute, .-thd2_execute
 335 0118 AFF30080 		.section	.text.thd3_execute,"ax",%progbits
 335      AFF30080 
 336              		.align	2
 337              		.p2align 4,,15
 338              		.thumb
 339              		.thumb_func
 340              		.type	thd3_execute, %function
ARM GAS  /tmp/ccdpV52Q.s 			page 7


 341              	thd3_execute:
 342              	.LFB10:
 343              		.loc 1 126 0
 344              		.cfi_startproc
 345              		@ args = 0, pretend = 0, frame = 0
 346              		@ frame_needed = 0, uses_anonymous_args = 0
 347 0000 F8B5     		push	{r3, r4, r5, r6, r7, lr}
 348              		.cfi_def_cfa_offset 24
 349              		.cfi_offset 3, -24
 350              		.cfi_offset 4, -20
 351              		.cfi_offset 5, -16
 352              		.cfi_offset 6, -12
 353              		.cfi_offset 7, -8
 354              		.cfi_offset 14, -4
 355              		.loc 1 129 0
 356 0002 40F20004 		movw	r4, #:lower16:rlist
 357 0006 C0F20004 		movt	r4, #:upper16:rlist
 358 000a A369     		ldr	r3, [r4, #24]
 359 000c 9D68     		ldr	r5, [r3, #8]
 360              	.LVL20:
 361              		.loc 1 130 0
 362 000e 6E1C     		adds	r6, r5, #1
 363 0010 3046     		mov	r0, r6
 364 0012 FFF7FEFF 		bl	chThdSetPriority
 365              	.LVL21:
 366              		.loc 1 131 0
 367 0016 B0EB050C 		subs	ip, r0, r5
 368 001a DCF10001 		rsbs	r1, ip, #0
 369              		.loc 1 130 0
 370 001e 0746     		mov	r7, r0
 371              	.LVL22:
 372              		.loc 1 131 0
 373 0020 51EB0C01 		adcs	r1, r1, ip
 374 0024 0120     		movs	r0, #1
 375              	.LVL23:
 376 0026 FFF7FEFF 		bl	_test_assert
 377              	.LVL24:
 378 002a 00B1     		cbz	r0, .L9
 379              	.LVL25:
 380              	.L4:
 381 002c F8BD     		pop	{r3, r4, r5, r6, r7, pc}
 382              	.LVL26:
 383              	.L9:
 384              		.loc 1 133 0
 385 002e A369     		ldr	r3, [r4, #24]
 386 0030 9968     		ldr	r1, [r3, #8]
 387 0032 B6EB010E 		subs	lr, r6, r1
 388 0036 DEF10001 		rsbs	r1, lr, #0
 389 003a 51EB0E01 		adcs	r1, r1, lr
 390 003e 0220     		movs	r0, #2
 391 0040 FFF7FEFF 		bl	_test_assert
 392              	.LVL27:
 393 0044 0028     		cmp	r0, #0
 394 0046 F1D1     		bne	.L4
 395              		.loc 1 135 0
 396 0048 3846     		mov	r0, r7
 397 004a FFF7FEFF 		bl	chThdSetPriority
ARM GAS  /tmp/ccdpV52Q.s 			page 8


 398              	.LVL28:
 399              		.loc 1 136 0
 400 004e 301A     		subs	r0, r6, r0
 401              	.LVL29:
 402 0050 4142     		rsbs	r1, r0, #0
 403 0052 4141     		adcs	r1, r1, r0
 404 0054 0320     		movs	r0, #3
 405 0056 FFF7FEFF 		bl	_test_assert
 406              	.LVL30:
 407 005a 0028     		cmp	r0, #0
 408 005c E6D1     		bne	.L4
 409              		.loc 1 138 0
 410 005e A369     		ldr	r3, [r4, #24]
 411 0060 9968     		ldr	r1, [r3, #8]
 412 0062 4A1B     		subs	r2, r1, r5
 413 0064 5142     		rsbs	r1, r2, #0
 414 0066 5141     		adcs	r1, r1, r2
 415 0068 0420     		movs	r0, #4
 416 006a FFF7FEFF 		bl	_test_assert
 417              	.LVL31:
 418 006e 0028     		cmp	r0, #0
 419 0070 DCD1     		bne	.L4
 420              	.LBB5:
 421              		.loc 1 143 0
 422 0072 2023     		movs	r3, #32
 423              	@ 143 "../../../test/testthd.c" 1
 424 0074 83F31188 		msr     BASEPRI, r3
 425              	@ 0 "" 2
 426              		.thumb
 427              	.LBE5:
 428 0078 FFF7FEFF 		bl	dbg_check_lock
 429              	.LVL32:
 430              		.loc 1 144 0
 431 007c A369     		ldr	r3, [r4, #24]
 432 007e 9A68     		ldr	r2, [r3, #8]
 433 0080 0232     		adds	r2, r2, #2
 434 0082 9A60     		str	r2, [r3, #8]
 435              		.loc 1 145 0
 436 0084 FFF7FEFF 		bl	dbg_check_unlock
 437              	.LVL33:
 438              	.LBB6:
 439 0088 0023     		movs	r3, #0
 440              	@ 145 "../../../test/testthd.c" 1
 441 008a 83F31188 		msr     BASEPRI, r3
 442              	@ 0 "" 2
 443              		.thumb
 444              	.LBE6:
 445              		.loc 1 146 0
 446 008e 40F20004 		movw	r4, #:lower16:rlist
 447 0092 C0F20004 		movt	r4, #:upper16:rlist
 448 0096 AF1C     		adds	r7, r5, #2
 449 0098 A369     		ldr	r3, [r4, #24]
 450 009a 9968     		ldr	r1, [r3, #8]
 451 009c CB1B     		subs	r3, r1, r7
 452 009e 5942     		rsbs	r1, r3, #0
 453 00a0 5941     		adcs	r1, r1, r3
 454 00a2 0520     		movs	r0, #5
ARM GAS  /tmp/ccdpV52Q.s 			page 9


 455 00a4 FFF7FEFF 		bl	_test_assert
 456              	.LVL34:
 457 00a8 0028     		cmp	r0, #0
 458 00aa BFD1     		bne	.L4
 459              		.loc 1 150 0
 460 00ac 3046     		mov	r0, r6
 461 00ae FFF7FEFF 		bl	chThdSetPriority
 462              	.LVL35:
 463              		.loc 1 151 0
 464 00b2 B0EB050C 		subs	ip, r0, r5
 465 00b6 DCF10001 		rsbs	r1, ip, #0
 466 00ba 51EB0C01 		adcs	r1, r1, ip
 467 00be 0620     		movs	r0, #6
 468              	.LVL36:
 469 00c0 FFF7FEFF 		bl	_test_assert
 470              	.LVL37:
 471 00c4 0028     		cmp	r0, #0
 472 00c6 B1D1     		bne	.L4
 473              		.loc 1 153 0
 474 00c8 A369     		ldr	r3, [r4, #24]
 475 00ca 9968     		ldr	r1, [r3, #8]
 476 00cc B7EB010E 		subs	lr, r7, r1
 477 00d0 DEF10001 		rsbs	r1, lr, #0
 478 00d4 51EB0E01 		adcs	r1, r1, lr
 479 00d8 0720     		movs	r0, #7
 480 00da FFF7FEFF 		bl	_test_assert
 481              	.LVL38:
 482 00de 0028     		cmp	r0, #0
 483 00e0 A4D1     		bne	.L4
 484              		.loc 1 155 0
 485 00e2 A369     		ldr	r3, [r4, #24]
 486 00e4 596C     		ldr	r1, [r3, #68]
 487 00e6 771A     		subs	r7, r6, r1
 488 00e8 7942     		rsbs	r1, r7, #0
 489 00ea 7941     		adcs	r1, r1, r7
 490 00ec 0820     		movs	r0, #8
 491 00ee FFF7FEFF 		bl	_test_assert
 492              	.LVL39:
 493 00f2 0028     		cmp	r0, #0
 494 00f4 9AD1     		bne	.L4
 495              		.loc 1 159 0
 496 00f6 EF1C     		adds	r7, r5, #3
 497 00f8 3846     		mov	r0, r7
 498 00fa FFF7FEFF 		bl	chThdSetPriority
 499              	.LVL40:
 500              		.loc 1 160 0
 501 00fe 301A     		subs	r0, r6, r0
 502              	.LVL41:
 503 0100 4142     		rsbs	r1, r0, #0
 504 0102 4141     		adcs	r1, r1, r0
 505 0104 0920     		movs	r0, #9
 506 0106 FFF7FEFF 		bl	_test_assert
 507              	.LVL42:
 508 010a 0028     		cmp	r0, #0
 509 010c 8ED1     		bne	.L4
 510              		.loc 1 162 0
 511 010e A369     		ldr	r3, [r4, #24]
ARM GAS  /tmp/ccdpV52Q.s 			page 10


 512 0110 9968     		ldr	r1, [r3, #8]
 513 0112 7A1A     		subs	r2, r7, r1
 514 0114 5142     		rsbs	r1, r2, #0
 515 0116 5141     		adcs	r1, r1, r2
 516 0118 0A20     		movs	r0, #10
 517 011a FFF7FEFF 		bl	_test_assert
 518              	.LVL43:
 519 011e 0028     		cmp	r0, #0
 520 0120 84D1     		bne	.L4
 521              		.loc 1 164 0
 522 0122 A369     		ldr	r3, [r4, #24]
 523 0124 596C     		ldr	r1, [r3, #68]
 524 0126 7B1A     		subs	r3, r7, r1
 525 0128 5942     		rsbs	r1, r3, #0
 526 012a 5941     		adcs	r1, r1, r3
 527 012c 0B20     		movs	r0, #11
 528 012e FFF7FEFF 		bl	_test_assert
 529              	.LVL44:
 530 0132 0028     		cmp	r0, #0
 531 0134 7FF47AAF 		bne	.L4
 532              	.LBB7:
 533              		.loc 1 167 0
 534 0138 2023     		movs	r3, #32
 535              	@ 167 "../../../test/testthd.c" 1
 536 013a 83F31188 		msr     BASEPRI, r3
 537              	@ 0 "" 2
 538              		.thumb
 539              	.LBE7:
 540 013e FFF7FEFF 		bl	dbg_check_lock
 541              	.LVL45:
 542              		.loc 1 168 0
 543 0142 A369     		ldr	r3, [r4, #24]
 544 0144 9D60     		str	r5, [r3, #8]
 545              		.loc 1 169 0
 546 0146 5D64     		str	r5, [r3, #68]
 547              		.loc 1 170 0
 548 0148 FFF7FEFF 		bl	dbg_check_unlock
 549              	.LVL46:
 550              	.LBB8:
 551 014c 0023     		movs	r3, #0
 552              	@ 170 "../../../test/testthd.c" 1
 553 014e 83F31188 		msr     BASEPRI, r3
 554              	@ 0 "" 2
 555              		.thumb
 556 0152 6BE7     		b	.L4
 557              	.LBE8:
 558              		.cfi_endproc
 559              	.LFE10:
 560              		.size	thd3_execute, .-thd3_execute
 561 0154 AFF30080 		.section	.text.thd4_execute,"ax",%progbits
 561      AFF30080 
 561      AFF30080 
 562              		.align	2
 563              		.p2align 4,,15
 564              		.thumb
 565              		.thumb_func
 566              		.type	thd4_execute, %function
ARM GAS  /tmp/ccdpV52Q.s 			page 11


 567              	thd4_execute:
 568              	.LFB11:
 569              		.loc 1 189 0
 570              		.cfi_startproc
 571              		@ args = 0, pretend = 0, frame = 0
 572              		@ frame_needed = 0, uses_anonymous_args = 0
 573 0000 38B5     		push	{r3, r4, r5, lr}
 574              		.cfi_def_cfa_offset 16
 575              		.cfi_offset 3, -16
 576              		.cfi_offset 4, -12
 577              		.cfi_offset 5, -8
 578              		.cfi_offset 14, -4
 579              		.loc 1 195 0
 580 0002 40F20004 		movw	r4, #:lower16:vtlist
 581 0006 C0F20004 		movt	r4, #:upper16:vtlist
 582              		.loc 1 192 0
 583 000a FFF7FEFF 		bl	test_wait_tick
 584              	.LVL47:
 585              		.loc 1 195 0
 586 000e E568     		ldr	r5, [r4, #12]
 587              	.LVL48:
 588              		.loc 1 196 0
 589 0010 6420     		movs	r0, #100
 590 0012 FFF7FEFF 		bl	chThdSleep
 591              	.LVL49:
 592              		.loc 1 197 0
 593 0016 05F16401 		add	r1, r5, #100
 594 001a 05F16502 		add	r2, r5, #101
 595 001e 0120     		movs	r0, #1
 596 0020 FFF7FEFF 		bl	_test_assert_time_window
 597              	.LVL50:
 598 0024 00B1     		cbz	r0, .L14
 599              	.LVL51:
 600              	.L10:
 601 0026 38BD     		pop	{r3, r4, r5, pc}
 602              	.LVL52:
 603              	.L14:
 604              		.loc 1 200 0
 605 0028 E568     		ldr	r5, [r4, #12]
 606              	.LVL53:
 607              		.loc 1 201 0
 608 002a 6420     		movs	r0, #100
 609 002c FFF7FEFF 		bl	chThdSleep
 610              	.LVL54:
 611              		.loc 1 202 0
 612 0030 05F16401 		add	r1, r5, #100
 613 0034 05F16502 		add	r2, r5, #101
 614 0038 0220     		movs	r0, #2
 615 003a FFF7FEFF 		bl	_test_assert_time_window
 616              	.LVL55:
 617 003e 0028     		cmp	r0, #0
 618 0040 F1D1     		bne	.L10
 619              	.LBB11:
 620              	.LBB12:
 621              		.loc 1 205 0
 622 0042 E568     		ldr	r5, [r4, #12]
 623              	.LVL56:
ARM GAS  /tmp/ccdpV52Q.s 			page 12


 624              		.loc 1 206 0
 625 0044 4FF47A70 		mov	r0, #1000
 626 0048 FFF7FEFF 		bl	chThdSleep
 627              	.LVL57:
 628              		.loc 1 207 0
 629 004c 05F57A71 		add	r1, r5, #1000
 630 0050 05F2E932 		addw	r2, r5, #1001
 631 0054 0320     		movs	r0, #3
 632 0056 FFF7FEFF 		bl	_test_assert_time_window
 633              	.LVL58:
 634 005a 0028     		cmp	r0, #0
 635 005c E3D1     		bne	.L10
 636              		.loc 1 210 0
 637 005e E468     		ldr	r4, [r4, #12]
 638 0060 04F16405 		add	r5, r4, #100
 639              	.LVL59:
 640              		.loc 1 211 0
 641 0064 2846     		mov	r0, r5
 642 0066 FFF7FEFF 		bl	chThdSleepUntil
 643              	.LVL60:
 644              		.loc 1 212 0
 645 006a 2946     		mov	r1, r5
 646 006c 04F16502 		add	r2, r4, #101
 647 0070 0420     		movs	r0, #4
 648              	.LBE12:
 649              	.LBE11:
 650              		.loc 1 213 0
 651 0072 BDE83840 		pop	{r3, r4, r5, lr}
 652              	.LVL61:
 653              	.LBB14:
 654              	.LBB13:
 655              		.loc 1 212 0
 656 0076 FFF7FEBF 		b	_test_assert_time_window
 657              	.LVL62:
 658              	.LBE13:
 659              	.LBE14:
 660              		.cfi_endproc
 661              	.LFE11:
 662              		.size	thd4_execute, .-thd4_execute
 663              		.global	patternthd
 664              		.global	testthd4
 665              		.global	testthd3
 666              		.global	testthd2
 667              		.global	testthd1
 668 007a 00BFAFF3 		.section	.rodata.testthd1,"a",%progbits
 668      0080
 669              		.align	2
 670              		.type	testthd1, %object
 671              		.size	testthd1, 16
 672              	testthd1:
 673 0000 64000000 		.word	.LC9
 674 0004 00000000 		.word	0
 675 0008 00000000 		.word	0
 676 000c 00000000 		.word	thd1_execute
 677              		.section	.rodata.testthd2,"a",%progbits
 678              		.align	2
 679              		.type	testthd2, %object
ARM GAS  /tmp/ccdpV52Q.s 			page 13


 680              		.size	testthd2, 16
 681              	testthd2:
 682 0000 48000000 		.word	.LC8
 683 0004 00000000 		.word	0
 684 0008 00000000 		.word	0
 685 000c 00000000 		.word	thd2_execute
 686              		.section	.rodata.testthd3,"a",%progbits
 687              		.align	2
 688              		.type	testthd3, %object
 689              		.size	testthd3, 16
 690              	testthd3:
 691 0000 2C000000 		.word	.LC7
 692 0004 00000000 		.word	0
 693 0008 00000000 		.word	0
 694 000c 00000000 		.word	thd3_execute
 695              		.section	.rodata.testthd4,"a",%progbits
 696              		.align	2
 697              		.type	testthd4, %object
 698              		.size	testthd4, 16
 699              	testthd4:
 700 0000 1C000000 		.word	.LC6
 701 0004 00000000 		.word	0
 702 0008 00000000 		.word	0
 703 000c 00000000 		.word	thd4_execute
 704              		.section	.rodata.patternthd,"a",%progbits
 705              		.align	2
 706              		.type	patternthd, %object
 707              		.size	patternthd, 20
 708              	patternthd:
 709 0000 00000000 		.word	testthd1
 710 0004 00000000 		.word	testthd2
 711 0008 00000000 		.word	testthd3
 712 000c 00000000 		.word	testthd4
 713 0010 00000000 		.word	0
 714              		.section	.rodata.str1.4,"aMS",%progbits,1
 715              		.align	2
 716              	.LC0:
 717 0000 4500     		.ascii	"E\000"
 718 0002 0000     		.space	2
 719              	.LC1:
 720 0004 4400     		.ascii	"D\000"
 721 0006 0000     		.space	2
 722              	.LC2:
 723 0008 4300     		.ascii	"C\000"
 724 000a 0000     		.space	2
 725              	.LC3:
 726 000c 4200     		.ascii	"B\000"
 727 000e 0000     		.space	2
 728              	.LC4:
 729 0010 4100     		.ascii	"A\000"
 730 0012 0000     		.space	2
 731              	.LC5:
 732 0014 41424344 		.ascii	"ABCDE\000"
 732      4500
 733 001a 0000     		.space	2
 734              	.LC6:
 735 001c 54687265 		.ascii	"Threads, delays\000"
ARM GAS  /tmp/ccdpV52Q.s 			page 14


 735      6164732C 
 735      2064656C 
 735      61797300 
 736              	.LC7:
 737 002c 54687265 		.ascii	"Threads, priority change\000"
 737      6164732C 
 737      20707269 
 737      6F726974 
 737      79206368 
 738 0045 000000   		.space	3
 739              	.LC8:
 740 0048 54687265 		.ascii	"Threads, enqueuing test #2\000"
 740      6164732C 
 740      20656E71 
 740      75657569 
 740      6E672074 
 741 0063 00       		.space	1
 742              	.LC9:
 743 0064 54687265 		.ascii	"Threads, enqueuing test #1\000"
 743      6164732C 
 743      20656E71 
 743      75657569 
 743      6E672074 
 744 007f 00       		.text
 745              	.Letext0:
 746              		.file 2 "/usr/lib/gcc/arm-none-eabi/4.8.2/include/stddef.h"
 747              		.file 3 "/usr/include/newlib/machine/_default_types.h"
 748              		.file 4 "/usr/include/newlib/stdint.h"
 749              		.file 5 "../../../os/ports/GCC/ARMCMx/chtypes.h"
 750              		.file 6 "../../../os/kernel/include/chlists.h"
 751              		.file 7 "../../../os/kernel/include/chthreads.h"
 752              		.file 8 "../../../os/ports/GCC/ARMCMx/chcore_v7m.h"
 753              		.file 9 "../../../os/kernel/include/chvt.h"
 754              		.file 10 "../../../os/kernel/include/chschd.h"
 755              		.file 11 "../../../os/kernel/include/chmtx.h"
 756              		.file 12 "../../../test/test.h"
 757              		.file 13 "../../../os/kernel/include/chdebug.h"