ARM GAS  /tmp/ccRI9SvM.s 			page 1


   1              		.syntax unified
   2              		.cpu cortex-m4
   3              		.fpu softvfp
   4              		.eabi_attribute 20, 1
   5              		.eabi_attribute 21, 1
   6              		.eabi_attribute 23, 3
   7              		.eabi_attribute 24, 1
   8              		.eabi_attribute 25, 1
   9              		.eabi_attribute 26, 1
  10              		.eabi_attribute 30, 2
  11              		.eabi_attribute 34, 1
  12              		.eabi_attribute 18, 4
  13              		.thumb
  14              		.file	"testqueues.c"
  15              		.text
  16              	.Ltext0:
  17              		.cfi_sections	.debug_frame
  18              		.section	.text.notify,"ax",%progbits
  19              		.align	2
  20              		.p2align 4,,15
  21              		.thumb
  22              		.thumb_func
  23              		.type	notify, %function
  24              	notify:
  25              	.LFB7:
  26              		.file 1 "../../../test/testqueues.c"
  27              		.loc 1 57 0
  28              		.cfi_startproc
  29              		@ args = 0, pretend = 0, frame = 0
  30              		@ frame_needed = 0, uses_anonymous_args = 0
  31              		@ link register save eliminated.
  32              	.LVL0:
  33 0000 7047     		bx	lr
  34              		.cfi_endproc
  35              	.LFE7:
  36              		.size	notify, .-notify
  37 0002 00BFAFF3 		.section	.text.thread1,"ax",%progbits
  37      0080AFF3 
  37      0080AFF3 
  37      0080
  38              		.align	2
  39              		.p2align 4,,15
  40              		.thumb
  41              		.thumb_func
  42              		.type	thread1, %function
  43              	thread1:
  44              	.LFB9:
  45              		.loc 1 83 0
  46              		.cfi_startproc
  47              		@ args = 0, pretend = 0, frame = 0
  48              		@ frame_needed = 0, uses_anonymous_args = 0
  49              	.LVL1:
  50              		.loc 1 83 0
  51 0000 08B5     		push	{r3, lr}
  52              		.cfi_def_cfa_offset 8
  53              		.cfi_offset 3, -8
  54              		.cfi_offset 14, -4
ARM GAS  /tmp/ccRI9SvM.s 			page 2


  55              		.loc 1 86 0
  56 0002 40F20000 		movw	r0, #:lower16:.LANCHOR0
  57              	.LVL2:
  58 0006 C821     		movs	r1, #200
  59 0008 C0F20000 		movt	r0, #:upper16:.LANCHOR0
  60 000c FFF7FEFF 		bl	chIQGetTimeout
  61              	.LVL3:
  62              		.loc 1 88 0
  63 0010 0020     		movs	r0, #0
  64 0012 08BD     		pop	{r3, pc}
  65              		.cfi_endproc
  66              	.LFE9:
  67              		.size	thread1, .-thread1
  68 0014 AFF30080 		.section	.text.queues1_setup,"ax",%progbits
  68      AFF30080 
  68      AFF30080 
  69              		.align	2
  70              		.p2align 4,,15
  71              		.thumb
  72              		.thumb_func
  73              		.type	queues1_setup, %function
  74              	queues1_setup:
  75              	.LFB8:
  76              		.loc 1 78 0
  77              		.cfi_startproc
  78              		@ args = 0, pretend = 0, frame = 0
  79              		@ frame_needed = 0, uses_anonymous_args = 0
  80 0000 00B5     		push	{lr}
  81              		.cfi_def_cfa_offset 4
  82              		.cfi_offset 14, -4
  83              		.loc 1 80 0
  84 0002 40F20003 		movw	r3, #:lower16:wa
  85 0006 C0F20003 		movt	r3, #:upper16:wa
  86              		.loc 1 78 0
  87 000a 83B0     		sub	sp, sp, #12
  88              		.cfi_def_cfa_offset 16
  89              		.loc 1 80 0
  90 000c 1968     		ldr	r1, [r3]
  91 000e 0022     		movs	r2, #0
  92 0010 40F20000 		movw	r0, #:lower16:.LANCHOR0
  93 0014 40F20003 		movw	r3, #:lower16:notify
  94 0018 0092     		str	r2, [sp]
  95 001a C0F20000 		movt	r0, #:upper16:.LANCHOR0
  96 001e C0F20003 		movt	r3, #:upper16:notify
  97 0022 0422     		movs	r2, #4
  98 0024 FFF7FEFF 		bl	chIQInit
  99              	.LVL4:
 100              		.loc 1 81 0
 101 0028 03B0     		add	sp, sp, #12
 102              		@ sp needed
 103 002a 5DF804FB 		ldr	pc, [sp], #4
 104              		.cfi_endproc
 105              	.LFE8:
 106              		.size	queues1_setup, .-queues1_setup
 107 002e 00BF     		.section	.text.thread2,"ax",%progbits
 108              		.align	2
 109              		.p2align 4,,15
ARM GAS  /tmp/ccRI9SvM.s 			page 3


 110              		.thumb
 111              		.thumb_func
 112              		.type	thread2, %function
 113              	thread2:
 114              	.LFB12:
 115              		.loc 1 170 0
 116              		.cfi_startproc
 117              		@ args = 0, pretend = 0, frame = 0
 118              		@ frame_needed = 0, uses_anonymous_args = 0
 119              	.LVL5:
 120 0000 08B5     		push	{r3, lr}
 121              		.cfi_def_cfa_offset 8
 122              		.cfi_offset 3, -8
 123              		.cfi_offset 14, -4
 124              		.loc 1 173 0
 125 0002 40F20000 		movw	r0, #:lower16:.LANCHOR1
 126              	.LVL6:
 127 0006 0021     		movs	r1, #0
 128 0008 C822     		movs	r2, #200
 129 000a C0F20000 		movt	r0, #:upper16:.LANCHOR1
 130 000e FFF7FEFF 		bl	chOQPutTimeout
 131              	.LVL7:
 132              		.loc 1 175 0
 133 0012 0020     		movs	r0, #0
 134 0014 08BD     		pop	{r3, pc}
 135              		.cfi_endproc
 136              	.LFE12:
 137              		.size	thread2, .-thread2
 138 0016 00BFAFF3 		.section	.text.queues2_setup,"ax",%progbits
 138      0080AFF3 
 138      0080
 139              		.align	2
 140              		.p2align 4,,15
 141              		.thumb
 142              		.thumb_func
 143              		.type	queues2_setup, %function
 144              	queues2_setup:
 145              	.LFB11:
 146              		.loc 1 165 0
 147              		.cfi_startproc
 148              		@ args = 0, pretend = 0, frame = 0
 149              		@ frame_needed = 0, uses_anonymous_args = 0
 150 0000 00B5     		push	{lr}
 151              		.cfi_def_cfa_offset 4
 152              		.cfi_offset 14, -4
 153              		.loc 1 167 0
 154 0002 40F20003 		movw	r3, #:lower16:wa
 155 0006 C0F20003 		movt	r3, #:upper16:wa
 156              		.loc 1 165 0
 157 000a 83B0     		sub	sp, sp, #12
 158              		.cfi_def_cfa_offset 16
 159              		.loc 1 167 0
 160 000c 1968     		ldr	r1, [r3]
 161 000e 0022     		movs	r2, #0
 162 0010 40F20000 		movw	r0, #:lower16:.LANCHOR1
 163 0014 40F20003 		movw	r3, #:lower16:notify
 164 0018 0092     		str	r2, [sp]
ARM GAS  /tmp/ccRI9SvM.s 			page 4


 165 001a C0F20000 		movt	r0, #:upper16:.LANCHOR1
 166 001e C0F20003 		movt	r3, #:upper16:notify
 167 0022 0422     		movs	r2, #4
 168 0024 FFF7FEFF 		bl	chOQInit
 169              	.LVL8:
 170              		.loc 1 168 0
 171 0028 03B0     		add	sp, sp, #12
 172              		@ sp needed
 173 002a 5DF804FB 		ldr	pc, [sp], #4
 174              		.cfi_endproc
 175              	.LFE11:
 176              		.size	queues2_setup, .-queues2_setup
 177 002e 00BF     		.section	.text.queues1_execute,"ax",%progbits
 178              		.align	2
 179              		.p2align 4,,15
 180              		.thumb
 181              		.thumb_func
 182              		.type	queues1_execute, %function
 183              	queues1_execute:
 184              	.LFB10:
 185              		.loc 1 90 0
 186              		.cfi_startproc
 187              		@ args = 0, pretend = 0, frame = 0
 188              		@ frame_needed = 0, uses_anonymous_args = 0
 189 0000 70B5     		push	{r4, r5, r6, lr}
 190              		.cfi_def_cfa_offset 16
 191              		.cfi_offset 4, -16
 192              		.cfi_offset 5, -12
 193              		.cfi_offset 6, -8
 194              		.cfi_offset 14, -4
 195              	.LBB99:
 196              		.loc 1 95 0
 197 0002 2023     		movs	r3, #32
 198              	.LBE99:
 199              		.loc 1 90 0
 200 0004 82B0     		sub	sp, sp, #8
 201              		.cfi_def_cfa_offset 24
 202              	.LBB100:
 203              		.loc 1 95 0
 204              	@ 95 "../../../test/testqueues.c" 1
 205 0006 83F31188 		msr     BASEPRI, r3
 206              	@ 0 "" 2
 207              		.thumb
 208              	.LBE100:
 209 000a 40F20005 		movw	r5, #:lower16:.LANCHOR0
 210 000e C0F20005 		movt	r5, #:upper16:.LANCHOR0
 211 0012 FFF7FEFF 		bl	dbg_check_lock
 212              	.LVL9:
 213 0016 A968     		ldr	r1, [r5, #8]
 214 0018 D1F10101 		rsbs	r1, r1, #1
 215 001c 4FF00100 		mov	r0, #1
 216 0020 38BF     		it	cc
 217 0022 0021     		movcc	r1, #0
 218 0024 FFF7FEFF 		bl	_test_assert
 219              	.LVL10:
 220 0028 0646     		mov	r6, r0
 221 002a 0028     		cmp	r0, #0
ARM GAS  /tmp/ccRI9SvM.s 			page 5


 222 002c 40F07F81 		bne	.L27
 223              	.LBB101:
 224              	.LBB102:
 225 0030 FFF7FEFF 		bl	dbg_check_unlock
 226              	.LVL11:
 227              	.LBB103:
 228 0034 3346     		mov	r3, r6
 229              	@ 95 "../../../test/testqueues.c" 1
 230 0036 83F31188 		msr     BASEPRI, r3
 231              	@ 0 "" 2
 232              		.thumb
 233              	.LBE103:
 234              	.LBB104:
 235              		.loc 1 98 0
 236 003a 2023     		movs	r3, #32
 237              	@ 98 "../../../test/testqueues.c" 1
 238 003c 83F31188 		msr     BASEPRI, r3
 239              	@ 0 "" 2
 240              		.thumb
 241              	.LBE104:
 242 0040 FFF7FEFF 		bl	dbg_check_lock
 243              	.LVL12:
 244 0044 4124     		movs	r4, #65
 245              	.LVL13:
 246              	.L10:
 247              		.loc 1 100 0
 248 0046 2146     		mov	r1, r4
 249 0048 40F20000 		movw	r0, #:lower16:.LANCHOR0
 250 004c 0134     		adds	r4, r4, #1
 251 004e C0F20000 		movt	r0, #:upper16:.LANCHOR0
 252 0052 E4B2     		uxtb	r4, r4
 253 0054 FFF7FEFF 		bl	chIQPutI
 254              	.LVL14:
 255              		.loc 1 99 0
 256 0058 452C     		cmp	r4, #69
 257 005a F4D1     		bne	.L10
 258              		.loc 1 101 0
 259 005c FFF7FEFF 		bl	dbg_check_unlock
 260              	.LVL15:
 261              	.LBB105:
 262 0060 0023     		movs	r3, #0
 263              	@ 101 "../../../test/testqueues.c" 1
 264 0062 83F31188 		msr     BASEPRI, r3
 265              	@ 0 "" 2
 266              		.thumb
 267              	.LBE105:
 268              	.LBB106:
 269              		.loc 1 102 0
 270 0066 2023     		movs	r3, #32
 271              	@ 102 "../../../test/testqueues.c" 1
 272 0068 83F31188 		msr     BASEPRI, r3
 273              	@ 0 "" 2
 274              		.thumb
 275              	.LBE106:
 276 006c FFF7FEFF 		bl	dbg_check_lock
 277              	.LVL16:
 278 0070 6969     		ldr	r1, [r5, #20]
ARM GAS  /tmp/ccRI9SvM.s 			page 6


 279 0072 AA69     		ldr	r2, [r5, #24]
 280 0074 40F20003 		movw	r3, #:lower16:.LANCHOR0
 281 0078 9142     		cmp	r1, r2
 282 007a C0F20003 		movt	r3, #:upper16:.LANCHOR0
 283 007e 00F05D81 		beq	.L29
 284              	.L11:
 285 0082 3146     		mov	r1, r6
 286 0084 0220     		movs	r0, #2
 287 0086 FFF7FEFF 		bl	_test_assert
 288              	.LVL17:
 289 008a 0446     		mov	r4, r0
 290 008c 0028     		cmp	r0, #0
 291 008e 40F04E81 		bne	.L27
 292 0092 FFF7FEFF 		bl	dbg_check_unlock
 293              	.LVL18:
 294              	.LBB107:
 295 0096 2346     		mov	r3, r4
 296              	@ 102 "../../../test/testqueues.c" 1
 297 0098 83F31188 		msr     BASEPRI, r3
 298              	@ 0 "" 2
 299              		.thumb
 300              	.LBE107:
 301              	.LBB108:
 302              		.loc 1 103 0
 303 009c 2023     		movs	r3, #32
 304              	@ 103 "../../../test/testqueues.c" 1
 305 009e 83F31188 		msr     BASEPRI, r3
 306              	@ 0 "" 2
 307              		.thumb
 308              	.LBE108:
 309 00a2 FFF7FEFF 		bl	dbg_check_lock
 310              	.LVL19:
 311 00a6 40F20000 		movw	r0, #:lower16:.LANCHOR0
 312 00aa 0021     		movs	r1, #0
 313 00ac C0F20000 		movt	r0, #:upper16:.LANCHOR0
 314 00b0 FFF7FEFF 		bl	chIQPutI
 315              	.LVL20:
 316 00b4 0430     		adds	r0, r0, #4
 317 00b6 14BF     		ite	ne
 318 00b8 0021     		movne	r1, #0
 319 00ba 0121     		moveq	r1, #1
 320 00bc 0320     		movs	r0, #3
 321 00be FFF7FEFF 		bl	_test_assert
 322              	.LVL21:
 323 00c2 0446     		mov	r4, r0
 324 00c4 0028     		cmp	r0, #0
 325 00c6 40F03281 		bne	.L27
 326 00ca FFF7FEFF 		bl	dbg_check_unlock
 327              	.LVL22:
 328              	.LBB109:
 329 00ce 2346     		mov	r3, r4
 330              	@ 103 "../../../test/testqueues.c" 1
 331 00d0 83F31188 		msr     BASEPRI, r3
 332              	@ 0 "" 2
 333              	.LVL23:
 334              		.thumb
 335 00d4 0424     		movs	r4, #4
ARM GAS  /tmp/ccRI9SvM.s 			page 7


 336              	.LVL24:
 337              	.L15:
 338              	.LBE109:
 339              		.loc 1 107 0
 340 00d6 40F20000 		movw	r0, #:lower16:.LANCHOR0
 341 00da 4FF0FF31 		mov	r1, #-1
 342 00de C0F20000 		movt	r0, #:upper16:.LANCHOR0
 343 00e2 FFF7FEFF 		bl	chIQGetTimeout
 344              	.LVL25:
 345 00e6 C0B2     		uxtb	r0, r0
 346 00e8 FFF7FEFF 		bl	test_emit_token
 347              	.LVL26:
 348              		.loc 1 106 0
 349 00ec 013C     		subs	r4, r4, #1
 350              	.LVL27:
 351 00ee F2D1     		bne	.L15
 352              	.LBB110:
 353              		.loc 1 108 0
 354 00f0 2023     		movs	r3, #32
 355              	@ 108 "../../../test/testqueues.c" 1
 356 00f2 83F31188 		msr     BASEPRI, r3
 357              	@ 0 "" 2
 358              		.thumb
 359              	.LBE110:
 360 00f6 FFF7FEFF 		bl	dbg_check_lock
 361              	.LVL28:
 362 00fa A968     		ldr	r1, [r5, #8]
 363 00fc D1F10101 		rsbs	r1, r1, #1
 364 0100 4FF00400 		mov	r0, #4
 365 0104 38BF     		it	cc
 366 0106 0021     		movcc	r1, #0
 367 0108 FFF7FEFF 		bl	_test_assert
 368              	.LVL29:
 369 010c 0446     		mov	r4, r0
 370              	.LVL30:
 371 010e 0028     		cmp	r0, #0
 372 0110 40F00D81 		bne	.L27
 373 0114 FFF7FEFF 		bl	dbg_check_unlock
 374              	.LVL31:
 375              	.LBB111:
 376 0118 2346     		mov	r3, r4
 377              	@ 108 "../../../test/testqueues.c" 1
 378 011a 83F31188 		msr     BASEPRI, r3
 379              	@ 0 "" 2
 380              		.thumb
 381              	.LBE111:
 382              		.loc 1 109 0
 383 011e 40F20001 		movw	r1, #:lower16:.LC0
 384 0122 C0F20001 		movt	r1, #:upper16:.LC0
 385 0126 0520     		movs	r0, #5
 386 0128 FFF7FEFF 		bl	_test_assert_sequence
 387              	.LVL32:
 388 012c 0028     		cmp	r0, #0
 389 012e 40F00381 		bne	.L6
 390              	.LBB112:
 391              		.loc 1 112 0
 392 0132 2023     		movs	r3, #32
ARM GAS  /tmp/ccRI9SvM.s 			page 8


 393              	@ 112 "../../../test/testqueues.c" 1
 394 0134 83F31188 		msr     BASEPRI, r3
 395              	@ 0 "" 2
 396              		.thumb
 397              	.LBE112:
 398 0138 FFF7FEFF 		bl	dbg_check_lock
 399              	.LVL33:
 400 013c 4124     		movs	r4, #65
 401              	.LVL34:
 402              	.L19:
 403              		.loc 1 114 0
 404 013e 2146     		mov	r1, r4
 405 0140 40F20000 		movw	r0, #:lower16:.LANCHOR0
 406 0144 0134     		adds	r4, r4, #1
 407 0146 C0F20000 		movt	r0, #:upper16:.LANCHOR0
 408 014a E4B2     		uxtb	r4, r4
 409 014c FFF7FEFF 		bl	chIQPutI
 410              	.LVL35:
 411              		.loc 1 113 0
 412 0150 452C     		cmp	r4, #69
 413 0152 F4D1     		bne	.L19
 414              		.loc 1 115 0
 415 0154 FFF7FEFF 		bl	dbg_check_unlock
 416              	.LVL36:
 417              	.LBB113:
 418 0158 0023     		movs	r3, #0
 419              	@ 115 "../../../test/testqueues.c" 1
 420 015a 83F31188 		msr     BASEPRI, r3
 421              	@ 0 "" 2
 422              		.thumb
 423              	.LBE113:
 424              		.loc 1 118 0
 425 015e 40F20004 		movw	r4, #:lower16:wa
 426 0162 C0F20004 		movt	r4, #:upper16:wa
 427 0166 40F20000 		movw	r0, #:lower16:.LANCHOR0
 428 016a 6168     		ldr	r1, [r4, #4]
 429 016c C0F20000 		movt	r0, #:upper16:.LANCHOR0
 430 0170 0822     		movs	r2, #8
 431 0172 FFF7FEFF 		bl	chIQReadTimeout
 432              	.LVL37:
 433              		.loc 1 119 0
 434 0176 061F     		subs	r6, r0, #4
 435 0178 7142     		rsbs	r1, r6, #0
 436 017a 7141     		adcs	r1, r1, r6
 437 017c 0620     		movs	r0, #6
 438              	.LVL38:
 439 017e FFF7FEFF 		bl	_test_assert
 440              	.LVL39:
 441 0182 0028     		cmp	r0, #0
 442 0184 40F0D880 		bne	.L6
 443              	.LBB114:
 444              		.loc 1 120 0
 445 0188 2023     		movs	r3, #32
 446              	@ 120 "../../../test/testqueues.c" 1
 447 018a 83F31188 		msr     BASEPRI, r3
 448              	@ 0 "" 2
 449              		.thumb
ARM GAS  /tmp/ccRI9SvM.s 			page 9


 450              	.LBE114:
 451 018e FFF7FEFF 		bl	dbg_check_lock
 452              	.LVL40:
 453 0192 A968     		ldr	r1, [r5, #8]
 454 0194 D1F10101 		rsbs	r1, r1, #1
 455 0198 4FF00700 		mov	r0, #7
 456 019c 38BF     		it	cc
 457 019e 0021     		movcc	r1, #0
 458 01a0 FFF7FEFF 		bl	_test_assert
 459              	.LVL41:
 460 01a4 0646     		mov	r6, r0
 461              	.LVL42:
 462 01a6 0028     		cmp	r0, #0
 463 01a8 40F0C180 		bne	.L27
 464 01ac FFF7FEFF 		bl	dbg_check_unlock
 465              	.LVL43:
 466              	.LBB115:
 467 01b0 3346     		mov	r3, r6
 468              	@ 120 "../../../test/testqueues.c" 1
 469 01b2 83F31188 		msr     BASEPRI, r3
 470              	@ 0 "" 2
 471              		.thumb
 472              	.LBE115:
 473              	.LBB116:
 474              		.loc 1 123 0
 475 01b6 2023     		movs	r3, #32
 476              	@ 123 "../../../test/testqueues.c" 1
 477 01b8 83F31188 		msr     BASEPRI, r3
 478              	@ 0 "" 2
 479              		.thumb
 480              	.LBE116:
 481 01bc FFF7FEFF 		bl	dbg_check_lock
 482              	.LVL44:
 483 01c0 4126     		movs	r6, #65
 484              	.LVL45:
 485              	.L23:
 486              		.loc 1 125 0
 487 01c2 3146     		mov	r1, r6
 488 01c4 40F20000 		movw	r0, #:lower16:.LANCHOR0
 489 01c8 0136     		adds	r6, r6, #1
 490 01ca C0F20000 		movt	r0, #:upper16:.LANCHOR0
 491 01ce F6B2     		uxtb	r6, r6
 492 01d0 FFF7FEFF 		bl	chIQPutI
 493              	.LVL46:
 494              		.loc 1 124 0
 495 01d4 452E     		cmp	r6, #69
 496 01d6 F4D1     		bne	.L23
 497              		.loc 1 126 0
 498 01d8 FFF7FEFF 		bl	dbg_check_unlock
 499              	.LVL47:
 500              	.LBB117:
 501 01dc 0023     		movs	r3, #0
 502              	@ 126 "../../../test/testqueues.c" 1
 503 01de 83F31188 		msr     BASEPRI, r3
 504              	@ 0 "" 2
 505              		.thumb
 506              	.LBE117:
ARM GAS  /tmp/ccRI9SvM.s 			page 10


 507              		.loc 1 129 0
 508 01e2 6668     		ldr	r6, [r4, #4]
 509 01e4 40F20000 		movw	r0, #:lower16:.LANCHOR0
 510 01e8 3146     		mov	r1, r6
 511 01ea 0222     		movs	r2, #2
 512 01ec C0F20000 		movt	r0, #:upper16:.LANCHOR0
 513 01f0 FFF7FEFF 		bl	chIQReadTimeout
 514              	.LVL48:
 515              		.loc 1 130 0
 516 01f4 0238     		subs	r0, r0, #2
 517              	.LVL49:
 518 01f6 4142     		rsbs	r1, r0, #0
 519 01f8 4141     		adcs	r1, r1, r0
 520 01fa 0820     		movs	r0, #8
 521              	.LVL50:
 522 01fc FFF7FEFF 		bl	_test_assert
 523              	.LVL51:
 524 0200 0346     		mov	r3, r0
 525 0202 0028     		cmp	r0, #0
 526 0204 40F09880 		bne	.L6
 527              		.loc 1 131 0
 528 0208 40F20000 		movw	r0, #:lower16:.LANCHOR0
 529 020c 3146     		mov	r1, r6
 530 020e 0222     		movs	r2, #2
 531 0210 C0F20000 		movt	r0, #:upper16:.LANCHOR0
 532 0214 FFF7FEFF 		bl	chIQReadTimeout
 533              	.LVL52:
 534              		.loc 1 132 0
 535 0218 821E     		subs	r2, r0, #2
 536 021a 5142     		rsbs	r1, r2, #0
 537 021c 5141     		adcs	r1, r1, r2
 538 021e 0920     		movs	r0, #9
 539              	.LVL53:
 540 0220 FFF7FEFF 		bl	_test_assert
 541              	.LVL54:
 542 0224 0028     		cmp	r0, #0
 543 0226 40F08780 		bne	.L6
 544              	.LBB118:
 545              		.loc 1 133 0
 546 022a 2023     		movs	r3, #32
 547              	@ 133 "../../../test/testqueues.c" 1
 548 022c 83F31188 		msr     BASEPRI, r3
 549              	@ 0 "" 2
 550              		.thumb
 551              	.LBE118:
 552 0230 FFF7FEFF 		bl	dbg_check_lock
 553              	.LVL55:
 554 0234 A968     		ldr	r1, [r5, #8]
 555 0236 D1F10101 		rsbs	r1, r1, #1
 556 023a 4FF00A00 		mov	r0, #10
 557 023e 38BF     		it	cc
 558 0240 0021     		movcc	r1, #0
 559 0242 FFF7FEFF 		bl	_test_assert
 560              	.LVL56:
 561 0246 0646     		mov	r6, r0
 562 0248 0028     		cmp	r0, #0
 563 024a 70D1     		bne	.L27
ARM GAS  /tmp/ccRI9SvM.s 			page 11


 564 024c FFF7FEFF 		bl	dbg_check_unlock
 565              	.LVL57:
 566              	.LBB119:
 567 0250 3346     		mov	r3, r6
 568              	@ 133 "../../../test/testqueues.c" 1
 569 0252 83F31188 		msr     BASEPRI, r3
 570              	@ 0 "" 2
 571              		.thumb
 572              	.LBE119:
 573              	.LBB120:
 574              		.loc 1 136 0
 575 0256 2023     		movs	r3, #32
 576              	@ 136 "../../../test/testqueues.c" 1
 577 0258 83F31188 		msr     BASEPRI, r3
 578              	@ 0 "" 2
 579              		.thumb
 580              	.LBE120:
 581 025c FFF7FEFF 		bl	dbg_check_lock
 582              	.LVL58:
 583              		.loc 1 137 0
 584 0260 40F20000 		movw	r0, #:lower16:.LANCHOR0
 585 0264 0021     		movs	r1, #0
 586 0266 C0F20000 		movt	r0, #:upper16:.LANCHOR0
 587 026a FFF7FEFF 		bl	chIQPutI
 588              	.LVL59:
 589              		.loc 1 138 0
 590 026e 40F20000 		movw	r0, #:lower16:.LANCHOR0
 591 0272 C0F20000 		movt	r0, #:upper16:.LANCHOR0
 592 0276 FFF7FEFF 		bl	chIQResetI
 593              	.LVL60:
 594              		.loc 1 139 0
 595 027a FFF7FEFF 		bl	dbg_check_unlock
 596              	.LVL61:
 597              	.LBB121:
 598 027e 0023     		movs	r3, #0
 599              	@ 139 "../../../test/testqueues.c" 1
 600 0280 83F31188 		msr     BASEPRI, r3
 601              	@ 0 "" 2
 602              		.thumb
 603              	.LBE121:
 604              	.LBB122:
 605              		.loc 1 140 0
 606 0284 2023     		movs	r3, #32
 607              	@ 140 "../../../test/testqueues.c" 1
 608 0286 83F31188 		msr     BASEPRI, r3
 609              	@ 0 "" 2
 610              		.thumb
 611              	.LBE122:
 612 028a FFF7FEFF 		bl	dbg_check_lock
 613              	.LVL62:
 614 028e A968     		ldr	r1, [r5, #8]
 615 0290 D1F10101 		rsbs	r1, r1, #1
 616 0294 4FF00B00 		mov	r0, #11
 617 0298 38BF     		it	cc
 618 029a 0021     		movcc	r1, #0
 619 029c FFF7FEFF 		bl	_test_assert
 620              	.LVL63:
ARM GAS  /tmp/ccRI9SvM.s 			page 12


 621 02a0 0646     		mov	r6, r0
 622 02a2 0028     		cmp	r0, #0
 623 02a4 43D1     		bne	.L27
 624 02a6 FFF7FEFF 		bl	dbg_check_unlock
 625              	.LVL64:
 626              	.LBB123:
 627 02aa 3346     		mov	r3, r6
 628              	@ 140 "../../../test/testqueues.c" 1
 629 02ac 83F31188 		msr     BASEPRI, r3
 630              	@ 0 "" 2
 631              		.thumb
 632              	.LBE123:
 633              		.loc 1 141 0
 634 02b0 40F20003 		movw	r3, #:lower16:rlist
 635 02b4 C0F20003 		movt	r3, #:upper16:rlist
 636 02b8 0021     		movs	r1, #0
 637 02ba 9B69     		ldr	r3, [r3, #24]
 638 02bc 2068     		ldr	r0, [r4]
 639 02be 9A68     		ldr	r2, [r3, #8]
 640 02c0 0091     		str	r1, [sp]
 641 02c2 40F20003 		movw	r3, #:lower16:thread1
 642 02c6 0132     		adds	r2, r2, #1
 643 02c8 C0F20003 		movt	r3, #:upper16:thread1
 644 02cc 4FF4A871 		mov	r1, #336
 645 02d0 FFF7FEFF 		bl	chThdCreateStatic
 646              	.LVL65:
 647 02d4 40F20002 		movw	r2, #:lower16:threads
 648 02d8 C0F20002 		movt	r2, #:upper16:threads
 649              	.LBB124:
 650              		.loc 1 142 0
 651 02dc 2023     		movs	r3, #32
 652              	.LBE124:
 653              		.loc 1 141 0
 654 02de 1060     		str	r0, [r2]
 655              	.LBB125:
 656              		.loc 1 142 0
 657              	@ 142 "../../../test/testqueues.c" 1
 658 02e0 83F31188 		msr     BASEPRI, r3
 659              	@ 0 "" 2
 660              		.thumb
 661              	.LBE125:
 662 02e4 FFF7FEFF 		bl	dbg_check_lock
 663              	.LVL66:
 664 02e8 A968     		ldr	r1, [r5, #8]
 665 02ea D1F10101 		rsbs	r1, r1, #1
 666 02ee 4FF00C00 		mov	r0, #12
 667 02f2 38BF     		it	cc
 668 02f4 0021     		movcc	r1, #0
 669 02f6 FFF7FEFF 		bl	_test_assert
 670              	.LVL67:
 671 02fa 0446     		mov	r4, r0
 672 02fc B8B9     		cbnz	r0, .L27
 673 02fe FFF7FEFF 		bl	dbg_check_unlock
 674              	.LVL68:
 675              	.LBB126:
 676 0302 2346     		mov	r3, r4
 677              	@ 142 "../../../test/testqueues.c" 1
ARM GAS  /tmp/ccRI9SvM.s 			page 13


 678 0304 83F31188 		msr     BASEPRI, r3
 679              	@ 0 "" 2
 680              		.thumb
 681              	.LBE126:
 682              		.loc 1 143 0
 683 0308 FFF7FEFF 		bl	test_wait_threads
 684              	.LVL69:
 685              		.loc 1 146 0
 686 030c 40F20000 		movw	r0, #:lower16:.LANCHOR0
 687 0310 0A21     		movs	r1, #10
 688 0312 C0F20000 		movt	r0, #:upper16:.LANCHOR0
 689 0316 FFF7FEFF 		bl	chIQGetTimeout
 690              	.LVL70:
 691 031a B0F1FF33 		subs	r3, r0, #-1
 692 031e 5942     		rsbs	r1, r3, #0
 693 0320 5941     		adcs	r1, r1, r3
 694 0322 0D20     		movs	r0, #13
 695              	.LBE102:
 696              	.LBE101:
 697              		.loc 1 147 0
 698 0324 02B0     		add	sp, sp, #8
 699              		@ sp needed
 700 0326 BDE87040 		pop	{r4, r5, r6, lr}
 701              	.LBB130:
 702              	.LBB128:
 703              		.loc 1 146 0
 704 032a FFF7FEBF 		b	_test_assert
 705              	.LVL71:
 706              	.L27:
 707              		.loc 1 142 0
 708 032e FFF7FEFF 		bl	dbg_check_unlock
 709              	.LVL72:
 710              	.LBB127:
 711 0332 0023     		movs	r3, #0
 712              	@ 142 "../../../test/testqueues.c" 1
 713 0334 83F31188 		msr     BASEPRI, r3
 714              	@ 0 "" 2
 715              		.thumb
 716              	.L6:
 717              	.LBE127:
 718              	.LBE128:
 719              	.LBE130:
 720              		.loc 1 147 0
 721 0338 02B0     		add	sp, sp, #8
 722              		@ sp needed
 723 033a 70BD     		pop	{r4, r5, r6, pc}
 724              	.L29:
 725              	.LBB131:
 726              	.LBB129:
 727              		.loc 1 102 0
 728 033c 9E68     		ldr	r6, [r3, #8]
 729 033e 0036     		adds	r6, r6, #0
 730 0340 18BF     		it	ne
 731 0342 0126     		movne	r6, #1
 732 0344 9DE6     		b	.L11
 733              	.LBE129:
 734              	.LBE131:
ARM GAS  /tmp/ccRI9SvM.s 			page 14


 735              		.cfi_endproc
 736              	.LFE10:
 737              		.size	queues1_execute, .-queues1_execute
 738 0346 00BFAFF3 		.section	.text.queues2_execute,"ax",%progbits
 738      0080AFF3 
 738      0080
 739              		.align	2
 740              		.p2align 4,,15
 741              		.thumb
 742              		.thumb_func
 743              		.type	queues2_execute, %function
 744              	queues2_execute:
 745              	.LFB13:
 746              		.loc 1 177 0
 747              		.cfi_startproc
 748              		@ args = 0, pretend = 0, frame = 0
 749              		@ frame_needed = 0, uses_anonymous_args = 0
 750 0000 F0B5     		push	{r4, r5, r6, r7, lr}
 751              		.cfi_def_cfa_offset 20
 752              		.cfi_offset 4, -20
 753              		.cfi_offset 5, -16
 754              		.cfi_offset 6, -12
 755              		.cfi_offset 7, -8
 756              		.cfi_offset 14, -4
 757              	.LBB165:
 758              		.loc 1 182 0
 759 0002 2023     		movs	r3, #32
 760              	.LBE165:
 761              		.loc 1 177 0
 762 0004 83B0     		sub	sp, sp, #12
 763              		.cfi_def_cfa_offset 32
 764              	.LBB166:
 765              		.loc 1 182 0
 766              	@ 182 "../../../test/testqueues.c" 1
 767 0006 83F31188 		msr     BASEPRI, r3
 768              	@ 0 "" 2
 769              		.thumb
 770              	.LBE166:
 771 000a 40F20005 		movw	r5, #:lower16:.LANCHOR1
 772 000e C0F20005 		movt	r5, #:upper16:.LANCHOR1
 773 0012 FFF7FEFF 		bl	dbg_check_lock
 774              	.LVL73:
 775 0016 6A69     		ldr	r2, [r5, #20]
 776 0018 AB69     		ldr	r3, [r5, #24]
 777 001a 9A42     		cmp	r2, r3
 778 001c 18BF     		it	ne
 779 001e 0021     		movne	r1, #0
 780 0020 00F06181 		beq	.L50
 781              	.L31:
 782              		.loc 1 182 0 is_stmt 0 discriminator 4
 783 0024 0120     		movs	r0, #1
 784 0026 FFF7FEFF 		bl	_test_assert
 785              	.LVL74:
 786 002a 0446     		mov	r4, r0
 787 002c 0028     		cmp	r0, #0
 788 002e 40F05381 		bne	.L49
 789              	.LBB167:
ARM GAS  /tmp/ccRI9SvM.s 			page 15


 790              	.LBB168:
 791              		.loc 1 182 0
 792 0032 FFF7FEFF 		bl	dbg_check_unlock
 793              	.LVL75:
 794              	.LBB169:
 795 0036 2346     		mov	r3, r4
 796              	@ 182 "../../../test/testqueues.c" 1
 797 0038 83F31188 		msr     BASEPRI, r3
 798              	@ 0 "" 2
 799              	.LVL76:
 800              		.thumb
 801 003c 4124     		movs	r4, #65
 802              	.LVL77:
 803              	.L35:
 804              	.LBE169:
 805              		.loc 1 186 0 is_stmt 1
 806 003e 2146     		mov	r1, r4
 807 0040 40F20000 		movw	r0, #:lower16:.LANCHOR1
 808 0044 0134     		adds	r4, r4, #1
 809 0046 C0F20000 		movt	r0, #:upper16:.LANCHOR1
 810 004a 4FF0FF32 		mov	r2, #-1
 811 004e E4B2     		uxtb	r4, r4
 812 0050 FFF7FEFF 		bl	chOQPutTimeout
 813              	.LVL78:
 814              		.loc 1 185 0
 815 0054 452C     		cmp	r4, #69
 816 0056 F2D1     		bne	.L35
 817              	.LBB170:
 818              		.loc 1 187 0
 819 0058 2023     		movs	r3, #32
 820              	@ 187 "../../../test/testqueues.c" 1
 821 005a 83F31188 		msr     BASEPRI, r3
 822              	@ 0 "" 2
 823              		.thumb
 824              	.LBE170:
 825 005e FFF7FEFF 		bl	dbg_check_lock
 826              	.LVL79:
 827 0062 A968     		ldr	r1, [r5, #8]
 828 0064 D1F10101 		rsbs	r1, r1, #1
 829 0068 4FF00200 		mov	r0, #2
 830 006c 38BF     		it	cc
 831 006e 0021     		movcc	r1, #0
 832 0070 FFF7FEFF 		bl	_test_assert
 833              	.LVL80:
 834 0074 0746     		mov	r7, r0
 835 0076 0028     		cmp	r0, #0
 836 0078 40F02E81 		bne	.L49
 837 007c FFF7FEFF 		bl	dbg_check_unlock
 838              	.LVL81:
 839              	.LBB171:
 840 0080 3B46     		mov	r3, r7
 841              	@ 187 "../../../test/testqueues.c" 1
 842 0082 83F31188 		msr     BASEPRI, r3
 843              	@ 0 "" 2
 844              	.LVL82:
 845              		.thumb
 846 0086 0424     		movs	r4, #4
ARM GAS  /tmp/ccRI9SvM.s 			page 16


 847              	.LVL83:
 848              	.L38:
 849              	.LBE171:
 850              	.LBB172:
 851              	.LBB173:
 852              		.loc 1 193 0
 853 0088 2023     		movs	r3, #32
 854              	@ 193 "../../../test/testqueues.c" 1
 855 008a 83F31188 		msr     BASEPRI, r3
 856              	@ 0 "" 2
 857              		.thumb
 858              	.LBE173:
 859 008e FFF7FEFF 		bl	dbg_check_lock
 860              	.LVL84:
 861              		.loc 1 194 0
 862 0092 40F20000 		movw	r0, #:lower16:.LANCHOR1
 863 0096 C0F20000 		movt	r0, #:upper16:.LANCHOR1
 864 009a FFF7FEFF 		bl	chOQGetI
 865              	.LVL85:
 866 009e 0646     		mov	r6, r0
 867              	.LVL86:
 868              		.loc 1 195 0
 869 00a0 FFF7FEFF 		bl	dbg_check_unlock
 870              	.LVL87:
 871              	.LBB174:
 872 00a4 0023     		movs	r3, #0
 873              	@ 195 "../../../test/testqueues.c" 1
 874 00a6 83F31188 		msr     BASEPRI, r3
 875              	@ 0 "" 2
 876              		.thumb
 877              	.LBE174:
 878              		.loc 1 196 0
 879 00aa F0B2     		uxtb	r0, r6
 880 00ac FFF7FEFF 		bl	test_emit_token
 881              	.LVL88:
 882              	.LBE172:
 883              		.loc 1 190 0
 884 00b0 013C     		subs	r4, r4, #1
 885              	.LVL89:
 886 00b2 E9D1     		bne	.L38
 887              	.LBB175:
 888              		.loc 1 198 0
 889 00b4 2023     		movs	r3, #32
 890              	@ 198 "../../../test/testqueues.c" 1
 891 00b6 83F31188 		msr     BASEPRI, r3
 892              	@ 0 "" 2
 893              		.thumb
 894              	.LBE175:
 895 00ba FFF7FEFF 		bl	dbg_check_lock
 896              	.LVL90:
 897 00be 6969     		ldr	r1, [r5, #20]
 898 00c0 AA69     		ldr	r2, [r5, #24]
 899 00c2 40F20003 		movw	r3, #:lower16:.LANCHOR1
 900 00c6 9142     		cmp	r1, r2
 901 00c8 C0F20003 		movt	r3, #:upper16:.LANCHOR1
 902 00cc 00F01081 		beq	.L51
 903              	.L39:
ARM GAS  /tmp/ccRI9SvM.s 			page 17


 904 00d0 3946     		mov	r1, r7
 905 00d2 0320     		movs	r0, #3
 906 00d4 FFF7FEFF 		bl	_test_assert
 907              	.LVL91:
 908 00d8 0446     		mov	r4, r0
 909              	.LVL92:
 910 00da 0028     		cmp	r0, #0
 911 00dc 40F0FC80 		bne	.L49
 912 00e0 FFF7FEFF 		bl	dbg_check_unlock
 913              	.LVL93:
 914              	.LBB176:
 915 00e4 2346     		mov	r3, r4
 916              	@ 198 "../../../test/testqueues.c" 1
 917 00e6 83F31188 		msr     BASEPRI, r3
 918              	@ 0 "" 2
 919              		.thumb
 920              	.LBE176:
 921              		.loc 1 199 0
 922 00ea 40F20001 		movw	r1, #:lower16:.LC0
 923 00ee C0F20001 		movt	r1, #:upper16:.LC0
 924 00f2 0420     		movs	r0, #4
 925 00f4 FFF7FEFF 		bl	_test_assert_sequence
 926              	.LVL94:
 927 00f8 0028     		cmp	r0, #0
 928 00fa 40F0F280 		bne	.L30
 929              	.LBB177:
 930              		.loc 1 200 0
 931 00fe 2023     		movs	r3, #32
 932              	@ 200 "../../../test/testqueues.c" 1
 933 0100 83F31188 		msr     BASEPRI, r3
 934              	@ 0 "" 2
 935              		.thumb
 936              	.LBE177:
 937 0104 FFF7FEFF 		bl	dbg_check_lock
 938              	.LVL95:
 939 0108 40F20000 		movw	r0, #:lower16:.LANCHOR1
 940 010c C0F20000 		movt	r0, #:upper16:.LANCHOR1
 941 0110 FFF7FEFF 		bl	chOQGetI
 942              	.LVL96:
 943 0114 0330     		adds	r0, r0, #3
 944 0116 14BF     		ite	ne
 945 0118 0021     		movne	r1, #0
 946 011a 0121     		moveq	r1, #1
 947 011c 0520     		movs	r0, #5
 948 011e FFF7FEFF 		bl	_test_assert
 949              	.LVL97:
 950 0122 0446     		mov	r4, r0
 951 0124 0028     		cmp	r0, #0
 952 0126 40F0D780 		bne	.L49
 953 012a FFF7FEFF 		bl	dbg_check_unlock
 954              	.LVL98:
 955              	.LBB178:
 956 012e 2346     		mov	r3, r4
 957              	@ 200 "../../../test/testqueues.c" 1
 958 0130 83F31188 		msr     BASEPRI, r3
 959              	@ 0 "" 2
 960              		.thumb
ARM GAS  /tmp/ccRI9SvM.s 			page 18


 961              	.LBE178:
 962              		.loc 1 203 0
 963 0134 40F20004 		movw	r4, #:lower16:wa
 964 0138 C0F20004 		movt	r4, #:upper16:wa
 965 013c 40F20000 		movw	r0, #:lower16:.LANCHOR1
 966 0140 6168     		ldr	r1, [r4, #4]
 967 0142 C0F20000 		movt	r0, #:upper16:.LANCHOR1
 968 0146 0822     		movs	r2, #8
 969 0148 0023     		movs	r3, #0
 970 014a FFF7FEFF 		bl	chOQWriteTimeout
 971              	.LVL99:
 972              		.loc 1 204 0
 973 014e 0438     		subs	r0, r0, #4
 974              	.LVL100:
 975 0150 4142     		rsbs	r1, r0, #0
 976 0152 4141     		adcs	r1, r1, r0
 977 0154 0620     		movs	r0, #6
 978              	.LVL101:
 979 0156 FFF7FEFF 		bl	_test_assert
 980              	.LVL102:
 981 015a 0028     		cmp	r0, #0
 982 015c 40F0C180 		bne	.L30
 983              	.LBB179:
 984              		.loc 1 205 0
 985 0160 2023     		movs	r3, #32
 986              	@ 205 "../../../test/testqueues.c" 1
 987 0162 83F31188 		msr     BASEPRI, r3
 988              	@ 0 "" 2
 989              		.thumb
 990              	.LBE179:
 991 0166 FFF7FEFF 		bl	dbg_check_lock
 992              	.LVL103:
 993 016a A968     		ldr	r1, [r5, #8]
 994 016c D1F10101 		rsbs	r1, r1, #1
 995 0170 4FF00700 		mov	r0, #7
 996 0174 38BF     		it	cc
 997 0176 0021     		movcc	r1, #0
 998 0178 FFF7FEFF 		bl	_test_assert
 999              	.LVL104:
 1000 017c 0646     		mov	r6, r0
 1001              	.LVL105:
 1002 017e 0028     		cmp	r0, #0
 1003 0180 40F0AA80 		bne	.L49
 1004 0184 FFF7FEFF 		bl	dbg_check_unlock
 1005              	.LVL106:
 1006              	.LBB180:
 1007 0188 3346     		mov	r3, r6
 1008              	@ 205 "../../../test/testqueues.c" 1
 1009 018a 83F31188 		msr     BASEPRI, r3
 1010              	@ 0 "" 2
 1011              		.thumb
 1012              	.LBE180:
 1013              		.loc 1 206 0
 1014 018e 40F20003 		movw	r3, #:lower16:rlist
 1015 0192 C0F20003 		movt	r3, #:upper16:rlist
 1016 0196 0021     		movs	r1, #0
 1017 0198 9B69     		ldr	r3, [r3, #24]
ARM GAS  /tmp/ccRI9SvM.s 			page 19


 1018 019a 2068     		ldr	r0, [r4]
 1019 019c 9A68     		ldr	r2, [r3, #8]
 1020 019e 0091     		str	r1, [sp]
 1021 01a0 40F20003 		movw	r3, #:lower16:thread2
 1022 01a4 0132     		adds	r2, r2, #1
 1023 01a6 C0F20003 		movt	r3, #:upper16:thread2
 1024 01aa 4FF4A871 		mov	r1, #336
 1025 01ae FFF7FEFF 		bl	chThdCreateStatic
 1026              	.LVL107:
 1027 01b2 40F20002 		movw	r2, #:lower16:threads
 1028 01b6 C0F20002 		movt	r2, #:upper16:threads
 1029              	.LBB181:
 1030              		.loc 1 207 0
 1031 01ba 2023     		movs	r3, #32
 1032              	.LBE181:
 1033              		.loc 1 206 0
 1034 01bc 1060     		str	r0, [r2]
 1035              	.LBB182:
 1036              		.loc 1 207 0
 1037              	@ 207 "../../../test/testqueues.c" 1
 1038 01be 83F31188 		msr     BASEPRI, r3
 1039              	@ 0 "" 2
 1040              		.thumb
 1041              	.LBE182:
 1042 01c2 FFF7FEFF 		bl	dbg_check_lock
 1043              	.LVL108:
 1044 01c6 2969     		ldr	r1, [r5, #16]
 1045 01c8 EA68     		ldr	r2, [r5, #12]
 1046 01ca AB68     		ldr	r3, [r5, #8]
 1047 01cc 8A1A     		subs	r2, r1, r2
 1048 01ce D11A     		subs	r1, r2, r3
 1049 01d0 0A1F     		subs	r2, r1, #4
 1050 01d2 5142     		rsbs	r1, r2, #0
 1051 01d4 5141     		adcs	r1, r1, r2
 1052 01d6 0820     		movs	r0, #8
 1053 01d8 FFF7FEFF 		bl	_test_assert
 1054              	.LVL109:
 1055 01dc 0646     		mov	r6, r0
 1056 01de 0028     		cmp	r0, #0
 1057 01e0 7AD1     		bne	.L49
 1058 01e2 FFF7FEFF 		bl	dbg_check_unlock
 1059              	.LVL110:
 1060              	.LBB183:
 1061 01e6 3346     		mov	r3, r6
 1062              	@ 207 "../../../test/testqueues.c" 1
 1063 01e8 83F31188 		msr     BASEPRI, r3
 1064              	@ 0 "" 2
 1065              		.thumb
 1066              	.LBE183:
 1067              		.loc 1 208 0
 1068 01ec FFF7FEFF 		bl	test_wait_threads
 1069              	.LVL111:
 1070              	.LBB184:
 1071              		.loc 1 211 0
 1072 01f0 2023     		movs	r3, #32
 1073              	@ 211 "../../../test/testqueues.c" 1
 1074 01f2 83F31188 		msr     BASEPRI, r3
ARM GAS  /tmp/ccRI9SvM.s 			page 20


 1075              	@ 0 "" 2
 1076              		.thumb
 1077              	.LBE184:
 1078 01f6 FFF7FEFF 		bl	dbg_check_lock
 1079              	.LVL112:
 1080              		.loc 1 212 0
 1081 01fa 40F20000 		movw	r0, #:lower16:.LANCHOR1
 1082 01fe C0F20000 		movt	r0, #:upper16:.LANCHOR1
 1083 0202 FFF7FEFF 		bl	chOQResetI
 1084              	.LVL113:
 1085              		.loc 1 213 0
 1086 0206 FFF7FEFF 		bl	dbg_check_unlock
 1087              	.LVL114:
 1088              	.LBB185:
 1089 020a 0023     		movs	r3, #0
 1090              	@ 213 "../../../test/testqueues.c" 1
 1091 020c 83F31188 		msr     BASEPRI, r3
 1092              	@ 0 "" 2
 1093              		.thumb
 1094              	.LBE185:
 1095              	.LBB186:
 1096              		.loc 1 214 0
 1097 0210 2023     		movs	r3, #32
 1098              	@ 214 "../../../test/testqueues.c" 1
 1099 0212 83F31188 		msr     BASEPRI, r3
 1100              	@ 0 "" 2
 1101              		.thumb
 1102              	.LBE186:
 1103 0216 FFF7FEFF 		bl	dbg_check_lock
 1104              	.LVL115:
 1105 021a 2969     		ldr	r1, [r5, #16]
 1106 021c EA68     		ldr	r2, [r5, #12]
 1107 021e AB68     		ldr	r3, [r5, #8]
 1108 0220 891A     		subs	r1, r1, r2
 1109 0222 CB1A     		subs	r3, r1, r3
 1110 0224 5942     		rsbs	r1, r3, #0
 1111 0226 5941     		adcs	r1, r1, r3
 1112 0228 0920     		movs	r0, #9
 1113 022a FFF7FEFF 		bl	_test_assert
 1114              	.LVL116:
 1115 022e 0646     		mov	r6, r0
 1116 0230 0028     		cmp	r0, #0
 1117 0232 51D1     		bne	.L49
 1118 0234 FFF7FEFF 		bl	dbg_check_unlock
 1119              	.LVL117:
 1120              	.LBB187:
 1121 0238 3346     		mov	r3, r6
 1122              	@ 214 "../../../test/testqueues.c" 1
 1123 023a 83F31188 		msr     BASEPRI, r3
 1124              	@ 0 "" 2
 1125              		.thumb
 1126              	.LBE187:
 1127              		.loc 1 217 0
 1128 023e 6468     		ldr	r4, [r4, #4]
 1129 0240 40F20000 		movw	r0, #:lower16:.LANCHOR1
 1130 0244 0023     		movs	r3, #0
 1131 0246 2146     		mov	r1, r4
ARM GAS  /tmp/ccRI9SvM.s 			page 21


 1132 0248 0222     		movs	r2, #2
 1133 024a C0F20000 		movt	r0, #:upper16:.LANCHOR1
 1134 024e FFF7FEFF 		bl	chOQWriteTimeout
 1135              	.LVL118:
 1136              		.loc 1 218 0
 1137 0252 B0F1020C 		subs	ip, r0, #2
 1138 0256 DCF10001 		rsbs	r1, ip, #0
 1139 025a 51EB0C01 		adcs	r1, r1, ip
 1140 025e 0A20     		movs	r0, #10
 1141              	.LVL119:
 1142 0260 FFF7FEFF 		bl	_test_assert
 1143              	.LVL120:
 1144 0264 0346     		mov	r3, r0
 1145 0266 0028     		cmp	r0, #0
 1146 0268 3BD1     		bne	.L30
 1147              		.loc 1 219 0
 1148 026a 40F20000 		movw	r0, #:lower16:.LANCHOR1
 1149 026e 2146     		mov	r1, r4
 1150 0270 C0F20000 		movt	r0, #:upper16:.LANCHOR1
 1151 0274 0222     		movs	r2, #2
 1152 0276 FFF7FEFF 		bl	chOQWriteTimeout
 1153              	.LVL121:
 1154              		.loc 1 220 0
 1155 027a B0F1020E 		subs	lr, r0, #2
 1156 027e DEF10001 		rsbs	r1, lr, #0
 1157 0282 51EB0E01 		adcs	r1, r1, lr
 1158 0286 0B20     		movs	r0, #11
 1159              	.LVL122:
 1160 0288 FFF7FEFF 		bl	_test_assert
 1161              	.LVL123:
 1162 028c 48BB     		cbnz	r0, .L30
 1163              	.LBB188:
 1164              		.loc 1 221 0
 1165 028e 2023     		movs	r3, #32
 1166              	@ 221 "../../../test/testqueues.c" 1
 1167 0290 83F31188 		msr     BASEPRI, r3
 1168              	@ 0 "" 2
 1169              		.thumb
 1170              	.LBE188:
 1171 0294 FFF7FEFF 		bl	dbg_check_lock
 1172              	.LVL124:
 1173 0298 A968     		ldr	r1, [r5, #8]
 1174 029a D1F10101 		rsbs	r1, r1, #1
 1175 029e 38BF     		it	cc
 1176 02a0 0021     		movcc	r1, #0
 1177 02a2 0C20     		movs	r0, #12
 1178 02a4 FFF7FEFF 		bl	_test_assert
 1179              	.LVL125:
 1180 02a8 B0B9     		cbnz	r0, .L49
 1181 02aa FFF7FEFF 		bl	dbg_check_unlock
 1182              	.LVL126:
 1183              	.LBB189:
 1184 02ae 0023     		movs	r3, #0
 1185              	@ 221 "../../../test/testqueues.c" 1
 1186 02b0 83F31188 		msr     BASEPRI, r3
 1187              	@ 0 "" 2
 1188              		.thumb
ARM GAS  /tmp/ccRI9SvM.s 			page 22


 1189              	.LBE189:
 1190              		.loc 1 224 0
 1191 02b4 40F20000 		movw	r0, #:lower16:.LANCHOR1
 1192 02b8 0021     		movs	r1, #0
 1193 02ba 0A22     		movs	r2, #10
 1194 02bc C0F20000 		movt	r0, #:upper16:.LANCHOR1
 1195 02c0 FFF7FEFF 		bl	chOQPutTimeout
 1196              	.LVL127:
 1197 02c4 B0F1FF37 		subs	r7, r0, #-1
 1198 02c8 7942     		rsbs	r1, r7, #0
 1199 02ca 7941     		adcs	r1, r1, r7
 1200 02cc 0D20     		movs	r0, #13
 1201              	.LBE168:
 1202              	.LBE167:
 1203              		.loc 1 225 0
 1204 02ce 03B0     		add	sp, sp, #12
 1205              		@ sp needed
 1206 02d0 BDE8F040 		pop	{r4, r5, r6, r7, lr}
 1207              	.LBB193:
 1208              	.LBB191:
 1209              		.loc 1 224 0
 1210 02d4 FFF7FEBF 		b	_test_assert
 1211              	.LVL128:
 1212              	.L49:
 1213              		.loc 1 221 0
 1214 02d8 FFF7FEFF 		bl	dbg_check_unlock
 1215              	.LVL129:
 1216              	.LBB190:
 1217 02dc 0023     		movs	r3, #0
 1218              	@ 221 "../../../test/testqueues.c" 1
 1219 02de 83F31188 		msr     BASEPRI, r3
 1220              	@ 0 "" 2
 1221              		.thumb
 1222              	.L30:
 1223              	.LBE190:
 1224              	.LBE191:
 1225              	.LBE193:
 1226              		.loc 1 225 0
 1227 02e2 03B0     		add	sp, sp, #12
 1228              		@ sp needed
 1229 02e4 F0BD     		pop	{r4, r5, r6, r7, pc}
 1230              	.L50:
 1231              		.loc 1 182 0 discriminator 1
 1232 02e6 A968     		ldr	r1, [r5, #8]
 1233 02e8 0031     		adds	r1, r1, #0
 1234 02ea 18BF     		it	ne
 1235 02ec 0121     		movne	r1, #1
 1236 02ee 99E6     		b	.L31
 1237              	.LVL130:
 1238              	.L51:
 1239              	.LBB194:
 1240              	.LBB192:
 1241              		.loc 1 198 0
 1242 02f0 9F68     		ldr	r7, [r3, #8]
 1243 02f2 0037     		adds	r7, r7, #0
 1244 02f4 18BF     		it	ne
 1245 02f6 0127     		movne	r7, #1
ARM GAS  /tmp/ccRI9SvM.s 			page 23


 1246 02f8 EAE6     		b	.L39
 1247              	.LBE192:
 1248              	.LBE194:
 1249              		.cfi_endproc
 1250              	.LFE13:
 1251              		.size	queues2_execute, .-queues2_execute
 1252              		.global	patternqueues
 1253              		.global	testqueues2
 1254              		.global	testqueues1
 1255 02fa 00BFAFF3 		.section	.rodata.testqueues1,"a",%progbits
 1255      0080
 1256              		.align	2
 1257              		.type	testqueues1, %object
 1258              		.size	testqueues1, 16
 1259              	testqueues1:
 1260 0000 20000000 		.word	.LC2
 1261 0004 00000000 		.word	queues1_setup
 1262 0008 00000000 		.word	0
 1263 000c 00000000 		.word	queues1_execute
 1264              		.section	.rodata.testqueues2,"a",%progbits
 1265              		.align	2
 1266              		.type	testqueues2, %object
 1267              		.size	testqueues2, 16
 1268              	testqueues2:
 1269 0000 08000000 		.word	.LC1
 1270 0004 00000000 		.word	queues2_setup
 1271 0008 00000000 		.word	0
 1272 000c 00000000 		.word	queues2_execute
 1273              		.section	.rodata.str1.4,"aMS",%progbits,1
 1274              		.align	2
 1275              	.LC0:
 1276 0000 41424344 		.ascii	"ABCD\000"
 1276      00
 1277 0005 000000   		.space	3
 1278              	.LC1:
 1279 0008 51756575 		.ascii	"Queues, output queues\000"
 1279      65732C20 
 1279      6F757470 
 1279      75742071 
 1279      75657565 
 1280 001e 0000     		.space	2
 1281              	.LC2:
 1282 0020 51756575 		.ascii	"Queues, input queues\000"
 1282      65732C20 
 1282      696E7075 
 1282      74207175 
 1282      65756573 
 1283 0035 000000   		.section	.rodata.patternqueues,"a",%progbits
 1284              		.align	2
 1285              		.type	patternqueues, %object
 1286              		.size	patternqueues, 12
 1287              	patternqueues:
 1288 0000 00000000 		.word	testqueues1
 1289 0004 00000000 		.word	testqueues2
 1290 0008 00000000 		.word	0
 1291              		.section	.data.oq,"aw",%progbits
 1292              		.align	2
ARM GAS  /tmp/ccRI9SvM.s 			page 24


 1293              		.set	.LANCHOR1,. + 0
 1294              		.type	oq, %object
 1295              		.size	oq, 36
 1296              	oq:
 1297 0000 00000000 		.word	oq
 1298 0004 00000000 		.word	oq
 1299 0008 04000000 		.word	4
 1300 000c 50010000 		.word	test+336
 1301 0010 54010000 		.word	test+340
 1302 0014 50010000 		.word	test+336
 1303 0018 50010000 		.word	test+336
 1304 001c 00000000 		.word	notify
 1305 0020 00000000 		.word	0
 1306              		.section	.data.iq,"aw",%progbits
 1307              		.align	2
 1308              		.set	.LANCHOR0,. + 0
 1309              		.type	iq, %object
 1310              		.size	iq, 36
 1311              	iq:
 1312 0000 00000000 		.word	iq
 1313 0004 00000000 		.word	iq
 1314 0008 00000000 		.word	0
 1315 000c 00000000 		.word	test
 1316 0010 04000000 		.word	test+4
 1317 0014 00000000 		.word	test
 1318 0018 00000000 		.word	test
 1319 001c 00000000 		.word	notify
 1320 0020 00000000 		.word	0
 1321              		.text
 1322              	.Letext0:
 1323              		.file 2 "/usr/lib/gcc/arm-none-eabi/4.8.2/include/stddef.h"
 1324              		.file 3 "/usr/include/newlib/machine/_default_types.h"
 1325              		.file 4 "/usr/include/newlib/stdint.h"
 1326              		.file 5 "../../../os/ports/GCC/ARMCMx/chtypes.h"
 1327              		.file 6 "../../../os/kernel/include/chlists.h"
 1328              		.file 7 "../../../os/kernel/include/chthreads.h"
 1329              		.file 8 "../../../os/ports/GCC/ARMCMx/chcore_v7m.h"
 1330              		.file 9 "../../../os/kernel/include/chschd.h"
 1331              		.file 10 "../../../os/kernel/include/chmtx.h"
 1332              		.file 11 "../../../os/kernel/include/chqueues.h"
 1333              		.file 12 "../../../test/test.h"
 1334              		.file 13 "../../../os/kernel/include/chdebug.h"