ARM GAS  /tmp/ccdpV52Q.s 			page 1


   1              		.syntax unified
   2              		.cpu cortex-m4
   3              		.fpu softvfp
   4              		.eabi_attribute 20, 1
   5              		.eabi_attribute 21, 1
   6              		.eabi_attribute 23, 3
   7              		.eabi_attribute 24, 1
   8              		.eabi_attribute 25, 1
   9              		.eabi_attribute 26, 1
  10              		.eabi_attribute 30, 2
  11              		.eabi_attribute 34, 1
  12              		.eabi_attribute 18, 4
  13              		.thumb
  14              		.file	"testthd.c"
  15              		.text
  16              	.Ltext0:
  17              		.cfi_sections	.debug_frame
  18              		.section	.text.thd1_execute,"ax",%progbits
  19              		.align	2
  20              		.p2align 4,,15
  21              		.thumb
  22              		.thumb_func
  23              		.type	thd1_execute, %function
  24              	thd1_execute:
  25              	.LFB8:
  26              		.file 1 "../../../test/testthd.c"
  27              		.loc 1 66 0
  28              		.cfi_startproc
  29              		@ args = 0, pretend = 0, frame = 0
  30              		@ frame_needed = 0, uses_anonymous_args = 0
  31 0000 F0B5     		push	{r4, r5, r6, r7, lr}
  32              		.cfi_def_cfa_offset 20
  33              		.cfi_offset 4, -20
  34              		.cfi_offset 5, -16
  35              		.cfi_offset 6, -12
  36              		.cfi_offset 7, -8
  37              		.cfi_offset 14, -4
  38              		.loc 1 68 0
  39 0002 40F20007 		movw	r7, #:lower16:rlist
  40 0006 C0F20007 		movt	r7, #:upper16:rlist
  41 000a 40F20006 		movw	r6, #:lower16:wa
  42 000e BB69     		ldr	r3, [r7, #24]
  43              		.loc 1 66 0
  44 0010 83B0     		sub	sp, sp, #12
  45              		.cfi_def_cfa_offset 32
  46              		.loc 1 68 0
  47 0012 C0F20006 		movt	r6, #:upper16:wa
  48 0016 9A68     		ldr	r2, [r3, #8]
  49 0018 3068     		ldr	r0, [r6]
  50 001a 40F20005 		movw	r5, #:lower16:thread
  51 001e 40F20001 		movw	r1, #:lower16:.LC0
  52 0022 C0F20005 		movt	r5, #:upper16:thread
  53 0026 C0F20001 		movt	r1, #:upper16:.LC0
  54 002a 2B46     		mov	r3, r5
  55 002c 0091     		str	r1, [sp]
  56 002e 053A     		subs	r2, r2, #5
  57 0030 4FF4A871 		mov	r1, #336
ARM GAS  /tmp/ccdpV52Q.s 			page 2


  58 0034 FFF7FEFF 		bl	chThdCreateStatic
  59              	.LVL0:
  60              		.loc 1 69 0
  61 0038 BA69     		ldr	r2, [r7, #24]
  62 003a 7368     		ldr	r3, [r6, #4]
  63 003c 9268     		ldr	r2, [r2, #8]
  64              		.loc 1 68 0
  65 003e 40F20004 		movw	r4, #:lower16:threads
  66 0042 C0F20004 		movt	r4, #:upper16:threads
  67              		.loc 1 69 0
  68 0046 40F20001 		movw	r1, #:lower16:.LC1
  69 004a C0F20001 		movt	r1, #:upper16:.LC1
  70              		.loc 1 68 0
  71 004e 2060     		str	r0, [r4]
  72              		.loc 1 69 0
  73 0050 0091     		str	r1, [sp]
  74 0052 043A     		subs	r2, r2, #4
  75 0054 1846     		mov	r0, r3
  76 0056 4FF4A871 		mov	r1, #336
  77 005a 2B46     		mov	r3, r5
  78 005c FFF7FEFF 		bl	chThdCreateStatic
  79              	.LVL1:
  80              		.loc 1 70 0
  81 0060 BA69     		ldr	r2, [r7, #24]
  82 0062 B368     		ldr	r3, [r6, #8]
  83 0064 9268     		ldr	r2, [r2, #8]
  84              		.loc 1 69 0
  85 0066 6060     		str	r0, [r4, #4]
  86              		.loc 1 70 0
  87 0068 40F20001 		movw	r1, #:lower16:.LC2
  88 006c C0F20001 		movt	r1, #:upper16:.LC2
  89 0070 0091     		str	r1, [sp]
  90 0072 033A     		subs	r2, r2, #3
  91 0074 1846     		mov	r0, r3
  92 0076 4FF4A871 		mov	r1, #336
  93 007a 2B46     		mov	r3, r5
  94 007c FFF7FEFF 		bl	chThdCreateStatic
  95              	.LVL2:
  96              		.loc 1 71 0
  97 0080 BA69     		ldr	r2, [r7, #24]
  98 0082 F368     		ldr	r3, [r6, #12]
  99 0084 9268     		ldr	r2, [r2, #8]
 100              		.loc 1 70 0
 101 0086 A060     		str	r0, [r4, #8]
 102              		.loc 1 71 0
 103 0088 40F20001 		movw	r1, #:lower16:.LC3
 104 008c C0F20001 		movt	r1, #:upper16:.LC3
 105 0090 0091     		str	r1, [sp]
 106 0092 023A     		subs	r2, r2, #2
 107 0094 1846     		mov	r0, r3
 108 0096 4FF4A871 		mov	r1, #336
 109 009a 2B46     		mov	r3, r5
 110 009c FFF7FEFF 		bl	chThdCreateStatic
 111              	.LVL3:
 112              		.loc 1 72 0
 113 00a0 BA69     		ldr	r2, [r7, #24]
 114 00a2 3369     		ldr	r3, [r6, #16]
ARM GAS  /tmp/ccdpV52Q.s 			page 3


 115 00a4 9268     		ldr	r2, [r2, #8]
 116              		.loc 1 71 0
 117 00a6 E060     		str	r0, [r4, #12]
 118              		.loc 1 72 0
 119 00a8 40F20001 		movw	r1, #:lower16:.LC4
 120 00ac C0F20001 		movt	r1, #:upper16:.LC4
 121 00b0 013A     		subs	r2, r2, #1
 122 00b2 0091     		str	r1, [sp]
 123 00b4 1846     		mov	r0, r3
 124 00b6 4FF4A871 		mov	r1, #336
 125 00ba 2B46     		mov	r3, r5
 126 00bc FFF7FEFF 		bl	chThdCreateStatic
 127              	.LVL4:
 128 00c0 2061     		str	r0, [r4, #16]
 129              		.loc 1 73 0
 130 00c2 FFF7FEFF 		bl	test_wait_threads
 131              	.LVL5:
 132              		.loc 1 74 0
 133 00c6 40F20001 		movw	r1, #:lower16:.LC5
 134 00ca C0F20001 		movt	r1, #:upper16:.LC5
 135 00ce 0120     		movs	r0, #1
 136              		.loc 1 75 0
 137 00d0 03B0     		add	sp, sp, #12
 138              		@ sp needed
 139 00d2 BDE8F040 		pop	{r4, r5, r6, r7, lr}
 140              		.loc 1 74 0
 141 00d6 FFF7FEBF 		b	_test_assert_sequence
 142              	.LVL6:
 143              		.cfi_endproc
 144              	.LFE8:
 145              		.size	thd1_execute, .-thd1_execute
 146 00da 00BFAFF3 		.section	.text.thread,"ax",%progbits
 146      0080
 147              		.align	2
 148              		.p2align 4,,15
 149              		.thumb
 150              		.thumb_func
 151              		.type	thread, %function
 152              	thread:
 153              	.LFB7:
 154              		.loc 1 60 0
 155              		.cfi_startproc
 156              		@ args = 0, pretend = 0, frame = 0
 157              		@ frame_needed = 0, uses_anonymous_args = 0
 158              	.LVL7:
 159 0000 08B5     		push	{r3, lr}
 160              		.cfi_def_cfa_offset 8
 161              		.cfi_offset 3, -8
 162              		.cfi_offset 14, -4
 163              		.loc 1 62 0
 164 0002 0078     		ldrb	r0, [r0]	@ zero_extendqisi2
 165              	.LVL8:
 166 0004 FFF7FEFF 		bl	test_emit_token
 167              	.LVL9:
 168              		.loc 1 64 0
 169 0008 0020     		movs	r0, #0
 170 000a 08BD     		pop	{r3, pc}
ARM GAS  /tmp/ccdpV52Q.s 			page 4


 171              		.cfi_endproc
 172              	.LFE7:
 173              		.size	thread, .-thread
 174 000c AFF30080 		.section	.text.thd2_execute,"ax",%progbits
 175              		.align	2
 176              		.p2align 4,,15
 177              		.thumb
 178              		.thumb_func
 179              		.type	thd2_execute, %function
 180              	thd2_execute:
 181              	.LFB9:
 182              		.loc 1 94 0
 183              		.cfi_startproc
 184              		@ args = 0, pretend = 0, frame = 0
 185              		@ frame_needed = 0, uses_anonymous_args = 0
 186 0000 F0B5     		push	{r4, r5, r6, r7, lr}
 187              		.cfi_def_cfa_offset 20
 188              		.cfi_offset 4, -20
 189              		.cfi_offset 5, -16
 190              		.cfi_offset 6, -12
 191              		.cfi_offset 7, -8
 192              		.cfi_offset 14, -4
 193              		.loc 1 96 0
 194 0002 40F20007 		movw	r7, #:lower16:rlist
 195 0006 C0F20007 		movt	r7, #:upper16:rlist
 196 000a 40F20006 		movw	r6, #:lower16:wa
 197 000e BB69     		ldr	r3, [r7, #24]
 198              		.loc 1 94 0
 199 0010 83B0     		sub	sp, sp, #12
 200              		.cfi_def_cfa_offset 32
 201              		.loc 1 96 0
 202 0012 C0F20006 		movt	r6, #:upper16:wa
 203 0016 9A68     		ldr	r2, [r3, #8]
 204 0018 7068     		ldr	r0, [r6, #4]
 205 001a 40F20005 		movw	r5, #:lower16:thread
 206 001e 40F20001 		movw	r1, #:lower16:.LC1
 207 0022 C0F20005 		movt	r5, #:upper16:thread
 208 0026 C0F20001 		movt	r1, #:upper16:.LC1
 209 002a 2B46     		mov	r3, r5
 210 002c 0091     		str	r1, [sp]
 211 002e 043A     		subs	r2, r2, #4
 212 0030 4FF4A871 		mov	r1, #336
 213 0034 FFF7FEFF 		bl	chThdCreateStatic
 214              	.LVL10:
 215              		.loc 1 97 0
 216 0038 BA69     		ldr	r2, [r7, #24]
 217 003a 3368     		ldr	r3, [r6]
 218 003c 9268     		ldr	r2, [r2, #8]
 219              		.loc 1 96 0
 220 003e 40F20004 		movw	r4, #:lower16:threads
 221 0042 C0F20004 		movt	r4, #:upper16:threads
 222              		.loc 1 97 0
 223 0046 40F20001 		movw	r1, #:lower16:.LC0
 224 004a C0F20001 		movt	r1, #:upper16:.LC0
 225              		.loc 1 96 0
 226 004e 6060     		str	r0, [r4, #4]
 227              		.loc 1 97 0
ARM GAS  /tmp/ccdpV52Q.s 			page 5


 228 0050 0091     		str	r1, [sp]
 229 0052 053A     		subs	r2, r2, #5
 230 0054 1846     		mov	r0, r3
 231 0056 4FF4A871 		mov	r1, #336
 232 005a 2B46     		mov	r3, r5
 233 005c FFF7FEFF 		bl	chThdCreateStatic
 234              	.LVL11:
 235              		.loc 1 98 0
 236 0060 BA69     		ldr	r2, [r7, #24]
 237 0062 3369     		ldr	r3, [r6, #16]
 238 0064 9268     		ldr	r2, [r2, #8]
 239              		.loc 1 97 0
 240 0066 2060     		str	r0, [r4]
 241              		.loc 1 98 0
 242 0068 40F20001 		movw	r1, #:lower16:.LC4
 243 006c C0F20001 		movt	r1, #:upper16:.LC4
 244 0070 0091     		str	r1, [sp]
 245 0072 013A     		subs	r2, r2, #1
 246 0074 1846     		mov	r0, r3
 247 0076 4FF4A871 		mov	r1, #336
 248 007a 2B46     		mov	r3, r5
 249 007c FFF7FEFF 		bl	chThdCreateStatic
 250              	.LVL12:
 251              		.loc 1 99 0
 252 0080 BA69     		ldr	r2, [r7, #24]
 253 0082 F368     		ldr	r3, [r6, #12]
 254 0084 9268     		ldr	r2, [r2, #8]
 255              		.loc 1 98 0
 256 0086 2061     		str	r0, [r4, #16]
 257              		.loc 1 99 0
 258 0088 40F20001 		movw	r1, #:lower16:.LC3
 259 008c C0F20001 		movt	r1, #:upper16:.LC3
 260 0090 0091     		str	r1, [sp]
 261 0092 023A     		subs	r2, r2, #2
 262 0094 1846     		mov	r0, r3
 263 0096 4FF4A871 		mov	r1, #336
 264 009a 2B46     		mov	r3, r5
 265 009c FFF7FEFF 		bl	chThdCreateStatic
 266              	.LVL13:
 267              	.LBB2:
 268              		.loc 1 101 0
 269 00a0 2023     		movs	r3, #32
 270              	.LBE2:
 271              		.loc 1 99 0
 272 00a2 E060     		str	r0, [r4, #12]
 273              	.LBB3:
 274              		.loc 1 101 0
 275              	@ 101 "../../../test/testthd.c" 1
 276 00a4 83F31188 		msr     BASEPRI, r3
 277              	@ 0 "" 2
 278              		.thumb
 279              	.LBE3:
 280 00a8 FFF7FEFF 		bl	dbg_check_lock
 281              	.LVL14:
 282              		.loc 1 102 0
 283 00ac 40F20002 		movw	r2, #:lower16:rlist
 284 00b0 C0F20002 		movt	r2, #:upper16:rlist
ARM GAS  /tmp/ccdpV52Q.s 			page 6


 285 00b4 40F20003 		movw	r3, #:lower16:wa
 286 00b8 9269     		ldr	r2, [r2, #24]
 287 00ba C0F20003 		movt	r3, #:upper16:wa
 288 00be 9268     		ldr	r2, [r2, #8]
 289 00c0 9868     		ldr	r0, [r3, #8]
 290 00c2 40F20001 		movw	r1, #:lower16:.LC2
 291 00c6 C0F20001 		movt	r1, #:upper16:.LC2
 292 00ca 40F20003 		movw	r3, #:lower16:thread
 293 00ce 033A     		subs	r2, r2, #3
 294 00d0 0091     		str	r1, [sp]
 295 00d2 C0F20003 		movt	r3, #:upper16:thread
 296 00d6 4FF4A871 		mov	r1, #336
 297 00da FFF7FEFF 		bl	chThdCreateI
 298              	.LVL15:
 299 00de 40F20003 		movw	r3, #:lower16:threads
 300 00e2 C0F20003 		movt	r3, #:upper16:threads
 301 00e6 9860     		str	r0, [r3, #8]
 302              		.loc 1 103 0
 303 00e8 FFF7FEFF 		bl	dbg_check_unlock
 304              	.LVL16:
 305              	.LBB4:
 306 00ec 0023     		movs	r3, #0
 307              	@ 103 "../../../test/testthd.c" 1
 308 00ee 83F31188 		msr     BASEPRI, r3
 309              	@ 0 "" 2
 310              		.thumb
 311              	.LBE4:
 312              		.loc 1 104 0
 313 00f2 40F20003 		movw	r3, #:lower16:threads
 314 00f6 C0F20003 		movt	r3, #:upper16:threads
 315 00fa 9868     		ldr	r0, [r3, #8]
 316 00fc FFF7FEFF 		bl	chThdResume
 317              	.LVL17:
 318              		.loc 1 105 0
 319 0100 FFF7FEFF 		bl	test_wait_threads
 320              	.LVL18:
 321              		.loc 1 106 0
 322 0104 40F20001 		movw	r1, #:lower16:.LC5
 323 0108 C0F20001 		movt	r1, #:upper16:.LC5
 324 010c 0120     		movs	r0, #1
 325              		.loc 1 107 0
 326 010e 03B0     		add	sp, sp, #12
 327              		@ sp needed
 328 0110 BDE8F040 		pop	{r4, r5, r6, r7, lr}
 329              		.loc 1 106 0
 330 0114 FFF7FEBF 		b	_test_assert_sequence
 331              	.LVL19:
 332              		.cfi_endproc
 333              	.LFE9:
 334              		.size	thd2_execute, .-thd2_execute
 335 0118 AFF30080 		.section	.text.thd3_execute,"ax",%progbits
 335      AFF30080 
 336              		.align	2
 337              		.p2align 4,,15
 338              		.thumb
 339              		.thumb_func
 340              		.type	thd3_execute, %function
ARM GAS  /tmp/ccdpV52Q.s 			page 7


 341              	thd3_execute:
 342              	.LFB10:
 343              		.loc 1 126 0
 344              		.cfi_startproc
 345              		@ args = 0, pretend = 0, frame = 0
 346              		@ frame_needed = 0, uses_anonymous_args = 0
 347 0000 F8B5     		push	{r3, r4, r5, r6, r7, lr}
 348              		.cfi_def_cfa_offset 24
 349              		.cfi_offset 3, -24
 350              		.cfi_offset 4, -20
 351              		.cfi_offset 5, -16
 352              		.cfi_offset 6, -12
 353              		.cfi_offset 7, -8
 354              		.cfi_offset 14, -4
 355              		.loc 1 129 0
 356 0002 40F20004 		movw	r4, #:lower16:rlist
 357 0006 C0F20004 		movt	r4, #:upper16:rlist
 358 000a A369     		ldr	r3, [r4, #24]
 359 000c 9D68     		ldr	r5, [r3, #8]
 360              	.LVL20:
 361              		.loc 1 130 0
 362 000e 6E1C     		adds	r6, r5, #1
 363 0010 3046     		mov	r0, r6
 364 0012 FFF7FEFF 		bl	chThdSetPriority
 365              	.LVL21:
 366              		.loc 1 131 0
 367 0016 B0EB050C 		subs	ip, r0, r5
 368 001a DCF10001 		rsbs	r1, ip, #0
 369              		.loc 1 130 0
 370 001e 0746     		mov	r7, r0
 371              	.LVL22:
 372              		.loc 1 131 0
 373 0020 51EB0C01 		adcs	r1, r1, ip
 374 0024 0120     		movs	r0, #1
 375              	.LVL23:
 376 0026 FFF7FEFF 		bl	_test_assert
 377              	.LVL24:
 378 002a 00B1     		cbz	r0, .L9
 379              	.LVL25:
 380              	.L4:
 381 002c F8BD     		pop	{r3, r4, r5, r6, r7, pc}
 382              	.LVL26:
 383              	.L9:
 384              		.loc 1 133 0
 385 002e A369     		ldr	r3, [r4, #24]
 386 0030 9968     		ldr	r1, [r3, #8]
 387 0032 B6EB010E 		subs	lr, r6, r1
 388 0036 DEF10001 		rsbs	r1, lr, #0
 389 003a 51EB0E01 		adcs	r1, r1, lr
 390 003e 0220     		movs	r0, #2
 391 0040 FFF7FEFF 		bl	_test_assert
 392              	.LVL27:
 393 0044 0028     		cmp	r0, #0
 394 0046 F1D1     		bne	.L4
 395              		.loc 1 135 0
 396 0048 3846     		mov	r0, r7
 397 004a FFF7FEFF 		bl	chThdSetPriority
ARM GAS  /tmp/ccdpV52Q.s 			page 8


 398              	.LVL28:
 399              		.loc 1 136 0
 400 004e 301A     		subs	r0, r6, r0
 401              	.LVL29:
 402 0050 4142     		rsbs	r1, r0, #0
 403 0052 4141     		adcs	r1, r1, r0
 404 0054 0320     		movs	r0, #3
 405 0056 FFF7FEFF 		bl	_test_assert
 406              	.LVL30:
 407 005a 0028     		cmp	r0, #0
 408 005c E6D1     		bne	.L4
 409              		.loc 1 138 0
 410 005e A369     		ldr	r3, [r4, #24]
 411 0060 9968     		ldr	r1, [r3, #8]
 412 0062 4A1B     		subs	r2, r1, r5
 413 0064 5142     		rsbs	r1, r2, #0
 414 0066 5141     		adcs	r1, r1, r2
 415 0068 0420     		movs	r0, #4
 416 006a FFF7FEFF 		bl	_test_assert
 417              	.LVL31:
 418 006e 0028     		cmp	r0, #0
 419 0070 DCD1     		bne	.L4
 420              	.LBB5:
 421              		.loc 1 143 0
 422 0072 2023     		movs	r3, #32
 423              	@ 143 "../../../test/testthd.c" 1
 424 0074 83F31188 		msr     BASEPRI, r3
 425              	@ 0 "" 2
 426              		.thumb
 427              	.LBE5:
 428 0078 FFF7FEFF 		bl	dbg_check_lock
 429              	.LVL32:
 430              		.loc 1 144 0
 431 007c A369     		ldr	r3, [r4, #24]
 432 007e 9A68     		ldr	r2, [r3, #8]
 433 0080 0232     		adds	r2, r2, #2
 434 0082 9A60     		str	r2, [r3, #8]
 435              		.loc 1 145 0
 436 0084 FFF7FEFF 		bl	dbg_check_unlock
 437              	.LVL33:
 438              	.LBB6:
 439 0088 0023     		movs	r3, #0
 440              	@ 145 "../../../test/testthd.c" 1
 441 008a 83F31188 		msr     BASEPRI, r3
 442              	@ 0 "" 2
 443              		.thumb
 444              	.LBE6:
 445              		.loc 1 146 0
 446 008e 40F20004 		movw	r4, #:lower16:rlist
 447 0092 C0F20004 		movt	r4, #:upper16:rlist
 448 0096 AF1C     		adds	r7, r5, #2
 449 0098 A369     		ldr	r3, [r4, #24]
 450 009a 9968     		ldr	r1, [r3, #8]
 451 009c CB1B     		subs	r3, r1, r7
 452 009e 5942     		rsbs	r1, r3, #0
 453 00a0 5941     		adcs	r1, r1, r3
 454 00a2 0520     		movs	r0, #5
ARM GAS  /tmp/ccdpV52Q.s 			page 9


 455 00a4 FFF7FEFF 		bl	_test_assert
 456              	.LVL34:
 457 00a8 0028     		cmp	r0, #0
 458 00aa BFD1     		bne	.L4
 459              		.loc 1 150 0
 460 00ac 3046     		mov	r0, r6
 461 00ae FFF7FEFF 		bl	chThdSetPriority
 462              	.LVL35:
 463              		.loc 1 151 0
 464 00b2 B0EB050C 		subs	ip, r0, r5
 465 00b6 DCF10001 		rsbs	r1, ip, #0
 466 00ba 51EB0C01 		adcs	r1, r1, ip
 467 00be 0620     		movs	r0, #6
 468              	.LVL36:
 469 00c0 FFF7FEFF 		bl	_test_assert
 470              	.LVL37:
 471 00c4 0028     		cmp	r0, #0
 472 00c6 B1D1     		bne	.L4
 473              		.loc 1 153 0
 474 00c8 A369     		ldr	r3, [r4, #24]
 475 00ca 9968     		ldr	r1, [r3, #8]
 476 00cc B7EB010E 		subs	lr, r7, r1
 477 00d0 DEF10001 		rsbs	r1, lr, #0
 478 00d4 51EB0E01 		adcs	r1, r1, lr
 479 00d8 0720     		movs	r0, #7
 480 00da FFF7FEFF 		bl	_test_assert
 481              	.LVL38:
 482 00de 0028     		cmp	r0, #0
 483 00e0 A4D1     		bne	.L4
 484              		.loc 1 155 0
 485 00e2 A369     		ldr	r3, [r4, #24]
 486 00e4 596C     		ldr	r1, [r3, #68]
 487 00e6 771A     		subs	r7, r6, r1
 488 00e8 7942     		rsbs	r1, r7, #0
 489 00ea 7941     		adcs	r1, r1, r7
 490 00ec 0820     		movs	r0, #8
 491 00ee FFF7FEFF 		bl	_test_assert
 492              	.LVL39:
 493 00f2 0028     		cmp	r0, #0
 494 00f4 9AD1     		bne	.L4
 495              		.loc 1 159 0
 496 00f6 EF1C     		adds	r7, r5, #3
 497 00f8 3846     		mov	r0, r7
 498 00fa FFF7FEFF 		bl	chThdSetPriority
 499              	.LVL40:
 500              		.loc 1 160 0
 501 00fe 301A     		subs	r0, r6, r0
 502              	.LVL41:
 503 0100 4142     		rsbs	r1, r0, #0
 504 0102 4141     		adcs	r1, r1, r0
 505 0104 0920     		movs	r0, #9
 506 0106 FFF7FEFF 		bl	_test_assert
 507              	.LVL42:
 508 010a 0028     		cmp	r0, #0
 509 010c 8ED1     		bne	.L4
 510              		.loc 1 162 0
 511 010e A369     		ldr	r3, [r4, #24]
ARM GAS  /tmp/ccdpV52Q.s 			page 10


 512 0110 9968     		ldr	r1, [r3, #8]
 513 0112 7A1A     		subs	r2, r7, r1
 514 0114 5142     		rsbs	r1, r2, #0
 515 0116 5141     		adcs	r1, r1, r2
 516 0118 0A20     		movs	r0, #10
 517 011a FFF7FEFF 		bl	_test_assert
 518              	.LVL43:
 519 011e 0028     		cmp	r0, #0
 520 0120 84D1     		bne	.L4
 521              		.loc 1 164 0
 522 0122 A369     		ldr	r3, [r4, #24]
 523 0124 596C     		ldr	r1, [r3, #68]
 524 0126 7B1A     		subs	r3, r7, r1
 525 0128 5942     		rsbs	r1, r3, #0
 526 012a 5941     		adcs	r1, r1, r3
 527 012c 0B20     		movs	r0, #11
 528 012e FFF7FEFF 		bl	_test_assert
 529              	.LVL44:
 530 0132 0028     		cmp	r0, #0
 531 0134 7FF47AAF 		bne	.L4
 532              	.LBB7:
 533              		.loc 1 167 0
 534 0138 2023     		movs	r3, #32
 535              	@ 167 "../../../test/testthd.c" 1
 536 013a 83F31188 		msr     BASEPRI, r3
 537              	@ 0 "" 2
 538              		.thumb
 539              	.LBE7:
 540 013e FFF7FEFF 		bl	dbg_check_lock
 541              	.LVL45:
 542              		.loc 1 168 0
 543 0142 A369     		ldr	r3, [r4, #24]
 544 0144 9D60     		str	r5, [r3, #8]
 545              		.loc 1 169 0
 546 0146 5D64     		str	r5, [r3, #68]
 547              		.loc 1 170 0
 548 0148 FFF7FEFF 		bl	dbg_check_unlock
 549              	.LVL46:
 550              	.LBB8:
 551 014c 0023     		movs	r3, #0
 552              	@ 170 "../../../test/testthd.c" 1
 553 014e 83F31188 		msr     BASEPRI, r3
 554              	@ 0 "" 2
 555              		.thumb
 556 0152 6BE7     		b	.L4
 557              	.LBE8:
 558              		.cfi_endproc
 559              	.LFE10:
 560              		.size	thd3_execute, .-thd3_execute
 561 0154 AFF30080 		.section	.text.thd4_execute,"ax",%progbits
 561      AFF30080 
 561      AFF30080 
 562              		.align	2
 563              		.p2align 4,,15
 564              		.thumb
 565              		.thumb_func
 566              		.type	thd4_execute, %function
ARM GAS  /tmp/ccdpV52Q.s 			page 11


 567              	thd4_execute:
 568              	.LFB11:
 569              		.loc 1 189 0
 570              		.cfi_startproc
 571              		@ args = 0, pretend = 0, frame = 0
 572              		@ frame_needed = 0, uses_anonymous_args = 0
 573 0000 38B5     		push	{r3, r4, r5, lr}
 574              		.cfi_def_cfa_offset 16
 575              		.cfi_offset 3, -16
 576              		.cfi_offset 4, -12
 577              		.cfi_offset 5, -8
 578              		.cfi_offset 14, -4
 579              		.loc 1 195 0
 580 0002 40F20004 		movw	r4, #:lower16:vtlist
 581 0006 C0F20004 		movt	r4, #:upper16:vtlist
 582              		.loc 1 192 0
 583 000a FFF7FEFF 		bl	test_wait_tick
 584              	.LVL47:
 585              		.loc 1 195 0
 586 000e E568     		ldr	r5, [r4, #12]
 587              	.LVL48:
 588              		.loc 1 196 0
 589 0010 6420     		movs	r0, #100
 590 0012 FFF7FEFF 		bl	chThdSleep
 591              	.LVL49:
 592              		.loc 1 197 0
 593 0016 05F16401 		add	r1, r5, #100
 594 001a 05F16502 		add	r2, r5, #101
 595 001e 0120     		movs	r0, #1
 596 0020 FFF7FEFF 		bl	_test_assert_time_window
 597              	.LVL50:
 598 0024 00B1     		cbz	r0, .L14
 599              	.LVL51:
 600              	.L10:
 601 0026 38BD     		pop	{r3, r4, r5, pc}
 602              	.LVL52:
 603              	.L14:
 604              		.loc 1 200 0
 605 0028 E568     		ldr	r5, [r4, #12]
 606              	.LVL53:
 607              		.loc 1 201 0
 608 002a 6420     		movs	r0, #100
 609 002c FFF7FEFF 		bl	chThdSleep
 610              	.LVL54:
 611              		.loc 1 202 0
 612 0030 05F16401 		add	r1, r5, #100
 613 0034 05F16502 		add	r2, r5, #101
 614 0038 0220     		movs	r0, #2
 615 003a FFF7FEFF 		bl	_test_assert_time_window
 616              	.LVL55:
 617 003e 0028     		cmp	r0, #0
 618 0040 F1D1     		bne	.L10
 619              	.LBB11:
 620              	.LBB12:
 621              		.loc 1 205 0
 622 0042 E568     		ldr	r5, [r4, #12]
 623              	.LVL56:
ARM GAS  /tmp/ccdpV52Q.s 			page 12


 624              		.loc 1 206 0
 625 0044 4FF47A70 		mov	r0, #1000
 626 0048 FFF7FEFF 		bl	chThdSleep
 627              	.LVL57:
 628              		.loc 1 207 0
 629 004c 05F57A71 		add	r1, r5, #1000
 630 0050 05F2E932 		addw	r2, r5, #1001
 631 0054 0320     		movs	r0, #3
 632 0056 FFF7FEFF 		bl	_test_assert_time_window
 633              	.LVL58:
 634 005a 0028     		cmp	r0, #0
 635 005c E3D1     		bne	.L10
 636              		.loc 1 210 0
 637 005e E468     		ldr	r4, [r4, #12]
 638 0060 04F16405 		add	r5, r4, #100
 639              	.LVL59:
 640              		.loc 1 211 0
 641 0064 2846     		mov	r0, r5
 642 0066 FFF7FEFF 		bl	chThdSleepUntil
 643              	.LVL60:
 644              		.loc 1 212 0
 645 006a 2946     		mov	r1, r5
 646 006c 04F16502 		add	r2, r4, #101
 647 0070 0420     		movs	r0, #4
 648              	.LBE12:
 649              	.LBE11:
 650              		.loc 1 213 0
 651 0072 BDE83840 		pop	{r3, r4, r5, lr}
 652              	.LVL61:
 653              	.LBB14:
 654              	.LBB13:
 655              		.loc 1 212 0
 656 0076 FFF7FEBF 		b	_test_assert_time_window
 657              	.LVL62:
 658              	.LBE13:
 659              	.LBE14:
 660              		.cfi_endproc
 661              	.LFE11:
 662              		.size	thd4_execute, .-thd4_execute
 663              		.global	patternthd
 664              		.global	testthd4
 665              		.global	testthd3
 666              		.global	testthd2
 667              		.global	testthd1
 668 007a 00BFAFF3 		.section	.rodata.testthd1,"a",%progbits
 668      0080
 669              		.align	2
 670              		.type	testthd1, %object
 671              		.size	testthd1, 16
 672              	testthd1:
 673 0000 64000000 		.word	.LC9
 674 0004 00000000 		.word	0
 675 0008 00000000 		.word	0
 676 000c 00000000 		.word	thd1_execute
 677              		.section	.rodata.testthd2,"a",%progbits
 678              		.align	2
 679              		.type	testthd2, %object
ARM GAS  /tmp/ccdpV52Q.s 			page 13


 680              		.size	testthd2, 16
 681              	testthd2:
 682 0000 48000000 		.word	.LC8
 683 0004 00000000 		.word	0
 684 0008 00000000 		.word	0
 685 000c 00000000 		.word	thd2_execute
 686              		.section	.rodata.testthd3,"a",%progbits
 687              		.align	2
 688              		.type	testthd3, %object
 689              		.size	testthd3, 16
 690              	testthd3:
 691 0000 2C000000 		.word	.LC7
 692 0004 00000000 		.word	0
 693 0008 00000000 		.word	0
 694 000c 00000000 		.word	thd3_execute
 695              		.section	.rodata.testthd4,"a",%progbits
 696              		.align	2
 697              		.type	testthd4, %object
 698              		.size	testthd4, 16
 699              	testthd4:
 700 0000 1C000000 		.word	.LC6
 701 0004 00000000 		.word	0
 702 0008 00000000 		.word	0
 703 000c 00000000 		.word	thd4_execute
 704              		.section	.rodata.patternthd,"a",%progbits
 705              		.align	2
 706              		.type	patternthd, %object
 707              		.size	patternthd, 20
 708              	patternthd:
 709 0000 00000000 		.word	testthd1
 710 0004 00000000 		.word	testthd2
 711 0008 00000000 		.word	testthd3
 712 000c 00000000 		.word	testthd4
 713 0010 00000000 		.word	0
 714              		.section	.rodata.str1.4,"aMS",%progbits,1
 715              		.align	2
 716              	.LC0:
 717 0000 4500     		.ascii	"E\000"
 718 0002 0000     		.space	2
 719              	.LC1:
 720 0004 4400     		.ascii	"D\000"
 721 0006 0000     		.space	2
 722              	.LC2:
 723 0008 4300     		.ascii	"C\000"
 724 000a 0000     		.space	2
 725              	.LC3:
 726 000c 4200     		.ascii	"B\000"
 727 000e 0000     		.space	2
 728              	.LC4:
 729 0010 4100     		.ascii	"A\000"
 730 0012 0000     		.space	2
 731              	.LC5:
 732 0014 41424344 		.ascii	"ABCDE\000"
 732      4500
 733 001a 0000     		.space	2
 734              	.LC6:
 735 001c 54687265 		.ascii	"Threads, delays\000"
ARM GAS  /tmp/ccdpV52Q.s 			page 14


 735      6164732C 
 735      2064656C 
 735      61797300 
 736              	.LC7:
 737 002c 54687265 		.ascii	"Threads, priority change\000"
 737      6164732C 
 737      20707269 
 737      6F726974 
 737      79206368 
 738 0045 000000   		.space	3
 739              	.LC8:
 740 0048 54687265 		.ascii	"Threads, enqueuing test #2\000"
 740      6164732C 
 740      20656E71 
 740      75657569 
 740      6E672074 
 741 0063 00       		.space	1
 742              	.LC9:
 743 0064 54687265 		.ascii	"Threads, enqueuing test #1\000"
 743      6164732C 
 743      20656E71 
 743      75657569 
 743      6E672074 
 744 007f 00       		.text
 745              	.Letext0:
 746              		.file 2 "/usr/lib/gcc/arm-none-eabi/4.8.2/include/stddef.h"
 747              		.file 3 "/usr/include/newlib/machine/_default_types.h"
 748              		.file 4 "/usr/include/newlib/stdint.h"
 749              		.file 5 "../../../os/ports/GCC/ARMCMx/chtypes.h"
 750              		.file 6 "../../../os/kernel/include/chlists.h"
 751              		.file 7 "../../../os/kernel/include/chthreads.h"
 752              		.file 8 "../../../os/ports/GCC/ARMCMx/chcore_v7m.h"
 753              		.file 9 "../../../os/kernel/include/chvt.h"
 754              		.file 10 "../../../os/kernel/include/chschd.h"
 755              		.file 11 "../../../os/kernel/include/chmtx.h"
 756              		.file 12 "../../../test/test.h"
 757              		.file 13 "../../../os/kernel/include/chdebug.h"
 758              		.section	.debug_info,"",%progbits
 759              	.Ldebug_info0:
 760 0000 010D0000 		.4byte	0xd01
 761 0004 0400     		.2byte	0x4
 762 0006 00000000 		.4byte	.Ldebug_abbrev0
 763 000a 04       		.byte	0x4
 764 000b 01       		.uleb128 0x1
 765 000c 3B000000 		.4byte	.LASF112
 766 0010 01       		.byte	0x1
 767 0011 76040000 		.4byte	.LASF113
 768 0015 0B030000 		.4byte	.LASF114
 769 0019 30000000 		.4byte	.Ldebug_ranges0+0x30
 770 001d 00000000 		.4byte	0
 771 0021 00000000 		.4byte	.Ldebug_line0
 772 0025 02       		.uleb128 0x2
 773 0026 04       		.byte	0x4
 774 0027 05       		.byte	0x5
 775 0028 696E7400 		.ascii	"int\000"
 776 002c 03       		.uleb128 0x3
 777 002d 0E000000 		.4byte	.LASF2
ARM GAS  /tmp/ccdpV52Q.s 			page 15


 778 0031 02       		.byte	0x2
 779 0032 D4       		.byte	0xd4
 780 0033 37000000 		.4byte	0x37
 781 0037 04       		.uleb128 0x4
 782 0038 04       		.byte	0x4
 783 0039 07       		.byte	0x7
 784 003a CF010000 		.4byte	.LASF0
 785 003e 04       		.uleb128 0x4
 786 003f 01       		.byte	0x1
 787 0040 06       		.byte	0x6
 788 0041 0D010000 		.4byte	.LASF1
 789 0045 03       		.uleb128 0x3
 790 0046 2A000000 		.4byte	.LASF3
 791 004a 03       		.byte	0x3
 792 004b 1C       		.byte	0x1c
 793 004c 50000000 		.4byte	0x50
 794 0050 04       		.uleb128 0x4
 795 0051 01       		.byte	0x1
 796 0052 08       		.byte	0x8
 797 0053 F3030000 		.4byte	.LASF4
 798 0057 04       		.uleb128 0x4
 799 0058 02       		.byte	0x2
 800 0059 05       		.byte	0x5
 801 005a 1A040000 		.4byte	.LASF5
 802 005e 04       		.uleb128 0x4
 803 005f 02       		.byte	0x2
 804 0060 07       		.byte	0x7
 805 0061 15020000 		.4byte	.LASF6
 806 0065 03       		.uleb128 0x3
 807 0066 DC040000 		.4byte	.LASF7
 808 006a 03       		.byte	0x3
 809 006b 37       		.byte	0x37
 810 006c 70000000 		.4byte	0x70
 811 0070 04       		.uleb128 0x4
 812 0071 04       		.byte	0x4
 813 0072 05       		.byte	0x5
 814 0073 57010000 		.4byte	.LASF8
 815 0077 03       		.uleb128 0x3
 816 0078 9B010000 		.4byte	.LASF9
 817 007c 03       		.byte	0x3
 818 007d 38       		.byte	0x38
 819 007e 82000000 		.4byte	0x82
 820 0082 04       		.uleb128 0x4
 821 0083 04       		.byte	0x4
 822 0084 07       		.byte	0x7
 823 0085 E4010000 		.4byte	.LASF10
 824 0089 04       		.uleb128 0x4
 825 008a 08       		.byte	0x8
 826 008b 05       		.byte	0x5
 827 008c FF000000 		.4byte	.LASF11
 828 0090 03       		.uleb128 0x3
 829 0091 A7030000 		.4byte	.LASF12
 830 0095 03       		.byte	0x3
 831 0096 4E       		.byte	0x4e
 832 0097 9B000000 		.4byte	0x9b
 833 009b 04       		.uleb128 0x4
 834 009c 08       		.byte	0x8
ARM GAS  /tmp/ccdpV52Q.s 			page 16


 835 009d 07       		.byte	0x7
 836 009e D8000000 		.4byte	.LASF13
 837 00a2 03       		.uleb128 0x3
 838 00a3 31050000 		.4byte	.LASF14
 839 00a7 04       		.byte	0x4
 840 00a8 2A       		.byte	0x2a
 841 00a9 45000000 		.4byte	0x45
 842 00ad 03       		.uleb128 0x3
 843 00ae EB030000 		.4byte	.LASF15
 844 00b2 04       		.byte	0x4
 845 00b3 41       		.byte	0x41
 846 00b4 65000000 		.4byte	0x65
 847 00b8 03       		.uleb128 0x3
 848 00b9 06050000 		.4byte	.LASF16
 849 00bd 04       		.byte	0x4
 850 00be 42       		.byte	0x42
 851 00bf 77000000 		.4byte	0x77
 852 00c3 03       		.uleb128 0x3
 853 00c4 21000000 		.4byte	.LASF17
 854 00c8 04       		.byte	0x4
 855 00c9 4E       		.byte	0x4e
 856 00ca 90000000 		.4byte	0x90
 857 00ce 03       		.uleb128 0x3
 858 00cf 21010000 		.4byte	.LASF18
 859 00d3 05       		.byte	0x5
 860 00d4 2B       		.byte	0x2b
 861 00d5 D9000000 		.4byte	0xd9
 862 00d9 04       		.uleb128 0x4
 863 00da 01       		.byte	0x1
 864 00db 02       		.byte	0x2
 865 00dc E5030000 		.4byte	.LASF19
 866 00e0 03       		.uleb128 0x3
 867 00e1 43020000 		.4byte	.LASF20
 868 00e5 05       		.byte	0x5
 869 00e6 2C       		.byte	0x2c
 870 00e7 A2000000 		.4byte	0xa2
 871 00eb 03       		.uleb128 0x3
 872 00ec 60010000 		.4byte	.LASF21
 873 00f0 05       		.byte	0x5
 874 00f1 2D       		.byte	0x2d
 875 00f2 A2000000 		.4byte	0xa2
 876 00f6 03       		.uleb128 0x3
 877 00f7 B2030000 		.4byte	.LASF22
 878 00fb 05       		.byte	0x5
 879 00fc 2E       		.byte	0x2e
 880 00fd A2000000 		.4byte	0xa2
 881 0101 03       		.uleb128 0x3
 882 0102 40010000 		.4byte	.LASF23
 883 0106 05       		.byte	0x5
 884 0107 2F       		.byte	0x2f
 885 0108 A2000000 		.4byte	0xa2
 886 010c 03       		.uleb128 0x3
 887 010d D6030000 		.4byte	.LASF24
 888 0111 05       		.byte	0x5
 889 0112 30       		.byte	0x30
 890 0113 B8000000 		.4byte	0xb8
 891 0117 03       		.uleb128 0x3
ARM GAS  /tmp/ccdpV52Q.s 			page 17


 892 0118 35020000 		.4byte	.LASF25
 893 011c 05       		.byte	0x5
 894 011d 31       		.byte	0x31
 895 011e AD000000 		.4byte	0xad
 896 0122 03       		.uleb128 0x3
 897 0123 57020000 		.4byte	.LASF26
 898 0127 05       		.byte	0x5
 899 0128 33       		.byte	0x33
 900 0129 B8000000 		.4byte	0xb8
 901 012d 03       		.uleb128 0x3
 902 012e C7040000 		.4byte	.LASF27
 903 0132 05       		.byte	0x5
 904 0133 35       		.byte	0x35
 905 0134 B8000000 		.4byte	0xb8
 906 0138 03       		.uleb128 0x3
 907 0139 5B040000 		.4byte	.LASF28
 908 013d 06       		.byte	0x6
 909 013e 2A       		.byte	0x2a
 910 013f 43010000 		.4byte	0x143
 911 0143 05       		.uleb128 0x5
 912 0144 5B040000 		.4byte	.LASF28
 913 0148 4C       		.byte	0x4c
 914 0149 07       		.byte	0x7
 915 014a 5E       		.byte	0x5e
 916 014b 4C020000 		.4byte	0x24c
 917 014f 06       		.uleb128 0x6
 918 0150 4C040000 		.4byte	.LASF29
 919 0154 07       		.byte	0x7
 920 0155 5F       		.byte	0x5f
 921 0156 6D020000 		.4byte	0x26d
 922 015a 00       		.byte	0
 923 015b 06       		.uleb128 0x6
 924 015c C7030000 		.4byte	.LASF30
 925 0160 07       		.byte	0x7
 926 0161 61       		.byte	0x61
 927 0162 6D020000 		.4byte	0x26d
 928 0166 04       		.byte	0x4
 929 0167 06       		.uleb128 0x6
 930 0168 F8000000 		.4byte	.LASF31
 931 016c 07       		.byte	0x7
 932 016d 63       		.byte	0x63
 933 016e 0C010000 		.4byte	0x10c
 934 0172 08       		.byte	0x8
 935 0173 06       		.uleb128 0x6
 936 0174 6E050000 		.4byte	.LASF32
 937 0178 07       		.byte	0x7
 938 0179 64       		.byte	0x64
 939 017a 32030000 		.4byte	0x332
 940 017e 0C       		.byte	0xc
 941 017f 06       		.uleb128 0x6
 942 0180 82010000 		.4byte	.LASF33
 943 0184 07       		.byte	0x7
 944 0185 66       		.byte	0x66
 945 0186 6D020000 		.4byte	0x26d
 946 018a 10       		.byte	0x10
 947 018b 06       		.uleb128 0x6
 948 018c F0020000 		.4byte	.LASF34
ARM GAS  /tmp/ccdpV52Q.s 			page 18


 949 0190 07       		.byte	0x7
 950 0191 67       		.byte	0x67
 951 0192 6D020000 		.4byte	0x26d
 952 0196 14       		.byte	0x14
 953 0197 06       		.uleb128 0x6
 954 0198 40050000 		.4byte	.LASF35
 955 019c 07       		.byte	0x7
 956 019d 6E       		.byte	0x6e
 957 019e EC040000 		.4byte	0x4ec
 958 01a2 18       		.byte	0x18
 959 01a3 06       		.uleb128 0x6
 960 01a4 C4010000 		.4byte	.LASF36
 961 01a8 07       		.byte	0x7
 962 01a9 74       		.byte	0x74
 963 01aa FE040000 		.4byte	0x4fe
 964 01ae 1C       		.byte	0x1c
 965 01af 06       		.uleb128 0x6
 966 01b0 24040000 		.4byte	.LASF37
 967 01b4 07       		.byte	0x7
 968 01b5 79       		.byte	0x79
 969 01b6 EB000000 		.4byte	0xeb
 970 01ba 20       		.byte	0x20
 971 01bb 06       		.uleb128 0x6
 972 01bc 53040000 		.4byte	.LASF38
 973 01c0 07       		.byte	0x7
 974 01c1 7D       		.byte	0x7d
 975 01c2 E0000000 		.4byte	0xe0
 976 01c6 21       		.byte	0x21
 977 01c7 06       		.uleb128 0x6
 978 01c8 1A050000 		.4byte	.LASF39
 979 01cc 07       		.byte	0x7
 980 01cd 82       		.byte	0x82
 981 01ce F6000000 		.4byte	0xf6
 982 01d2 22       		.byte	0x22
 983 01d3 06       		.uleb128 0x6
 984 01d4 2C040000 		.4byte	.LASF40
 985 01d8 07       		.byte	0x7
 986 01d9 88       		.byte	0x88
 987 01da 01010000 		.4byte	0x101
 988 01de 23       		.byte	0x23
 989 01df 06       		.uleb128 0x6
 990 01e0 E6040000 		.4byte	.LASF41
 991 01e4 07       		.byte	0x7
 992 01e5 8F       		.byte	0x8f
 993 01e6 09040000 		.4byte	0x409
 994 01ea 24       		.byte	0x24
 995 01eb 07       		.uleb128 0x7
 996 01ec 705F7500 		.ascii	"p_u\000"
 997 01f0 07       		.byte	0x7
 998 01f1 B4       		.byte	0xb4
 999 01f2 B7040000 		.4byte	0x4b7
 1000 01f6 28       		.byte	0x28
 1001 01f7 06       		.uleb128 0x6
 1002 01f8 74050000 		.4byte	.LASF42
 1003 01fc 07       		.byte	0x7
 1004 01fd B9       		.byte	0xb9
 1005 01fe 93020000 		.4byte	0x293
ARM GAS  /tmp/ccdpV52Q.s 			page 19


 1006 0202 2C       		.byte	0x2c
 1007 0203 06       		.uleb128 0x6
 1008 0204 F4040000 		.4byte	.LASF43
 1009 0208 07       		.byte	0x7
 1010 0209 BF       		.byte	0xbf
 1011 020a 73020000 		.4byte	0x273
 1012 020e 30       		.byte	0x30
 1013 020f 06       		.uleb128 0x6
 1014 0210 08000000 		.4byte	.LASF44
 1015 0214 07       		.byte	0x7
 1016 0215 C3       		.byte	0xc3
 1017 0216 17010000 		.4byte	0x117
 1018 021a 38       		.byte	0x38
 1019 021b 06       		.uleb128 0x6
 1020 021c 6B040000 		.4byte	.LASF45
 1021 0220 07       		.byte	0x7
 1022 0221 C9       		.byte	0xc9
 1023 0222 22010000 		.4byte	0x122
 1024 0226 3C       		.byte	0x3c
 1025 0227 06       		.uleb128 0x6
 1026 0228 10040000 		.4byte	.LASF46
 1027 022c 07       		.byte	0x7
 1028 022d D0       		.byte	0xd0
 1029 022e 04050000 		.4byte	0x504
 1030 0232 40       		.byte	0x40
 1031 0233 06       		.uleb128 0x6
 1032 0234 D1040000 		.4byte	.LASF47
 1033 0238 07       		.byte	0x7
 1034 0239 D4       		.byte	0xd4
 1035 023a 0C010000 		.4byte	0x10c
 1036 023e 44       		.byte	0x44
 1037 023f 06       		.uleb128 0x6
 1038 0240 19010000 		.4byte	.LASF48
 1039 0244 07       		.byte	0x7
 1040 0245 DA       		.byte	0xda
 1041 0246 A9020000 		.4byte	0x2a9
 1042 024a 48       		.byte	0x48
 1043 024b 00       		.byte	0
 1044 024c 08       		.uleb128 0x8
 1045 024d 08       		.byte	0x8
 1046 024e 06       		.byte	0x6
 1047 024f 61       		.byte	0x61
 1048 0250 6D020000 		.4byte	0x26d
 1049 0254 06       		.uleb128 0x6
 1050 0255 4C040000 		.4byte	.LASF29
 1051 0259 06       		.byte	0x6
 1052 025a 62       		.byte	0x62
 1053 025b 6D020000 		.4byte	0x26d
 1054 025f 00       		.byte	0
 1055 0260 06       		.uleb128 0x6
 1056 0261 C7030000 		.4byte	.LASF30
 1057 0265 06       		.byte	0x6
 1058 0266 64       		.byte	0x64
 1059 0267 6D020000 		.4byte	0x26d
 1060 026b 04       		.byte	0x4
 1061 026c 00       		.byte	0
 1062 026d 09       		.uleb128 0x9
ARM GAS  /tmp/ccdpV52Q.s 			page 20


 1063 026e 04       		.byte	0x4
 1064 026f 38010000 		.4byte	0x138
 1065 0273 03       		.uleb128 0x3
 1066 0274 FE020000 		.4byte	.LASF49
 1067 0278 06       		.byte	0x6
 1068 0279 66       		.byte	0x66
 1069 027a 4C020000 		.4byte	0x24c
 1070 027e 08       		.uleb128 0x8
 1071 027f 04       		.byte	0x4
 1072 0280 06       		.byte	0x6
 1073 0281 6B       		.byte	0x6b
 1074 0282 93020000 		.4byte	0x293
 1075 0286 06       		.uleb128 0x6
 1076 0287 4C040000 		.4byte	.LASF29
 1077 028b 06       		.byte	0x6
 1078 028c 6D       		.byte	0x6d
 1079 028d 6D020000 		.4byte	0x26d
 1080 0291 00       		.byte	0
 1081 0292 00       		.byte	0
 1082 0293 03       		.uleb128 0x3
 1083 0294 4B020000 		.4byte	.LASF50
 1084 0298 06       		.byte	0x6
 1085 0299 70       		.byte	0x70
 1086 029a 7E020000 		.4byte	0x27e
 1087 029e 03       		.uleb128 0x3
 1088 029f A6010000 		.4byte	.LASF51
 1089 02a3 08       		.byte	0x8
 1090 02a4 E5       		.byte	0xe5
 1091 02a5 A9020000 		.4byte	0x2a9
 1092 02a9 0A       		.uleb128 0xa
 1093 02aa 04       		.byte	0x4
 1094 02ab 03       		.uleb128 0x3
 1095 02ac 69020000 		.4byte	.LASF52
 1096 02b0 08       		.byte	0x8
 1097 02b1 EB       		.byte	0xeb
 1098 02b2 C3000000 		.4byte	0xc3
 1099 02b6 0B       		.uleb128 0xb
 1100 02b7 ED040000 		.4byte	.LASF53
 1101 02bb 24       		.byte	0x24
 1102 02bc 08       		.byte	0x8
 1103 02bd 0C01     		.2byte	0x10c
 1104 02bf 32030000 		.4byte	0x332
 1105 02c3 0C       		.uleb128 0xc
 1106 02c4 723400   		.ascii	"r4\000"
 1107 02c7 08       		.byte	0x8
 1108 02c8 1F01     		.2byte	0x11f
 1109 02ca 9E020000 		.4byte	0x29e
 1110 02ce 00       		.byte	0
 1111 02cf 0C       		.uleb128 0xc
 1112 02d0 723500   		.ascii	"r5\000"
 1113 02d3 08       		.byte	0x8
 1114 02d4 2001     		.2byte	0x120
 1115 02d6 9E020000 		.4byte	0x29e
 1116 02da 04       		.byte	0x4
 1117 02db 0C       		.uleb128 0xc
 1118 02dc 723600   		.ascii	"r6\000"
 1119 02df 08       		.byte	0x8
ARM GAS  /tmp/ccdpV52Q.s 			page 21


 1120 02e0 2101     		.2byte	0x121
 1121 02e2 9E020000 		.4byte	0x29e
 1122 02e6 08       		.byte	0x8
 1123 02e7 0C       		.uleb128 0xc
 1124 02e8 723700   		.ascii	"r7\000"
 1125 02eb 08       		.byte	0x8
 1126 02ec 2201     		.2byte	0x122
 1127 02ee 9E020000 		.4byte	0x29e
 1128 02f2 0C       		.byte	0xc
 1129 02f3 0C       		.uleb128 0xc
 1130 02f4 723800   		.ascii	"r8\000"
 1131 02f7 08       		.byte	0x8
 1132 02f8 2301     		.2byte	0x123
 1133 02fa 9E020000 		.4byte	0x29e
 1134 02fe 10       		.byte	0x10
 1135 02ff 0C       		.uleb128 0xc
 1136 0300 723900   		.ascii	"r9\000"
 1137 0303 08       		.byte	0x8
 1138 0304 2401     		.2byte	0x124
 1139 0306 9E020000 		.4byte	0x29e
 1140 030a 14       		.byte	0x14
 1141 030b 0C       		.uleb128 0xc
 1142 030c 72313000 		.ascii	"r10\000"
 1143 0310 08       		.byte	0x8
 1144 0311 2501     		.2byte	0x125
 1145 0313 9E020000 		.4byte	0x29e
 1146 0317 18       		.byte	0x18
 1147 0318 0C       		.uleb128 0xc
 1148 0319 72313100 		.ascii	"r11\000"
 1149 031d 08       		.byte	0x8
 1150 031e 2601     		.2byte	0x126
 1151 0320 9E020000 		.4byte	0x29e
 1152 0324 1C       		.byte	0x1c
 1153 0325 0C       		.uleb128 0xc
 1154 0326 6C7200   		.ascii	"lr\000"
 1155 0329 08       		.byte	0x8
 1156 032a 2701     		.2byte	0x127
 1157 032c 9E020000 		.4byte	0x29e
 1158 0330 20       		.byte	0x20
 1159 0331 00       		.byte	0
 1160 0332 0B       		.uleb128 0xb
 1161 0333 0D020000 		.4byte	.LASF54
 1162 0337 04       		.byte	0x4
 1163 0338 08       		.byte	0x8
 1164 0339 3101     		.2byte	0x131
 1165 033b 4D030000 		.4byte	0x34d
 1166 033f 0C       		.uleb128 0xc
 1167 0340 72313300 		.ascii	"r13\000"
 1168 0344 08       		.byte	0x8
 1169 0345 3201     		.2byte	0x132
 1170 0347 4D030000 		.4byte	0x34d
 1171 034b 00       		.byte	0
 1172 034c 00       		.byte	0
 1173 034d 09       		.uleb128 0x9
 1174 034e 04       		.byte	0x4
 1175 034f B6020000 		.4byte	0x2b6
 1176 0353 04       		.uleb128 0x4
ARM GAS  /tmp/ccdpV52Q.s 			page 22


 1177 0354 04       		.byte	0x4
 1178 0355 07       		.byte	0x7
 1179 0356 8E020000 		.4byte	.LASF55
 1180 035a 03       		.uleb128 0x3
 1181 035b FF010000 		.4byte	.LASF56
 1182 035f 09       		.byte	0x9
 1183 0360 58       		.byte	0x58
 1184 0361 65030000 		.4byte	0x365
 1185 0365 09       		.uleb128 0x9
 1186 0366 04       		.byte	0x4
 1187 0367 6B030000 		.4byte	0x36b
 1188 036b 0D       		.uleb128 0xd
 1189 036c 76030000 		.4byte	0x376
 1190 0370 0E       		.uleb128 0xe
 1191 0371 A9020000 		.4byte	0x2a9
 1192 0375 00       		.byte	0
 1193 0376 03       		.uleb128 0x3
 1194 0377 96040000 		.4byte	.LASF57
 1195 037b 09       		.byte	0x9
 1196 037c 5D       		.byte	0x5d
 1197 037d 81030000 		.4byte	0x381
 1198 0381 05       		.uleb128 0x5
 1199 0382 96040000 		.4byte	.LASF57
 1200 0386 14       		.byte	0x14
 1201 0387 09       		.byte	0x9
 1202 0388 64       		.byte	0x64
 1203 0389 CA030000 		.4byte	0x3ca
 1204 038d 06       		.uleb128 0x6
 1205 038e DC010000 		.4byte	.LASF58
 1206 0392 09       		.byte	0x9
 1207 0393 65       		.byte	0x65
 1208 0394 CA030000 		.4byte	0x3ca
 1209 0398 00       		.byte	0
 1210 0399 06       		.uleb128 0x6
 1211 039a AF010000 		.4byte	.LASF59
 1212 039e 09       		.byte	0x9
 1213 039f 67       		.byte	0x67
 1214 03a0 CA030000 		.4byte	0x3ca
 1215 03a4 04       		.byte	0x4
 1216 03a5 06       		.uleb128 0x6
 1217 03a6 86020000 		.4byte	.LASF60
 1218 03aa 09       		.byte	0x9
 1219 03ab 69       		.byte	0x69
 1220 03ac 2D010000 		.4byte	0x12d
 1221 03b0 08       		.byte	0x8
 1222 03b1 06       		.uleb128 0x6
 1223 03b2 BB020000 		.4byte	.LASF61
 1224 03b6 09       		.byte	0x9
 1225 03b7 6A       		.byte	0x6a
 1226 03b8 5A030000 		.4byte	0x35a
 1227 03bc 0C       		.byte	0xc
 1228 03bd 06       		.uleb128 0x6
 1229 03be FF040000 		.4byte	.LASF62
 1230 03c2 09       		.byte	0x9
 1231 03c3 6C       		.byte	0x6c
 1232 03c4 A9020000 		.4byte	0x2a9
 1233 03c8 10       		.byte	0x10
ARM GAS  /tmp/ccdpV52Q.s 			page 23


 1234 03c9 00       		.byte	0
 1235 03ca 09       		.uleb128 0x9
 1236 03cb 04       		.byte	0x4
 1237 03cc 76030000 		.4byte	0x376
 1238 03d0 08       		.uleb128 0x8
 1239 03d1 10       		.byte	0x10
 1240 03d2 09       		.byte	0x9
 1241 03d3 76       		.byte	0x76
 1242 03d4 09040000 		.4byte	0x409
 1243 03d8 06       		.uleb128 0x6
 1244 03d9 DC010000 		.4byte	.LASF58
 1245 03dd 09       		.byte	0x9
 1246 03de 77       		.byte	0x77
 1247 03df CA030000 		.4byte	0x3ca
 1248 03e3 00       		.byte	0
 1249 03e4 06       		.uleb128 0x6
 1250 03e5 AF010000 		.4byte	.LASF59
 1251 03e9 09       		.byte	0x9
 1252 03ea 79       		.byte	0x79
 1253 03eb CA030000 		.4byte	0x3ca
 1254 03ef 04       		.byte	0x4
 1255 03f0 06       		.uleb128 0x6
 1256 03f1 86020000 		.4byte	.LASF60
 1257 03f5 09       		.byte	0x9
 1258 03f6 7B       		.byte	0x7b
 1259 03f7 2D010000 		.4byte	0x12d
 1260 03fb 08       		.byte	0x8
 1261 03fc 06       		.uleb128 0x6
 1262 03fd 54050000 		.4byte	.LASF63
 1263 0401 09       		.byte	0x9
 1264 0402 7C       		.byte	0x7c
 1265 0403 09040000 		.4byte	0x409
 1266 0407 0C       		.byte	0xc
 1267 0408 00       		.byte	0
 1268 0409 0F       		.uleb128 0xf
 1269 040a 2D010000 		.4byte	0x12d
 1270 040e 03       		.uleb128 0x3
 1271 040f 5F050000 		.4byte	.LASF64
 1272 0413 09       		.byte	0x9
 1273 0414 7D       		.byte	0x7d
 1274 0415 D0030000 		.4byte	0x3d0
 1275 0419 08       		.uleb128 0x8
 1276 041a 1C       		.byte	0x1c
 1277 041b 0A       		.byte	0xa
 1278 041c 5E       		.byte	0x5e
 1279 041d 6A040000 		.4byte	0x46a
 1280 0421 06       		.uleb128 0x6
 1281 0422 8E040000 		.4byte	.LASF65
 1282 0426 0A       		.byte	0xa
 1283 0427 5F       		.byte	0x5f
 1284 0428 73020000 		.4byte	0x273
 1285 042c 00       		.byte	0
 1286 042d 06       		.uleb128 0x6
 1287 042e 3E040000 		.4byte	.LASF66
 1288 0432 0A       		.byte	0xa
 1289 0433 60       		.byte	0x60
 1290 0434 0C010000 		.4byte	0x10c
ARM GAS  /tmp/ccdpV52Q.s 			page 24


 1291 0438 08       		.byte	0x8
 1292 0439 06       		.uleb128 0x6
 1293 043a F8020000 		.4byte	.LASF67
 1294 043e 0A       		.byte	0xa
 1295 043f 62       		.byte	0x62
 1296 0440 32030000 		.4byte	0x332
 1297 0444 0C       		.byte	0xc
 1298 0445 06       		.uleb128 0x6
 1299 0446 3B020000 		.4byte	.LASF68
 1300 044a 0A       		.byte	0xa
 1301 044b 65       		.byte	0x65
 1302 044c 6D020000 		.4byte	0x26d
 1303 0450 10       		.byte	0x10
 1304 0451 06       		.uleb128 0x6
 1305 0452 7E030000 		.4byte	.LASF69
 1306 0456 0A       		.byte	0xa
 1307 0457 66       		.byte	0x66
 1308 0458 6D020000 		.4byte	0x26d
 1309 045c 14       		.byte	0x14
 1310 045d 06       		.uleb128 0x6
 1311 045e 74030000 		.4byte	.LASF70
 1312 0462 0A       		.byte	0xa
 1313 0463 69       		.byte	0x69
 1314 0464 6D020000 		.4byte	0x26d
 1315 0468 18       		.byte	0x18
 1316 0469 00       		.byte	0
 1317 046a 03       		.uleb128 0x3
 1318 046b 21050000 		.4byte	.LASF71
 1319 046f 0A       		.byte	0xa
 1320 0470 6B       		.byte	0x6b
 1321 0471 19040000 		.4byte	0x419
 1322 0475 05       		.uleb128 0x5
 1323 0476 63020000 		.4byte	.LASF72
 1324 047a 10       		.byte	0x10
 1325 047b 0B       		.byte	0xb
 1326 047c 2C       		.byte	0x2c
 1327 047d A6040000 		.4byte	0x4a6
 1328 0481 06       		.uleb128 0x6
 1329 0482 28010000 		.4byte	.LASF73
 1330 0486 0B       		.byte	0xb
 1331 0487 2D       		.byte	0x2d
 1332 0488 73020000 		.4byte	0x273
 1333 048c 00       		.byte	0
 1334 048d 06       		.uleb128 0x6
 1335 048e 66050000 		.4byte	.LASF74
 1336 0492 0B       		.byte	0xb
 1337 0493 2F       		.byte	0x2f
 1338 0494 6D020000 		.4byte	0x26d
 1339 0498 08       		.byte	0x8
 1340 0499 06       		.uleb128 0x6
 1341 049a C0040000 		.4byte	.LASF75
 1342 049e 0B       		.byte	0xb
 1343 049f 31       		.byte	0x31
 1344 04a0 A6040000 		.4byte	0x4a6
 1345 04a4 0C       		.byte	0xc
 1346 04a5 00       		.byte	0
 1347 04a6 09       		.uleb128 0x9
ARM GAS  /tmp/ccdpV52Q.s 			page 25


 1348 04a7 04       		.byte	0x4
 1349 04a8 75040000 		.4byte	0x475
 1350 04ac 03       		.uleb128 0x3
 1351 04ad 63020000 		.4byte	.LASF72
 1352 04b1 0B       		.byte	0xb
 1353 04b2 33       		.byte	0x33
 1354 04b3 75040000 		.4byte	0x475
 1355 04b7 10       		.uleb128 0x10
 1356 04b8 04       		.byte	0x4
 1357 04b9 07       		.byte	0x7
 1358 04ba 96       		.byte	0x96
 1359 04bb EC040000 		.4byte	0x4ec
 1360 04bf 11       		.uleb128 0x11
 1361 04c0 1A000000 		.4byte	.LASF76
 1362 04c4 07       		.byte	0x7
 1363 04c5 9D       		.byte	0x9d
 1364 04c6 17010000 		.4byte	0x117
 1365 04ca 11       		.uleb128 0x11
 1366 04cb EF000000 		.4byte	.LASF77
 1367 04cf 07       		.byte	0x7
 1368 04d0 A4       		.byte	0xa4
 1369 04d1 17010000 		.4byte	0x117
 1370 04d5 11       		.uleb128 0x11
 1371 04d6 39050000 		.4byte	.LASF78
 1372 04da 07       		.byte	0x7
 1373 04db AB       		.byte	0xab
 1374 04dc A9020000 		.4byte	0x2a9
 1375 04e0 11       		.uleb128 0x11
 1376 04e1 45040000 		.4byte	.LASF79
 1377 04e5 07       		.byte	0x7
 1378 04e6 B2       		.byte	0xb2
 1379 04e7 22010000 		.4byte	0x122
 1380 04eb 00       		.byte	0
 1381 04ec 09       		.uleb128 0x9
 1382 04ed 04       		.byte	0x4
 1383 04ee F2040000 		.4byte	0x4f2
 1384 04f2 12       		.uleb128 0x12
 1385 04f3 F7040000 		.4byte	0x4f7
 1386 04f7 04       		.uleb128 0x4
 1387 04f8 01       		.byte	0x1
 1388 04f9 08       		.byte	0x8
 1389 04fa A3040000 		.4byte	.LASF80
 1390 04fe 09       		.uleb128 0x9
 1391 04ff 04       		.byte	0x4
 1392 0500 AB020000 		.4byte	0x2ab
 1393 0504 09       		.uleb128 0x9
 1394 0505 04       		.byte	0x4
 1395 0506 AC040000 		.4byte	0x4ac
 1396 050a 03       		.uleb128 0x3
 1397 050b 00000000 		.4byte	.LASF81
 1398 050f 07       		.byte	0x7
 1399 0510 E5       		.byte	0xe5
 1400 0511 15050000 		.4byte	0x515
 1401 0515 09       		.uleb128 0x9
 1402 0516 04       		.byte	0x4
 1403 0517 1B050000 		.4byte	0x51b
 1404 051b 13       		.uleb128 0x13
ARM GAS  /tmp/ccdpV52Q.s 			page 26


 1405 051c 17010000 		.4byte	0x117
 1406 0520 2A050000 		.4byte	0x52a
 1407 0524 0E       		.uleb128 0xe
 1408 0525 A9020000 		.4byte	0x2a9
 1409 0529 00       		.byte	0
 1410 052a 05       		.uleb128 0x5
 1411 052b 62040000 		.4byte	.LASF82
 1412 052f 10       		.byte	0x10
 1413 0530 0C       		.byte	0xc
 1414 0531 3B       		.byte	0x3b
 1415 0532 67050000 		.4byte	0x567
 1416 0536 06       		.uleb128 0x6
 1417 0537 08020000 		.4byte	.LASF83
 1418 053b 0C       		.byte	0xc
 1419 053c 3C       		.byte	0x3c
 1420 053d EC040000 		.4byte	0x4ec
 1421 0541 00       		.byte	0
 1422 0542 06       		.uleb128 0x6
 1423 0543 53030000 		.4byte	.LASF84
 1424 0547 0C       		.byte	0xc
 1425 0548 3D       		.byte	0x3d
 1426 0549 68050000 		.4byte	0x568
 1427 054d 04       		.byte	0x4
 1428 054e 06       		.uleb128 0x6
 1429 054f F6010000 		.4byte	.LASF85
 1430 0553 0C       		.byte	0xc
 1431 0554 3E       		.byte	0x3e
 1432 0555 68050000 		.4byte	0x568
 1433 0559 08       		.byte	0x8
 1434 055a 06       		.uleb128 0x6
 1435 055b CE030000 		.4byte	.LASF86
 1436 055f 0C       		.byte	0xc
 1437 0560 3F       		.byte	0x3f
 1438 0561 68050000 		.4byte	0x568
 1439 0565 0C       		.byte	0xc
 1440 0566 00       		.byte	0
 1441 0567 14       		.uleb128 0x14
 1442 0568 09       		.uleb128 0x9
 1443 0569 04       		.byte	0x4
 1444 056a 67050000 		.4byte	0x567
 1445 056e 15       		.uleb128 0x15
 1446 056f A8040000 		.4byte	.LASF115
 1447 0573 01       		.byte	0x1
 1448 0574 BD       		.byte	0xbd
 1449 0575 01       		.byte	0x1
 1450 0576 86050000 		.4byte	0x586
 1451 057a 16       		.uleb128 0x16
 1452 057b 6F030000 		.4byte	.LASF116
 1453 057f 01       		.byte	0x1
 1454 0580 BE       		.byte	0xbe
 1455 0581 2D010000 		.4byte	0x12d
 1456 0585 00       		.byte	0
 1457 0586 17       		.uleb128 0x17
 1458 0587 B7010000 		.4byte	.LASF87
 1459 058b 01       		.byte	0x1
 1460 058c 42       		.byte	0x42
 1461 058d 00000000 		.4byte	.LFB8
ARM GAS  /tmp/ccdpV52Q.s 			page 27


 1462 0591 DA000000 		.4byte	.LFE8-.LFB8
 1463 0595 01       		.uleb128 0x1
 1464 0596 9C       		.byte	0x9c
 1465 0597 99060000 		.4byte	0x699
 1466 059b 18       		.uleb128 0x18
 1467 059c 38000000 		.4byte	.LVL0
 1468 05a0 D60B0000 		.4byte	0xbd6
 1469 05a4 C7050000 		.4byte	0x5c7
 1470 05a8 19       		.uleb128 0x19
 1471 05a9 01       		.uleb128 0x1
 1472 05aa 53       		.byte	0x53
 1473 05ab 02       		.uleb128 0x2
 1474 05ac 75       		.byte	0x75
 1475 05ad 00       		.sleb128 0
 1476 05ae 19       		.uleb128 0x19
 1477 05af 01       		.uleb128 0x1
 1478 05b0 51       		.byte	0x51
 1479 05b1 03       		.uleb128 0x3
 1480 05b2 0A       		.byte	0xa
 1481 05b3 5001     		.2byte	0x150
 1482 05b5 19       		.uleb128 0x19
 1483 05b6 01       		.uleb128 0x1
 1484 05b7 50       		.byte	0x50
 1485 05b8 03       		.uleb128 0x3
 1486 05b9 76       		.byte	0x76
 1487 05ba 00       		.sleb128 0
 1488 05bb 06       		.byte	0x6
 1489 05bc 19       		.uleb128 0x19
 1490 05bd 02       		.uleb128 0x2
 1491 05be 7D       		.byte	0x7d
 1492 05bf 00       		.sleb128 0
 1493 05c0 05       		.uleb128 0x5
 1494 05c1 03       		.byte	0x3
 1495 05c2 00000000 		.4byte	.LC0
 1496 05c6 00       		.byte	0
 1497 05c7 18       		.uleb128 0x18
 1498 05c8 60000000 		.4byte	.LVL1
 1499 05cc D60B0000 		.4byte	0xbd6
 1500 05d0 F3050000 		.4byte	0x5f3
 1501 05d4 19       		.uleb128 0x19
 1502 05d5 01       		.uleb128 0x1
 1503 05d6 53       		.byte	0x53
 1504 05d7 02       		.uleb128 0x2
 1505 05d8 75       		.byte	0x75
 1506 05d9 00       		.sleb128 0
 1507 05da 19       		.uleb128 0x19
 1508 05db 01       		.uleb128 0x1
 1509 05dc 51       		.byte	0x51
 1510 05dd 03       		.uleb128 0x3
 1511 05de 0A       		.byte	0xa
 1512 05df 5001     		.2byte	0x150
 1513 05e1 19       		.uleb128 0x19
 1514 05e2 01       		.uleb128 0x1
 1515 05e3 50       		.byte	0x50
 1516 05e4 03       		.uleb128 0x3
 1517 05e5 76       		.byte	0x76
 1518 05e6 04       		.sleb128 4
ARM GAS  /tmp/ccdpV52Q.s 			page 28


 1519 05e7 06       		.byte	0x6
 1520 05e8 19       		.uleb128 0x19
 1521 05e9 02       		.uleb128 0x2
 1522 05ea 7D       		.byte	0x7d
 1523 05eb 00       		.sleb128 0
 1524 05ec 05       		.uleb128 0x5
 1525 05ed 03       		.byte	0x3
 1526 05ee 04000000 		.4byte	.LC1
 1527 05f2 00       		.byte	0
 1528 05f3 18       		.uleb128 0x18
 1529 05f4 80000000 		.4byte	.LVL2
 1530 05f8 D60B0000 		.4byte	0xbd6
 1531 05fc 1F060000 		.4byte	0x61f
 1532 0600 19       		.uleb128 0x19
 1533 0601 01       		.uleb128 0x1
 1534 0602 53       		.byte	0x53
 1535 0603 02       		.uleb128 0x2
 1536 0604 75       		.byte	0x75
 1537 0605 00       		.sleb128 0
 1538 0606 19       		.uleb128 0x19
 1539 0607 01       		.uleb128 0x1
 1540 0608 51       		.byte	0x51
 1541 0609 03       		.uleb128 0x3
 1542 060a 0A       		.byte	0xa
 1543 060b 5001     		.2byte	0x150
 1544 060d 19       		.uleb128 0x19
 1545 060e 01       		.uleb128 0x1
 1546 060f 50       		.byte	0x50
 1547 0610 03       		.uleb128 0x3
 1548 0611 76       		.byte	0x76
 1549 0612 08       		.sleb128 8
 1550 0613 06       		.byte	0x6
 1551 0614 19       		.uleb128 0x19
 1552 0615 02       		.uleb128 0x2
 1553 0616 7D       		.byte	0x7d
 1554 0617 00       		.sleb128 0
 1555 0618 05       		.uleb128 0x5
 1556 0619 03       		.byte	0x3
 1557 061a 08000000 		.4byte	.LC2
 1558 061e 00       		.byte	0
 1559 061f 18       		.uleb128 0x18
 1560 0620 A0000000 		.4byte	.LVL3
 1561 0624 D60B0000 		.4byte	0xbd6
 1562 0628 4B060000 		.4byte	0x64b
 1563 062c 19       		.uleb128 0x19
 1564 062d 01       		.uleb128 0x1
 1565 062e 53       		.byte	0x53
 1566 062f 02       		.uleb128 0x2
 1567 0630 75       		.byte	0x75
 1568 0631 00       		.sleb128 0
 1569 0632 19       		.uleb128 0x19
 1570 0633 01       		.uleb128 0x1
 1571 0634 51       		.byte	0x51
 1572 0635 03       		.uleb128 0x3
 1573 0636 0A       		.byte	0xa
 1574 0637 5001     		.2byte	0x150
 1575 0639 19       		.uleb128 0x19
ARM GAS  /tmp/ccdpV52Q.s 			page 29


 1576 063a 01       		.uleb128 0x1
 1577 063b 50       		.byte	0x50
 1578 063c 03       		.uleb128 0x3
 1579 063d 76       		.byte	0x76
 1580 063e 0C       		.sleb128 12
 1581 063f 06       		.byte	0x6
 1582 0640 19       		.uleb128 0x19
 1583 0641 02       		.uleb128 0x2
 1584 0642 7D       		.byte	0x7d
 1585 0643 00       		.sleb128 0
 1586 0644 05       		.uleb128 0x5
 1587 0645 03       		.byte	0x3
 1588 0646 0C000000 		.4byte	.LC3
 1589 064a 00       		.byte	0
 1590 064b 18       		.uleb128 0x18
 1591 064c C0000000 		.4byte	.LVL4
 1592 0650 D60B0000 		.4byte	0xbd6
 1593 0654 77060000 		.4byte	0x677
 1594 0658 19       		.uleb128 0x19
 1595 0659 01       		.uleb128 0x1
 1596 065a 53       		.byte	0x53
 1597 065b 02       		.uleb128 0x2
 1598 065c 75       		.byte	0x75
 1599 065d 00       		.sleb128 0
 1600 065e 19       		.uleb128 0x19
 1601 065f 01       		.uleb128 0x1
 1602 0660 51       		.byte	0x51
 1603 0661 03       		.uleb128 0x3
 1604 0662 0A       		.byte	0xa
 1605 0663 5001     		.2byte	0x150
 1606 0665 19       		.uleb128 0x19
 1607 0666 01       		.uleb128 0x1
 1608 0667 50       		.byte	0x50
 1609 0668 03       		.uleb128 0x3
 1610 0669 76       		.byte	0x76
 1611 066a 10       		.sleb128 16
 1612 066b 06       		.byte	0x6
 1613 066c 19       		.uleb128 0x19
 1614 066d 02       		.uleb128 0x2
 1615 066e 7D       		.byte	0x7d
 1616 066f 00       		.sleb128 0
 1617 0670 05       		.uleb128 0x5
 1618 0671 03       		.byte	0x3
 1619 0672 10000000 		.4byte	.LC4
 1620 0676 00       		.byte	0
 1621 0677 1A       		.uleb128 0x1a
 1622 0678 C6000000 		.4byte	.LVL5
 1623 067c 000C0000 		.4byte	0xc00
 1624 0680 1B       		.uleb128 0x1b
 1625 0681 DA000000 		.4byte	.LVL6
 1626 0685 070C0000 		.4byte	0xc07
 1627 0689 19       		.uleb128 0x19
 1628 068a 01       		.uleb128 0x1
 1629 068b 51       		.byte	0x51
 1630 068c 05       		.uleb128 0x5
 1631 068d 03       		.byte	0x3
 1632 068e 14000000 		.4byte	.LC5
ARM GAS  /tmp/ccdpV52Q.s 			page 30


 1633 0692 19       		.uleb128 0x19
 1634 0693 01       		.uleb128 0x1
 1635 0694 50       		.byte	0x50
 1636 0695 01       		.uleb128 0x1
 1637 0696 31       		.byte	0x31
 1638 0697 00       		.byte	0
 1639 0698 00       		.byte	0
 1640 0699 1C       		.uleb128 0x1c
 1641 069a DE030000 		.4byte	.LASF117
 1642 069e 01       		.byte	0x1
 1643 069f 3C       		.byte	0x3c
 1644 06a0 17010000 		.4byte	0x117
 1645 06a4 00000000 		.4byte	.LFB7
 1646 06a8 0C000000 		.4byte	.LFE7-.LFB7
 1647 06ac 01       		.uleb128 0x1
 1648 06ad 9C       		.byte	0x9c
 1649 06ae C9060000 		.4byte	0x6c9
 1650 06b2 1D       		.uleb128 0x1d
 1651 06b3 7000     		.ascii	"p\000"
 1652 06b5 01       		.byte	0x1
 1653 06b6 3C       		.byte	0x3c
 1654 06b7 A9020000 		.4byte	0x2a9
 1655 06bb 00000000 		.4byte	.LLST0
 1656 06bf 1A       		.uleb128 0x1a
 1657 06c0 08000000 		.4byte	.LVL9
 1658 06c4 270C0000 		.4byte	0xc27
 1659 06c8 00       		.byte	0
 1660 06c9 17       		.uleb128 0x17
 1661 06ca 28020000 		.4byte	.LASF88
 1662 06ce 01       		.byte	0x1
 1663 06cf 5E       		.byte	0x5e
 1664 06d0 00000000 		.4byte	.LFB9
 1665 06d4 18010000 		.4byte	.LFE9-.LFB9
 1666 06d8 01       		.uleb128 0x1
 1667 06d9 9C       		.byte	0x9c
 1668 06da 29080000 		.4byte	0x829
 1669 06de 1E       		.uleb128 0x1e
 1670 06df 00000000 		.4byte	.Ldebug_ranges0+0
 1671 06e3 F5060000 		.4byte	0x6f5
 1672 06e7 1F       		.uleb128 0x1f
 1673 06e8 746D7000 		.ascii	"tmp\000"
 1674 06ec 01       		.byte	0x1
 1675 06ed 65       		.byte	0x65
 1676 06ee B8000000 		.4byte	0xb8
 1677 06f2 01       		.uleb128 0x1
 1678 06f3 53       		.byte	0x53
 1679 06f4 00       		.byte	0
 1680 06f5 20       		.uleb128 0x20
 1681 06f6 EC000000 		.4byte	.LBB4
 1682 06fa 06000000 		.4byte	.LBE4-.LBB4
 1683 06fe 10070000 		.4byte	0x710
 1684 0702 1F       		.uleb128 0x1f
 1685 0703 746D7000 		.ascii	"tmp\000"
 1686 0707 01       		.byte	0x1
 1687 0708 67       		.byte	0x67
 1688 0709 B8000000 		.4byte	0xb8
 1689 070d 01       		.uleb128 0x1
ARM GAS  /tmp/ccdpV52Q.s 			page 31


 1690 070e 53       		.byte	0x53
 1691 070f 00       		.byte	0
 1692 0710 18       		.uleb128 0x18
 1693 0711 38000000 		.4byte	.LVL10
 1694 0715 D60B0000 		.4byte	0xbd6
 1695 0719 3C070000 		.4byte	0x73c
 1696 071d 19       		.uleb128 0x19
 1697 071e 01       		.uleb128 0x1
 1698 071f 53       		.byte	0x53
 1699 0720 02       		.uleb128 0x2
 1700 0721 75       		.byte	0x75
 1701 0722 00       		.sleb128 0
 1702 0723 19       		.uleb128 0x19
 1703 0724 01       		.uleb128 0x1
 1704 0725 51       		.byte	0x51
 1705 0726 03       		.uleb128 0x3
 1706 0727 0A       		.byte	0xa
 1707 0728 5001     		.2byte	0x150
 1708 072a 19       		.uleb128 0x19
 1709 072b 01       		.uleb128 0x1
 1710 072c 50       		.byte	0x50
 1711 072d 03       		.uleb128 0x3
 1712 072e 76       		.byte	0x76
 1713 072f 04       		.sleb128 4
 1714 0730 06       		.byte	0x6
 1715 0731 19       		.uleb128 0x19
 1716 0732 02       		.uleb128 0x2
 1717 0733 7D       		.byte	0x7d
 1718 0734 00       		.sleb128 0
 1719 0735 05       		.uleb128 0x5
 1720 0736 03       		.byte	0x3
 1721 0737 04000000 		.4byte	.LC1
 1722 073b 00       		.byte	0
 1723 073c 18       		.uleb128 0x18
 1724 073d 60000000 		.4byte	.LVL11
 1725 0741 D60B0000 		.4byte	0xbd6
 1726 0745 68070000 		.4byte	0x768
 1727 0749 19       		.uleb128 0x19
 1728 074a 01       		.uleb128 0x1
 1729 074b 53       		.byte	0x53
 1730 074c 02       		.uleb128 0x2
 1731 074d 75       		.byte	0x75
 1732 074e 00       		.sleb128 0
 1733 074f 19       		.uleb128 0x19
 1734 0750 01       		.uleb128 0x1
 1735 0751 51       		.byte	0x51
 1736 0752 03       		.uleb128 0x3
 1737 0753 0A       		.byte	0xa
 1738 0754 5001     		.2byte	0x150
 1739 0756 19       		.uleb128 0x19
 1740 0757 01       		.uleb128 0x1
 1741 0758 50       		.byte	0x50
 1742 0759 03       		.uleb128 0x3
 1743 075a 76       		.byte	0x76
 1744 075b 00       		.sleb128 0
 1745 075c 06       		.byte	0x6
 1746 075d 19       		.uleb128 0x19
ARM GAS  /tmp/ccdpV52Q.s 			page 32


 1747 075e 02       		.uleb128 0x2
 1748 075f 7D       		.byte	0x7d
 1749 0760 00       		.sleb128 0
 1750 0761 05       		.uleb128 0x5
 1751 0762 03       		.byte	0x3
 1752 0763 00000000 		.4byte	.LC0
 1753 0767 00       		.byte	0
 1754 0768 18       		.uleb128 0x18
 1755 0769 80000000 		.4byte	.LVL12
 1756 076d D60B0000 		.4byte	0xbd6
 1757 0771 94070000 		.4byte	0x794
 1758 0775 19       		.uleb128 0x19
 1759 0776 01       		.uleb128 0x1
 1760 0777 53       		.byte	0x53
 1761 0778 02       		.uleb128 0x2
 1762 0779 75       		.byte	0x75
 1763 077a 00       		.sleb128 0
 1764 077b 19       		.uleb128 0x19
 1765 077c 01       		.uleb128 0x1
 1766 077d 51       		.byte	0x51
 1767 077e 03       		.uleb128 0x3
 1768 077f 0A       		.byte	0xa
 1769 0780 5001     		.2byte	0x150
 1770 0782 19       		.uleb128 0x19
 1771 0783 01       		.uleb128 0x1
 1772 0784 50       		.byte	0x50
 1773 0785 03       		.uleb128 0x3
 1774 0786 76       		.byte	0x76
 1775 0787 10       		.sleb128 16
 1776 0788 06       		.byte	0x6
 1777 0789 19       		.uleb128 0x19
 1778 078a 02       		.uleb128 0x2
 1779 078b 7D       		.byte	0x7d
 1780 078c 00       		.sleb128 0
 1781 078d 05       		.uleb128 0x5
 1782 078e 03       		.byte	0x3
 1783 078f 10000000 		.4byte	.LC4
 1784 0793 00       		.byte	0
 1785 0794 18       		.uleb128 0x18
 1786 0795 A0000000 		.4byte	.LVL13
 1787 0799 D60B0000 		.4byte	0xbd6
 1788 079d C0070000 		.4byte	0x7c0
 1789 07a1 19       		.uleb128 0x19
 1790 07a2 01       		.uleb128 0x1
 1791 07a3 53       		.byte	0x53
 1792 07a4 02       		.uleb128 0x2
 1793 07a5 75       		.byte	0x75
 1794 07a6 00       		.sleb128 0
 1795 07a7 19       		.uleb128 0x19
 1796 07a8 01       		.uleb128 0x1
 1797 07a9 51       		.byte	0x51
 1798 07aa 03       		.uleb128 0x3
 1799 07ab 0A       		.byte	0xa
 1800 07ac 5001     		.2byte	0x150
 1801 07ae 19       		.uleb128 0x19
 1802 07af 01       		.uleb128 0x1
 1803 07b0 50       		.byte	0x50
ARM GAS  /tmp/ccdpV52Q.s 			page 33


 1804 07b1 03       		.uleb128 0x3
 1805 07b2 76       		.byte	0x76
 1806 07b3 0C       		.sleb128 12
 1807 07b4 06       		.byte	0x6
 1808 07b5 19       		.uleb128 0x19
 1809 07b6 02       		.uleb128 0x2
 1810 07b7 7D       		.byte	0x7d
 1811 07b8 00       		.sleb128 0
 1812 07b9 05       		.uleb128 0x5
 1813 07ba 03       		.byte	0x3
 1814 07bb 0C000000 		.4byte	.LC3
 1815 07bf 00       		.byte	0
 1816 07c0 1A       		.uleb128 0x1a
 1817 07c1 AC000000 		.4byte	.LVL14
 1818 07c5 380C0000 		.4byte	0xc38
 1819 07c9 18       		.uleb128 0x18
 1820 07ca DE000000 		.4byte	.LVL15
 1821 07ce 3F0C0000 		.4byte	0xc3f
 1822 07d2 F5070000 		.4byte	0x7f5
 1823 07d6 19       		.uleb128 0x19
 1824 07d7 01       		.uleb128 0x1
 1825 07d8 53       		.byte	0x53
 1826 07d9 02       		.uleb128 0x2
 1827 07da 75       		.byte	0x75
 1828 07db 00       		.sleb128 0
 1829 07dc 19       		.uleb128 0x19
 1830 07dd 01       		.uleb128 0x1
 1831 07de 51       		.byte	0x51
 1832 07df 03       		.uleb128 0x3
 1833 07e0 0A       		.byte	0xa
 1834 07e1 5001     		.2byte	0x150
 1835 07e3 19       		.uleb128 0x19
 1836 07e4 01       		.uleb128 0x1
 1837 07e5 50       		.byte	0x50
 1838 07e6 03       		.uleb128 0x3
 1839 07e7 76       		.byte	0x76
 1840 07e8 08       		.sleb128 8
 1841 07e9 06       		.byte	0x6
 1842 07ea 19       		.uleb128 0x19
 1843 07eb 02       		.uleb128 0x2
 1844 07ec 7D       		.byte	0x7d
 1845 07ed 00       		.sleb128 0
 1846 07ee 05       		.uleb128 0x5
 1847 07ef 03       		.byte	0x3
 1848 07f0 08000000 		.4byte	.LC2
 1849 07f4 00       		.byte	0
 1850 07f5 1A       		.uleb128 0x1a
 1851 07f6 EC000000 		.4byte	.LVL16
 1852 07fa 690C0000 		.4byte	0xc69
 1853 07fe 1A       		.uleb128 0x1a
 1854 07ff 00010000 		.4byte	.LVL17
 1855 0803 700C0000 		.4byte	0xc70
 1856 0807 1A       		.uleb128 0x1a
 1857 0808 04010000 		.4byte	.LVL18
 1858 080c 000C0000 		.4byte	0xc00
 1859 0810 1B       		.uleb128 0x1b
 1860 0811 18010000 		.4byte	.LVL19
ARM GAS  /tmp/ccdpV52Q.s 			page 34


 1861 0815 070C0000 		.4byte	0xc07
 1862 0819 19       		.uleb128 0x19
 1863 081a 01       		.uleb128 0x1
 1864 081b 51       		.byte	0x51
 1865 081c 05       		.uleb128 0x5
 1866 081d 03       		.byte	0x3
 1867 081e 14000000 		.4byte	.LC5
 1868 0822 19       		.uleb128 0x19
 1869 0823 01       		.uleb128 0x1
 1870 0824 50       		.byte	0x50
 1871 0825 01       		.uleb128 0x1
 1872 0826 31       		.byte	0x31
 1873 0827 00       		.byte	0
 1874 0828 00       		.byte	0
 1875 0829 17       		.uleb128 0x17
 1876 082a BA030000 		.4byte	.LASF89
 1877 082e 01       		.byte	0x1
 1878 082f 7E       		.byte	0x7e
 1879 0830 00000000 		.4byte	.LFB10
 1880 0834 54010000 		.4byte	.LFE10-.LFB10
 1881 0838 01       		.uleb128 0x1
 1882 0839 9C       		.byte	0x9c
 1883 083a 1E0A0000 		.4byte	0xa1e
 1884 083e 21       		.uleb128 0x21
 1885 083f 15000000 		.4byte	.LASF90
 1886 0843 01       		.byte	0x1
 1887 0844 7F       		.byte	0x7f
 1888 0845 0C010000 		.4byte	0x10c
 1889 0849 01       		.uleb128 0x1
 1890 084a 55       		.byte	0x55
 1891 084b 22       		.uleb128 0x22
 1892 084c 703100   		.ascii	"p1\000"
 1893 084f 01       		.byte	0x1
 1894 0850 7F       		.byte	0x7f
 1895 0851 0C010000 		.4byte	0x10c
 1896 0855 21000000 		.4byte	.LLST1
 1897 0859 20       		.uleb128 0x20
 1898 085a 72000000 		.4byte	.LBB5
 1899 085e 06000000 		.4byte	.LBE5-.LBB5
 1900 0862 74080000 		.4byte	0x874
 1901 0866 1F       		.uleb128 0x1f
 1902 0867 746D7000 		.ascii	"tmp\000"
 1903 086b 01       		.byte	0x1
 1904 086c 8F       		.byte	0x8f
 1905 086d B8000000 		.4byte	0xb8
 1906 0871 01       		.uleb128 0x1
 1907 0872 53       		.byte	0x53
 1908 0873 00       		.byte	0
 1909 0874 20       		.uleb128 0x20
 1910 0875 88000000 		.4byte	.LBB6
 1911 0879 06000000 		.4byte	.LBE6-.LBB6
 1912 087d 8F080000 		.4byte	0x88f
 1913 0881 1F       		.uleb128 0x1f
 1914 0882 746D7000 		.ascii	"tmp\000"
 1915 0886 01       		.byte	0x1
 1916 0887 91       		.byte	0x91
 1917 0888 B8000000 		.4byte	0xb8
ARM GAS  /tmp/ccdpV52Q.s 			page 35


 1918 088c 01       		.uleb128 0x1
 1919 088d 53       		.byte	0x53
 1920 088e 00       		.byte	0
 1921 088f 20       		.uleb128 0x20
 1922 0890 38010000 		.4byte	.LBB7
 1923 0894 06000000 		.4byte	.LBE7-.LBB7
 1924 0898 AA080000 		.4byte	0x8aa
 1925 089c 1F       		.uleb128 0x1f
 1926 089d 746D7000 		.ascii	"tmp\000"
 1927 08a1 01       		.byte	0x1
 1928 08a2 A7       		.byte	0xa7
 1929 08a3 B8000000 		.4byte	0xb8
 1930 08a7 01       		.uleb128 0x1
 1931 08a8 53       		.byte	0x53
 1932 08a9 00       		.byte	0
 1933 08aa 20       		.uleb128 0x20
 1934 08ab 4C010000 		.4byte	.LBB8
 1935 08af 08000000 		.4byte	.LBE8-.LBB8
 1936 08b3 C5080000 		.4byte	0x8c5
 1937 08b7 1F       		.uleb128 0x1f
 1938 08b8 746D7000 		.ascii	"tmp\000"
 1939 08bc 01       		.byte	0x1
 1940 08bd AA       		.byte	0xaa
 1941 08be B8000000 		.4byte	0xb8
 1942 08c2 01       		.uleb128 0x1
 1943 08c3 53       		.byte	0x53
 1944 08c4 00       		.byte	0
 1945 08c5 18       		.uleb128 0x18
 1946 08c6 16000000 		.4byte	.LVL21
 1947 08ca 860C0000 		.4byte	0xc86
 1948 08ce D9080000 		.4byte	0x8d9
 1949 08d2 19       		.uleb128 0x19
 1950 08d3 01       		.uleb128 0x1
 1951 08d4 50       		.byte	0x50
 1952 08d5 02       		.uleb128 0x2
 1953 08d6 76       		.byte	0x76
 1954 08d7 00       		.sleb128 0
 1955 08d8 00       		.byte	0
 1956 08d9 18       		.uleb128 0x18
 1957 08da 2A000000 		.4byte	.LVL24
 1958 08de 9C0C0000 		.4byte	0xc9c
 1959 08e2 F7080000 		.4byte	0x8f7
 1960 08e6 19       		.uleb128 0x19
 1961 08e7 01       		.uleb128 0x1
 1962 08e8 51       		.byte	0x51
 1963 08e9 07       		.uleb128 0x7
 1964 08ea 77       		.byte	0x77
 1965 08eb 00       		.sleb128 0
 1966 08ec 75       		.byte	0x75
 1967 08ed 00       		.sleb128 0
 1968 08ee 1C       		.byte	0x1c
 1969 08ef 30       		.byte	0x30
 1970 08f0 29       		.byte	0x29
 1971 08f1 19       		.uleb128 0x19
 1972 08f2 01       		.uleb128 0x1
 1973 08f3 50       		.byte	0x50
 1974 08f4 01       		.uleb128 0x1
ARM GAS  /tmp/ccdpV52Q.s 			page 36


 1975 08f5 31       		.byte	0x31
 1976 08f6 00       		.byte	0
 1977 08f7 18       		.uleb128 0x18
 1978 08f8 44000000 		.4byte	.LVL27
 1979 08fc 9C0C0000 		.4byte	0xc9c
 1980 0900 0A090000 		.4byte	0x90a
 1981 0904 19       		.uleb128 0x19
 1982 0905 01       		.uleb128 0x1
 1983 0906 50       		.byte	0x50
 1984 0907 01       		.uleb128 0x1
 1985 0908 32       		.byte	0x32
 1986 0909 00       		.byte	0
 1987 090a 18       		.uleb128 0x18
 1988 090b 4E000000 		.4byte	.LVL28
 1989 090f 860C0000 		.4byte	0xc86
 1990 0913 1E090000 		.4byte	0x91e
 1991 0917 19       		.uleb128 0x19
 1992 0918 01       		.uleb128 0x1
 1993 0919 50       		.byte	0x50
 1994 091a 02       		.uleb128 0x2
 1995 091b 77       		.byte	0x77
 1996 091c 00       		.sleb128 0
 1997 091d 00       		.byte	0
 1998 091e 18       		.uleb128 0x18
 1999 091f 5A000000 		.4byte	.LVL30
 2000 0923 9C0C0000 		.4byte	0xc9c
 2001 0927 31090000 		.4byte	0x931
 2002 092b 19       		.uleb128 0x19
 2003 092c 01       		.uleb128 0x1
 2004 092d 50       		.byte	0x50
 2005 092e 01       		.uleb128 0x1
 2006 092f 33       		.byte	0x33
 2007 0930 00       		.byte	0
 2008 0931 18       		.uleb128 0x18
 2009 0932 6E000000 		.4byte	.LVL31
 2010 0936 9C0C0000 		.4byte	0xc9c
 2011 093a 44090000 		.4byte	0x944
 2012 093e 19       		.uleb128 0x19
 2013 093f 01       		.uleb128 0x1
 2014 0940 50       		.byte	0x50
 2015 0941 01       		.uleb128 0x1
 2016 0942 34       		.byte	0x34
 2017 0943 00       		.byte	0
 2018 0944 1A       		.uleb128 0x1a
 2019 0945 7C000000 		.4byte	.LVL32
 2020 0949 380C0000 		.4byte	0xc38
 2021 094d 1A       		.uleb128 0x1a
 2022 094e 88000000 		.4byte	.LVL33
 2023 0952 690C0000 		.4byte	0xc69
 2024 0956 18       		.uleb128 0x18
 2025 0957 A8000000 		.4byte	.LVL34
 2026 095b 9C0C0000 		.4byte	0xc9c
 2027 095f 69090000 		.4byte	0x969
 2028 0963 19       		.uleb128 0x19
 2029 0964 01       		.uleb128 0x1
 2030 0965 50       		.byte	0x50
 2031 0966 01       		.uleb128 0x1
ARM GAS  /tmp/ccdpV52Q.s 			page 37


 2032 0967 35       		.byte	0x35
 2033 0968 00       		.byte	0
 2034 0969 18       		.uleb128 0x18
 2035 096a B2000000 		.4byte	.LVL35
 2036 096e 860C0000 		.4byte	0xc86
 2037 0972 7D090000 		.4byte	0x97d
 2038 0976 19       		.uleb128 0x19
 2039 0977 01       		.uleb128 0x1
 2040 0978 50       		.byte	0x50
 2041 0979 02       		.uleb128 0x2
 2042 097a 76       		.byte	0x76
 2043 097b 00       		.sleb128 0
 2044 097c 00       		.byte	0
 2045 097d 18       		.uleb128 0x18
 2046 097e C4000000 		.4byte	.LVL37
 2047 0982 9C0C0000 		.4byte	0xc9c
 2048 0986 90090000 		.4byte	0x990
 2049 098a 19       		.uleb128 0x19
 2050 098b 01       		.uleb128 0x1
 2051 098c 50       		.byte	0x50
 2052 098d 01       		.uleb128 0x1
 2053 098e 36       		.byte	0x36
 2054 098f 00       		.byte	0
 2055 0990 18       		.uleb128 0x18
 2056 0991 DE000000 		.4byte	.LVL38
 2057 0995 9C0C0000 		.4byte	0xc9c
 2058 0999 A3090000 		.4byte	0x9a3
 2059 099d 19       		.uleb128 0x19
 2060 099e 01       		.uleb128 0x1
 2061 099f 50       		.byte	0x50
 2062 09a0 01       		.uleb128 0x1
 2063 09a1 37       		.byte	0x37
 2064 09a2 00       		.byte	0
 2065 09a3 18       		.uleb128 0x18
 2066 09a4 F2000000 		.4byte	.LVL39
 2067 09a8 9C0C0000 		.4byte	0xc9c
 2068 09ac BE090000 		.4byte	0x9be
 2069 09b0 19       		.uleb128 0x19
 2070 09b1 01       		.uleb128 0x1
 2071 09b2 51       		.byte	0x51
 2072 09b3 04       		.uleb128 0x4
 2073 09b4 77       		.byte	0x77
 2074 09b5 00       		.sleb128 0
 2075 09b6 30       		.byte	0x30
 2076 09b7 29       		.byte	0x29
 2077 09b8 19       		.uleb128 0x19
 2078 09b9 01       		.uleb128 0x1
 2079 09ba 50       		.byte	0x50
 2080 09bb 01       		.uleb128 0x1
 2081 09bc 38       		.byte	0x38
 2082 09bd 00       		.byte	0
 2083 09be 18       		.uleb128 0x18
 2084 09bf FE000000 		.4byte	.LVL40
 2085 09c3 860C0000 		.4byte	0xc86
 2086 09c7 D2090000 		.4byte	0x9d2
 2087 09cb 19       		.uleb128 0x19
 2088 09cc 01       		.uleb128 0x1
ARM GAS  /tmp/ccdpV52Q.s 			page 38


 2089 09cd 50       		.byte	0x50
 2090 09ce 02       		.uleb128 0x2
 2091 09cf 77       		.byte	0x77
 2092 09d0 00       		.sleb128 0
 2093 09d1 00       		.byte	0
 2094 09d2 18       		.uleb128 0x18
 2095 09d3 0A010000 		.4byte	.LVL42
 2096 09d7 9C0C0000 		.4byte	0xc9c
 2097 09db E5090000 		.4byte	0x9e5
 2098 09df 19       		.uleb128 0x19
 2099 09e0 01       		.uleb128 0x1
 2100 09e1 50       		.byte	0x50
 2101 09e2 01       		.uleb128 0x1
 2102 09e3 39       		.byte	0x39
 2103 09e4 00       		.byte	0
 2104 09e5 18       		.uleb128 0x18
 2105 09e6 1E010000 		.4byte	.LVL43
 2106 09ea 9C0C0000 		.4byte	0xc9c
 2107 09ee F8090000 		.4byte	0x9f8
 2108 09f2 19       		.uleb128 0x19
 2109 09f3 01       		.uleb128 0x1
 2110 09f4 50       		.byte	0x50
 2111 09f5 01       		.uleb128 0x1
 2112 09f6 3A       		.byte	0x3a
 2113 09f7 00       		.byte	0
 2114 09f8 18       		.uleb128 0x18
 2115 09f9 32010000 		.4byte	.LVL44
 2116 09fd 9C0C0000 		.4byte	0xc9c
 2117 0a01 0B0A0000 		.4byte	0xa0b
 2118 0a05 19       		.uleb128 0x19
 2119 0a06 01       		.uleb128 0x1
 2120 0a07 50       		.byte	0x50
 2121 0a08 01       		.uleb128 0x1
 2122 0a09 3B       		.byte	0x3b
 2123 0a0a 00       		.byte	0
 2124 0a0b 1A       		.uleb128 0x1a
 2125 0a0c 42010000 		.4byte	.LVL45
 2126 0a10 380C0000 		.4byte	0xc38
 2127 0a14 1A       		.uleb128 0x1a
 2128 0a15 4C010000 		.4byte	.LVL46
 2129 0a19 690C0000 		.4byte	0xc69
 2130 0a1d 00       		.byte	0
 2131 0a1e 23       		.uleb128 0x23
 2132 0a1f 6E050000 		.4byte	0x56e
 2133 0a23 00000000 		.4byte	.LFB11
 2134 0a27 7A000000 		.4byte	.LFE11-.LFB11
 2135 0a2b 01       		.uleb128 0x1
 2136 0a2c 9C       		.byte	0x9c
 2137 0a2d 160B0000 		.4byte	0xb16
 2138 0a31 24       		.uleb128 0x24
 2139 0a32 7A050000 		.4byte	0x57a
 2140 0a36 6B000000 		.4byte	.LLST2
 2141 0a3a 1E       		.uleb128 0x1e
 2142 0a3b 18000000 		.4byte	.Ldebug_ranges0+0x18
 2143 0a3f A60A0000 		.4byte	0xaa6
 2144 0a43 24       		.uleb128 0x24
 2145 0a44 7A050000 		.4byte	0x57a
ARM GAS  /tmp/ccdpV52Q.s 			page 39


 2146 0a48 89000000 		.4byte	.LLST3
 2147 0a4c 18       		.uleb128 0x18
 2148 0a4d 4C000000 		.4byte	.LVL57
 2149 0a51 B60C0000 		.4byte	0xcb6
 2150 0a55 610A0000 		.4byte	0xa61
 2151 0a59 19       		.uleb128 0x19
 2152 0a5a 01       		.uleb128 0x1
 2153 0a5b 50       		.byte	0x50
 2154 0a5c 03       		.uleb128 0x3
 2155 0a5d 0A       		.byte	0xa
 2156 0a5e E803     		.2byte	0x3e8
 2157 0a60 00       		.byte	0
 2158 0a61 18       		.uleb128 0x18
 2159 0a62 5A000000 		.4byte	.LVL58
 2160 0a66 C80C0000 		.4byte	0xcc8
 2161 0a6a 820A0000 		.4byte	0xa82
 2162 0a6e 19       		.uleb128 0x19
 2163 0a6f 01       		.uleb128 0x1
 2164 0a70 52       		.byte	0x52
 2165 0a71 03       		.uleb128 0x3
 2166 0a72 75       		.byte	0x75
 2167 0a73 E907     		.sleb128 1001
 2168 0a75 19       		.uleb128 0x19
 2169 0a76 01       		.uleb128 0x1
 2170 0a77 51       		.byte	0x51
 2171 0a78 03       		.uleb128 0x3
 2172 0a79 75       		.byte	0x75
 2173 0a7a E807     		.sleb128 1000
 2174 0a7c 19       		.uleb128 0x19
 2175 0a7d 01       		.uleb128 0x1
 2176 0a7e 50       		.byte	0x50
 2177 0a7f 01       		.uleb128 0x1
 2178 0a80 33       		.byte	0x33
 2179 0a81 00       		.byte	0
 2180 0a82 18       		.uleb128 0x18
 2181 0a83 6A000000 		.4byte	.LVL60
 2182 0a87 E70C0000 		.4byte	0xce7
 2183 0a8b 960A0000 		.4byte	0xa96
 2184 0a8f 19       		.uleb128 0x19
 2185 0a90 01       		.uleb128 0x1
 2186 0a91 50       		.byte	0x50
 2187 0a92 02       		.uleb128 0x2
 2188 0a93 75       		.byte	0x75
 2189 0a94 00       		.sleb128 0
 2190 0a95 00       		.byte	0
 2191 0a96 1B       		.uleb128 0x1b
 2192 0a97 7A000000 		.4byte	.LVL62
 2193 0a9b C80C0000 		.4byte	0xcc8
 2194 0a9f 19       		.uleb128 0x19
 2195 0aa0 01       		.uleb128 0x1
 2196 0aa1 50       		.byte	0x50
 2197 0aa2 01       		.uleb128 0x1
 2198 0aa3 34       		.byte	0x34
 2199 0aa4 00       		.byte	0
 2200 0aa5 00       		.byte	0
 2201 0aa6 1A       		.uleb128 0x1a
 2202 0aa7 0E000000 		.4byte	.LVL47
ARM GAS  /tmp/ccdpV52Q.s 			page 40


 2203 0aab F90C0000 		.4byte	0xcf9
 2204 0aaf 18       		.uleb128 0x18
 2205 0ab0 16000000 		.4byte	.LVL49
 2206 0ab4 B60C0000 		.4byte	0xcb6
 2207 0ab8 C30A0000 		.4byte	0xac3
 2208 0abc 19       		.uleb128 0x19
 2209 0abd 01       		.uleb128 0x1
 2210 0abe 50       		.byte	0x50
 2211 0abf 02       		.uleb128 0x2
 2212 0ac0 08       		.byte	0x8
 2213 0ac1 64       		.byte	0x64
 2214 0ac2 00       		.byte	0
 2215 0ac3 18       		.uleb128 0x18
 2216 0ac4 24000000 		.4byte	.LVL50
 2217 0ac8 C80C0000 		.4byte	0xcc8
 2218 0acc E40A0000 		.4byte	0xae4
 2219 0ad0 19       		.uleb128 0x19
 2220 0ad1 01       		.uleb128 0x1
 2221 0ad2 52       		.byte	0x52
 2222 0ad3 03       		.uleb128 0x3
 2223 0ad4 75       		.byte	0x75
 2224 0ad5 E500     		.sleb128 101
 2225 0ad7 19       		.uleb128 0x19
 2226 0ad8 01       		.uleb128 0x1
 2227 0ad9 51       		.byte	0x51
 2228 0ada 03       		.uleb128 0x3
 2229 0adb 75       		.byte	0x75
 2230 0adc E400     		.sleb128 100
 2231 0ade 19       		.uleb128 0x19
 2232 0adf 01       		.uleb128 0x1
 2233 0ae0 50       		.byte	0x50
 2234 0ae1 01       		.uleb128 0x1
 2235 0ae2 31       		.byte	0x31
 2236 0ae3 00       		.byte	0
 2237 0ae4 18       		.uleb128 0x18
 2238 0ae5 30000000 		.4byte	.LVL54
 2239 0ae9 B60C0000 		.4byte	0xcb6
 2240 0aed F80A0000 		.4byte	0xaf8
 2241 0af1 19       		.uleb128 0x19
 2242 0af2 01       		.uleb128 0x1
 2243 0af3 50       		.byte	0x50
 2244 0af4 02       		.uleb128 0x2
 2245 0af5 08       		.byte	0x8
 2246 0af6 64       		.byte	0x64
 2247 0af7 00       		.byte	0
 2248 0af8 25       		.uleb128 0x25
 2249 0af9 3E000000 		.4byte	.LVL55
 2250 0afd C80C0000 		.4byte	0xcc8
 2251 0b01 19       		.uleb128 0x19
 2252 0b02 01       		.uleb128 0x1
 2253 0b03 52       		.byte	0x52
 2254 0b04 03       		.uleb128 0x3
 2255 0b05 75       		.byte	0x75
 2256 0b06 E500     		.sleb128 101
 2257 0b08 19       		.uleb128 0x19
 2258 0b09 01       		.uleb128 0x1
 2259 0b0a 51       		.byte	0x51
ARM GAS  /tmp/ccdpV52Q.s 			page 41


 2260 0b0b 03       		.uleb128 0x3
 2261 0b0c 75       		.byte	0x75
 2262 0b0d E400     		.sleb128 100
 2263 0b0f 19       		.uleb128 0x19
 2264 0b10 01       		.uleb128 0x1
 2265 0b11 50       		.byte	0x50
 2266 0b12 01       		.uleb128 0x1
 2267 0b13 32       		.byte	0x32
 2268 0b14 00       		.byte	0
 2269 0b15 00       		.byte	0
 2270 0b16 26       		.uleb128 0x26
 2271 0b17 34000000 		.4byte	.LASF91
 2272 0b1b 09       		.byte	0x9
 2273 0b1c F5       		.byte	0xf5
 2274 0b1d 0E040000 		.4byte	0x40e
 2275 0b21 26       		.uleb128 0x26
 2276 0b22 2B050000 		.4byte	.LASF92
 2277 0b26 0A       		.byte	0xa
 2278 0b27 6F       		.byte	0x6f
 2279 0b28 6A040000 		.4byte	0x46a
 2280 0b2c 27       		.uleb128 0x27
 2281 0b2d 6D020000 		.4byte	0x26d
 2282 0b31 3C0B0000 		.4byte	0xb3c
 2283 0b35 28       		.uleb128 0x28
 2284 0b36 53030000 		.4byte	0x353
 2285 0b3a 04       		.byte	0x4
 2286 0b3b 00       		.byte	0
 2287 0b3c 26       		.uleb128 0x26
 2288 0b3d 36040000 		.4byte	.LASF93
 2289 0b41 0C       		.byte	0xc
 2290 0b42 A5       		.byte	0xa5
 2291 0b43 2C0B0000 		.4byte	0xb2c
 2292 0b47 27       		.uleb128 0x27
 2293 0b48 A9020000 		.4byte	0x2a9
 2294 0b4c 520B0000 		.4byte	0xb52
 2295 0b50 29       		.uleb128 0x29
 2296 0b51 00       		.byte	0
 2297 0b52 2A       		.uleb128 0x2a
 2298 0b53 776100   		.ascii	"wa\000"
 2299 0b56 0C       		.byte	0xc
 2300 0b57 A7       		.byte	0xa7
 2301 0b58 5C0B0000 		.4byte	0xb5c
 2302 0b5c 12       		.uleb128 0x12
 2303 0b5d 470B0000 		.4byte	0xb47
 2304 0b61 2B       		.uleb128 0x2b
 2305 0b62 97020000 		.4byte	.LASF94
 2306 0b66 01       		.byte	0x1
 2307 0b67 4D       		.byte	0x4d
 2308 0b68 720B0000 		.4byte	0xb72
 2309 0b6c 05       		.uleb128 0x5
 2310 0b6d 03       		.byte	0x3
 2311 0b6e 00000000 		.4byte	testthd1
 2312 0b72 12       		.uleb128 0x12
 2313 0b73 2A050000 		.4byte	0x52a
 2314 0b77 2B       		.uleb128 0x2b
 2315 0b78 A0020000 		.4byte	.LASF95
 2316 0b7c 01       		.byte	0x1
ARM GAS  /tmp/ccdpV52Q.s 			page 42


 2317 0b7d 6D       		.byte	0x6d
 2318 0b7e 720B0000 		.4byte	0xb72
 2319 0b82 05       		.uleb128 0x5
 2320 0b83 03       		.byte	0x3
 2321 0b84 00000000 		.4byte	testthd2
 2322 0b88 2B       		.uleb128 0x2b
 2323 0b89 A9020000 		.4byte	.LASF96
 2324 0b8d 01       		.byte	0x1
 2325 0b8e AE       		.byte	0xae
 2326 0b8f 720B0000 		.4byte	0xb72
 2327 0b93 05       		.uleb128 0x5
 2328 0b94 03       		.byte	0x3
 2329 0b95 00000000 		.4byte	testthd3
 2330 0b99 2B       		.uleb128 0x2b
 2331 0b9a B2020000 		.4byte	.LASF97
 2332 0b9e 01       		.byte	0x1
 2333 0b9f D7       		.byte	0xd7
 2334 0ba0 720B0000 		.4byte	0xb72
 2335 0ba4 05       		.uleb128 0x5
 2336 0ba5 03       		.byte	0x3
 2337 0ba6 00000000 		.4byte	testthd4
 2338 0baa 27       		.uleb128 0x27
 2339 0bab BA0B0000 		.4byte	0xbba
 2340 0baf BA0B0000 		.4byte	0xbba
 2341 0bb3 28       		.uleb128 0x28
 2342 0bb4 53030000 		.4byte	0x353
 2343 0bb8 04       		.byte	0x4
 2344 0bb9 00       		.byte	0
 2345 0bba 09       		.uleb128 0x9
 2346 0bbb 04       		.byte	0x4
 2347 0bbc 720B0000 		.4byte	0xb72
 2348 0bc0 2B       		.uleb128 0x2b
 2349 0bc1 B5040000 		.4byte	.LASF98
 2350 0bc5 01       		.byte	0x1
 2351 0bc6 E1       		.byte	0xe1
 2352 0bc7 D10B0000 		.4byte	0xbd1
 2353 0bcb 05       		.uleb128 0x5
 2354 0bcc 03       		.byte	0x3
 2355 0bcd 00000000 		.4byte	patternthd
 2356 0bd1 12       		.uleb128 0x12
 2357 0bd2 AA0B0000 		.4byte	0xbaa
 2358 0bd6 2C       		.uleb128 0x2c
 2359 0bd7 74020000 		.4byte	.LASF99
 2360 0bdb 07       		.byte	0x7
 2361 0bdc 7001     		.2byte	0x170
 2362 0bde 6D020000 		.4byte	0x26d
 2363 0be2 000C0000 		.4byte	0xc00
 2364 0be6 0E       		.uleb128 0xe
 2365 0be7 A9020000 		.4byte	0x2a9
 2366 0beb 0E       		.uleb128 0xe
 2367 0bec 2C000000 		.4byte	0x2c
 2368 0bf0 0E       		.uleb128 0xe
 2369 0bf1 0C010000 		.4byte	0x10c
 2370 0bf5 0E       		.uleb128 0xe
 2371 0bf6 0A050000 		.4byte	0x50a
 2372 0bfa 0E       		.uleb128 0xe
 2373 0bfb A9020000 		.4byte	0x2a9
ARM GAS  /tmp/ccdpV52Q.s 			page 43


 2374 0bff 00       		.byte	0
 2375 0c00 2D       		.uleb128 0x2d
 2376 0c01 DE020000 		.4byte	.LASF101
 2377 0c05 0C       		.byte	0xc
 2378 0c06 5C       		.byte	0x5c
 2379 0c07 2E       		.uleb128 0x2e
 2380 0c08 59030000 		.4byte	.LASF100
 2381 0c0c 0C       		.byte	0xc
 2382 0c0d 59       		.byte	0x59
 2383 0c0e CE000000 		.4byte	0xce
 2384 0c12 210C0000 		.4byte	0xc21
 2385 0c16 0E       		.uleb128 0xe
 2386 0c17 37000000 		.4byte	0x37
 2387 0c1b 0E       		.uleb128 0xe
 2388 0c1c 210C0000 		.4byte	0xc21
 2389 0c20 00       		.byte	0
 2390 0c21 09       		.uleb128 0x9
 2391 0c22 04       		.byte	0x4
 2392 0c23 F7040000 		.4byte	0x4f7
 2393 0c27 2F       		.uleb128 0x2f
 2394 0c28 30010000 		.4byte	.LASF108
 2395 0c2c 0C       		.byte	0xc
 2396 0c2d 56       		.byte	0x56
 2397 0c2e 380C0000 		.4byte	0xc38
 2398 0c32 0E       		.uleb128 0xe
 2399 0c33 F7040000 		.4byte	0x4f7
 2400 0c37 00       		.byte	0
 2401 0c38 2D       		.uleb128 0x2d
 2402 0c39 C3020000 		.4byte	.LASF102
 2403 0c3d 0D       		.byte	0xd
 2404 0c3e E7       		.byte	0xe7
 2405 0c3f 2C       		.uleb128 0x2c
 2406 0c40 4A010000 		.4byte	.LASF103
 2407 0c44 07       		.byte	0x7
 2408 0c45 6E01     		.2byte	0x16e
 2409 0c47 6D020000 		.4byte	0x26d
 2410 0c4b 690C0000 		.4byte	0xc69
 2411 0c4f 0E       		.uleb128 0xe
 2412 0c50 A9020000 		.4byte	0x2a9
 2413 0c54 0E       		.uleb128 0xe
 2414 0c55 2C000000 		.4byte	0x2c
 2415 0c59 0E       		.uleb128 0xe
 2416 0c5a 0C010000 		.4byte	0x10c
 2417 0c5e 0E       		.uleb128 0xe
 2418 0c5f 0A050000 		.4byte	0x50a
 2419 0c63 0E       		.uleb128 0xe
 2420 0c64 A9020000 		.4byte	0x2a9
 2421 0c68 00       		.byte	0
 2422 0c69 2D       		.uleb128 0x2d
 2423 0c6a 86030000 		.4byte	.LASF104
 2424 0c6e 0D       		.byte	0xd
 2425 0c6f E8       		.byte	0xe8
 2426 0c70 2C       		.uleb128 0x2c
 2427 0c71 D2020000 		.4byte	.LASF105
 2428 0c75 07       		.byte	0x7
 2429 0c76 7301     		.2byte	0x173
 2430 0c78 6D020000 		.4byte	0x26d
ARM GAS  /tmp/ccdpV52Q.s 			page 44


 2431 0c7c 860C0000 		.4byte	0xc86
 2432 0c80 0E       		.uleb128 0xe
 2433 0c81 6D020000 		.4byte	0x26d
 2434 0c85 00       		.byte	0
 2435 0c86 2C       		.uleb128 0x2c
 2436 0c87 8A010000 		.4byte	.LASF106
 2437 0c8b 07       		.byte	0x7
 2438 0c8c 7201     		.2byte	0x172
 2439 0c8e 0C010000 		.4byte	0x10c
 2440 0c92 9C0C0000 		.4byte	0xc9c
 2441 0c96 0E       		.uleb128 0xe
 2442 0c97 0C010000 		.4byte	0x10c
 2443 0c9b 00       		.byte	0
 2444 0c9c 2E       		.uleb128 0x2e
 2445 0c9d 47050000 		.4byte	.LASF107
 2446 0ca1 0C       		.byte	0xc
 2447 0ca2 58       		.byte	0x58
 2448 0ca3 CE000000 		.4byte	0xce
 2449 0ca7 B60C0000 		.4byte	0xcb6
 2450 0cab 0E       		.uleb128 0xe
 2451 0cac 37000000 		.4byte	0x37
 2452 0cb0 0E       		.uleb128 0xe
 2453 0cb1 CE000000 		.4byte	0xce
 2454 0cb5 00       		.byte	0
 2455 0cb6 30       		.uleb128 0x30
 2456 0cb7 0F050000 		.4byte	.LASF109
 2457 0cbb 07       		.byte	0x7
 2458 0cbc 7501     		.2byte	0x175
 2459 0cbe C80C0000 		.4byte	0xcc8
 2460 0cc2 0E       		.uleb128 0xe
 2461 0cc3 2D010000 		.4byte	0x12d
 2462 0cc7 00       		.byte	0
 2463 0cc8 2E       		.uleb128 0x2e
 2464 0cc9 69010000 		.4byte	.LASF110
 2465 0ccd 0C       		.byte	0xc
 2466 0cce 5A       		.byte	0x5a
 2467 0ccf CE000000 		.4byte	0xce
 2468 0cd3 E70C0000 		.4byte	0xce7
 2469 0cd7 0E       		.uleb128 0xe
 2470 0cd8 37000000 		.4byte	0x37
 2471 0cdc 0E       		.uleb128 0xe
 2472 0cdd 2D010000 		.4byte	0x12d
 2473 0ce1 0E       		.uleb128 0xe
 2474 0ce2 2D010000 		.4byte	0x12d
 2475 0ce6 00       		.byte	0
 2476 0ce7 30       		.uleb128 0x30
 2477 0ce8 97030000 		.4byte	.LASF111
 2478 0cec 07       		.byte	0x7
 2479 0ced 7601     		.2byte	0x176
 2480 0cef F90C0000 		.4byte	0xcf9
 2481 0cf3 0E       		.uleb128 0xe
 2482 0cf4 2D010000 		.4byte	0x12d
 2483 0cf8 00       		.byte	0
 2484 0cf9 31       		.uleb128 0x31
 2485 0cfa 01040000 		.4byte	.LASF118
 2486 0cfe 0C       		.byte	0xc
 2487 0cff 5D       		.byte	0x5d
ARM GAS  /tmp/ccdpV52Q.s 			page 45


 2488 0d00 2D010000 		.4byte	0x12d
 2489 0d04 00       		.byte	0
 2490              		.section	.debug_abbrev,"",%progbits
 2491              	.Ldebug_abbrev0:
 2492 0000 01       		.uleb128 0x1
 2493 0001 11       		.uleb128 0x11
 2494 0002 01       		.byte	0x1
 2495 0003 25       		.uleb128 0x25
 2496 0004 0E       		.uleb128 0xe
 2497 0005 13       		.uleb128 0x13
 2498 0006 0B       		.uleb128 0xb
 2499 0007 03       		.uleb128 0x3
 2500 0008 0E       		.uleb128 0xe
 2501 0009 1B       		.uleb128 0x1b
 2502 000a 0E       		.uleb128 0xe
 2503 000b 55       		.uleb128 0x55
 2504 000c 17       		.uleb128 0x17
 2505 000d 11       		.uleb128 0x11
 2506 000e 01       		.uleb128 0x1
 2507 000f 10       		.uleb128 0x10
 2508 0010 17       		.uleb128 0x17
 2509 0011 00       		.byte	0
 2510 0012 00       		.byte	0
 2511 0013 02       		.uleb128 0x2
 2512 0014 24       		.uleb128 0x24
 2513 0015 00       		.byte	0
 2514 0016 0B       		.uleb128 0xb
 2515 0017 0B       		.uleb128 0xb
 2516 0018 3E       		.uleb128 0x3e
 2517 0019 0B       		.uleb128 0xb
 2518 001a 03       		.uleb128 0x3
 2519 001b 08       		.uleb128 0x8
 2520 001c 00       		.byte	0
 2521 001d 00       		.byte	0
 2522 001e 03       		.uleb128 0x3
 2523 001f 16       		.uleb128 0x16
 2524 0020 00       		.byte	0
 2525 0021 03       		.uleb128 0x3
 2526 0022 0E       		.uleb128 0xe
 2527 0023 3A       		.uleb128 0x3a
 2528 0024 0B       		.uleb128 0xb
 2529 0025 3B       		.uleb128 0x3b
 2530 0026 0B       		.uleb128 0xb
 2531 0027 49       		.uleb128 0x49
 2532 0028 13       		.uleb128 0x13
 2533 0029 00       		.byte	0
 2534 002a 00       		.byte	0
 2535 002b 04       		.uleb128 0x4
 2536 002c 24       		.uleb128 0x24
 2537 002d 00       		.byte	0
 2538 002e 0B       		.uleb128 0xb
 2539 002f 0B       		.uleb128 0xb
 2540 0030 3E       		.uleb128 0x3e
 2541 0031 0B       		.uleb128 0xb
 2542 0032 03       		.uleb128 0x3
 2543 0033 0E       		.uleb128 0xe
 2544 0034 00       		.byte	0
ARM GAS  /tmp/ccdpV52Q.s 			page 46


 2545 0035 00       		.byte	0
 2546 0036 05       		.uleb128 0x5
 2547 0037 13       		.uleb128 0x13
 2548 0038 01       		.byte	0x1
 2549 0039 03       		.uleb128 0x3
 2550 003a 0E       		.uleb128 0xe
 2551 003b 0B       		.uleb128 0xb
 2552 003c 0B       		.uleb128 0xb
 2553 003d 3A       		.uleb128 0x3a
 2554 003e 0B       		.uleb128 0xb
 2555 003f 3B       		.uleb128 0x3b
 2556 0040 0B       		.uleb128 0xb
 2557 0041 01       		.uleb128 0x1
 2558 0042 13       		.uleb128 0x13
 2559 0043 00       		.byte	0
 2560 0044 00       		.byte	0
 2561 0045 06       		.uleb128 0x6
 2562 0046 0D       		.uleb128 0xd
 2563 0047 00       		.byte	0
 2564 0048 03       		.uleb128 0x3
 2565 0049 0E       		.uleb128 0xe
 2566 004a 3A       		.uleb128 0x3a
 2567 004b 0B       		.uleb128 0xb
 2568 004c 3B       		.uleb128 0x3b
 2569 004d 0B       		.uleb128 0xb
 2570 004e 49       		.uleb128 0x49
 2571 004f 13       		.uleb128 0x13
 2572 0050 38       		.uleb128 0x38
 2573 0051 0B       		.uleb128 0xb
 2574 0052 00       		.byte	0
 2575 0053 00       		.byte	0
 2576 0054 07       		.uleb128 0x7
 2577 0055 0D       		.uleb128 0xd
 2578 0056 00       		.byte	0
 2579 0057 03       		.uleb128 0x3
 2580 0058 08       		.uleb128 0x8
 2581 0059 3A       		.uleb128 0x3a
 2582 005a 0B       		.uleb128 0xb
 2583 005b 3B       		.uleb128 0x3b
 2584 005c 0B       		.uleb128 0xb
 2585 005d 49       		.uleb128 0x49
 2586 005e 13       		.uleb128 0x13
 2587 005f 38       		.uleb128 0x38
 2588 0060 0B       		.uleb128 0xb
 2589 0061 00       		.byte	0
 2590 0062 00       		.byte	0
 2591 0063 08       		.uleb128 0x8
 2592 0064 13       		.uleb128 0x13
 2593 0065 01       		.byte	0x1
 2594 0066 0B       		.uleb128 0xb
 2595 0067 0B       		.uleb128 0xb
 2596 0068 3A       		.uleb128 0x3a
 2597 0069 0B       		.uleb128 0xb
 2598 006a 3B       		.uleb128 0x3b
 2599 006b 0B       		.uleb128 0xb
 2600 006c 01       		.uleb128 0x1
 2601 006d 13       		.uleb128 0x13
ARM GAS  /tmp/ccdpV52Q.s 			page 47


 2602 006e 00       		.byte	0
 2603 006f 00       		.byte	0
 2604 0070 09       		.uleb128 0x9
 2605 0071 0F       		.uleb128 0xf
 2606 0072 00       		.byte	0
 2607 0073 0B       		.uleb128 0xb
 2608 0074 0B       		.uleb128 0xb
 2609 0075 49       		.uleb128 0x49
 2610 0076 13       		.uleb128 0x13
 2611 0077 00       		.byte	0
 2612 0078 00       		.byte	0
 2613 0079 0A       		.uleb128 0xa
 2614 007a 0F       		.uleb128 0xf
 2615 007b 00       		.byte	0
 2616 007c 0B       		.uleb128 0xb
 2617 007d 0B       		.uleb128 0xb
 2618 007e 00       		.byte	0
 2619 007f 00       		.byte	0
 2620 0080 0B       		.uleb128 0xb
 2621 0081 13       		.uleb128 0x13
 2622 0082 01       		.byte	0x1
 2623 0083 03       		.uleb128 0x3
 2624 0084 0E       		.uleb128 0xe
 2625 0085 0B       		.uleb128 0xb
 2626 0086 0B       		.uleb128 0xb
 2627 0087 3A       		.uleb128 0x3a
 2628 0088 0B       		.uleb128 0xb
 2629 0089 3B       		.uleb128 0x3b
 2630 008a 05       		.uleb128 0x5
 2631 008b 01       		.uleb128 0x1
 2632 008c 13       		.uleb128 0x13
 2633 008d 00       		.byte	0
 2634 008e 00       		.byte	0
 2635 008f 0C       		.uleb128 0xc
 2636 0090 0D       		.uleb128 0xd
 2637 0091 00       		.byte	0
 2638 0092 03       		.uleb128 0x3
 2639 0093 08       		.uleb128 0x8
 2640 0094 3A       		.uleb128 0x3a
 2641 0095 0B       		.uleb128 0xb
 2642 0096 3B       		.uleb128 0x3b
 2643 0097 05       		.uleb128 0x5
 2644 0098 49       		.uleb128 0x49
 2645 0099 13       		.uleb128 0x13
 2646 009a 38       		.uleb128 0x38
 2647 009b 0B       		.uleb128 0xb
 2648 009c 00       		.byte	0
 2649 009d 00       		.byte	0
 2650 009e 0D       		.uleb128 0xd
 2651 009f 15       		.uleb128 0x15
 2652 00a0 01       		.byte	0x1
 2653 00a1 27       		.uleb128 0x27
 2654 00a2 19       		.uleb128 0x19
 2655 00a3 01       		.uleb128 0x1
 2656 00a4 13       		.uleb128 0x13
 2657 00a5 00       		.byte	0
 2658 00a6 00       		.byte	0
ARM GAS  /tmp/ccdpV52Q.s 			page 48


 2659 00a7 0E       		.uleb128 0xe
 2660 00a8 05       		.uleb128 0x5
 2661 00a9 00       		.byte	0
 2662 00aa 49       		.uleb128 0x49
 2663 00ab 13       		.uleb128 0x13
 2664 00ac 00       		.byte	0
 2665 00ad 00       		.byte	0
 2666 00ae 0F       		.uleb128 0xf
 2667 00af 35       		.uleb128 0x35
 2668 00b0 00       		.byte	0
 2669 00b1 49       		.uleb128 0x49
 2670 00b2 13       		.uleb128 0x13
 2671 00b3 00       		.byte	0
 2672 00b4 00       		.byte	0
 2673 00b5 10       		.uleb128 0x10
 2674 00b6 17       		.uleb128 0x17
 2675 00b7 01       		.byte	0x1
 2676 00b8 0B       		.uleb128 0xb
 2677 00b9 0B       		.uleb128 0xb
 2678 00ba 3A       		.uleb128 0x3a
 2679 00bb 0B       		.uleb128 0xb
 2680 00bc 3B       		.uleb128 0x3b
 2681 00bd 0B       		.uleb128 0xb
 2682 00be 01       		.uleb128 0x1
 2683 00bf 13       		.uleb128 0x13
 2684 00c0 00       		.byte	0
 2685 00c1 00       		.byte	0
 2686 00c2 11       		.uleb128 0x11
 2687 00c3 0D       		.uleb128 0xd
 2688 00c4 00       		.byte	0
 2689 00c5 03       		.uleb128 0x3
 2690 00c6 0E       		.uleb128 0xe
 2691 00c7 3A       		.uleb128 0x3a
 2692 00c8 0B       		.uleb128 0xb
 2693 00c9 3B       		.uleb128 0x3b
 2694 00ca 0B       		.uleb128 0xb
 2695 00cb 49       		.uleb128 0x49
 2696 00cc 13       		.uleb128 0x13
 2697 00cd 00       		.byte	0
 2698 00ce 00       		.byte	0
 2699 00cf 12       		.uleb128 0x12
 2700 00d0 26       		.uleb128 0x26
 2701 00d1 00       		.byte	0
 2702 00d2 49       		.uleb128 0x49
 2703 00d3 13       		.uleb128 0x13
 2704 00d4 00       		.byte	0
 2705 00d5 00       		.byte	0
 2706 00d6 13       		.uleb128 0x13
 2707 00d7 15       		.uleb128 0x15
 2708 00d8 01       		.byte	0x1
 2709 00d9 27       		.uleb128 0x27
 2710 00da 19       		.uleb128 0x19
 2711 00db 49       		.uleb128 0x49
 2712 00dc 13       		.uleb128 0x13
 2713 00dd 01       		.uleb128 0x1
 2714 00de 13       		.uleb128 0x13
 2715 00df 00       		.byte	0
ARM GAS  /tmp/ccdpV52Q.s 			page 49


 2716 00e0 00       		.byte	0
 2717 00e1 14       		.uleb128 0x14
 2718 00e2 15       		.uleb128 0x15
 2719 00e3 00       		.byte	0
 2720 00e4 27       		.uleb128 0x27
 2721 00e5 19       		.uleb128 0x19
 2722 00e6 00       		.byte	0
 2723 00e7 00       		.byte	0
 2724 00e8 15       		.uleb128 0x15
 2725 00e9 2E       		.uleb128 0x2e
 2726 00ea 01       		.byte	0x1
 2727 00eb 03       		.uleb128 0x3
 2728 00ec 0E       		.uleb128 0xe
 2729 00ed 3A       		.uleb128 0x3a
 2730 00ee 0B       		.uleb128 0xb
 2731 00ef 3B       		.uleb128 0x3b
 2732 00f0 0B       		.uleb128 0xb
 2733 00f1 27       		.uleb128 0x27
 2734 00f2 19       		.uleb128 0x19
 2735 00f3 20       		.uleb128 0x20
 2736 00f4 0B       		.uleb128 0xb
 2737 00f5 01       		.uleb128 0x1
 2738 00f6 13       		.uleb128 0x13
 2739 00f7 00       		.byte	0
 2740 00f8 00       		.byte	0
 2741 00f9 16       		.uleb128 0x16
 2742 00fa 34       		.uleb128 0x34
 2743 00fb 00       		.byte	0
 2744 00fc 03       		.uleb128 0x3
 2745 00fd 0E       		.uleb128 0xe
 2746 00fe 3A       		.uleb128 0x3a
 2747 00ff 0B       		.uleb128 0xb
 2748 0100 3B       		.uleb128 0x3b
 2749 0101 0B       		.uleb128 0xb
 2750 0102 49       		.uleb128 0x49
 2751 0103 13       		.uleb128 0x13
 2752 0104 00       		.byte	0
 2753 0105 00       		.byte	0
 2754 0106 17       		.uleb128 0x17
 2755 0107 2E       		.uleb128 0x2e
 2756 0108 01       		.byte	0x1
 2757 0109 03       		.uleb128 0x3
 2758 010a 0E       		.uleb128 0xe
 2759 010b 3A       		.uleb128 0x3a
 2760 010c 0B       		.uleb128 0xb
 2761 010d 3B       		.uleb128 0x3b
 2762 010e 0B       		.uleb128 0xb
 2763 010f 27       		.uleb128 0x27
 2764 0110 19       		.uleb128 0x19
 2765 0111 11       		.uleb128 0x11
 2766 0112 01       		.uleb128 0x1
 2767 0113 12       		.uleb128 0x12
 2768 0114 06       		.uleb128 0x6
 2769 0115 40       		.uleb128 0x40
 2770 0116 18       		.uleb128 0x18
 2771 0117 9742     		.uleb128 0x2117
 2772 0119 19       		.uleb128 0x19
ARM GAS  /tmp/ccdpV52Q.s 			page 50


 2773 011a 01       		.uleb128 0x1
 2774 011b 13       		.uleb128 0x13
 2775 011c 00       		.byte	0
 2776 011d 00       		.byte	0
 2777 011e 18       		.uleb128 0x18
 2778 011f 898201   		.uleb128 0x4109
 2779 0122 01       		.byte	0x1
 2780 0123 11       		.uleb128 0x11
 2781 0124 01       		.uleb128 0x1
 2782 0125 31       		.uleb128 0x31
 2783 0126 13       		.uleb128 0x13
 2784 0127 01       		.uleb128 0x1
 2785 0128 13       		.uleb128 0x13
 2786 0129 00       		.byte	0
 2787 012a 00       		.byte	0
 2788 012b 19       		.uleb128 0x19
 2789 012c 8A8201   		.uleb128 0x410a
 2790 012f 00       		.byte	0
 2791 0130 02       		.uleb128 0x2
 2792 0131 18       		.uleb128 0x18
 2793 0132 9142     		.uleb128 0x2111
 2794 0134 18       		.uleb128 0x18
 2795 0135 00       		.byte	0
 2796 0136 00       		.byte	0
 2797 0137 1A       		.uleb128 0x1a
 2798 0138 898201   		.uleb128 0x4109
 2799 013b 00       		.byte	0
 2800 013c 11       		.uleb128 0x11
 2801 013d 01       		.uleb128 0x1
 2802 013e 31       		.uleb128 0x31
 2803 013f 13       		.uleb128 0x13
 2804 0140 00       		.byte	0
 2805 0141 00       		.byte	0
 2806 0142 1B       		.uleb128 0x1b
 2807 0143 898201   		.uleb128 0x4109
 2808 0146 01       		.byte	0x1
 2809 0147 11       		.uleb128 0x11
 2810 0148 01       		.uleb128 0x1
 2811 0149 9542     		.uleb128 0x2115
 2812 014b 19       		.uleb128 0x19
 2813 014c 31       		.uleb128 0x31
 2814 014d 13       		.uleb128 0x13
 2815 014e 00       		.byte	0
 2816 014f 00       		.byte	0
 2817 0150 1C       		.uleb128 0x1c
 2818 0151 2E       		.uleb128 0x2e
 2819 0152 01       		.byte	0x1
 2820 0153 03       		.uleb128 0x3
 2821 0154 0E       		.uleb128 0xe
 2822 0155 3A       		.uleb128 0x3a
 2823 0156 0B       		.uleb128 0xb
 2824 0157 3B       		.uleb128 0x3b
 2825 0158 0B       		.uleb128 0xb
 2826 0159 27       		.uleb128 0x27
 2827 015a 19       		.uleb128 0x19
 2828 015b 49       		.uleb128 0x49
 2829 015c 13       		.uleb128 0x13
ARM GAS  /tmp/ccdpV52Q.s 			page 51


 2830 015d 11       		.uleb128 0x11
 2831 015e 01       		.uleb128 0x1
 2832 015f 12       		.uleb128 0x12
 2833 0160 06       		.uleb128 0x6
 2834 0161 40       		.uleb128 0x40
 2835 0162 18       		.uleb128 0x18
 2836 0163 9742     		.uleb128 0x2117
 2837 0165 19       		.uleb128 0x19
 2838 0166 01       		.uleb128 0x1
 2839 0167 13       		.uleb128 0x13
 2840 0168 00       		.byte	0
 2841 0169 00       		.byte	0
 2842 016a 1D       		.uleb128 0x1d
 2843 016b 05       		.uleb128 0x5
 2844 016c 00       		.byte	0
 2845 016d 03       		.uleb128 0x3
 2846 016e 08       		.uleb128 0x8
 2847 016f 3A       		.uleb128 0x3a
 2848 0170 0B       		.uleb128 0xb
 2849 0171 3B       		.uleb128 0x3b
 2850 0172 0B       		.uleb128 0xb
 2851 0173 49       		.uleb128 0x49
 2852 0174 13       		.uleb128 0x13
 2853 0175 02       		.uleb128 0x2
 2854 0176 17       		.uleb128 0x17
 2855 0177 00       		.byte	0
 2856 0178 00       		.byte	0
 2857 0179 1E       		.uleb128 0x1e
 2858 017a 0B       		.uleb128 0xb
 2859 017b 01       		.byte	0x1
 2860 017c 55       		.uleb128 0x55
 2861 017d 17       		.uleb128 0x17
 2862 017e 01       		.uleb128 0x1
 2863 017f 13       		.uleb128 0x13
 2864 0180 00       		.byte	0
 2865 0181 00       		.byte	0
 2866 0182 1F       		.uleb128 0x1f
 2867 0183 34       		.uleb128 0x34
 2868 0184 00       		.byte	0
 2869 0185 03       		.uleb128 0x3
 2870 0186 08       		.uleb128 0x8
 2871 0187 3A       		.uleb128 0x3a
 2872 0188 0B       		.uleb128 0xb
 2873 0189 3B       		.uleb128 0x3b
 2874 018a 0B       		.uleb128 0xb
 2875 018b 49       		.uleb128 0x49
 2876 018c 13       		.uleb128 0x13
 2877 018d 02       		.uleb128 0x2
 2878 018e 18       		.uleb128 0x18
 2879 018f 00       		.byte	0
 2880 0190 00       		.byte	0
 2881 0191 20       		.uleb128 0x20
 2882 0192 0B       		.uleb128 0xb
 2883 0193 01       		.byte	0x1
 2884 0194 11       		.uleb128 0x11
 2885 0195 01       		.uleb128 0x1
 2886 0196 12       		.uleb128 0x12
ARM GAS  /tmp/ccdpV52Q.s 			page 52


 2887 0197 06       		.uleb128 0x6
 2888 0198 01       		.uleb128 0x1
 2889 0199 13       		.uleb128 0x13
 2890 019a 00       		.byte	0
 2891 019b 00       		.byte	0
 2892 019c 21       		.uleb128 0x21
 2893 019d 34       		.uleb128 0x34
 2894 019e 00       		.byte	0
 2895 019f 03       		.uleb128 0x3
 2896 01a0 0E       		.uleb128 0xe
 2897 01a1 3A       		.uleb128 0x3a
 2898 01a2 0B       		.uleb128 0xb
 2899 01a3 3B       		.uleb128 0x3b
 2900 01a4 0B       		.uleb128 0xb
 2901 01a5 49       		.uleb128 0x49
 2902 01a6 13       		.uleb128 0x13
 2903 01a7 02       		.uleb128 0x2
 2904 01a8 18       		.uleb128 0x18
 2905 01a9 00       		.byte	0
 2906 01aa 00       		.byte	0
 2907 01ab 22       		.uleb128 0x22
 2908 01ac 34       		.uleb128 0x34
 2909 01ad 00       		.byte	0
 2910 01ae 03       		.uleb128 0x3
 2911 01af 08       		.uleb128 0x8
 2912 01b0 3A       		.uleb128 0x3a
 2913 01b1 0B       		.uleb128 0xb
 2914 01b2 3B       		.uleb128 0x3b
 2915 01b3 0B       		.uleb128 0xb
 2916 01b4 49       		.uleb128 0x49
 2917 01b5 13       		.uleb128 0x13
 2918 01b6 02       		.uleb128 0x2
 2919 01b7 17       		.uleb128 0x17
 2920 01b8 00       		.byte	0
 2921 01b9 00       		.byte	0
 2922 01ba 23       		.uleb128 0x23
 2923 01bb 2E       		.uleb128 0x2e
 2924 01bc 01       		.byte	0x1
 2925 01bd 31       		.uleb128 0x31
 2926 01be 13       		.uleb128 0x13
 2927 01bf 11       		.uleb128 0x11
 2928 01c0 01       		.uleb128 0x1
 2929 01c1 12       		.uleb128 0x12
 2930 01c2 06       		.uleb128 0x6
 2931 01c3 40       		.uleb128 0x40
 2932 01c4 18       		.uleb128 0x18
 2933 01c5 9742     		.uleb128 0x2117
 2934 01c7 19       		.uleb128 0x19
 2935 01c8 01       		.uleb128 0x1
 2936 01c9 13       		.uleb128 0x13
 2937 01ca 00       		.byte	0
 2938 01cb 00       		.byte	0
 2939 01cc 24       		.uleb128 0x24
 2940 01cd 34       		.uleb128 0x34
 2941 01ce 00       		.byte	0
 2942 01cf 31       		.uleb128 0x31
 2943 01d0 13       		.uleb128 0x13
ARM GAS  /tmp/ccdpV52Q.s 			page 53


 2944 01d1 02       		.uleb128 0x2
 2945 01d2 17       		.uleb128 0x17
 2946 01d3 00       		.byte	0
 2947 01d4 00       		.byte	0
 2948 01d5 25       		.uleb128 0x25
 2949 01d6 898201   		.uleb128 0x4109
 2950 01d9 01       		.byte	0x1
 2951 01da 11       		.uleb128 0x11
 2952 01db 01       		.uleb128 0x1
 2953 01dc 31       		.uleb128 0x31
 2954 01dd 13       		.uleb128 0x13
 2955 01de 00       		.byte	0
 2956 01df 00       		.byte	0
 2957 01e0 26       		.uleb128 0x26
 2958 01e1 34       		.uleb128 0x34
 2959 01e2 00       		.byte	0
 2960 01e3 03       		.uleb128 0x3
 2961 01e4 0E       		.uleb128 0xe
 2962 01e5 3A       		.uleb128 0x3a
 2963 01e6 0B       		.uleb128 0xb
 2964 01e7 3B       		.uleb128 0x3b
 2965 01e8 0B       		.uleb128 0xb
 2966 01e9 49       		.uleb128 0x49
 2967 01ea 13       		.uleb128 0x13
 2968 01eb 3F       		.uleb128 0x3f
 2969 01ec 19       		.uleb128 0x19
 2970 01ed 3C       		.uleb128 0x3c
 2971 01ee 19       		.uleb128 0x19
 2972 01ef 00       		.byte	0
 2973 01f0 00       		.byte	0
 2974 01f1 27       		.uleb128 0x27
 2975 01f2 01       		.uleb128 0x1
 2976 01f3 01       		.byte	0x1
 2977 01f4 49       		.uleb128 0x49
 2978 01f5 13       		.uleb128 0x13
 2979 01f6 01       		.uleb128 0x1
 2980 01f7 13       		.uleb128 0x13
 2981 01f8 00       		.byte	0
 2982 01f9 00       		.byte	0
 2983 01fa 28       		.uleb128 0x28
 2984 01fb 21       		.uleb128 0x21
 2985 01fc 00       		.byte	0
 2986 01fd 49       		.uleb128 0x49
 2987 01fe 13       		.uleb128 0x13
 2988 01ff 2F       		.uleb128 0x2f
 2989 0200 0B       		.uleb128 0xb
 2990 0201 00       		.byte	0
 2991 0202 00       		.byte	0
 2992 0203 29       		.uleb128 0x29
 2993 0204 21       		.uleb128 0x21
 2994 0205 00       		.byte	0
 2995 0206 00       		.byte	0
 2996 0207 00       		.byte	0
 2997 0208 2A       		.uleb128 0x2a
 2998 0209 34       		.uleb128 0x34
 2999 020a 00       		.byte	0
 3000 020b 03       		.uleb128 0x3
ARM GAS  /tmp/ccdpV52Q.s 			page 54


 3001 020c 08       		.uleb128 0x8
 3002 020d 3A       		.uleb128 0x3a
 3003 020e 0B       		.uleb128 0xb
 3004 020f 3B       		.uleb128 0x3b
 3005 0210 0B       		.uleb128 0xb
 3006 0211 49       		.uleb128 0x49
 3007 0212 13       		.uleb128 0x13
 3008 0213 3F       		.uleb128 0x3f
 3009 0214 19       		.uleb128 0x19
 3010 0215 3C       		.uleb128 0x3c
 3011 0216 19       		.uleb128 0x19
 3012 0217 00       		.byte	0
 3013 0218 00       		.byte	0
 3014 0219 2B       		.uleb128 0x2b
 3015 021a 34       		.uleb128 0x34
 3016 021b 00       		.byte	0
 3017 021c 03       		.uleb128 0x3
 3018 021d 0E       		.uleb128 0xe
 3019 021e 3A       		.uleb128 0x3a
 3020 021f 0B       		.uleb128 0xb
 3021 0220 3B       		.uleb128 0x3b
 3022 0221 0B       		.uleb128 0xb
 3023 0222 49       		.uleb128 0x49
 3024 0223 13       		.uleb128 0x13
 3025 0224 3F       		.uleb128 0x3f
 3026 0225 19       		.uleb128 0x19
 3027 0226 02       		.uleb128 0x2
 3028 0227 18       		.uleb128 0x18
 3029 0228 00       		.byte	0
 3030 0229 00       		.byte	0
 3031 022a 2C       		.uleb128 0x2c
 3032 022b 2E       		.uleb128 0x2e
 3033 022c 01       		.byte	0x1
 3034 022d 3F       		.uleb128 0x3f
 3035 022e 19       		.uleb128 0x19
 3036 022f 03       		.uleb128 0x3
 3037 0230 0E       		.uleb128 0xe
 3038 0231 3A       		.uleb128 0x3a
 3039 0232 0B       		.uleb128 0xb
 3040 0233 3B       		.uleb128 0x3b
 3041 0234 05       		.uleb128 0x5
 3042 0235 27       		.uleb128 0x27
 3043 0236 19       		.uleb128 0x19
 3044 0237 49       		.uleb128 0x49
 3045 0238 13       		.uleb128 0x13
 3046 0239 3C       		.uleb128 0x3c
 3047 023a 19       		.uleb128 0x19
 3048 023b 01       		.uleb128 0x1
 3049 023c 13       		.uleb128 0x13
 3050 023d 00       		.byte	0
 3051 023e 00       		.byte	0
 3052 023f 2D       		.uleb128 0x2d
 3053 0240 2E       		.uleb128 0x2e
 3054 0241 00       		.byte	0
 3055 0242 3F       		.uleb128 0x3f
 3056 0243 19       		.uleb128 0x19
 3057 0244 03       		.uleb128 0x3
ARM GAS  /tmp/ccdpV52Q.s 			page 55


 3058 0245 0E       		.uleb128 0xe
 3059 0246 3A       		.uleb128 0x3a
 3060 0247 0B       		.uleb128 0xb
 3061 0248 3B       		.uleb128 0x3b
 3062 0249 0B       		.uleb128 0xb
 3063 024a 27       		.uleb128 0x27
 3064 024b 19       		.uleb128 0x19
 3065 024c 3C       		.uleb128 0x3c
 3066 024d 19       		.uleb128 0x19
 3067 024e 00       		.byte	0
 3068 024f 00       		.byte	0
 3069 0250 2E       		.uleb128 0x2e
 3070 0251 2E       		.uleb128 0x2e
 3071 0252 01       		.byte	0x1
 3072 0253 3F       		.uleb128 0x3f
 3073 0254 19       		.uleb128 0x19
 3074 0255 03       		.uleb128 0x3
 3075 0256 0E       		.uleb128 0xe
 3076 0257 3A       		.uleb128 0x3a
 3077 0258 0B       		.uleb128 0xb
 3078 0259 3B       		.uleb128 0x3b
 3079 025a 0B       		.uleb128 0xb
 3080 025b 27       		.uleb128 0x27
 3081 025c 19       		.uleb128 0x19
 3082 025d 49       		.uleb128 0x49
 3083 025e 13       		.uleb128 0x13
 3084 025f 3C       		.uleb128 0x3c
 3085 0260 19       		.uleb128 0x19
 3086 0261 01       		.uleb128 0x1
 3087 0262 13       		.uleb128 0x13
 3088 0263 00       		.byte	0
 3089 0264 00       		.byte	0
 3090 0265 2F       		.uleb128 0x2f
 3091 0266 2E       		.uleb128 0x2e
 3092 0267 01       		.byte	0x1
 3093 0268 3F       		.uleb128 0x3f
 3094 0269 19       		.uleb128 0x19
 3095 026a 03       		.uleb128 0x3
 3096 026b 0E       		.uleb128 0xe
 3097 026c 3A       		.uleb128 0x3a
 3098 026d 0B       		.uleb128 0xb
 3099 026e 3B       		.uleb128 0x3b
 3100 026f 0B       		.uleb128 0xb
 3101 0270 27       		.uleb128 0x27
 3102 0271 19       		.uleb128 0x19
 3103 0272 3C       		.uleb128 0x3c
 3104 0273 19       		.uleb128 0x19
 3105 0274 01       		.uleb128 0x1
 3106 0275 13       		.uleb128 0x13
 3107 0276 00       		.byte	0
 3108 0277 00       		.byte	0
 3109 0278 30       		.uleb128 0x30
 3110 0279 2E       		.uleb128 0x2e
 3111 027a 01       		.byte	0x1
 3112 027b 3F       		.uleb128 0x3f
 3113 027c 19       		.uleb128 0x19
 3114 027d 03       		.uleb128 0x3
ARM GAS  /tmp/ccdpV52Q.s 			page 56


 3115 027e 0E       		.uleb128 0xe
 3116 027f 3A       		.uleb128 0x3a
 3117 0280 0B       		.uleb128 0xb
 3118 0281 3B       		.uleb128 0x3b
 3119 0282 05       		.uleb128 0x5
 3120 0283 27       		.uleb128 0x27
 3121 0284 19       		.uleb128 0x19
 3122 0285 3C       		.uleb128 0x3c
 3123 0286 19       		.uleb128 0x19
 3124 0287 01       		.uleb128 0x1
 3125 0288 13       		.uleb128 0x13
 3126 0289 00       		.byte	0
 3127 028a 00       		.byte	0
 3128 028b 31       		.uleb128 0x31
 3129 028c 2E       		.uleb128 0x2e
 3130 028d 00       		.byte	0
 3131 028e 3F       		.uleb128 0x3f
 3132 028f 19       		.uleb128 0x19
 3133 0290 03       		.uleb128 0x3
 3134 0291 0E       		.uleb128 0xe
 3135 0292 3A       		.uleb128 0x3a
 3136 0293 0B       		.uleb128 0xb
 3137 0294 3B       		.uleb128 0x3b
 3138 0295 0B       		.uleb128 0xb
 3139 0296 27       		.uleb128 0x27
 3140 0297 19       		.uleb128 0x19
 3141 0298 49       		.uleb128 0x49
 3142 0299 13       		.uleb128 0x13
 3143 029a 3C       		.uleb128 0x3c
 3144 029b 19       		.uleb128 0x19
 3145 029c 00       		.byte	0
 3146 029d 00       		.byte	0
 3147 029e 00       		.byte	0
 3148              		.section	.debug_loc,"",%progbits
 3149              	.Ldebug_loc0:
 3150              	.LLST0:
 3151 0000 00000000 		.4byte	.LVL7
 3152 0004 04000000 		.4byte	.LVL8
 3153 0008 0100     		.2byte	0x1
 3154 000a 50       		.byte	0x50
 3155 000b 04000000 		.4byte	.LVL8
 3156 000f 0C000000 		.4byte	.LFE7
 3157 0013 0400     		.2byte	0x4
 3158 0015 F3       		.byte	0xf3
 3159 0016 01       		.uleb128 0x1
 3160 0017 50       		.byte	0x50
 3161 0018 9F       		.byte	0x9f
 3162 0019 00000000 		.4byte	0
 3163 001d 00000000 		.4byte	0
 3164              	.LLST1:
 3165 0021 20000000 		.4byte	.LVL22
 3166 0025 26000000 		.4byte	.LVL23
 3167 0029 0100     		.2byte	0x1
 3168 002b 50       		.byte	0x50
 3169 002c 26000000 		.4byte	.LVL23
 3170 0030 2C000000 		.4byte	.LVL25
 3171 0034 0100     		.2byte	0x1
ARM GAS  /tmp/ccdpV52Q.s 			page 57


 3172 0036 57       		.byte	0x57
 3173 0037 2E000000 		.4byte	.LVL26
 3174 003b 4E000000 		.4byte	.LVL28
 3175 003f 0100     		.2byte	0x1
 3176 0041 57       		.byte	0x57
 3177 0042 4E000000 		.4byte	.LVL28
 3178 0046 50000000 		.4byte	.LVL29
 3179 004a 0100     		.2byte	0x1
 3180 004c 50       		.byte	0x50
 3181 004d B2000000 		.4byte	.LVL35
 3182 0051 C0000000 		.4byte	.LVL36
 3183 0055 0100     		.2byte	0x1
 3184 0057 50       		.byte	0x50
 3185 0058 FE000000 		.4byte	.LVL40
 3186 005c 00010000 		.4byte	.LVL41
 3187 0060 0100     		.2byte	0x1
 3188 0062 50       		.byte	0x50
 3189 0063 00000000 		.4byte	0
 3190 0067 00000000 		.4byte	0
 3191              	.LLST2:
 3192 006b 10000000 		.4byte	.LVL48
 3193 006f 26000000 		.4byte	.LVL51
 3194 0073 0100     		.2byte	0x1
 3195 0075 55       		.byte	0x55
 3196 0076 28000000 		.4byte	.LVL52
 3197 007a 44000000 		.4byte	.LVL56
 3198 007e 0100     		.2byte	0x1
 3199 0080 55       		.byte	0x55
 3200 0081 00000000 		.4byte	0
 3201 0085 00000000 		.4byte	0
 3202              	.LLST3:
 3203 0089 44000000 		.4byte	.LVL56
 3204 008d 76000000 		.4byte	.LVL61
 3205 0091 0100     		.2byte	0x1
 3206 0093 55       		.byte	0x55
 3207 0094 76000000 		.4byte	.LVL61
 3208 0098 79000000 		.4byte	.LVL62-1
 3209 009c 0100     		.2byte	0x1
 3210 009e 51       		.byte	0x51
 3211 009f 00000000 		.4byte	0
 3212 00a3 00000000 		.4byte	0
 3213              		.section	.debug_aranges,"",%progbits
 3214 0000 3C000000 		.4byte	0x3c
 3215 0004 0200     		.2byte	0x2
 3216 0006 00000000 		.4byte	.Ldebug_info0
 3217 000a 04       		.byte	0x4
 3218 000b 00       		.byte	0
 3219 000c 0000     		.2byte	0
 3220 000e 0000     		.2byte	0
 3221 0010 00000000 		.4byte	.LFB8
 3222 0014 DA000000 		.4byte	.LFE8-.LFB8
 3223 0018 00000000 		.4byte	.LFB7
 3224 001c 0C000000 		.4byte	.LFE7-.LFB7
 3225 0020 00000000 		.4byte	.LFB9
 3226 0024 18010000 		.4byte	.LFE9-.LFB9
 3227 0028 00000000 		.4byte	.LFB10
 3228 002c 54010000 		.4byte	.LFE10-.LFB10
ARM GAS  /tmp/ccdpV52Q.s 			page 58


 3229 0030 00000000 		.4byte	.LFB11
 3230 0034 7A000000 		.4byte	.LFE11-.LFB11
 3231 0038 00000000 		.4byte	0
 3232 003c 00000000 		.4byte	0
 3233              		.section	.debug_ranges,"",%progbits
 3234              	.Ldebug_ranges0:
 3235 0000 A0000000 		.4byte	.LBB2
 3236 0004 A2000000 		.4byte	.LBE2
 3237 0008 A4000000 		.4byte	.LBB3
 3238 000c A8000000 		.4byte	.LBE3
 3239 0010 00000000 		.4byte	0
 3240 0014 00000000 		.4byte	0
 3241 0018 42000000 		.4byte	.LBB12
 3242 001c 72000000 		.4byte	.LBE12
 3243 0020 76000000 		.4byte	.LBB13
 3244 0024 7A000000 		.4byte	.LBE13
 3245 0028 00000000 		.4byte	0
 3246 002c 00000000 		.4byte	0
 3247 0030 00000000 		.4byte	.LFB8
 3248 0034 DA000000 		.4byte	.LFE8
 3249 0038 00000000 		.4byte	.LFB7
 3250 003c 0C000000 		.4byte	.LFE7
 3251 0040 00000000 		.4byte	.LFB9
 3252 0044 18010000 		.4byte	.LFE9
 3253 0048 00000000 		.4byte	.LFB10
 3254 004c 54010000 		.4byte	.LFE10
 3255 0050 00000000 		.4byte	.LFB11
 3256 0054 7A000000 		.4byte	.LFE11
 3257 0058 00000000 		.4byte	0
 3258 005c 00000000 		.4byte	0
 3259              		.section	.debug_line,"",%progbits
 3260              	.Ldebug_line0:
 3261 0000 0C020000 		.section	.debug_str,"MS",%progbits,1
 3261      02005C01 
 3261      00000201 
 3261      FB0E0D00 
 3261      01010101 
 3262              	.LASF81:
 3263 0000 7466756E 		.ascii	"tfunc_t\000"
 3263      635F7400 
 3264              	.LASF44:
 3265 0008 705F6D73 		.ascii	"p_msg\000"
 3265      6700
 3266              	.LASF2:
 3267 000e 73697A65 		.ascii	"size_t\000"
 3267      5F7400
 3268              	.LASF90:
 3269 0015 7072696F 		.ascii	"prio\000"
 3269      00
 3270              	.LASF76:
 3271 001a 7264796D 		.ascii	"rdymsg\000"
 3271      736700
 3272              	.LASF17:
 3273 0021 75696E74 		.ascii	"uint64_t\000"
 3273      36345F74 
 3273      00
 3274              	.LASF3:
ARM GAS  /tmp/ccdpV52Q.s 			page 59


 3275 002a 5F5F7569 		.ascii	"__uint8_t\000"
 3275      6E74385F 
 3275      7400
 3276              	.LASF91:
 3277 0034 76746C69 		.ascii	"vtlist\000"
 3277      737400
 3278              	.LASF112:
 3279 003b 474E5520 		.ascii	"GNU C 4.8.2 -mcpu=cortex-m4 -mno-thumb-interwork -m"
 3279      4320342E 
 3279      382E3220 
 3279      2D6D6370 
 3279      753D636F 
 3280 006e 7468756D 		.ascii	"thumb -ggdb -O2 -fomit-frame-pointer -falign-functi"
 3280      62202D67 
 3280      67646220 
 3280      2D4F3220 
 3280      2D666F6D 
 3281 00a1 6F6E733D 		.ascii	"ons=16 -ffunction-sections -fdata-sections -fno-com"
 3281      3136202D 
 3281      6666756E 
 3281      6374696F 
 3281      6E2D7365 
 3282 00d4 6D6F6E00 		.ascii	"mon\000"
 3283              	.LASF13:
 3284 00d8 6C6F6E67 		.ascii	"long long unsigned int\000"
 3284      206C6F6E 
 3284      6720756E 
 3284      7369676E 
 3284      65642069 
 3285              	.LASF77:
 3286 00ef 65786974 		.ascii	"exitcode\000"
 3286      636F6465 
 3286      00
 3287              	.LASF31:
 3288 00f8 705F7072 		.ascii	"p_prio\000"
 3288      696F00
 3289              	.LASF11:
 3290 00ff 6C6F6E67 		.ascii	"long long int\000"
 3290      206C6F6E 
 3290      6720696E 
 3290      7400
 3291              	.LASF1:
 3292 010d 7369676E 		.ascii	"signed char\000"
 3292      65642063 
 3292      68617200 
 3293              	.LASF48:
 3294 0119 705F6D70 		.ascii	"p_mpool\000"
 3294      6F6F6C00 
 3295              	.LASF18:
 3296 0121 626F6F6C 		.ascii	"bool_t\000"
 3296      5F7400
 3297              	.LASF73:
 3298 0128 6D5F7175 		.ascii	"m_queue\000"
 3298      65756500 
 3299              	.LASF108:
 3300 0130 74657374 		.ascii	"test_emit_token\000"
 3300      5F656D69 
ARM GAS  /tmp/ccdpV52Q.s 			page 60


 3300      745F746F 
 3300      6B656E00 
 3301              	.LASF23:
 3302 0140 74736C69 		.ascii	"tslices_t\000"
 3302      6365735F 
 3302      7400
 3303              	.LASF103:
 3304 014a 63685468 		.ascii	"chThdCreateI\000"
 3304      64437265 
 3304      61746549 
 3304      00
 3305              	.LASF8:
 3306 0157 6C6F6E67 		.ascii	"long int\000"
 3306      20696E74 
 3306      00
 3307              	.LASF21:
 3308 0160 74737461 		.ascii	"tstate_t\000"
 3308      74655F74 
 3308      00
 3309              	.LASF110:
 3310 0169 5F746573 		.ascii	"_test_assert_time_window\000"
 3310      745F6173 
 3310      73657274 
 3310      5F74696D 
 3310      655F7769 
 3311              	.LASF33:
 3312 0182 705F6E65 		.ascii	"p_newer\000"
 3312      77657200 
 3313              	.LASF106:
 3314 018a 63685468 		.ascii	"chThdSetPriority\000"
 3314      64536574 
 3314      5072696F 
 3314      72697479 
 3314      00
 3315              	.LASF9:
 3316 019b 5F5F7569 		.ascii	"__uint32_t\000"
 3316      6E743332 
 3316      5F7400
 3317              	.LASF51:
 3318 01a6 72656761 		.ascii	"regarm_t\000"
 3318      726D5F74 
 3318      00
 3319              	.LASF59:
 3320 01af 76745F70 		.ascii	"vt_prev\000"
 3320      72657600 
 3321              	.LASF87:
 3322 01b7 74686431 		.ascii	"thd1_execute\000"
 3322      5F657865 
 3322      63757465 
 3322      00
 3323              	.LASF36:
 3324 01c4 705F7374 		.ascii	"p_stklimit\000"
 3324      6B6C696D 
 3324      697400
 3325              	.LASF0:
 3326 01cf 756E7369 		.ascii	"unsigned int\000"
 3326      676E6564 
ARM GAS  /tmp/ccdpV52Q.s 			page 61


 3326      20696E74 
 3326      00
 3327              	.LASF58:
 3328 01dc 76745F6E 		.ascii	"vt_next\000"
 3328      65787400 
 3329              	.LASF10:
 3330 01e4 6C6F6E67 		.ascii	"long unsigned int\000"
 3330      20756E73 
 3330      69676E65 
 3330      6420696E 
 3330      7400
 3331              	.LASF85:
 3332 01f6 74656172 		.ascii	"teardown\000"
 3332      646F776E 
 3332      00
 3333              	.LASF56:
 3334 01ff 76746675 		.ascii	"vtfunc_t\000"
 3334      6E635F74 
 3334      00
 3335              	.LASF83:
 3336 0208 6E616D65 		.ascii	"name\000"
 3336      00
 3337              	.LASF54:
 3338 020d 636F6E74 		.ascii	"context\000"
 3338      65787400 
 3339              	.LASF6:
 3340 0215 73686F72 		.ascii	"short unsigned int\000"
 3340      7420756E 
 3340      7369676E 
 3340      65642069 
 3340      6E7400
 3341              	.LASF88:
 3342 0228 74686432 		.ascii	"thd2_execute\000"
 3342      5F657865 
 3342      63757465 
 3342      00
 3343              	.LASF25:
 3344 0235 6D73675F 		.ascii	"msg_t\000"
 3344      7400
 3345              	.LASF68:
 3346 023b 725F6E65 		.ascii	"r_newer\000"
 3346      77657200 
 3347              	.LASF20:
 3348 0243 746D6F64 		.ascii	"tmode_t\000"
 3348      655F7400 
 3349              	.LASF50:
 3350 024b 54687265 		.ascii	"ThreadsList\000"
 3350      6164734C 
 3350      69737400 
 3351              	.LASF26:
 3352 0257 6576656E 		.ascii	"eventmask_t\000"
 3352      746D6173 
 3352      6B5F7400 
 3353              	.LASF72:
 3354 0263 4D757465 		.ascii	"Mutex\000"
 3354      7800
 3355              	.LASF52:
ARM GAS  /tmp/ccdpV52Q.s 			page 62


 3356 0269 73746B61 		.ascii	"stkalign_t\000"
 3356      6C69676E 
 3356      5F7400
 3357              	.LASF99:
 3358 0274 63685468 		.ascii	"chThdCreateStatic\000"
 3358      64437265 
 3358      61746553 
 3358      74617469 
 3358      6300
 3359              	.LASF60:
 3360 0286 76745F74 		.ascii	"vt_time\000"
 3360      696D6500 
 3361              	.LASF55:
 3362 028e 73697A65 		.ascii	"sizetype\000"
 3362      74797065 
 3362      00
 3363              	.LASF94:
 3364 0297 74657374 		.ascii	"testthd1\000"
 3364      74686431 
 3364      00
 3365              	.LASF95:
 3366 02a0 74657374 		.ascii	"testthd2\000"
 3366      74686432 
 3366      00
 3367              	.LASF96:
 3368 02a9 74657374 		.ascii	"testthd3\000"
 3368      74686433 
 3368      00
 3369              	.LASF97:
 3370 02b2 74657374 		.ascii	"testthd4\000"
 3370      74686434 
 3370      00
 3371              	.LASF61:
 3372 02bb 76745F66 		.ascii	"vt_func\000"
 3372      756E6300 
 3373              	.LASF102:
 3374 02c3 6462675F 		.ascii	"dbg_check_lock\000"
 3374      63686563 
 3374      6B5F6C6F 
 3374      636B00
 3375              	.LASF105:
 3376 02d2 63685468 		.ascii	"chThdResume\000"
 3376      64526573 
 3376      756D6500 
 3377              	.LASF101:
 3378 02de 74657374 		.ascii	"test_wait_threads\000"
 3378      5F776169 
 3378      745F7468 
 3378      72656164 
 3378      7300
 3379              	.LASF34:
 3380 02f0 705F6F6C 		.ascii	"p_older\000"
 3380      64657200 
 3381              	.LASF67:
 3382 02f8 725F6374 		.ascii	"r_ctx\000"
 3382      7800
 3383              	.LASF49:
ARM GAS  /tmp/ccdpV52Q.s 			page 63


 3384 02fe 54687265 		.ascii	"ThreadsQueue\000"
 3384      61647351 
 3384      75657565 
 3384      00
 3385              	.LASF114:
 3386 030b 2F686F6D 		.ascii	"/home/mo/ARMProjects/ChibiOS_Sample/ChibiOS_2.6.5/t"
 3386      652F6D6F 
 3386      2F41524D 
 3386      50726F6A 
 3386      65637473 
 3387 033e 65737468 		.ascii	"esthal/STM32F4xx/ADC\000"
 3387      616C2F53 
 3387      544D3332 
 3387      46347878 
 3387      2F414443 
 3388              	.LASF84:
 3389 0353 73657475 		.ascii	"setup\000"
 3389      7000
 3390              	.LASF100:
 3391 0359 5F746573 		.ascii	"_test_assert_sequence\000"
 3391      745F6173 
 3391      73657274 
 3391      5F736571 
 3391      75656E63 
 3392              	.LASF116:
 3393 036f 74696D65 		.ascii	"time\000"
 3393      00
 3394              	.LASF70:
 3395 0374 725F6375 		.ascii	"r_current\000"
 3395      7272656E 
 3395      7400
 3396              	.LASF69:
 3397 037e 725F6F6C 		.ascii	"r_older\000"
 3397      64657200 
 3398              	.LASF104:
 3399 0386 6462675F 		.ascii	"dbg_check_unlock\000"
 3399      63686563 
 3399      6B5F756E 
 3399      6C6F636B 
 3399      00
 3400              	.LASF111:
 3401 0397 63685468 		.ascii	"chThdSleepUntil\000"
 3401      64536C65 
 3401      6570556E 
 3401      74696C00 
 3402              	.LASF12:
 3403 03a7 5F5F7569 		.ascii	"__uint64_t\000"
 3403      6E743634 
 3403      5F7400
 3404              	.LASF22:
 3405 03b2 74726566 		.ascii	"trefs_t\000"
 3405      735F7400 
 3406              	.LASF89:
 3407 03ba 74686433 		.ascii	"thd3_execute\000"
 3407      5F657865 
 3407      63757465 
 3407      00
ARM GAS  /tmp/ccdpV52Q.s 			page 64


 3408              	.LASF30:
 3409 03c7 705F7072 		.ascii	"p_prev\000"
 3409      657600
 3410              	.LASF86:
 3411 03ce 65786563 		.ascii	"execute\000"
 3411      75746500 
 3412              	.LASF24:
 3413 03d6 74707269 		.ascii	"tprio_t\000"
 3413      6F5F7400 
 3414              	.LASF117:
 3415 03de 74687265 		.ascii	"thread\000"
 3415      616400
 3416              	.LASF19:
 3417 03e5 5F426F6F 		.ascii	"_Bool\000"
 3417      6C00
 3418              	.LASF15:
 3419 03eb 696E7433 		.ascii	"int32_t\000"
 3419      325F7400 
 3420              	.LASF4:
 3421 03f3 756E7369 		.ascii	"unsigned char\000"
 3421      676E6564 
 3421      20636861 
 3421      7200
 3422              	.LASF118:
 3423 0401 74657374 		.ascii	"test_wait_tick\000"
 3423      5F776169 
 3423      745F7469 
 3423      636B00
 3424              	.LASF46:
 3425 0410 705F6D74 		.ascii	"p_mtxlist\000"
 3425      786C6973 
 3425      7400
 3426              	.LASF5:
 3427 041a 73686F72 		.ascii	"short int\000"
 3427      7420696E 
 3427      7400
 3428              	.LASF37:
 3429 0424 705F7374 		.ascii	"p_state\000"
 3429      61746500 
 3430              	.LASF40:
 3431 042c 705F7072 		.ascii	"p_preempt\000"
 3431      65656D70 
 3431      7400
 3432              	.LASF93:
 3433 0436 74687265 		.ascii	"threads\000"
 3433      61647300 
 3434              	.LASF66:
 3435 043e 725F7072 		.ascii	"r_prio\000"
 3435      696F00
 3436              	.LASF79:
 3437 0445 65776D61 		.ascii	"ewmask\000"
 3437      736B00
 3438              	.LASF29:
 3439 044c 705F6E65 		.ascii	"p_next\000"
 3439      787400
 3440              	.LASF38:
 3441 0453 705F666C 		.ascii	"p_flags\000"
ARM GAS  /tmp/ccdpV52Q.s 			page 65


 3441      61677300 
 3442              	.LASF28:
 3443 045b 54687265 		.ascii	"Thread\000"
 3443      616400
 3444              	.LASF82:
 3445 0462 74657374 		.ascii	"testcase\000"
 3445      63617365 
 3445      00
 3446              	.LASF45:
 3447 046b 705F6570 		.ascii	"p_epending\000"
 3447      656E6469 
 3447      6E6700
 3448              	.LASF113:
 3449 0476 2E2E2F2E 		.ascii	"../../../test/testthd.c\000"
 3449      2E2F2E2E 
 3449      2F746573 
 3449      742F7465 
 3449      73747468 
 3450              	.LASF65:
 3451 048e 725F7175 		.ascii	"r_queue\000"
 3451      65756500 
 3452              	.LASF57:
 3453 0496 56697274 		.ascii	"VirtualTimer\000"
 3453      75616C54 
 3453      696D6572 
 3453      00
 3454              	.LASF80:
 3455 04a3 63686172 		.ascii	"char\000"
 3455      00
 3456              	.LASF115:
 3457 04a8 74686434 		.ascii	"thd4_execute\000"
 3457      5F657865 
 3457      63757465 
 3457      00
 3458              	.LASF98:
 3459 04b5 70617474 		.ascii	"patternthd\000"
 3459      65726E74 
 3459      686400
 3460              	.LASF75:
 3461 04c0 6D5F6E65 		.ascii	"m_next\000"
 3461      787400
 3462              	.LASF27:
 3463 04c7 73797374 		.ascii	"systime_t\000"
 3463      696D655F 
 3463      7400
 3464              	.LASF47:
 3465 04d1 705F7265 		.ascii	"p_realprio\000"
 3465      616C7072 
 3465      696F00
 3466              	.LASF7:
 3467 04dc 5F5F696E 		.ascii	"__int32_t\000"
 3467      7433325F 
 3467      7400
 3468              	.LASF41:
 3469 04e6 705F7469 		.ascii	"p_time\000"
 3469      6D6500
 3470              	.LASF53:
ARM GAS  /tmp/ccdpV52Q.s 			page 66


 3471 04ed 696E7463 		.ascii	"intctx\000"
 3471      747800
 3472              	.LASF43:
 3473 04f4 705F6D73 		.ascii	"p_msgqueue\000"
 3473      67717565 
 3473      756500
 3474              	.LASF62:
 3475 04ff 76745F70 		.ascii	"vt_par\000"
 3475      617200
 3476              	.LASF16:
 3477 0506 75696E74 		.ascii	"uint32_t\000"
 3477      33325F74 
 3477      00
 3478              	.LASF109:
 3479 050f 63685468 		.ascii	"chThdSleep\000"
 3479      64536C65 
 3479      657000
 3480              	.LASF39:
 3481 051a 705F7265 		.ascii	"p_refs\000"
 3481      667300
 3482              	.LASF71:
 3483 0521 52656164 		.ascii	"ReadyList\000"
 3483      794C6973 
 3483      7400
 3484              	.LASF92:
 3485 052b 726C6973 		.ascii	"rlist\000"
 3485      7400
 3486              	.LASF14:
 3487 0531 75696E74 		.ascii	"uint8_t\000"
 3487      385F7400 
 3488              	.LASF78:
 3489 0539 77746F62 		.ascii	"wtobjp\000"
 3489      6A7000
 3490              	.LASF35:
 3491 0540 705F6E61 		.ascii	"p_name\000"
 3491      6D6500
 3492              	.LASF107:
 3493 0547 5F746573 		.ascii	"_test_assert\000"
 3493      745F6173 
 3493      73657274 
 3493      00
 3494              	.LASF63:
 3495 0554 76745F73 		.ascii	"vt_systime\000"
 3495      79737469 
 3495      6D6500
 3496              	.LASF64:
 3497 055f 56544C69 		.ascii	"VTList\000"
 3497      737400
 3498              	.LASF74:
 3499 0566 6D5F6F77 		.ascii	"m_owner\000"
 3499      6E657200 
 3500              	.LASF32:
 3501 056e 705F6374 		.ascii	"p_ctx\000"
 3501      7800
 3502              	.LASF42:
 3503 0574 705F7761 		.ascii	"p_waiting\000"
 3503      6974696E 
ARM GAS  /tmp/ccdpV52Q.s 			page 67


 3503      6700
 3504              		.ident	"GCC: (4.8.2-14ubuntu1+6) 4.8.2"
ARM GAS  /tmp/ccdpV52Q.s 			page 68


DEFINED SYMBOLS
                            *ABS*:0000000000000000 testthd.c
     /tmp/ccdpV52Q.s:19     .text.thd1_execute:0000000000000000 $t
     /tmp/ccdpV52Q.s:24     .text.thd1_execute:0000000000000000 thd1_execute
     /tmp/ccdpV52Q.s:152    .text.thread:0000000000000000 thread
     /tmp/ccdpV52Q.s:716    .rodata.str1.4:0000000000000000 .LC0
     /tmp/ccdpV52Q.s:719    .rodata.str1.4:0000000000000004 .LC1
     /tmp/ccdpV52Q.s:722    .rodata.str1.4:0000000000000008 .LC2
     /tmp/ccdpV52Q.s:725    .rodata.str1.4:000000000000000c .LC3
     /tmp/ccdpV52Q.s:728    .rodata.str1.4:0000000000000010 .LC4
     /tmp/ccdpV52Q.s:731    .rodata.str1.4:0000000000000014 .LC5
     /tmp/ccdpV52Q.s:147    .text.thread:0000000000000000 $t
     /tmp/ccdpV52Q.s:175    .text.thd2_execute:0000000000000000 $t
     /tmp/ccdpV52Q.s:180    .text.thd2_execute:0000000000000000 thd2_execute
     /tmp/ccdpV52Q.s:336    .text.thd3_execute:0000000000000000 $t
     /tmp/ccdpV52Q.s:341    .text.thd3_execute:0000000000000000 thd3_execute
     /tmp/ccdpV52Q.s:562    .text.thd4_execute:0000000000000000 $t
     /tmp/ccdpV52Q.s:567    .text.thd4_execute:0000000000000000 thd4_execute
     /tmp/ccdpV52Q.s:708    .rodata.patternthd:0000000000000000 patternthd
     /tmp/ccdpV52Q.s:699    .rodata.testthd4:0000000000000000 testthd4
     /tmp/ccdpV52Q.s:690    .rodata.testthd3:0000000000000000 testthd3
     /tmp/ccdpV52Q.s:681    .rodata.testthd2:0000000000000000 testthd2
     /tmp/ccdpV52Q.s:672    .rodata.testthd1:0000000000000000 testthd1
     /tmp/ccdpV52Q.s:669    .rodata.testthd1:0000000000000000 $d
     /tmp/ccdpV52Q.s:678    .rodata.testthd2:0000000000000000 $d
     /tmp/ccdpV52Q.s:687    .rodata.testthd3:0000000000000000 $d
     /tmp/ccdpV52Q.s:696    .rodata.testthd4:0000000000000000 $d
     /tmp/ccdpV52Q.s:705    .rodata.patternthd:0000000000000000 $d
     /tmp/ccdpV52Q.s:715    .rodata.str1.4:0000000000000000 $d
                     .debug_frame:0000000000000010 $d

UNDEFINED SYMBOLS
rlist
wa
chThdCreateStatic
threads
test_wait_threads
_test_assert_sequence
test_emit_token
dbg_check_lock
chThdCreateI
dbg_check_unlock
chThdResume
chThdSetPriority
_test_assert
vtlist
test_wait_tick
chThdSleep
_test_assert_time_window
chThdSleepUntil
