ARM GAS  /tmp/ccLwru8T.s 			page 1


   1              		.syntax unified
   2              		.cpu cortex-m4
   3              		.fpu softvfp
   4              		.eabi_attribute 20, 1
   5              		.eabi_attribute 21, 1
   6              		.eabi_attribute 23, 3
   7              		.eabi_attribute 24, 1
   8              		.eabi_attribute 25, 1
   9              		.eabi_attribute 26, 1
  10              		.eabi_attribute 30, 2
  11              		.eabi_attribute 34, 1
  12              		.eabi_attribute 18, 4
  13              		.thumb
  14              		.file	"testsem.c"
  15              		.text
  16              	.Ltext0:
  17              		.cfi_sections	.debug_frame
  18              		.section	.text.sem1_execute,"ax",%progbits
  19              		.align	2
  20              		.p2align 4,,15
  21              		.thumb
  22              		.thumb_func
  23              		.type	sem1_execute, %function
  24              	sem1_execute:
  25              	.LFB9:
  26              		.file 1 "../../../test/testsem.c"
  27              		.loc 1 84 0
  28              		.cfi_startproc
  29              		@ args = 0, pretend = 0, frame = 8
  30              		@ frame_needed = 0, uses_anonymous_args = 0
  31 0000 2DE9F041 		push	{r4, r5, r6, r7, r8, lr}
  32              		.cfi_def_cfa_offset 24
  33              		.cfi_offset 4, -24
  34              		.cfi_offset 5, -20
  35              		.cfi_offset 6, -16
  36              		.cfi_offset 7, -12
  37              		.cfi_offset 8, -8
  38              		.cfi_offset 14, -4
  39              		.loc 1 86 0
  40 0004 40F20005 		movw	r5, #:lower16:rlist
  41 0008 C0F20005 		movt	r5, #:upper16:rlist
  42 000c 40F20006 		movw	r6, #:lower16:wa
  43 0010 C0F20006 		movt	r6, #:upper16:wa
  44 0014 AB69     		ldr	r3, [r5, #24]
  45 0016 D6F80080 		ldr	r8, [r6]
  46 001a 9A68     		ldr	r2, [r3, #8]
  47              		.loc 1 84 0
  48 001c 84B0     		sub	sp, sp, #16
  49              		.cfi_def_cfa_offset 40
  50              		.loc 1 86 0
  51 001e 40F20007 		movw	r7, #:lower16:.LC0
  52 0022 C0F20007 		movt	r7, #:upper16:.LC0
  53 0026 40F20003 		movw	r3, #:lower16:thread1
  54 002a 0532     		adds	r2, r2, #5
  55 002c C0F20003 		movt	r3, #:upper16:thread1
  56 0030 4FF4A871 		mov	r1, #336
  57 0034 4046     		mov	r0, r8
ARM GAS  /tmp/ccLwru8T.s 			page 2


  58 0036 0097     		str	r7, [sp]
  59 0038 FFF7FEFF 		bl	chThdCreateStatic
  60              	.LVL0:
  61              		.loc 1 87 0
  62 003c 7268     		ldr	r2, [r6, #4]
  63 003e AB69     		ldr	r3, [r5, #24]
  64 0040 0392     		str	r2, [sp, #12]
  65              		.loc 1 86 0
  66 0042 40F20004 		movw	r4, #:lower16:threads
  67              		.loc 1 87 0
  68 0046 9A68     		ldr	r2, [r3, #8]
  69              		.loc 1 86 0
  70 0048 C0F20004 		movt	r4, #:upper16:threads
  71              		.loc 1 87 0
  72 004c 40F20001 		movw	r1, #:lower16:.LC1
  73 0050 C0F20001 		movt	r1, #:upper16:.LC1
  74 0054 40F20003 		movw	r3, #:lower16:thread1
  75              		.loc 1 86 0
  76 0058 2060     		str	r0, [r4]
  77              		.loc 1 87 0
  78 005a 0132     		adds	r2, r2, #1
  79 005c 0091     		str	r1, [sp]
  80 005e C0F20003 		movt	r3, #:upper16:thread1
  81 0062 4FF4A871 		mov	r1, #336
  82 0066 0398     		ldr	r0, [sp, #12]
  83 0068 FFF7FEFF 		bl	chThdCreateStatic
  84              	.LVL1:
  85              		.loc 1 88 0
  86 006c B268     		ldr	r2, [r6, #8]
  87 006e AB69     		ldr	r3, [r5, #24]
  88 0070 0392     		str	r2, [sp, #12]
  89 0072 40F20001 		movw	r1, #:lower16:.LC2
  90 0076 9A68     		ldr	r2, [r3, #8]
  91              		.loc 1 87 0
  92 0078 6060     		str	r0, [r4, #4]
  93              		.loc 1 88 0
  94 007a C0F20001 		movt	r1, #:upper16:.LC2
  95 007e 40F20003 		movw	r3, #:lower16:thread1
  96 0082 0332     		adds	r2, r2, #3
  97 0084 0091     		str	r1, [sp]
  98 0086 C0F20003 		movt	r3, #:upper16:thread1
  99 008a 4FF4A871 		mov	r1, #336
 100 008e 0398     		ldr	r0, [sp, #12]
 101 0090 FFF7FEFF 		bl	chThdCreateStatic
 102              	.LVL2:
 103              		.loc 1 89 0
 104 0094 F268     		ldr	r2, [r6, #12]
 105 0096 AB69     		ldr	r3, [r5, #24]
 106 0098 0392     		str	r2, [sp, #12]
 107 009a 40F20001 		movw	r1, #:lower16:.LC3
 108 009e 9A68     		ldr	r2, [r3, #8]
 109              		.loc 1 88 0
 110 00a0 A060     		str	r0, [r4, #8]
 111              		.loc 1 89 0
 112 00a2 C0F20001 		movt	r1, #:upper16:.LC3
 113 00a6 40F20003 		movw	r3, #:lower16:thread1
 114 00aa 0432     		adds	r2, r2, #4
ARM GAS  /tmp/ccLwru8T.s 			page 3


 115 00ac 0091     		str	r1, [sp]
 116 00ae C0F20003 		movt	r3, #:upper16:thread1
 117 00b2 4FF4A871 		mov	r1, #336
 118 00b6 0398     		ldr	r0, [sp, #12]
 119 00b8 FFF7FEFF 		bl	chThdCreateStatic
 120              	.LVL3:
 121              		.loc 1 90 0
 122 00bc AB69     		ldr	r3, [r5, #24]
 123 00be 3669     		ldr	r6, [r6, #16]
 124 00c0 9A68     		ldr	r2, [r3, #8]
 125              		.loc 1 89 0
 126 00c2 E060     		str	r0, [r4, #12]
 127              		.loc 1 90 0
 128 00c4 40F20001 		movw	r1, #:lower16:.LC4
 129 00c8 C0F20001 		movt	r1, #:upper16:.LC4
 130 00cc 40F20003 		movw	r3, #:lower16:thread1
 131 00d0 0232     		adds	r2, r2, #2
 132 00d2 C0F20003 		movt	r3, #:upper16:thread1
 133 00d6 0091     		str	r1, [sp]
 134 00d8 3046     		mov	r0, r6
 135 00da 4FF4A871 		mov	r1, #336
 136 00de FFF7FEFF 		bl	chThdCreateStatic
 137              	.LVL4:
 138 00e2 2061     		str	r0, [r4, #16]
 139              		.loc 1 91 0
 140 00e4 40F20000 		movw	r0, #:lower16:.LANCHOR0
 141 00e8 C0F20000 		movt	r0, #:upper16:.LANCHOR0
 142 00ec FFF7FEFF 		bl	chSemSignal
 143              	.LVL5:
 144              		.loc 1 92 0
 145 00f0 40F20000 		movw	r0, #:lower16:.LANCHOR0
 146 00f4 C0F20000 		movt	r0, #:upper16:.LANCHOR0
 147 00f8 FFF7FEFF 		bl	chSemSignal
 148              	.LVL6:
 149              		.loc 1 93 0
 150 00fc 40F20000 		movw	r0, #:lower16:.LANCHOR0
 151 0100 C0F20000 		movt	r0, #:upper16:.LANCHOR0
 152 0104 FFF7FEFF 		bl	chSemSignal
 153              	.LVL7:
 154              		.loc 1 94 0
 155 0108 40F20000 		movw	r0, #:lower16:.LANCHOR0
 156 010c C0F20000 		movt	r0, #:upper16:.LANCHOR0
 157 0110 FFF7FEFF 		bl	chSemSignal
 158              	.LVL8:
 159              		.loc 1 95 0
 160 0114 40F20000 		movw	r0, #:lower16:.LANCHOR0
 161 0118 C0F20000 		movt	r0, #:upper16:.LANCHOR0
 162 011c FFF7FEFF 		bl	chSemSignal
 163              	.LVL9:
 164              		.loc 1 96 0
 165 0120 FFF7FEFF 		bl	test_wait_threads
 166              	.LVL10:
 167              		.loc 1 100 0
 168 0124 40F20001 		movw	r1, #:lower16:.LC5
 169 0128 C0F20001 		movt	r1, #:upper16:.LC5
 170 012c 0120     		movs	r0, #1
 171 012e FFF7FEFF 		bl	_test_assert_sequence
ARM GAS  /tmp/ccLwru8T.s 			page 4


 172              	.LVL11:
 173 0132 10B1     		cbz	r0, .L4
 174              		.loc 1 109 0
 175 0134 04B0     		add	sp, sp, #16
 176              		@ sp needed
 177 0136 BDE8F081 		pop	{r4, r5, r6, r7, r8, pc}
 178              	.L4:
 179              		.loc 1 102 0
 180 013a AB69     		ldr	r3, [r5, #24]
 181 013c 9A68     		ldr	r2, [r3, #8]
 182 013e 0097     		str	r7, [sp]
 183 0140 40F20003 		movw	r3, #:lower16:thread1
 184 0144 0532     		adds	r2, r2, #5
 185 0146 4046     		mov	r0, r8
 186 0148 C0F20003 		movt	r3, #:upper16:thread1
 187 014c 4FF4A871 		mov	r1, #336
 188 0150 FFF7FEFF 		bl	chThdCreateStatic
 189              	.LVL12:
 190              	.LBB2:
 191              		.loc 1 103 0
 192 0154 2023     		movs	r3, #32
 193              	.LBE2:
 194              		.loc 1 102 0
 195 0156 2060     		str	r0, [r4]
 196              	.LBB3:
 197              		.loc 1 103 0
 198              	@ 103 "../../../test/testsem.c" 1
 199 0158 83F31188 		msr     BASEPRI, r3
 200              	@ 0 "" 2
 201              		.thumb
 202              	.LBE3:
 203 015c FFF7FEFF 		bl	dbg_check_lock
 204              	.LVL13:
 205              		.loc 1 104 0
 206 0160 40F20000 		movw	r0, #:lower16:.LANCHOR0
 207 0164 C0F20000 		movt	r0, #:upper16:.LANCHOR0
 208 0168 0221     		movs	r1, #2
 209 016a FFF7FEFF 		bl	chSemAddCounterI
 210              	.LVL14:
 211              		.loc 1 105 0
 212 016e FFF7FEFF 		bl	chSchRescheduleS
 213              	.LVL15:
 214              		.loc 1 106 0
 215 0172 FFF7FEFF 		bl	dbg_check_unlock
 216              	.LVL16:
 217              	.LBB4:
 218 0176 0023     		movs	r3, #0
 219              	@ 106 "../../../test/testsem.c" 1
 220 0178 83F31188 		msr     BASEPRI, r3
 221              	@ 0 "" 2
 222              		.thumb
 223              	.LBE4:
 224              		.loc 1 107 0
 225 017c FFF7FEFF 		bl	test_wait_threads
 226              	.LVL17:
 227              		.loc 1 108 0
 228 0180 40F20003 		movw	r3, #:lower16:.LANCHOR0
ARM GAS  /tmp/ccLwru8T.s 			page 5


 229 0184 C0F20003 		movt	r3, #:upper16:.LANCHOR0
 230 0188 0220     		movs	r0, #2
 231 018a 9968     		ldr	r1, [r3, #8]
 232 018c 4B1E     		subs	r3, r1, #1
 233 018e 5942     		rsbs	r1, r3, #0
 234 0190 5941     		adcs	r1, r1, r3
 235              		.loc 1 109 0
 236 0192 04B0     		add	sp, sp, #16
 237              		@ sp needed
 238 0194 BDE8F041 		pop	{r4, r5, r6, r7, r8, lr}
 239              		.loc 1 108 0
 240 0198 FFF7FEBF 		b	_test_assert
 241              	.LVL18:
 242              		.cfi_endproc
 243              	.LFE9:
 244              		.size	sem1_execute, .-sem1_execute
 245 019c AFF30080 		.section	.text.thread3,"ax",%progbits
 246              		.align	2
 247              		.p2align 4,,15
 248              		.thumb
 249              		.thumb_func
 250              		.type	thread3, %function
 251              	thread3:
 252              	.LFB14:
 253              		.loc 1 210 0
 254              		.cfi_startproc
 255              		@ args = 0, pretend = 0, frame = 0
 256              		@ frame_needed = 0, uses_anonymous_args = 0
 257              	.LVL19:
 258 0000 10B5     		push	{r4, lr}
 259              		.cfi_def_cfa_offset 8
 260              		.cfi_offset 4, -8
 261              		.cfi_offset 14, -4
 262              		.loc 1 213 0
 263 0002 40F20004 		movw	r4, #:lower16:.LANCHOR0
 264 0006 C0F20004 		movt	r4, #:upper16:.LANCHOR0
 265 000a 2046     		mov	r0, r4
 266              	.LVL20:
 267 000c FFF7FEFF 		bl	chSemWait
 268              	.LVL21:
 269              		.loc 1 214 0
 270 0010 2046     		mov	r0, r4
 271 0012 FFF7FEFF 		bl	chSemSignal
 272              	.LVL22:
 273              		.loc 1 216 0
 274 0016 0020     		movs	r0, #0
 275 0018 10BD     		pop	{r4, pc}
 276              		.cfi_endproc
 277              	.LFE14:
 278              		.size	thread3, .-thread3
 279 001a 00BFAFF3 		.section	.text.thread1,"ax",%progbits
 279      0080
 280              		.align	2
 281              		.p2align 4,,15
 282              		.thumb
 283              		.thumb_func
 284              		.type	thread1, %function
ARM GAS  /tmp/ccLwru8T.s 			page 6


 285              	thread1:
 286              	.LFB8:
 287              		.loc 1 77 0
 288              		.cfi_startproc
 289              		@ args = 0, pretend = 0, frame = 0
 290              		@ frame_needed = 0, uses_anonymous_args = 0
 291              	.LVL23:
 292 0000 10B5     		push	{r4, lr}
 293              		.cfi_def_cfa_offset 8
 294              		.cfi_offset 4, -8
 295              		.cfi_offset 14, -4
 296              		.loc 1 77 0
 297 0002 0446     		mov	r4, r0
 298              		.loc 1 79 0
 299 0004 40F20000 		movw	r0, #:lower16:.LANCHOR0
 300              	.LVL24:
 301 0008 C0F20000 		movt	r0, #:upper16:.LANCHOR0
 302 000c FFF7FEFF 		bl	chSemWait
 303              	.LVL25:
 304              		.loc 1 80 0
 305 0010 2078     		ldrb	r0, [r4]	@ zero_extendqisi2
 306 0012 FFF7FEFF 		bl	test_emit_token
 307              	.LVL26:
 308              		.loc 1 82 0
 309 0016 0020     		movs	r0, #0
 310 0018 10BD     		pop	{r4, pc}
 311              		.cfi_endproc
 312              	.LFE8:
 313              		.size	thread1, .-thread1
 314 001a 00BFAFF3 		.section	.text.sem1_setup,"ax",%progbits
 314      0080
 315              		.align	2
 316              		.p2align 4,,15
 317              		.thumb
 318              		.thumb_func
 319              		.type	sem1_setup, %function
 320              	sem1_setup:
 321              	.LFB7:
 322              		.loc 1 72 0
 323              		.cfi_startproc
 324              		@ args = 0, pretend = 0, frame = 0
 325              		@ frame_needed = 0, uses_anonymous_args = 0
 326              		@ link register save eliminated.
 327              		.loc 1 74 0
 328 0000 40F20000 		movw	r0, #:lower16:.LANCHOR0
 329 0004 C0F20000 		movt	r0, #:upper16:.LANCHOR0
 330 0008 0021     		movs	r1, #0
 331 000a FFF7FEBF 		b	chSemInit
 332              	.LVL27:
 333              		.cfi_endproc
 334              	.LFE7:
 335              		.size	sem1_setup, .-sem1_setup
 336 000e 00BF     		.section	.text.sem2_setup,"ax",%progbits
 337              		.align	2
 338              		.p2align 4,,15
 339              		.thumb
 340              		.thumb_func
ARM GAS  /tmp/ccLwru8T.s 			page 7


 341              		.type	sem2_setup, %function
 342              	sem2_setup:
 343              	.LFB10:
 344              		.loc 1 129 0
 345              		.cfi_startproc
 346              		@ args = 0, pretend = 0, frame = 0
 347              		@ frame_needed = 0, uses_anonymous_args = 0
 348              		@ link register save eliminated.
 349              		.loc 1 131 0
 350 0000 40F20000 		movw	r0, #:lower16:.LANCHOR0
 351 0004 C0F20000 		movt	r0, #:upper16:.LANCHOR0
 352 0008 0021     		movs	r1, #0
 353 000a FFF7FEBF 		b	chSemInit
 354              	.LVL28:
 355              		.cfi_endproc
 356              	.LFE10:
 357              		.size	sem2_setup, .-sem2_setup
 358 000e 00BF     		.section	.text.sem3_setup,"ax",%progbits
 359              		.align	2
 360              		.p2align 4,,15
 361              		.thumb
 362              		.thumb_func
 363              		.type	sem3_setup, %function
 364              	sem3_setup:
 365              	.LFB13:
 366              		.loc 1 205 0
 367              		.cfi_startproc
 368              		@ args = 0, pretend = 0, frame = 0
 369              		@ frame_needed = 0, uses_anonymous_args = 0
 370              		@ link register save eliminated.
 371              		.loc 1 207 0
 372 0000 40F20000 		movw	r0, #:lower16:.LANCHOR0
 373 0004 C0F20000 		movt	r0, #:upper16:.LANCHOR0
 374 0008 0021     		movs	r1, #0
 375 000a FFF7FEBF 		b	chSemInit
 376              	.LVL29:
 377              		.cfi_endproc
 378              	.LFE13:
 379              		.size	sem3_setup, .-sem3_setup
 380 000e 00BF     		.section	.text.thread2,"ax",%progbits
 381              		.align	2
 382              		.p2align 4,,15
 383              		.thumb
 384              		.thumb_func
 385              		.type	thread2, %function
 386              	thread2:
 387              	.LFB11:
 388              		.loc 1 134 0
 389              		.cfi_startproc
 390              		@ args = 0, pretend = 0, frame = 0
 391              		@ frame_needed = 0, uses_anonymous_args = 0
 392              	.LVL30:
 393 0000 08B5     		push	{r3, lr}
 394              		.cfi_def_cfa_offset 8
 395              		.cfi_offset 3, -8
 396              		.cfi_offset 14, -4
 397              		.loc 1 137 0
ARM GAS  /tmp/ccLwru8T.s 			page 8


 398 0002 3220     		movs	r0, #50
 399              	.LVL31:
 400 0004 FFF7FEFF 		bl	chThdSleep
 401              	.LVL32:
 402              	.LBB5:
 403              		.loc 1 138 0
 404 0008 2023     		movs	r3, #32
 405              	@ 138 "../../../test/testsem.c" 1
 406 000a 83F31188 		msr     BASEPRI, r3
 407              	@ 0 "" 2
 408              		.thumb
 409              	.LBE5:
 410 000e FFF7FEFF 		bl	dbg_check_lock
 411              	.LVL33:
 412              		.loc 1 139 0
 413 0012 40F20000 		movw	r0, #:lower16:.LANCHOR0
 414 0016 C0F20000 		movt	r0, #:upper16:.LANCHOR0
 415 001a FFF7FEFF 		bl	chSemSignalI
 416              	.LVL34:
 417              		.loc 1 140 0
 418 001e FFF7FEFF 		bl	chSchRescheduleS
 419              	.LVL35:
 420              		.loc 1 141 0
 421 0022 FFF7FEFF 		bl	dbg_check_unlock
 422              	.LVL36:
 423              	.LBB6:
 424 0026 0023     		movs	r3, #0
 425              	@ 141 "../../../test/testsem.c" 1
 426 0028 83F31188 		msr     BASEPRI, r3
 427              	@ 0 "" 2
 428              		.thumb
 429              	.LBE6:
 430              		.loc 1 143 0
 431 002c 0020     		movs	r0, #0
 432 002e 08BD     		pop	{r3, pc}
 433              		.cfi_endproc
 434              	.LFE11:
 435              		.size	thread2, .-thread2
 436              		.section	.text.thread4,"ax",%progbits
 437              		.align	2
 438              		.p2align 4,,15
 439              		.thumb
 440              		.thumb_func
 441              		.type	thread4, %function
 442              	thread4:
 443              	.LFB16:
 444              		.loc 1 246 0
 445              		.cfi_startproc
 446              		@ args = 0, pretend = 0, frame = 0
 447              		@ frame_needed = 0, uses_anonymous_args = 0
 448              	.LVL37:
 449 0000 10B5     		push	{r4, lr}
 450              		.cfi_def_cfa_offset 8
 451              		.cfi_offset 4, -8
 452              		.cfi_offset 14, -4
 453              	.LBB7:
 454              		.loc 1 248 0
ARM GAS  /tmp/ccLwru8T.s 			page 9


 455 0002 2023     		movs	r3, #32
 456              	.LBE7:
 457              		.loc 1 246 0
 458 0004 0446     		mov	r4, r0
 459              	.LBB8:
 460              		.loc 1 248 0
 461              	@ 248 "../../../test/testsem.c" 1
 462 0006 83F31188 		msr     BASEPRI, r3
 463              	@ 0 "" 2
 464              		.thumb
 465              	.LBE8:
 466 000a FFF7FEFF 		bl	dbg_check_lock
 467              	.LVL38:
 468 000e A368     		ldr	r3, [r4, #8]
 469 0010 002B     		cmp	r3, #0
 470 0012 08DD     		ble	.L13
 471              	.L12:
 472              		.loc 1 248 0 is_stmt 0 discriminator 2
 473 0014 FFF7FEFF 		bl	chSchRescheduleS
 474              	.LVL39:
 475 0018 FFF7FEFF 		bl	dbg_check_unlock
 476              	.LVL40:
 477              	.LBB9:
 478 001c 0023     		movs	r3, #0
 479              	@ 248 "../../../test/testsem.c" 1
 480 001e 83F31188 		msr     BASEPRI, r3
 481              	@ 0 "" 2
 482              		.thumb
 483              	.LBE9:
 484              		.loc 1 250 0 is_stmt 1 discriminator 2
 485 0022 0020     		movs	r0, #0
 486 0024 10BD     		pop	{r4, pc}
 487              	.LVL41:
 488              	.L13:
 489              		.loc 1 248 0 discriminator 1
 490 0026 2046     		mov	r0, r4
 491 0028 FFF7FEFF 		bl	chSemSignalI
 492              	.LVL42:
 493 002c F2E7     		b	.L12
 494              		.cfi_endproc
 495              	.LFE16:
 496              		.size	thread4, .-thread4
 497 002e 00BF     		.section	.text.sem4_execute,"ax",%progbits
 498              		.align	2
 499              		.p2align 4,,15
 500              		.thumb
 501              		.thumb_func
 502              		.type	sem4_execute, %function
 503              	sem4_execute:
 504              	.LFB17:
 505              		.loc 1 252 0
 506              		.cfi_startproc
 507              		@ args = 0, pretend = 0, frame = 16
 508              		@ frame_needed = 0, uses_anonymous_args = 0
 509 0000 00B5     		push	{lr}
 510              		.cfi_def_cfa_offset 4
 511              		.cfi_offset 14, -4
ARM GAS  /tmp/ccLwru8T.s 			page 10


 512 0002 87B0     		sub	sp, sp, #28
 513              		.cfi_def_cfa_offset 32
 514              		.loc 1 256 0
 515 0004 03A8     		add	r0, sp, #12
 516 0006 0021     		movs	r1, #0
 517 0008 FFF7FEFF 		bl	chSemInit
 518              	.LVL43:
 519              		.loc 1 257 0
 520 000c 03A8     		add	r0, sp, #12
 521 000e 0021     		movs	r1, #0
 522 0010 FFF7FEFF 		bl	chSemReset
 523              	.LVL44:
 524              		.loc 1 258 0
 525 0014 0599     		ldr	r1, [sp, #20]
 526 0016 0029     		cmp	r1, #0
 527 0018 CCBF     		ite	gt
 528 001a 0021     		movgt	r1, #0
 529 001c 0121     		movle	r1, #1
 530 001e 0120     		movs	r0, #1
 531 0020 FFF7FEFF 		bl	_test_assert
 532              	.LVL45:
 533 0024 10B1     		cbz	r0, .L19
 534              	.L14:
 535              		.loc 1 280 0
 536 0026 07B0     		add	sp, sp, #28
 537              		@ sp needed
 538 0028 5DF804FB 		ldr	pc, [sp], #4
 539              	.L19:
 540              		.loc 1 262 0
 541 002c 40F20002 		movw	r2, #:lower16:rlist
 542 0030 C0F20002 		movt	r2, #:upper16:rlist
 543              		.loc 1 261 0
 544 0034 40F20003 		movw	r3, #:lower16:wa
 545              		.loc 1 262 0
 546 0038 9269     		ldr	r2, [r2, #24]
 547              		.loc 1 261 0
 548 003a C0F20003 		movt	r3, #:upper16:wa
 549 003e 9268     		ldr	r2, [r2, #8]
 550 0040 1868     		ldr	r0, [r3]
 551 0042 03AB     		add	r3, sp, #12
 552 0044 0093     		str	r3, [sp]
 553 0046 40F20003 		movw	r3, #:lower16:thread4
 554 004a 4FF4A871 		mov	r1, #336
 555 004e 013A     		subs	r2, r2, #1
 556 0050 C0F20003 		movt	r3, #:upper16:thread4
 557 0054 FFF7FEFF 		bl	chThdCreateStatic
 558              	.LVL46:
 559 0058 40F20003 		movw	r3, #:lower16:threads
 560 005c C0F20003 		movt	r3, #:upper16:threads
 561 0060 1860     		str	r0, [r3]
 562              		.loc 1 265 0
 563 0062 03A8     		add	r0, sp, #12
 564 0064 FFF7FEFF 		bl	chSemWait
 565              	.LVL47:
 566              		.loc 1 268 0
 567 0068 0599     		ldr	r1, [sp, #20]
 568 006a 0029     		cmp	r1, #0
ARM GAS  /tmp/ccLwru8T.s 			page 11


 569 006c CCBF     		ite	gt
 570 006e 0021     		movgt	r1, #0
 571 0070 0121     		movle	r1, #1
 572 0072 0220     		movs	r0, #2
 573 0074 FFF7FEFF 		bl	_test_assert
 574              	.LVL48:
 575 0078 0028     		cmp	r0, #0
 576 007a D4D1     		bne	.L14
 577              	.LBB10:
 578              		.loc 1 272 0
 579 007c 2023     		movs	r3, #32
 580              	@ 272 "../../../test/testsem.c" 1
 581 007e 83F31188 		msr     BASEPRI, r3
 582              	@ 0 "" 2
 583              		.thumb
 584              	.LBE10:
 585 0082 FFF7FEFF 		bl	dbg_check_lock
 586              	.LVL49:
 587 0086 059B     		ldr	r3, [sp, #20]
 588 0088 002B     		cmp	r3, #0
 589 008a 3DDD     		ble	.L20
 590              	.L16:
 591              		.loc 1 272 0 is_stmt 0 discriminator 2
 592 008c FFF7FEFF 		bl	chSchRescheduleS
 593              	.LVL50:
 594 0090 FFF7FEFF 		bl	dbg_check_unlock
 595              	.LVL51:
 596              	.LBB11:
 597 0094 0023     		movs	r3, #0
 598              	@ 272 "../../../test/testsem.c" 1
 599 0096 83F31188 		msr     BASEPRI, r3
 600              	@ 0 "" 2
 601              		.thumb
 602              	.LBE11:
 603              		.loc 1 273 0 is_stmt 1 discriminator 2
 604 009a 0599     		ldr	r1, [sp, #20]
 605 009c 0029     		cmp	r1, #0
 606 009e D4BF     		ite	le
 607 00a0 0021     		movle	r1, #0
 608 00a2 0121     		movgt	r1, #1
 609 00a4 0320     		movs	r0, #3
 610 00a6 FFF7FEFF 		bl	_test_assert
 611              	.LVL52:
 612 00aa 0028     		cmp	r0, #0
 613 00ac BBD1     		bne	.L14
 614              		.loc 1 274 0
 615 00ae 0599     		ldr	r1, [sp, #20]
 616 00b0 B1F1010E 		subs	lr, r1, #1
 617 00b4 DEF10001 		rsbs	r1, lr, #0
 618 00b8 51EB0E01 		adcs	r1, r1, lr
 619 00bc 0420     		movs	r0, #4
 620 00be FFF7FEFF 		bl	_test_assert
 621              	.LVL53:
 622 00c2 0028     		cmp	r0, #0
 623 00c4 AFD1     		bne	.L14
 624              	.LBB12:
 625              		.loc 1 277 0
ARM GAS  /tmp/ccLwru8T.s 			page 12


 626 00c6 2023     		movs	r3, #32
 627              	@ 277 "../../../test/testsem.c" 1
 628 00c8 83F31188 		msr     BASEPRI, r3
 629              	@ 0 "" 2
 630              		.thumb
 631              	.LBE12:
 632 00cc FFF7FEFF 		bl	dbg_check_lock
 633              	.LVL54:
 634 00d0 059B     		ldr	r3, [sp, #20]
 635 00d2 002B     		cmp	r3, #0
 636 00d4 1CDD     		ble	.L21
 637              	.L17:
 638              		.loc 1 277 0 is_stmt 0 discriminator 2
 639 00d6 FFF7FEFF 		bl	chSchRescheduleS
 640              	.LVL55:
 641 00da FFF7FEFF 		bl	dbg_check_unlock
 642              	.LVL56:
 643              	.LBB13:
 644 00de 0023     		movs	r3, #0
 645              	@ 277 "../../../test/testsem.c" 1
 646 00e0 83F31188 		msr     BASEPRI, r3
 647              	@ 0 "" 2
 648              		.thumb
 649              	.LBE13:
 650              		.loc 1 278 0 is_stmt 1 discriminator 2
 651 00e4 0599     		ldr	r1, [sp, #20]
 652 00e6 0029     		cmp	r1, #0
 653 00e8 D4BF     		ite	le
 654 00ea 0021     		movle	r1, #0
 655 00ec 0121     		movgt	r1, #1
 656 00ee 0320     		movs	r0, #3
 657 00f0 FFF7FEFF 		bl	_test_assert
 658              	.LVL57:
 659 00f4 0028     		cmp	r0, #0
 660 00f6 96D1     		bne	.L14
 661              		.loc 1 279 0
 662 00f8 0599     		ldr	r1, [sp, #20]
 663 00fa 4A1E     		subs	r2, r1, #1
 664 00fc 5142     		rsbs	r1, r2, #0
 665 00fe 5141     		adcs	r1, r1, r2
 666 0100 0520     		movs	r0, #5
 667 0102 FFF7FEFF 		bl	_test_assert
 668              	.LVL58:
 669 0106 8EE7     		b	.L14
 670              	.L20:
 671              		.loc 1 272 0 discriminator 1
 672 0108 03A8     		add	r0, sp, #12
 673 010a FFF7FEFF 		bl	chSemSignalI
 674              	.LVL59:
 675 010e BDE7     		b	.L16
 676              	.L21:
 677              		.loc 1 277 0 discriminator 1
 678 0110 03A8     		add	r0, sp, #12
 679 0112 FFF7FEFF 		bl	chSemSignalI
 680              	.LVL60:
 681 0116 DEE7     		b	.L17
 682              		.cfi_endproc
ARM GAS  /tmp/ccLwru8T.s 			page 13


 683              	.LFE17:
 684              		.size	sem4_execute, .-sem4_execute
 685 0118 AFF30080 		.section	.text.sem2_execute,"ax",%progbits
 685      AFF30080 
 686              		.align	2
 687              		.p2align 4,,15
 688              		.thumb
 689              		.thumb_func
 690              		.type	sem2_execute, %function
 691              	sem2_execute:
 692              	.LFB12:
 693              		.loc 1 145 0
 694              		.cfi_startproc
 695              		@ args = 0, pretend = 0, frame = 0
 696              		@ frame_needed = 0, uses_anonymous_args = 0
 697 0000 70B5     		push	{r4, r5, r6, lr}
 698              		.cfi_def_cfa_offset 16
 699              		.cfi_offset 4, -16
 700              		.cfi_offset 5, -12
 701              		.cfi_offset 6, -8
 702              		.cfi_offset 14, -4
 703              		.loc 1 153 0
 704 0002 40F20004 		movw	r4, #:lower16:.LANCHOR0
 705 0006 C0F20004 		movt	r4, #:upper16:.LANCHOR0
 706              		.loc 1 145 0
 707 000a 82B0     		sub	sp, sp, #8
 708              		.cfi_def_cfa_offset 24
 709              		.loc 1 153 0
 710 000c 0021     		movs	r1, #0
 711 000e 2046     		mov	r0, r4
 712 0010 FFF7FEFF 		bl	chSemWaitTimeout
 713              	.LVL61:
 714              		.loc 1 154 0
 715 0014 B0F1FF36 		subs	r6, r0, #-1
 716 0018 7142     		rsbs	r1, r6, #0
 717 001a 7141     		adcs	r1, r1, r6
 718 001c 0120     		movs	r0, #1
 719              	.LVL62:
 720 001e FFF7FEFF 		bl	_test_assert
 721              	.LVL63:
 722 0022 08B1     		cbz	r0, .L28
 723              	.LVL64:
 724              	.L22:
 725              		.loc 1 183 0
 726 0024 02B0     		add	sp, sp, #8
 727              		@ sp needed
 728 0026 70BD     		pop	{r4, r5, r6, pc}
 729              	.LVL65:
 730              	.L28:
 731              		.loc 1 155 0
 732 0028 2168     		ldr	r1, [r4]
 733 002a 0D1B     		subs	r5, r1, r4
 734 002c 6942     		rsbs	r1, r5, #0
 735 002e 6941     		adcs	r1, r1, r5
 736 0030 0220     		movs	r0, #2
 737 0032 FFF7FEFF 		bl	_test_assert
 738              	.LVL66:
ARM GAS  /tmp/ccLwru8T.s 			page 14


 739 0036 0028     		cmp	r0, #0
 740 0038 F4D1     		bne	.L22
 741              		.loc 1 156 0
 742 003a A168     		ldr	r1, [r4, #8]
 743 003c D1F10101 		rsbs	r1, r1, #1
 744 0040 38BF     		it	cc
 745 0042 0021     		movcc	r1, #0
 746 0044 0320     		movs	r0, #3
 747 0046 FFF7FEFF 		bl	_test_assert
 748              	.LVL67:
 749 004a 0028     		cmp	r0, #0
 750 004c EAD1     		bne	.L22
 751              	.LBB16:
 752              	.LBB17:
 753              		.loc 1 161 0
 754 004e 40F20002 		movw	r2, #:lower16:rlist
 755 0052 C0F20002 		movt	r2, #:upper16:rlist
 756 0056 40F20003 		movw	r3, #:lower16:wa
 757 005a 9269     		ldr	r2, [r2, #24]
 758 005c C0F20003 		movt	r3, #:upper16:wa
 759 0060 9268     		ldr	r2, [r2, #8]
 760 0062 1968     		ldr	r1, [r3]
 761 0064 0090     		str	r0, [sp]
 762 0066 40F20003 		movw	r3, #:lower16:thread2
 763 006a 013A     		subs	r2, r2, #1
 764 006c 0846     		mov	r0, r1
 765 006e C0F20003 		movt	r3, #:upper16:thread2
 766 0072 4FF4A871 		mov	r1, #336
 767 0076 FFF7FEFF 		bl	chThdCreateStatic
 768              	.LVL68:
 769 007a 40F20003 		movw	r3, #:lower16:threads
 770 007e C0F20003 		movt	r3, #:upper16:threads
 771              		.loc 1 163 0
 772 0082 4FF4FA71 		mov	r1, #500
 773              		.loc 1 161 0
 774 0086 1860     		str	r0, [r3]
 775              		.loc 1 163 0
 776 0088 2046     		mov	r0, r4
 777 008a FFF7FEFF 		bl	chSemWaitTimeout
 778              	.LVL69:
 779 008e 0546     		mov	r5, r0
 780              	.LVL70:
 781              		.loc 1 164 0
 782 0090 FFF7FEFF 		bl	test_wait_threads
 783              	.LVL71:
 784              		.loc 1 165 0
 785 0094 D5F10101 		rsbs	r1, r5, #1
 786 0098 38BF     		it	cc
 787 009a 0021     		movcc	r1, #0
 788 009c 0420     		movs	r0, #4
 789 009e FFF7FEFF 		bl	_test_assert
 790              	.LVL72:
 791 00a2 0028     		cmp	r0, #0
 792 00a4 BED1     		bne	.L22
 793              		.loc 1 166 0
 794 00a6 2168     		ldr	r1, [r4]
 795 00a8 0A1B     		subs	r2, r1, r4
ARM GAS  /tmp/ccLwru8T.s 			page 15


 796 00aa 5142     		rsbs	r1, r2, #0
 797 00ac 5141     		adcs	r1, r1, r2
 798 00ae 0520     		movs	r0, #5
 799 00b0 FFF7FEFF 		bl	_test_assert
 800              	.LVL73:
 801 00b4 0028     		cmp	r0, #0
 802 00b6 B5D1     		bne	.L22
 803              		.loc 1 167 0
 804 00b8 A168     		ldr	r1, [r4, #8]
 805 00ba D1F10101 		rsbs	r1, r1, #1
 806 00be 38BF     		it	cc
 807 00c0 0021     		movcc	r1, #0
 808 00c2 0620     		movs	r0, #6
 809 00c4 FFF7FEFF 		bl	_test_assert
 810              	.LVL74:
 811 00c8 0028     		cmp	r0, #0
 812 00ca ABD1     		bne	.L22
 813              		.loc 1 172 0
 814 00cc FFF7FEFF 		bl	test_wait_tick
 815              	.LVL75:
 816              		.loc 1 173 0
 817 00d0 40F20003 		movw	r3, #:lower16:vtlist
 818 00d4 C0F20003 		movt	r3, #:upper16:vtlist
 819 00d8 4125     		movs	r5, #65
 820              	.LVL76:
 821 00da DE68     		ldr	r6, [r3, #12]
 822              	.LVL77:
 823              	.L27:
 824              		.loc 1 175 0
 825 00dc 2846     		mov	r0, r5
 826 00de FFF7FEFF 		bl	test_emit_token
 827              	.LVL78:
 828              		.loc 1 176 0
 829 00e2 40F20000 		movw	r0, #:lower16:.LANCHOR0
 830 00e6 4FF4FA71 		mov	r1, #500
 831 00ea C0F20000 		movt	r0, #:upper16:.LANCHOR0
 832 00ee FFF7FEFF 		bl	chSemWaitTimeout
 833              	.LVL79:
 834              		.loc 1 177 0
 835 00f2 B0F1FF33 		subs	r3, r0, #-1
 836 00f6 5942     		rsbs	r1, r3, #0
 837 00f8 5941     		adcs	r1, r1, r3
 838 00fa 0720     		movs	r0, #7
 839              	.LVL80:
 840 00fc FFF7FEFF 		bl	_test_assert
 841              	.LVL81:
 842 0100 0028     		cmp	r0, #0
 843 0102 8FD1     		bne	.L22
 844              		.loc 1 178 0
 845 0104 2168     		ldr	r1, [r4]
 846 0106 B1EB040C 		subs	ip, r1, r4
 847 010a DCF10001 		rsbs	r1, ip, #0
 848 010e 51EB0C01 		adcs	r1, r1, ip
 849 0112 0820     		movs	r0, #8
 850 0114 FFF7FEFF 		bl	_test_assert
 851              	.LVL82:
 852 0118 0028     		cmp	r0, #0
ARM GAS  /tmp/ccLwru8T.s 			page 16


 853 011a 83D1     		bne	.L22
 854              		.loc 1 179 0
 855 011c A168     		ldr	r1, [r4, #8]
 856 011e D1F10101 		rsbs	r1, r1, #1
 857 0122 4FF00900 		mov	r0, #9
 858 0126 38BF     		it	cc
 859 0128 0021     		movcc	r1, #0
 860 012a FFF7FEFF 		bl	_test_assert
 861              	.LVL83:
 862 012e 0135     		adds	r5, r5, #1
 863 0130 EDB2     		uxtb	r5, r5
 864 0132 0028     		cmp	r0, #0
 865 0134 7FF476AF 		bne	.L22
 866              		.loc 1 174 0
 867 0138 462D     		cmp	r5, #70
 868 013a CFD1     		bne	.L27
 869              		.loc 1 181 0
 870 013c 40F20001 		movw	r1, #:lower16:.LC5
 871 0140 C0F20001 		movt	r1, #:upper16:.LC5
 872 0144 0A20     		movs	r0, #10
 873 0146 FFF7FEFF 		bl	_test_assert_sequence
 874              	.LVL84:
 875 014a 0028     		cmp	r0, #0
 876 014c 7FF46AAF 		bne	.L22
 877              		.loc 1 182 0
 878 0150 0B20     		movs	r0, #11
 879 0152 06F6C411 		addw	r1, r6, #2500
 880 0156 06F6C912 		addw	r2, r6, #2505
 881              	.LBE17:
 882              	.LBE16:
 883              		.loc 1 183 0
 884 015a 02B0     		add	sp, sp, #8
 885              		@ sp needed
 886 015c BDE87040 		pop	{r4, r5, r6, lr}
 887              	.LVL85:
 888              	.LBB19:
 889              	.LBB18:
 890              		.loc 1 182 0
 891 0160 FFF7FEBF 		b	_test_assert_time_window
 892              	.LVL86:
 893              	.LBE18:
 894              	.LBE19:
 895              		.cfi_endproc
 896              	.LFE12:
 897              		.size	sem2_execute, .-sem2_execute
 898 0164 AFF30080 		.section	.text.sem3_execute,"ax",%progbits
 898      AFF30080 
 898      AFF30080 
 899              		.align	2
 900              		.p2align 4,,15
 901              		.thumb
 902              		.thumb_func
 903              		.type	sem3_execute, %function
 904              	sem3_execute:
 905              	.LFB15:
 906              		.loc 1 218 0
 907              		.cfi_startproc
ARM GAS  /tmp/ccLwru8T.s 			page 17


 908              		@ args = 0, pretend = 0, frame = 0
 909              		@ frame_needed = 0, uses_anonymous_args = 0
 910 0000 10B5     		push	{r4, lr}
 911              		.cfi_def_cfa_offset 8
 912              		.cfi_offset 4, -8
 913              		.cfi_offset 14, -4
 914              		.loc 1 220 0
 915 0002 40F20002 		movw	r2, #:lower16:rlist
 916 0006 C0F20002 		movt	r2, #:upper16:rlist
 917 000a 40F20003 		movw	r3, #:lower16:wa
 918 000e 9269     		ldr	r2, [r2, #24]
 919 0010 C0F20003 		movt	r3, #:upper16:wa
 920              		.loc 1 218 0
 921 0014 82B0     		sub	sp, sp, #8
 922              		.cfi_def_cfa_offset 16
 923              		.loc 1 220 0
 924 0016 9268     		ldr	r2, [r2, #8]
 925 0018 1868     		ldr	r0, [r3]
 926 001a 0021     		movs	r1, #0
 927 001c 40F20003 		movw	r3, #:lower16:thread3
 928 0020 0132     		adds	r2, r2, #1
 929 0022 0091     		str	r1, [sp]
 930 0024 C0F20003 		movt	r3, #:upper16:thread3
 931 0028 4FF4A871 		mov	r1, #336
 932 002c FFF7FEFF 		bl	chThdCreateStatic
 933              	.LVL87:
 934 0030 40F20003 		movw	r3, #:lower16:threads
 935 0034 C0F20003 		movt	r3, #:upper16:threads
 936              		.loc 1 221 0
 937 0038 40F20004 		movw	r4, #:lower16:.LANCHOR0
 938 003c C0F20004 		movt	r4, #:upper16:.LANCHOR0
 939              		.loc 1 220 0
 940 0040 1860     		str	r0, [r3]
 941              		.loc 1 221 0
 942 0042 2146     		mov	r1, r4
 943 0044 2046     		mov	r0, r4
 944 0046 FFF7FEFF 		bl	chSemSignalWait
 945              	.LVL88:
 946              		.loc 1 222 0
 947 004a 2168     		ldr	r1, [r4]
 948 004c B1EB040C 		subs	ip, r1, r4
 949 0050 DCF10001 		rsbs	r1, ip, #0
 950 0054 51EB0C01 		adcs	r1, r1, ip
 951 0058 0120     		movs	r0, #1
 952 005a FFF7FEFF 		bl	_test_assert
 953              	.LVL89:
 954 005e 08B1     		cbz	r0, .L33
 955              	.L29:
 956              		.loc 1 228 0
 957 0060 02B0     		add	sp, sp, #8
 958              		@ sp needed
 959 0062 10BD     		pop	{r4, pc}
 960              	.L33:
 961              		.loc 1 223 0
 962 0064 A168     		ldr	r1, [r4, #8]
 963 0066 D1F10101 		rsbs	r1, r1, #1
 964 006a 38BF     		it	cc
ARM GAS  /tmp/ccLwru8T.s 			page 18


 965 006c 0021     		movcc	r1, #0
 966 006e 0220     		movs	r0, #2
 967 0070 FFF7FEFF 		bl	_test_assert
 968              	.LVL90:
 969 0074 0028     		cmp	r0, #0
 970 0076 F3D1     		bne	.L29
 971              	.LBB22:
 972              	.LBB23:
 973              		.loc 1 225 0
 974 0078 2146     		mov	r1, r4
 975 007a 2046     		mov	r0, r4
 976 007c FFF7FEFF 		bl	chSemSignalWait
 977              	.LVL91:
 978              		.loc 1 226 0
 979 0080 2168     		ldr	r1, [r4]
 980 0082 B1EB040E 		subs	lr, r1, r4
 981 0086 DEF10001 		rsbs	r1, lr, #0
 982 008a 51EB0E01 		adcs	r1, r1, lr
 983 008e 0320     		movs	r0, #3
 984 0090 FFF7FEFF 		bl	_test_assert
 985              	.LVL92:
 986 0094 0028     		cmp	r0, #0
 987 0096 E3D1     		bne	.L29
 988              		.loc 1 227 0
 989 0098 A168     		ldr	r1, [r4, #8]
 990 009a D1F10101 		rsbs	r1, r1, #1
 991 009e 4FF00400 		mov	r0, #4
 992 00a2 38BF     		it	cc
 993 00a4 0021     		movcc	r1, #0
 994              	.LBE23:
 995              	.LBE22:
 996              		.loc 1 228 0
 997 00a6 02B0     		add	sp, sp, #8
 998              		@ sp needed
 999 00a8 BDE81040 		pop	{r4, lr}
 1000              	.LBB25:
 1001              	.LBB24:
 1002              		.loc 1 227 0
 1003 00ac FFF7FEBF 		b	_test_assert
 1004              	.LVL93:
 1005              	.LBE24:
 1006              	.LBE25:
 1007              		.cfi_endproc
 1008              	.LFE15:
 1009              		.size	sem3_execute, .-sem3_execute
 1010              		.global	patternsem
 1011              		.global	testsem4
 1012              		.global	testsem3
 1013              		.global	testsem2
 1014              		.global	testsem1
 1015              		.section	.rodata.testsem1,"a",%progbits
 1016              		.align	2
 1017              		.type	testsem1, %object
 1018              		.size	testsem1, 16
 1019              	testsem1:
 1020 0000 74000000 		.word	.LC9
 1021 0004 00000000 		.word	sem1_setup
ARM GAS  /tmp/ccLwru8T.s 			page 19


 1022 0008 00000000 		.word	0
 1023 000c 00000000 		.word	sem1_execute
 1024              		.section	.rodata.testsem2,"a",%progbits
 1025              		.align	2
 1026              		.type	testsem2, %object
 1027              		.size	testsem2, 16
 1028              	testsem2:
 1029 0000 60000000 		.word	.LC8
 1030 0004 00000000 		.word	sem2_setup
 1031 0008 00000000 		.word	0
 1032 000c 00000000 		.word	sem2_execute
 1033              		.section	.rodata.testsem3,"a",%progbits
 1034              		.align	2
 1035              		.type	testsem3, %object
 1036              		.size	testsem3, 16
 1037              	testsem3:
 1038 0000 40000000 		.word	.LC7
 1039 0004 00000000 		.word	sem3_setup
 1040 0008 00000000 		.word	0
 1041 000c 00000000 		.word	sem3_execute
 1042              		.section	.rodata.testsem4,"a",%progbits
 1043              		.align	2
 1044              		.type	testsem4, %object
 1045              		.size	testsem4, 16
 1046              	testsem4:
 1047 0000 1C000000 		.word	.LC6
 1048 0004 00000000 		.word	0
 1049 0008 00000000 		.word	0
 1050 000c 00000000 		.word	sem4_execute
 1051              		.section	.data.sem1,"aw",%progbits
 1052              		.align	2
 1053              		.set	.LANCHOR0,. + 0
 1054              		.type	sem1, %object
 1055              		.size	sem1, 12
 1056              	sem1:
 1057 0000 00000000 		.word	sem1
 1058 0004 00000000 		.word	sem1
 1059 0008 00000000 		.word	0
 1060              		.section	.rodata.patternsem,"a",%progbits
 1061              		.align	2
 1062              		.type	patternsem, %object
 1063              		.size	patternsem, 20
 1064              	patternsem:
 1065 0000 00000000 		.word	testsem1
 1066 0004 00000000 		.word	testsem2
 1067 0008 00000000 		.word	testsem3
 1068 000c 00000000 		.word	testsem4
 1069 0010 00000000 		.word	0
 1070              		.section	.rodata.str1.4,"aMS",%progbits,1
 1071              		.align	2
 1072              	.LC0:
 1073 0000 4100     		.ascii	"A\000"
 1074 0002 0000     		.space	2
 1075              	.LC1:
 1076 0004 4200     		.ascii	"B\000"
 1077 0006 0000     		.space	2
 1078              	.LC2:
ARM GAS  /tmp/ccLwru8T.s 			page 20


 1079 0008 4300     		.ascii	"C\000"
 1080 000a 0000     		.space	2
 1081              	.LC3:
 1082 000c 4400     		.ascii	"D\000"
 1083 000e 0000     		.space	2
 1084              	.LC4:
 1085 0010 4500     		.ascii	"E\000"
 1086 0012 0000     		.space	2
 1087              	.LC5:
 1088 0014 41424344 		.ascii	"ABCDE\000"
 1088      4500
 1089 001a 0000     		.space	2
 1090              	.LC6:
 1091 001c 42696E61 		.ascii	"Binary Semaphores, functionality\000"
 1091      72792053 
 1091      656D6170 
 1091      686F7265 
 1091      732C2066 
 1092 003d 000000   		.space	3
 1093              	.LC7:
 1094 0040 53656D61 		.ascii	"Semaphores, atomic signal-wait\000"
 1094      70686F72 
 1094      65732C20 
 1094      61746F6D 
 1094      69632073 
 1095 005f 00       		.space	1
 1096              	.LC8:
 1097 0060 53656D61 		.ascii	"Semaphores, timeout\000"
 1097      70686F72 
 1097      65732C20 
 1097      74696D65 
 1097      6F757400 
 1098              	.LC9:
 1099 0074 53656D61 		.ascii	"Semaphores, enqueuing\000"
 1099      70686F72 
 1099      65732C20 
 1099      656E7175 
 1099      6575696E 
 1100 008a 0000     		.text
 1101              	.Letext0:
 1102              		.file 2 "/usr/lib/gcc/arm-none-eabi/4.8.2/include/stddef.h"
 1103              		.file 3 "/usr/include/newlib/machine/_default_types.h"
 1104              		.file 4 "/usr/include/newlib/stdint.h"
 1105              		.file 5 "../../../os/ports/GCC/ARMCMx/chtypes.h"
 1106              		.file 6 "../../../os/kernel/include/chlists.h"
 1107              		.file 7 "../../../os/kernel/include/chthreads.h"
 1108              		.file 8 "../../../os/ports/GCC/ARMCMx/chcore_v7m.h"
 1109              		.file 9 "../../../os/kernel/include/chvt.h"
 1110              		.file 10 "../../../os/kernel/include/chschd.h"
 1111              		.file 11 "../../../os/kernel/include/chsem.h"
 1112              		.file 12 "../../../os/kernel/include/chbsem.h"
 1113              		.file 13 "../../../os/kernel/include/chmtx.h"
 1114              		.file 14 "../../../test/test.h"
 1115              		.file 15 "../../../os/kernel/include/chdebug.h"