ARM GAS  /tmp/cccMO0kh.s 			page 1


   1              		.syntax unified
   2              		.cpu cortex-m4
   3              		.fpu softvfp
   4              		.eabi_attribute 20, 1
   5              		.eabi_attribute 21, 1
   6              		.eabi_attribute 23, 3
   7              		.eabi_attribute 24, 1
   8              		.eabi_attribute 25, 1
   9              		.eabi_attribute 26, 1
  10              		.eabi_attribute 30, 2
  11              		.eabi_attribute 34, 1
  12              		.eabi_attribute 18, 4
  13              		.thumb
  14              		.file	"testmbox.c"
  15              		.text
  16              	.Ltext0:
  17              		.cfi_sections	.debug_frame
  18              		.section	.text.mbox1_execute,"ax",%progbits
  19              		.align	2
  20              		.p2align 4,,15
  21              		.thumb
  22              		.thumb_func
  23              		.type	mbox1_execute, %function
  24              	mbox1_execute:
  25              	.LFB8:
  26              		.file 1 "../../../test/testmbox.c"
  27              		.loc 1 76 0
  28              		.cfi_startproc
  29              		@ args = 0, pretend = 0, frame = 8
  30              		@ frame_needed = 0, uses_anonymous_args = 0
  31 0000 70B5     		push	{r4, r5, r6, lr}
  32              		.cfi_def_cfa_offset 16
  33              		.cfi_offset 4, -16
  34              		.cfi_offset 5, -12
  35              		.cfi_offset 6, -8
  36              		.cfi_offset 14, -4
  37              		.loc 1 83 0
  38 0002 40F20005 		movw	r5, #:lower16:.LANCHOR0
  39 0006 C0F20005 		movt	r5, #:upper16:.LANCHOR0
  40              		.loc 1 76 0
  41 000a 82B0     		sub	sp, sp, #8
  42              		.cfi_def_cfa_offset 24
  43              		.loc 1 83 0
  44 000c 696A     		ldr	r1, [r5, #36]
  45 000e B1F1050E 		subs	lr, r1, #5
  46 0012 DEF10001 		rsbs	r1, lr, #0
  47 0016 51EB0E01 		adcs	r1, r1, lr
  48 001a 0120     		movs	r0, #1
  49 001c FFF7FEFF 		bl	_test_assert
  50              	.LVL0:
  51 0020 28BB     		cbnz	r0, .L1
  52 0022 4224     		movs	r4, #66
  53              	.L4:
  54              	.LVL1:
  55              		.loc 1 89 0
  56 0024 40F20000 		movw	r0, #:lower16:.LANCHOR0
  57 0028 2146     		mov	r1, r4
ARM GAS  /tmp/cccMO0kh.s 			page 2


  58 002a C0F20000 		movt	r0, #:upper16:.LANCHOR0
  59 002e 4FF0FF32 		mov	r2, #-1
  60 0032 FFF7FEFF 		bl	chMBPost
  61              	.LVL2:
  62              		.loc 1 90 0
  63 0036 D0F10101 		rsbs	r1, r0, #1
  64 003a 38BF     		it	cc
  65 003c 0021     		movcc	r1, #0
  66 003e 0220     		movs	r0, #2
  67              	.LVL3:
  68 0040 0134     		adds	r4, r4, #1
  69              	.LVL4:
  70 0042 FFF7FEFF 		bl	_test_assert
  71              	.LVL5:
  72 0046 90B9     		cbnz	r0, .L1
  73              		.loc 1 88 0
  74 0048 462C     		cmp	r4, #70
  75 004a EBD1     		bne	.L4
  76              		.loc 1 92 0
  77 004c 40F20000 		movw	r0, #:lower16:.LANCHOR0
  78 0050 4121     		movs	r1, #65
  79 0052 C0F20000 		movt	r0, #:upper16:.LANCHOR0
  80 0056 4FF0FF32 		mov	r2, #-1
  81 005a FFF7FEFF 		bl	chMBPostAhead
  82              	.LVL6:
  83              		.loc 1 93 0
  84 005e D0F10101 		rsbs	r1, r0, #1
  85 0062 38BF     		it	cc
  86 0064 0021     		movcc	r1, #0
  87 0066 0320     		movs	r0, #3
  88              	.LVL7:
  89 0068 FFF7FEFF 		bl	_test_assert
  90              	.LVL8:
  91 006c 08B1     		cbz	r0, .L28
  92              	.L1:
  93              		.loc 1 220 0
  94 006e 02B0     		add	sp, sp, #8
  95              		@ sp needed
  96 0070 70BD     		pop	{r4, r5, r6, pc}
  97              	.L28:
  98              		.loc 1 98 0
  99 0072 40F20000 		movw	r0, #:lower16:.LANCHOR0
 100 0076 5821     		movs	r1, #88
 101 0078 C0F20000 		movt	r0, #:upper16:.LANCHOR0
 102 007c 0122     		movs	r2, #1
 103 007e FFF7FEFF 		bl	chMBPost
 104              	.LVL9:
 105              		.loc 1 99 0
 106 0082 B0F1FF36 		subs	r6, r0, #-1
 107 0086 7142     		rsbs	r1, r6, #0
 108 0088 7141     		adcs	r1, r1, r6
 109 008a 0420     		movs	r0, #4
 110              	.LVL10:
 111 008c FFF7FEFF 		bl	_test_assert
 112              	.LVL11:
 113 0090 0028     		cmp	r0, #0
 114 0092 ECD1     		bne	.L1
ARM GAS  /tmp/cccMO0kh.s 			page 3


 115              	.LBB2:
 116              		.loc 1 100 0
 117 0094 2023     		movs	r3, #32
 118              	@ 100 "../../../test/testmbox.c" 1
 119 0096 83F31188 		msr     BASEPRI, r3
 120              	@ 0 "" 2
 121              		.thumb
 122              	.LBE2:
 123 009a FFF7FEFF 		bl	dbg_check_lock
 124              	.LVL12:
 125              		.loc 1 101 0
 126 009e 40F20000 		movw	r0, #:lower16:.LANCHOR0
 127 00a2 5821     		movs	r1, #88
 128 00a4 C0F20000 		movt	r0, #:upper16:.LANCHOR0
 129 00a8 FFF7FEFF 		bl	chMBPostI
 130              	.LVL13:
 131 00ac 0446     		mov	r4, r0
 132              	.LVL14:
 133              		.loc 1 102 0
 134 00ae FFF7FEFF 		bl	dbg_check_unlock
 135              	.LVL15:
 136              	.LBB3:
 137 00b2 0023     		movs	r3, #0
 138              	@ 102 "../../../test/testmbox.c" 1
 139 00b4 83F31188 		msr     BASEPRI, r3
 140              	@ 0 "" 2
 141              		.thumb
 142              	.LBE3:
 143              		.loc 1 103 0
 144 00b8 B4F1FF34 		subs	r4, r4, #-1
 145              	.LVL16:
 146 00bc 6142     		rsbs	r1, r4, #0
 147 00be 6141     		adcs	r1, r1, r4
 148 00c0 0520     		movs	r0, #5
 149 00c2 FFF7FEFF 		bl	_test_assert
 150              	.LVL17:
 151 00c6 0028     		cmp	r0, #0
 152 00c8 D1D1     		bne	.L1
 153              		.loc 1 104 0
 154 00ca 40F20000 		movw	r0, #:lower16:.LANCHOR0
 155 00ce 5821     		movs	r1, #88
 156 00d0 0122     		movs	r2, #1
 157 00d2 C0F20000 		movt	r0, #:upper16:.LANCHOR0
 158 00d6 FFF7FEFF 		bl	chMBPostAhead
 159              	.LVL18:
 160              		.loc 1 105 0
 161 00da B0F1FF32 		subs	r2, r0, #-1
 162 00de 5142     		rsbs	r1, r2, #0
 163 00e0 5141     		adcs	r1, r1, r2
 164 00e2 0620     		movs	r0, #6
 165              	.LVL19:
 166 00e4 FFF7FEFF 		bl	_test_assert
 167              	.LVL20:
 168 00e8 0028     		cmp	r0, #0
 169 00ea C0D1     		bne	.L1
 170              	.LBB4:
 171              		.loc 1 106 0
ARM GAS  /tmp/cccMO0kh.s 			page 4


 172 00ec 2023     		movs	r3, #32
 173              	@ 106 "../../../test/testmbox.c" 1
 174 00ee 83F31188 		msr     BASEPRI, r3
 175              	@ 0 "" 2
 176              		.thumb
 177              	.LBE4:
 178 00f2 FFF7FEFF 		bl	dbg_check_lock
 179              	.LVL21:
 180              		.loc 1 107 0
 181 00f6 40F20000 		movw	r0, #:lower16:.LANCHOR0
 182 00fa 5821     		movs	r1, #88
 183 00fc C0F20000 		movt	r0, #:upper16:.LANCHOR0
 184 0100 FFF7FEFF 		bl	chMBPostAheadI
 185              	.LVL22:
 186 0104 0446     		mov	r4, r0
 187              	.LVL23:
 188              		.loc 1 108 0
 189 0106 FFF7FEFF 		bl	dbg_check_unlock
 190              	.LVL24:
 191              	.LBB5:
 192 010a 0023     		movs	r3, #0
 193              	@ 108 "../../../test/testmbox.c" 1
 194 010c 83F31188 		msr     BASEPRI, r3
 195              	@ 0 "" 2
 196              		.thumb
 197              	.LBE5:
 198              		.loc 1 109 0
 199 0110 B4F1FF33 		subs	r3, r4, #-1
 200 0114 5942     		rsbs	r1, r3, #0
 201 0116 5941     		adcs	r1, r1, r3
 202 0118 0720     		movs	r0, #7
 203 011a FFF7FEFF 		bl	_test_assert
 204              	.LVL25:
 205 011e 0028     		cmp	r0, #0
 206 0120 A5D1     		bne	.L1
 207              	.LBB6:
 208              		.loc 1 114 0
 209 0122 2023     		movs	r3, #32
 210              	@ 114 "../../../test/testmbox.c" 1
 211 0124 83F31188 		msr     BASEPRI, r3
 212              	@ 0 "" 2
 213              		.thumb
 214              	.LBE6:
 215 0128 FFF7FEFF 		bl	dbg_check_lock
 216              	.LVL26:
 217 012c 696A     		ldr	r1, [r5, #36]
 218 012e D1F10101 		rsbs	r1, r1, #1
 219 0132 4FF00800 		mov	r0, #8
 220 0136 38BF     		it	cc
 221 0138 0021     		movcc	r1, #0
 222 013a FFF7FEFF 		bl	_test_assert
 223              	.LVL27:
 224 013e 0446     		mov	r4, r0
 225              	.LVL28:
 226 0140 0028     		cmp	r0, #0
 227 0142 40F0FA82 		bne	.L25
 228              		.loc 1 114 0 is_stmt 0 discriminator 2
ARM GAS  /tmp/cccMO0kh.s 			page 5


 229 0146 FFF7FEFF 		bl	dbg_check_unlock
 230              	.LVL29:
 231              	.LBB7:
 232 014a 2346     		mov	r3, r4
 233              	@ 114 "../../../test/testmbox.c" 1
 234 014c 83F31188 		msr     BASEPRI, r3
 235              	@ 0 "" 2
 236              		.thumb
 237              	.LBE7:
 238              	.LBB8:
 239              		.loc 1 115 0 is_stmt 1 discriminator 2
 240 0150 2023     		movs	r3, #32
 241              	@ 115 "../../../test/testmbox.c" 1
 242 0152 83F31188 		msr     BASEPRI, r3
 243              	@ 0 "" 2
 244              		.thumb
 245              	.LBE8:
 246 0156 FFF7FEFF 		bl	dbg_check_lock
 247              	.LVL30:
 248 015a A969     		ldr	r1, [r5, #24]
 249 015c B1F1050C 		subs	ip, r1, #5
 250 0160 DCF10001 		rsbs	r1, ip, #0
 251 0164 4FF00900 		mov	r0, #9
 252 0168 51EB0C01 		adcs	r1, r1, ip
 253 016c FFF7FEFF 		bl	_test_assert
 254              	.LVL31:
 255 0170 0446     		mov	r4, r0
 256 0172 0028     		cmp	r0, #0
 257 0174 40F0E182 		bne	.L25
 258 0178 FFF7FEFF 		bl	dbg_check_unlock
 259              	.LVL32:
 260              	.LBB9:
 261 017c 2346     		mov	r3, r4
 262              	@ 115 "../../../test/testmbox.c" 1
 263 017e 83F31188 		msr     BASEPRI, r3
 264              	@ 0 "" 2
 265              		.thumb
 266              	.LBE9:
 267              	.LBB10:
 268              		.loc 1 116 0 discriminator 2
 269 0182 2023     		movs	r3, #32
 270              	@ 116 "../../../test/testmbox.c" 1
 271 0184 83F31188 		msr     BASEPRI, r3
 272              	@ 0 "" 2
 273              		.thumb
 274              	.LBE10:
 275 0188 FFF7FEFF 		bl	dbg_check_lock
 276              	.LVL33:
 277 018c E968     		ldr	r1, [r5, #12]
 278 018e AB68     		ldr	r3, [r5, #8]
 279 0190 B1EB030E 		subs	lr, r1, r3
 280 0194 DEF10001 		rsbs	r1, lr, #0
 281 0198 51EB0E01 		adcs	r1, r1, lr
 282 019c 0A20     		movs	r0, #10
 283 019e FFF7FEFF 		bl	_test_assert
 284              	.LVL34:
 285 01a2 0028     		cmp	r0, #0
ARM GAS  /tmp/cccMO0kh.s 			page 6


 286 01a4 40F0C982 		bne	.L25
 287 01a8 FFF7FEFF 		bl	dbg_check_unlock
 288              	.LVL35:
 289              	.LBB11:
 290 01ac 0023     		movs	r3, #0
 291              	@ 116 "../../../test/testmbox.c" 1
 292 01ae 83F31188 		msr     BASEPRI, r3
 293              	@ 0 "" 2
 294              	.LVL36:
 295              		.thumb
 296 01b2 0526     		movs	r6, #5
 297              	.LVL37:
 298              	.L10:
 299              	.LBE11:
 300              		.loc 1 122 0
 301 01b4 40F20004 		movw	r4, #:lower16:.LANCHOR0
 302 01b8 C0F20004 		movt	r4, #:upper16:.LANCHOR0
 303 01bc 01A9     		add	r1, sp, #4
 304 01be 2046     		mov	r0, r4
 305 01c0 4FF0FF32 		mov	r2, #-1
 306 01c4 FFF7FEFF 		bl	chMBFetch
 307              	.LVL38:
 308              		.loc 1 123 0
 309 01c8 D0F10101 		rsbs	r1, r0, #1
 310 01cc 38BF     		it	cc
 311 01ce 0021     		movcc	r1, #0
 312 01d0 0B20     		movs	r0, #11
 313              	.LVL39:
 314 01d2 FFF7FEFF 		bl	_test_assert
 315              	.LVL40:
 316 01d6 0028     		cmp	r0, #0
 317 01d8 7FF449AF 		bne	.L1
 318              		.loc 1 124 0
 319 01dc 9DF80400 		ldrb	r0, [sp, #4]	@ zero_extendqisi2
 320 01e0 FFF7FEFF 		bl	test_emit_token
 321              	.LVL41:
 322              		.loc 1 121 0
 323 01e4 013E     		subs	r6, r6, #1
 324              	.LVL42:
 325 01e6 E5D1     		bne	.L10
 326              		.loc 1 126 0
 327 01e8 40F20001 		movw	r1, #:lower16:.LC0
 328 01ec C0F20001 		movt	r1, #:upper16:.LC0
 329 01f0 0C20     		movs	r0, #12
 330 01f2 FFF7FEFF 		bl	_test_assert_sequence
 331              	.LVL43:
 332 01f6 0028     		cmp	r0, #0
 333 01f8 7FF439AF 		bne	.L1
 334              		.loc 1 131 0
 335 01fc 4721     		movs	r1, #71
 336 01fe 2046     		mov	r0, r4
 337 0200 4FF0FF32 		mov	r2, #-1
 338 0204 FFF7FEFF 		bl	chMBPost
 339              	.LVL44:
 340              		.loc 1 132 0
 341 0208 D0F10101 		rsbs	r1, r0, #1
 342 020c 38BF     		it	cc
ARM GAS  /tmp/cccMO0kh.s 			page 7


 343 020e 0021     		movcc	r1, #0
 344 0210 0D20     		movs	r0, #13
 345              	.LVL45:
 346 0212 FFF7FEFF 		bl	_test_assert
 347              	.LVL46:
 348 0216 0028     		cmp	r0, #0
 349 0218 7FF429AF 		bne	.L1
 350              		.loc 1 133 0
 351 021c 01A9     		add	r1, sp, #4
 352 021e 2046     		mov	r0, r4
 353 0220 4FF0FF32 		mov	r2, #-1
 354 0224 FFF7FEFF 		bl	chMBFetch
 355              	.LVL47:
 356              		.loc 1 134 0
 357 0228 D0F10101 		rsbs	r1, r0, #1
 358 022c 38BF     		it	cc
 359 022e 0021     		movcc	r1, #0
 360 0230 0E20     		movs	r0, #14
 361              	.LVL48:
 362 0232 FFF7FEFF 		bl	_test_assert
 363              	.LVL49:
 364 0236 0028     		cmp	r0, #0
 365 0238 7FF419AF 		bne	.L1
 366              		.loc 1 135 0
 367 023c 2168     		ldr	r1, [r4]
 368 023e A368     		ldr	r3, [r4, #8]
 369 0240 CE1A     		subs	r6, r1, r3
 370              	.LVL50:
 371 0242 7142     		rsbs	r1, r6, #0
 372 0244 7141     		adcs	r1, r1, r6
 373 0246 0F20     		movs	r0, #15
 374 0248 FFF7FEFF 		bl	_test_assert
 375              	.LVL51:
 376 024c 0028     		cmp	r0, #0
 377 024e 7FF40EAF 		bne	.L1
 378              		.loc 1 136 0
 379 0252 2168     		ldr	r1, [r4]
 380 0254 E368     		ldr	r3, [r4, #12]
 381 0256 CA1A     		subs	r2, r1, r3
 382 0258 5142     		rsbs	r1, r2, #0
 383 025a 5141     		adcs	r1, r1, r2
 384 025c 1020     		movs	r0, #16
 385 025e FFF7FEFF 		bl	_test_assert
 386              	.LVL52:
 387 0262 0028     		cmp	r0, #0
 388 0264 7FF403AF 		bne	.L1
 389              		.loc 1 141 0
 390 0268 01A9     		add	r1, sp, #4
 391 026a 2046     		mov	r0, r4
 392 026c 0122     		movs	r2, #1
 393 026e FFF7FEFF 		bl	chMBFetch
 394              	.LVL53:
 395              		.loc 1 142 0
 396 0272 B0F1FF33 		subs	r3, r0, #-1
 397 0276 5942     		rsbs	r1, r3, #0
 398 0278 5941     		adcs	r1, r1, r3
 399 027a 1120     		movs	r0, #17
ARM GAS  /tmp/cccMO0kh.s 			page 8


 400              	.LVL54:
 401 027c FFF7FEFF 		bl	_test_assert
 402              	.LVL55:
 403 0280 0028     		cmp	r0, #0
 404 0282 7FF4F4AE 		bne	.L1
 405              	.LBB12:
 406              		.loc 1 143 0
 407 0286 2023     		movs	r3, #32
 408              	@ 143 "../../../test/testmbox.c" 1
 409 0288 83F31188 		msr     BASEPRI, r3
 410              	@ 0 "" 2
 411              		.thumb
 412              	.LBE12:
 413 028c FFF7FEFF 		bl	dbg_check_lock
 414              	.LVL56:
 415              		.loc 1 144 0
 416 0290 40F20000 		movw	r0, #:lower16:.LANCHOR0
 417 0294 01A9     		add	r1, sp, #4
 418 0296 C0F20000 		movt	r0, #:upper16:.LANCHOR0
 419 029a FFF7FEFF 		bl	chMBFetchI
 420              	.LVL57:
 421 029e 0446     		mov	r4, r0
 422              	.LVL58:
 423              		.loc 1 145 0
 424 02a0 FFF7FEFF 		bl	dbg_check_unlock
 425              	.LVL59:
 426              	.LBB13:
 427 02a4 0023     		movs	r3, #0
 428              	@ 145 "../../../test/testmbox.c" 1
 429 02a6 83F31188 		msr     BASEPRI, r3
 430              	@ 0 "" 2
 431              		.thumb
 432              	.LBE13:
 433              		.loc 1 146 0
 434 02aa B4F1FF3C 		subs	ip, r4, #-1
 435 02ae DCF10001 		rsbs	r1, ip, #0
 436 02b2 51EB0C01 		adcs	r1, r1, ip
 437 02b6 1220     		movs	r0, #18
 438 02b8 FFF7FEFF 		bl	_test_assert
 439              	.LVL60:
 440 02bc 0028     		cmp	r0, #0
 441 02be 7FF4D6AE 		bne	.L1
 442              	.LBB14:
 443              		.loc 1 151 0
 444 02c2 2023     		movs	r3, #32
 445              	@ 151 "../../../test/testmbox.c" 1
 446 02c4 83F31188 		msr     BASEPRI, r3
 447              	@ 0 "" 2
 448              		.thumb
 449              	.LBE14:
 450 02c8 FFF7FEFF 		bl	dbg_check_lock
 451              	.LVL61:
 452 02cc 696A     		ldr	r1, [r5, #36]
 453 02ce B1F1050E 		subs	lr, r1, #5
 454 02d2 DEF10001 		rsbs	r1, lr, #0
 455 02d6 51EB0E01 		adcs	r1, r1, lr
 456 02da 1320     		movs	r0, #19
ARM GAS  /tmp/cccMO0kh.s 			page 9


 457 02dc FFF7FEFF 		bl	_test_assert
 458              	.LVL62:
 459 02e0 0028     		cmp	r0, #0
 460 02e2 40F02A82 		bne	.L25
 461              		.loc 1 151 0 is_stmt 0 discriminator 2
 462 02e6 FFF7FEFF 		bl	dbg_check_unlock
 463              	.LVL63:
 464              	.LBB15:
 465 02ea 0023     		movs	r3, #0
 466              	@ 151 "../../../test/testmbox.c" 1
 467 02ec 83F31188 		msr     BASEPRI, r3
 468              	@ 0 "" 2
 469              		.thumb
 470              	.LBE15:
 471              	.LBB16:
 472              		.loc 1 152 0 is_stmt 1 discriminator 2
 473 02f0 2023     		movs	r3, #32
 474              	@ 152 "../../../test/testmbox.c" 1
 475 02f2 83F31188 		msr     BASEPRI, r3
 476              	@ 0 "" 2
 477              		.thumb
 478              	.LBE16:
 479 02f6 FFF7FEFF 		bl	dbg_check_lock
 480              	.LVL64:
 481 02fa A969     		ldr	r1, [r5, #24]
 482 02fc D1F10101 		rsbs	r1, r1, #1
 483 0300 4FF01400 		mov	r0, #20
 484 0304 38BF     		it	cc
 485 0306 0021     		movcc	r1, #0
 486 0308 FFF7FEFF 		bl	_test_assert
 487              	.LVL65:
 488 030c 0446     		mov	r4, r0
 489              	.LVL66:
 490 030e 0028     		cmp	r0, #0
 491 0310 40F01382 		bne	.L25
 492 0314 FFF7FEFF 		bl	dbg_check_unlock
 493              	.LVL67:
 494              	.LBB17:
 495 0318 2346     		mov	r3, r4
 496              	@ 152 "../../../test/testmbox.c" 1
 497 031a 83F31188 		msr     BASEPRI, r3
 498              	@ 0 "" 2
 499              		.thumb
 500              	.LBE17:
 501              	.LBB18:
 502              		.loc 1 153 0 discriminator 2
 503 031e 2023     		movs	r3, #32
 504              	@ 153 "../../../test/testmbox.c" 1
 505 0320 83F31188 		msr     BASEPRI, r3
 506              	@ 0 "" 2
 507              		.thumb
 508              	.LBE18:
 509 0324 FFF7FEFF 		bl	dbg_check_lock
 510              	.LVL68:
 511 0328 E968     		ldr	r1, [r5, #12]
 512 032a AB68     		ldr	r3, [r5, #8]
 513 032c CE1A     		subs	r6, r1, r3
ARM GAS  /tmp/cccMO0kh.s 			page 10


 514 032e 7142     		rsbs	r1, r6, #0
 515 0330 4FF01500 		mov	r0, #21
 516 0334 7141     		adcs	r1, r1, r6
 517 0336 FFF7FEFF 		bl	_test_assert
 518              	.LVL69:
 519 033a 0446     		mov	r4, r0
 520 033c 0028     		cmp	r0, #0
 521 033e 40F0FC81 		bne	.L25
 522 0342 FFF7FEFF 		bl	dbg_check_unlock
 523              	.LVL70:
 524              	.LBB19:
 525 0346 2346     		mov	r3, r4
 526              	@ 153 "../../../test/testmbox.c" 1
 527 0348 83F31188 		msr     BASEPRI, r3
 528              	@ 0 "" 2
 529              		.thumb
 530              	.LBE19:
 531              	.LBB20:
 532              		.loc 1 158 0 discriminator 2
 533 034c 2023     		movs	r3, #32
 534              	@ 158 "../../../test/testmbox.c" 1
 535 034e 83F31188 		msr     BASEPRI, r3
 536              	@ 0 "" 2
 537              		.thumb
 538              	.LBE20:
 539 0352 FFF7FEFF 		bl	dbg_check_lock
 540              	.LVL71:
 541              		.loc 1 159 0 discriminator 2
 542 0356 40F20000 		movw	r0, #:lower16:.LANCHOR0
 543 035a 4121     		movs	r1, #65
 544 035c C0F20000 		movt	r0, #:upper16:.LANCHOR0
 545 0360 FFF7FEFF 		bl	chMBPostI
 546              	.LVL72:
 547              		.loc 1 160 0 discriminator 2
 548 0364 D0F10101 		rsbs	r1, r0, #1
 549 0368 38BF     		it	cc
 550 036a 0021     		movcc	r1, #0
 551 036c 1620     		movs	r0, #22
 552              	.LVL73:
 553 036e FFF7FEFF 		bl	_test_assert
 554              	.LVL74:
 555 0372 0028     		cmp	r0, #0
 556 0374 7FF47BAE 		bne	.L1
 557              		.loc 1 161 0
 558 0378 40F20000 		movw	r0, #:lower16:.LANCHOR0
 559 037c 4221     		movs	r1, #66
 560 037e C0F20000 		movt	r0, #:upper16:.LANCHOR0
 561 0382 FFF7FEFF 		bl	chMBPostI
 562              	.LVL75:
 563              		.loc 1 162 0
 564 0386 D0F10101 		rsbs	r1, r0, #1
 565 038a 38BF     		it	cc
 566 038c 0021     		movcc	r1, #0
 567 038e 1720     		movs	r0, #23
 568              	.LVL76:
 569 0390 FFF7FEFF 		bl	_test_assert
 570              	.LVL77:
ARM GAS  /tmp/cccMO0kh.s 			page 11


 571 0394 0028     		cmp	r0, #0
 572 0396 7FF46AAE 		bne	.L1
 573              		.loc 1 163 0
 574 039a 40F20000 		movw	r0, #:lower16:.LANCHOR0
 575 039e 4321     		movs	r1, #67
 576 03a0 C0F20000 		movt	r0, #:upper16:.LANCHOR0
 577 03a4 FFF7FEFF 		bl	chMBPostI
 578              	.LVL78:
 579              		.loc 1 164 0
 580 03a8 D0F10101 		rsbs	r1, r0, #1
 581 03ac 38BF     		it	cc
 582 03ae 0021     		movcc	r1, #0
 583 03b0 1820     		movs	r0, #24
 584              	.LVL79:
 585 03b2 FFF7FEFF 		bl	_test_assert
 586              	.LVL80:
 587 03b6 0028     		cmp	r0, #0
 588 03b8 7FF459AE 		bne	.L1
 589              		.loc 1 165 0
 590 03bc 40F20000 		movw	r0, #:lower16:.LANCHOR0
 591 03c0 4421     		movs	r1, #68
 592 03c2 C0F20000 		movt	r0, #:upper16:.LANCHOR0
 593 03c6 FFF7FEFF 		bl	chMBPostI
 594              	.LVL81:
 595              		.loc 1 166 0
 596 03ca D0F10101 		rsbs	r1, r0, #1
 597 03ce 38BF     		it	cc
 598 03d0 0021     		movcc	r1, #0
 599 03d2 1920     		movs	r0, #25
 600              	.LVL82:
 601 03d4 FFF7FEFF 		bl	_test_assert
 602              	.LVL83:
 603 03d8 0446     		mov	r4, r0
 604 03da 0028     		cmp	r0, #0
 605 03dc 7FF447AE 		bne	.L1
 606              		.loc 1 167 0
 607 03e0 40F20000 		movw	r0, #:lower16:.LANCHOR0
 608 03e4 4521     		movs	r1, #69
 609 03e6 C0F20000 		movt	r0, #:upper16:.LANCHOR0
 610 03ea FFF7FEFF 		bl	chMBPostI
 611              	.LVL84:
 612 03ee 0646     		mov	r6, r0
 613              	.LVL85:
 614              		.loc 1 168 0
 615 03f0 FFF7FEFF 		bl	dbg_check_unlock
 616              	.LVL86:
 617              	.LBB21:
 618 03f4 2346     		mov	r3, r4
 619              	@ 168 "../../../test/testmbox.c" 1
 620 03f6 83F31188 		msr     BASEPRI, r3
 621              	@ 0 "" 2
 622              		.thumb
 623              	.LBE21:
 624              		.loc 1 169 0
 625 03fa D6F10101 		rsbs	r1, r6, #1
 626 03fe 38BF     		it	cc
 627 0400 0021     		movcc	r1, #0
ARM GAS  /tmp/cccMO0kh.s 			page 12


 628 0402 1A20     		movs	r0, #26
 629 0404 FFF7FEFF 		bl	_test_assert
 630              	.LVL87:
 631 0408 0028     		cmp	r0, #0
 632 040a 7FF430AE 		bne	.L1
 633              		.loc 1 170 0
 634 040e E968     		ldr	r1, [r5, #12]
 635 0410 AB68     		ldr	r3, [r5, #8]
 636 0412 CC1A     		subs	r4, r1, r3
 637 0414 6142     		rsbs	r1, r4, #0
 638 0416 6141     		adcs	r1, r1, r4
 639 0418 1B20     		movs	r0, #27
 640 041a FFF7FEFF 		bl	_test_assert
 641              	.LVL88:
 642 041e 0028     		cmp	r0, #0
 643 0420 7FF425AE 		bne	.L1
 644 0424 0524     		movs	r4, #5
 645              	.L15:
 646              	.LVL89:
 647              	.LBB22:
 648              		.loc 1 172 0
 649 0426 2023     		movs	r3, #32
 650              	@ 172 "../../../test/testmbox.c" 1
 651 0428 83F31188 		msr     BASEPRI, r3
 652              	@ 0 "" 2
 653              		.thumb
 654              	.LBE22:
 655 042c FFF7FEFF 		bl	dbg_check_lock
 656              	.LVL90:
 657              		.loc 1 173 0
 658 0430 40F20000 		movw	r0, #:lower16:.LANCHOR0
 659 0434 01A9     		add	r1, sp, #4
 660 0436 C0F20000 		movt	r0, #:upper16:.LANCHOR0
 661 043a FFF7FEFF 		bl	chMBFetchI
 662              	.LVL91:
 663 043e 0646     		mov	r6, r0
 664              	.LVL92:
 665              		.loc 1 174 0
 666 0440 FFF7FEFF 		bl	dbg_check_unlock
 667              	.LVL93:
 668              	.LBB23:
 669 0444 0023     		movs	r3, #0
 670              	@ 174 "../../../test/testmbox.c" 1
 671 0446 83F31188 		msr     BASEPRI, r3
 672              	@ 0 "" 2
 673              		.thumb
 674              	.LBE23:
 675              		.loc 1 175 0
 676 044a D6F10101 		rsbs	r1, r6, #1
 677 044e 38BF     		it	cc
 678 0450 0021     		movcc	r1, #0
 679 0452 1C20     		movs	r0, #28
 680 0454 FFF7FEFF 		bl	_test_assert
 681              	.LVL94:
 682 0458 0028     		cmp	r0, #0
 683 045a 7FF408AE 		bne	.L1
 684              		.loc 1 176 0
ARM GAS  /tmp/cccMO0kh.s 			page 13


 685 045e 9DF80400 		ldrb	r0, [sp, #4]	@ zero_extendqisi2
 686 0462 FFF7FEFF 		bl	test_emit_token
 687              	.LVL95:
 688              		.loc 1 171 0
 689 0466 013C     		subs	r4, r4, #1
 690              	.LVL96:
 691 0468 DDD1     		bne	.L15
 692              		.loc 1 178 0
 693 046a 40F20001 		movw	r1, #:lower16:.LC0
 694 046e C0F20001 		movt	r1, #:upper16:.LC0
 695 0472 1D20     		movs	r0, #29
 696 0474 FFF7FEFF 		bl	_test_assert_sequence
 697              	.LVL97:
 698 0478 0028     		cmp	r0, #0
 699 047a 7FF4F8AD 		bne	.L1
 700              	.LBB24:
 701              		.loc 1 179 0
 702 047e 2023     		movs	r3, #32
 703              	@ 179 "../../../test/testmbox.c" 1
 704 0480 83F31188 		msr     BASEPRI, r3
 705              	@ 0 "" 2
 706              		.thumb
 707              	.LBE24:
 708 0484 FFF7FEFF 		bl	dbg_check_lock
 709              	.LVL98:
 710 0488 696A     		ldr	r1, [r5, #36]
 711 048a 4A1F     		subs	r2, r1, #5
 712 048c 5142     		rsbs	r1, r2, #0
 713 048e 4FF01E00 		mov	r0, #30
 714 0492 5141     		adcs	r1, r1, r2
 715 0494 FFF7FEFF 		bl	_test_assert
 716              	.LVL99:
 717 0498 0446     		mov	r4, r0
 718              	.LVL100:
 719 049a 0028     		cmp	r0, #0
 720 049c 40F04D81 		bne	.L25
 721              		.loc 1 179 0 is_stmt 0 discriminator 2
 722 04a0 FFF7FEFF 		bl	dbg_check_unlock
 723              	.LVL101:
 724              	.LBB25:
 725 04a4 2346     		mov	r3, r4
 726              	@ 179 "../../../test/testmbox.c" 1
 727 04a6 83F31188 		msr     BASEPRI, r3
 728              	@ 0 "" 2
 729              		.thumb
 730              	.LBE25:
 731              	.LBB26:
 732              		.loc 1 180 0 is_stmt 1 discriminator 2
 733 04aa 2023     		movs	r3, #32
 734              	@ 180 "../../../test/testmbox.c" 1
 735 04ac 83F31188 		msr     BASEPRI, r3
 736              	@ 0 "" 2
 737              		.thumb
 738              	.LBE26:
 739 04b0 FFF7FEFF 		bl	dbg_check_lock
 740              	.LVL102:
 741 04b4 A969     		ldr	r1, [r5, #24]
ARM GAS  /tmp/cccMO0kh.s 			page 14


 742 04b6 D1F10101 		rsbs	r1, r1, #1
 743 04ba 4FF01F00 		mov	r0, #31
 744 04be 38BF     		it	cc
 745 04c0 0021     		movcc	r1, #0
 746 04c2 FFF7FEFF 		bl	_test_assert
 747              	.LVL103:
 748 04c6 0446     		mov	r4, r0
 749 04c8 0028     		cmp	r0, #0
 750 04ca 40F03681 		bne	.L25
 751 04ce FFF7FEFF 		bl	dbg_check_unlock
 752              	.LVL104:
 753              	.LBB27:
 754 04d2 2346     		mov	r3, r4
 755              	@ 180 "../../../test/testmbox.c" 1
 756 04d4 83F31188 		msr     BASEPRI, r3
 757              	@ 0 "" 2
 758              		.thumb
 759              	.LBE27:
 760              		.loc 1 181 0 discriminator 2
 761 04d8 E968     		ldr	r1, [r5, #12]
 762 04da AB68     		ldr	r3, [r5, #8]
 763 04dc CB1A     		subs	r3, r1, r3
 764 04de 5942     		rsbs	r1, r3, #0
 765 04e0 5941     		adcs	r1, r1, r3
 766 04e2 2020     		movs	r0, #32
 767 04e4 FFF7FEFF 		bl	_test_assert
 768              	.LVL105:
 769 04e8 0028     		cmp	r0, #0
 770 04ea 7FF4C0AD 		bne	.L1
 771              	.LBB28:
 772              		.loc 1 183 0
 773 04ee 2023     		movs	r3, #32
 774              	@ 183 "../../../test/testmbox.c" 1
 775 04f0 83F31188 		msr     BASEPRI, r3
 776              	@ 0 "" 2
 777              		.thumb
 778              	.LBE28:
 779 04f4 FFF7FEFF 		bl	dbg_check_lock
 780              	.LVL106:
 781              		.loc 1 184 0
 782 04f8 40F20000 		movw	r0, #:lower16:.LANCHOR0
 783 04fc 4521     		movs	r1, #69
 784 04fe C0F20000 		movt	r0, #:upper16:.LANCHOR0
 785 0502 FFF7FEFF 		bl	chMBPostAheadI
 786              	.LVL107:
 787              		.loc 1 185 0
 788 0506 D0F10101 		rsbs	r1, r0, #1
 789 050a 38BF     		it	cc
 790 050c 0021     		movcc	r1, #0
 791 050e 2120     		movs	r0, #33
 792              	.LVL108:
 793 0510 FFF7FEFF 		bl	_test_assert
 794              	.LVL109:
 795 0514 0028     		cmp	r0, #0
 796 0516 7FF4AAAD 		bne	.L1
 797              		.loc 1 186 0
 798 051a 40F20000 		movw	r0, #:lower16:.LANCHOR0
ARM GAS  /tmp/cccMO0kh.s 			page 15


 799 051e 4421     		movs	r1, #68
 800 0520 C0F20000 		movt	r0, #:upper16:.LANCHOR0
 801 0524 FFF7FEFF 		bl	chMBPostAheadI
 802              	.LVL110:
 803              		.loc 1 187 0
 804 0528 D0F10101 		rsbs	r1, r0, #1
 805 052c 38BF     		it	cc
 806 052e 0021     		movcc	r1, #0
 807 0530 2220     		movs	r0, #34
 808              	.LVL111:
 809 0532 FFF7FEFF 		bl	_test_assert
 810              	.LVL112:
 811 0536 0028     		cmp	r0, #0
 812 0538 7FF499AD 		bne	.L1
 813              		.loc 1 188 0
 814 053c 40F20000 		movw	r0, #:lower16:.LANCHOR0
 815 0540 4321     		movs	r1, #67
 816 0542 C0F20000 		movt	r0, #:upper16:.LANCHOR0
 817 0546 FFF7FEFF 		bl	chMBPostAheadI
 818              	.LVL113:
 819              		.loc 1 189 0
 820 054a D0F10101 		rsbs	r1, r0, #1
 821 054e 38BF     		it	cc
 822 0550 0021     		movcc	r1, #0
 823 0552 2320     		movs	r0, #35
 824              	.LVL114:
 825 0554 FFF7FEFF 		bl	_test_assert
 826              	.LVL115:
 827 0558 0028     		cmp	r0, #0
 828 055a 7FF488AD 		bne	.L1
 829              		.loc 1 190 0
 830 055e 40F20000 		movw	r0, #:lower16:.LANCHOR0
 831 0562 4221     		movs	r1, #66
 832 0564 C0F20000 		movt	r0, #:upper16:.LANCHOR0
 833 0568 FFF7FEFF 		bl	chMBPostAheadI
 834              	.LVL116:
 835              		.loc 1 191 0
 836 056c D0F10101 		rsbs	r1, r0, #1
 837 0570 38BF     		it	cc
 838 0572 0021     		movcc	r1, #0
 839 0574 2420     		movs	r0, #36
 840              	.LVL117:
 841 0576 FFF7FEFF 		bl	_test_assert
 842              	.LVL118:
 843 057a 0028     		cmp	r0, #0
 844 057c 7FF477AD 		bne	.L1
 845              		.loc 1 192 0
 846 0580 40F20000 		movw	r0, #:lower16:.LANCHOR0
 847 0584 4121     		movs	r1, #65
 848 0586 C0F20000 		movt	r0, #:upper16:.LANCHOR0
 849 058a FFF7FEFF 		bl	chMBPostAheadI
 850              	.LVL119:
 851 058e 0446     		mov	r4, r0
 852              	.LVL120:
 853              		.loc 1 193 0
 854 0590 FFF7FEFF 		bl	dbg_check_unlock
 855              	.LVL121:
ARM GAS  /tmp/cccMO0kh.s 			page 16


 856              	.LBB29:
 857 0594 0023     		movs	r3, #0
 858              	@ 193 "../../../test/testmbox.c" 1
 859 0596 83F31188 		msr     BASEPRI, r3
 860              	@ 0 "" 2
 861              		.thumb
 862              	.LBE29:
 863              		.loc 1 194 0
 864 059a D4F10101 		rsbs	r1, r4, #1
 865 059e 38BF     		it	cc
 866 05a0 0021     		movcc	r1, #0
 867 05a2 2520     		movs	r0, #37
 868 05a4 FFF7FEFF 		bl	_test_assert
 869              	.LVL122:
 870 05a8 0028     		cmp	r0, #0
 871 05aa 7FF460AD 		bne	.L1
 872              		.loc 1 195 0
 873 05ae E968     		ldr	r1, [r5, #12]
 874 05b0 AB68     		ldr	r3, [r5, #8]
 875 05b2 B1EB030C 		subs	ip, r1, r3
 876 05b6 DCF10001 		rsbs	r1, ip, #0
 877 05ba 51EB0C01 		adcs	r1, r1, ip
 878 05be 2620     		movs	r0, #38
 879 05c0 FFF7FEFF 		bl	_test_assert
 880              	.LVL123:
 881 05c4 0028     		cmp	r0, #0
 882 05c6 7FF452AD 		bne	.L1
 883 05ca 0524     		movs	r4, #5
 884              	.LVL124:
 885              	.L19:
 886              	.LBB30:
 887              		.loc 1 197 0
 888 05cc 2023     		movs	r3, #32
 889              	@ 197 "../../../test/testmbox.c" 1
 890 05ce 83F31188 		msr     BASEPRI, r3
 891              	@ 0 "" 2
 892              		.thumb
 893              	.LBE30:
 894 05d2 FFF7FEFF 		bl	dbg_check_lock
 895              	.LVL125:
 896              		.loc 1 198 0
 897 05d6 40F20000 		movw	r0, #:lower16:.LANCHOR0
 898 05da 01A9     		add	r1, sp, #4
 899 05dc C0F20000 		movt	r0, #:upper16:.LANCHOR0
 900 05e0 FFF7FEFF 		bl	chMBFetchI
 901              	.LVL126:
 902 05e4 0646     		mov	r6, r0
 903              	.LVL127:
 904              		.loc 1 199 0
 905 05e6 FFF7FEFF 		bl	dbg_check_unlock
 906              	.LVL128:
 907              	.LBB31:
 908 05ea 0023     		movs	r3, #0
 909              	@ 199 "../../../test/testmbox.c" 1
 910 05ec 83F31188 		msr     BASEPRI, r3
 911              	@ 0 "" 2
 912              		.thumb
ARM GAS  /tmp/cccMO0kh.s 			page 17


 913              	.LBE31:
 914              		.loc 1 200 0
 915 05f0 D6F10101 		rsbs	r1, r6, #1
 916 05f4 38BF     		it	cc
 917 05f6 0021     		movcc	r1, #0
 918 05f8 2720     		movs	r0, #39
 919 05fa FFF7FEFF 		bl	_test_assert
 920              	.LVL129:
 921 05fe 0028     		cmp	r0, #0
 922 0600 7FF435AD 		bne	.L1
 923              		.loc 1 201 0
 924 0604 9DF80400 		ldrb	r0, [sp, #4]	@ zero_extendqisi2
 925 0608 FFF7FEFF 		bl	test_emit_token
 926              	.LVL130:
 927              		.loc 1 196 0
 928 060c 013C     		subs	r4, r4, #1
 929              	.LVL131:
 930 060e DDD1     		bne	.L19
 931              		.loc 1 203 0
 932 0610 40F20001 		movw	r1, #:lower16:.LC0
 933 0614 C0F20001 		movt	r1, #:upper16:.LC0
 934 0618 2820     		movs	r0, #40
 935 061a FFF7FEFF 		bl	_test_assert_sequence
 936              	.LVL132:
 937 061e 0028     		cmp	r0, #0
 938 0620 7FF425AD 		bne	.L1
 939              	.LBB32:
 940              		.loc 1 204 0
 941 0624 2023     		movs	r3, #32
 942              	@ 204 "../../../test/testmbox.c" 1
 943 0626 83F31188 		msr     BASEPRI, r3
 944              	@ 0 "" 2
 945              		.thumb
 946              	.LBE32:
 947 062a FFF7FEFF 		bl	dbg_check_lock
 948              	.LVL133:
 949 062e 696A     		ldr	r1, [r5, #36]
 950 0630 B1F1050E 		subs	lr, r1, #5
 951 0634 DEF10001 		rsbs	r1, lr, #0
 952 0638 4FF02900 		mov	r0, #41
 953 063c 51EB0E01 		adcs	r1, r1, lr
 954 0640 FFF7FEFF 		bl	_test_assert
 955              	.LVL134:
 956 0644 0446     		mov	r4, r0
 957              	.LVL135:
 958 0646 0028     		cmp	r0, #0
 959 0648 77D1     		bne	.L25
 960              		.loc 1 204 0 is_stmt 0 discriminator 2
 961 064a FFF7FEFF 		bl	dbg_check_unlock
 962              	.LVL136:
 963              	.LBB33:
 964 064e 2346     		mov	r3, r4
 965              	@ 204 "../../../test/testmbox.c" 1
 966 0650 83F31188 		msr     BASEPRI, r3
 967              	@ 0 "" 2
 968              		.thumb
 969              	.LBE33:
ARM GAS  /tmp/cccMO0kh.s 			page 18


 970              	.LBB34:
 971              		.loc 1 205 0 is_stmt 1 discriminator 2
 972 0654 2023     		movs	r3, #32
 973              	@ 205 "../../../test/testmbox.c" 1
 974 0656 83F31188 		msr     BASEPRI, r3
 975              	@ 0 "" 2
 976              		.thumb
 977              	.LBE34:
 978 065a FFF7FEFF 		bl	dbg_check_lock
 979              	.LVL137:
 980 065e A969     		ldr	r1, [r5, #24]
 981 0660 D1F10101 		rsbs	r1, r1, #1
 982 0664 4FF02A00 		mov	r0, #42
 983 0668 38BF     		it	cc
 984 066a 0021     		movcc	r1, #0
 985 066c FFF7FEFF 		bl	_test_assert
 986              	.LVL138:
 987 0670 0446     		mov	r4, r0
 988 0672 0028     		cmp	r0, #0
 989 0674 61D1     		bne	.L25
 990 0676 FFF7FEFF 		bl	dbg_check_unlock
 991              	.LVL139:
 992              	.LBB35:
 993 067a 2346     		mov	r3, r4
 994              	@ 205 "../../../test/testmbox.c" 1
 995 067c 83F31188 		msr     BASEPRI, r3
 996              	@ 0 "" 2
 997              		.thumb
 998              	.LBE35:
 999              		.loc 1 206 0 discriminator 2
 1000 0680 E968     		ldr	r1, [r5, #12]
 1001 0682 AB68     		ldr	r3, [r5, #8]
 1002 0684 CE1A     		subs	r6, r1, r3
 1003              	.LVL140:
 1004 0686 7142     		rsbs	r1, r6, #0
 1005 0688 7141     		adcs	r1, r1, r6
 1006 068a 2B20     		movs	r0, #43
 1007 068c FFF7FEFF 		bl	_test_assert
 1008              	.LVL141:
 1009 0690 0028     		cmp	r0, #0
 1010 0692 7FF4ECAC 		bne	.L1
 1011              		.loc 1 211 0
 1012 0696 40F20000 		movw	r0, #:lower16:.LANCHOR0
 1013 069a C0F20000 		movt	r0, #:upper16:.LANCHOR0
 1014 069e FFF7FEFF 		bl	chMBReset
 1015              	.LVL142:
 1016              	.LBB36:
 1017              		.loc 1 216 0
 1018 06a2 2023     		movs	r3, #32
 1019              	@ 216 "../../../test/testmbox.c" 1
 1020 06a4 83F31188 		msr     BASEPRI, r3
 1021              	@ 0 "" 2
 1022              		.thumb
 1023              	.LBE36:
 1024 06a8 FFF7FEFF 		bl	dbg_check_lock
 1025              	.LVL143:
 1026 06ac 696A     		ldr	r1, [r5, #36]
ARM GAS  /tmp/cccMO0kh.s 			page 19


 1027 06ae 4C1F     		subs	r4, r1, #5
 1028 06b0 6142     		rsbs	r1, r4, #0
 1029 06b2 6141     		adcs	r1, r1, r4
 1030 06b4 2C20     		movs	r0, #44
 1031 06b6 FFF7FEFF 		bl	_test_assert
 1032              	.LVL144:
 1033 06ba 0446     		mov	r4, r0
 1034 06bc 0028     		cmp	r0, #0
 1035 06be 3CD1     		bne	.L25
 1036              		.loc 1 216 0 is_stmt 0 discriminator 2
 1037 06c0 FFF7FEFF 		bl	dbg_check_unlock
 1038              	.LVL145:
 1039              	.LBB37:
 1040 06c4 2346     		mov	r3, r4
 1041              	@ 216 "../../../test/testmbox.c" 1
 1042 06c6 83F31188 		msr     BASEPRI, r3
 1043              	@ 0 "" 2
 1044              		.thumb
 1045              	.LBE37:
 1046              	.LBB38:
 1047              		.loc 1 217 0 is_stmt 1 discriminator 2
 1048 06ca 2023     		movs	r3, #32
 1049              	@ 217 "../../../test/testmbox.c" 1
 1050 06cc 83F31188 		msr     BASEPRI, r3
 1051              	@ 0 "" 2
 1052              		.thumb
 1053              	.LBE38:
 1054 06d0 FFF7FEFF 		bl	dbg_check_lock
 1055              	.LVL146:
 1056 06d4 A969     		ldr	r1, [r5, #24]
 1057 06d6 D1F10101 		rsbs	r1, r1, #1
 1058 06da 4FF02D00 		mov	r0, #45
 1059 06de 38BF     		it	cc
 1060 06e0 0021     		movcc	r1, #0
 1061 06e2 FFF7FEFF 		bl	_test_assert
 1062              	.LVL147:
 1063 06e6 0446     		mov	r4, r0
 1064 06e8 38BB     		cbnz	r0, .L25
 1065 06ea FFF7FEFF 		bl	dbg_check_unlock
 1066              	.LVL148:
 1067              	.LBB39:
 1068 06ee 2346     		mov	r3, r4
 1069              	@ 217 "../../../test/testmbox.c" 1
 1070 06f0 83F31188 		msr     BASEPRI, r3
 1071              	@ 0 "" 2
 1072              		.thumb
 1073              	.LBE39:
 1074              	.LBB40:
 1075              		.loc 1 218 0 discriminator 2
 1076 06f4 2023     		movs	r3, #32
 1077              	@ 218 "../../../test/testmbox.c" 1
 1078 06f6 83F31188 		msr     BASEPRI, r3
 1079              	@ 0 "" 2
 1080              		.thumb
 1081              	.LBE40:
 1082 06fa FFF7FEFF 		bl	dbg_check_lock
 1083              	.LVL149:
ARM GAS  /tmp/cccMO0kh.s 			page 20


 1084 06fe 2968     		ldr	r1, [r5]
 1085 0700 AB68     		ldr	r3, [r5, #8]
 1086 0702 CA1A     		subs	r2, r1, r3
 1087 0704 5142     		rsbs	r1, r2, #0
 1088 0706 4FF02E00 		mov	r0, #46
 1089 070a 5141     		adcs	r1, r1, r2
 1090 070c FFF7FEFF 		bl	_test_assert
 1091              	.LVL150:
 1092 0710 0446     		mov	r4, r0
 1093 0712 90B9     		cbnz	r0, .L25
 1094 0714 FFF7FEFF 		bl	dbg_check_unlock
 1095              	.LVL151:
 1096              	.LBB41:
 1097 0718 2346     		mov	r3, r4
 1098              	@ 218 "../../../test/testmbox.c" 1
 1099 071a 83F31188 		msr     BASEPRI, r3
 1100              	@ 0 "" 2
 1101              		.thumb
 1102              	.LBE41:
 1103              	.LBB42:
 1104              		.loc 1 219 0 discriminator 2
 1105 071e 2023     		movs	r3, #32
 1106              	@ 219 "../../../test/testmbox.c" 1
 1107 0720 83F31188 		msr     BASEPRI, r3
 1108              	@ 0 "" 2
 1109              		.thumb
 1110              	.LBE42:
 1111 0724 FFF7FEFF 		bl	dbg_check_lock
 1112              	.LVL152:
 1113 0728 2968     		ldr	r1, [r5]
 1114 072a EB68     		ldr	r3, [r5, #12]
 1115 072c CB1A     		subs	r3, r1, r3
 1116 072e 5942     		rsbs	r1, r3, #0
 1117 0730 4FF02F00 		mov	r0, #47
 1118 0734 5941     		adcs	r1, r1, r3
 1119 0736 FFF7FEFF 		bl	_test_assert
 1120              	.LVL153:
 1121              	.L25:
 1122 073a FFF7FEFF 		bl	dbg_check_unlock
 1123              	.LVL154:
 1124              	.LBB43:
 1125 073e 0023     		movs	r3, #0
 1126              	@ 219 "../../../test/testmbox.c" 1
 1127 0740 83F31188 		msr     BASEPRI, r3
 1128              	@ 0 "" 2
 1129              		.thumb
 1130              	.LBE43:
 1131 0744 93E4     		b	.L1
 1132              		.cfi_endproc
 1133              	.LFE8:
 1134              		.size	mbox1_execute, .-mbox1_execute
 1135 0746 00BFAFF3 		.section	.text.mbox1_setup,"ax",%progbits
 1135      0080AFF3 
 1135      0080
 1136              		.align	2
 1137              		.p2align 4,,15
 1138              		.thumb
ARM GAS  /tmp/cccMO0kh.s 			page 21


 1139              		.thumb_func
 1140              		.type	mbox1_setup, %function
 1141              	mbox1_setup:
 1142              	.LFB7:
 1143              		.loc 1 71 0
 1144              		.cfi_startproc
 1145              		@ args = 0, pretend = 0, frame = 0
 1146              		@ frame_needed = 0, uses_anonymous_args = 0
 1147              		@ link register save eliminated.
 1148              		.loc 1 73 0
 1149 0000 40F20000 		movw	r0, #:lower16:.LANCHOR0
 1150 0004 40F20001 		movw	r1, #:lower16:test
 1151 0008 C0F20000 		movt	r0, #:upper16:.LANCHOR0
 1152 000c C0F20001 		movt	r1, #:upper16:test
 1153 0010 0522     		movs	r2, #5
 1154 0012 FFF7FEBF 		b	chMBInit
 1155              	.LVL155:
 1156              		.cfi_endproc
 1157              	.LFE7:
 1158              		.size	mbox1_setup, .-mbox1_setup
 1159              		.global	patternmbox
 1160              		.global	testmbox1
 1161              		.section	.data.mb1,"aw",%progbits
 1162              		.align	2
 1163              		.set	.LANCHOR0,. + 0
 1164              		.type	mb1, %object
 1165              		.size	mb1, 40
 1166              	mb1:
 1167 0000 00000000 		.word	test
 1168 0004 14000000 		.word	test+20
 1169 0008 00000000 		.word	test
 1170 000c 00000000 		.word	test
 1171 0010 10000000 		.word	mb1+16
 1172 0014 10000000 		.word	mb1+16
 1173 0018 00000000 		.word	0
 1174 001c 1C000000 		.word	mb1+28
 1175 0020 1C000000 		.word	mb1+28
 1176 0024 05000000 		.word	5
 1177              		.section	.rodata.patternmbox,"a",%progbits
 1178              		.align	2
 1179              		.type	patternmbox, %object
 1180              		.size	patternmbox, 8
 1181              	patternmbox:
 1182 0000 00000000 		.word	testmbox1
 1183 0004 00000000 		.word	0
 1184              		.section	.rodata.str1.4,"aMS",%progbits,1
 1185              		.align	2
 1186              	.LC0:
 1187 0000 41424344 		.ascii	"ABCDE\000"
 1187      4500
 1188 0006 0000     		.space	2
 1189              	.LC1:
 1190 0008 4D61696C 		.ascii	"Mailboxes, queuing and timeouts\000"
 1190      626F7865 
 1190      732C2071 
 1190      75657569 
 1190      6E672061 
ARM GAS  /tmp/cccMO0kh.s 			page 22


 1191              		.section	.rodata.testmbox1,"a",%progbits
 1192              		.align	2
 1193              		.type	testmbox1, %object
 1194              		.size	testmbox1, 16
 1195              	testmbox1:
 1196 0000 08000000 		.word	.LC1
 1197 0004 00000000 		.word	mbox1_setup
 1198 0008 00000000 		.word	0
 1199 000c 00000000 		.word	mbox1_execute
 1200              		.text
 1201              	.Letext0:
 1202              		.file 2 "/usr/include/newlib/machine/_default_types.h"
 1203              		.file 3 "/usr/include/newlib/stdint.h"
 1204              		.file 4 "../../../os/ports/GCC/ARMCMx/chtypes.h"
 1205              		.file 5 "../../../os/kernel/include/chlists.h"
 1206              		.file 6 "../../../os/kernel/include/chthreads.h"
 1207              		.file 7 "../../../os/ports/GCC/ARMCMx/chcore_v7m.h"
 1208              		.file 8 "../../../os/kernel/include/chsem.h"
 1209              		.file 9 "../../../os/kernel/include/chmtx.h"
 1210              		.file 10 "../../../os/kernel/include/chmboxes.h"
 1211              		.file 11 "../../../test/test.h"
 1212              		.file 12 "../../../os/kernel/include/chdebug.h"