ARM GAS  /tmp/ccE8ADpL.s 			page 1


   1              		.syntax unified
   2              		.cpu cortex-m4
   3              		.fpu softvfp
   4              		.eabi_attribute 20, 1
   5              		.eabi_attribute 21, 1
   6              		.eabi_attribute 23, 3
   7              		.eabi_attribute 24, 1
   8              		.eabi_attribute 25, 1
   9              		.eabi_attribute 26, 1
  10              		.eabi_attribute 30, 2
  11              		.eabi_attribute 34, 1
  12              		.eabi_attribute 18, 4
  13              		.thumb
  14              		.file	"testbmk.c"
  15              		.text
  16              	.Ltext0:
  17              		.cfi_sections	.debug_frame
  18              		.section	.text.thread2,"ax",%progbits
  19              		.align	2
  20              		.p2align 4,,15
  21              		.thumb
  22              		.thumb_func
  23              		.type	thread2, %function
  24              	thread2:
  25              	.LFB11:
  26              		.file 1 "../../../test/testbmk.c"
  27              		.loc 1 154 0
  28              		.cfi_startproc
  29              		@ args = 0, pretend = 0, frame = 0
  30              		@ frame_needed = 0, uses_anonymous_args = 0
  31              		@ link register save eliminated.
  32              	.LVL0:
  33              		.loc 1 157 0
  34 0000 7047     		bx	lr
  35              		.cfi_endproc
  36              	.LFE11:
  37              		.size	thread2, .-thread2
  38 0002 00BFAFF3 		.section	.text.tmo,"ax",%progbits
  38      0080AFF3 
  38      0080AFF3 
  38      0080
  39              		.align	2
  40              		.p2align 4,,15
  41              		.thumb
  42              		.thumb_func
  43              		.type	tmo, %function
  44              	tmo:
  45              	.LFB23:
  46              		.loc 1 502 0
  47              		.cfi_startproc
  48              		@ args = 0, pretend = 0, frame = 0
  49              		@ frame_needed = 0, uses_anonymous_args = 0
  50              		@ link register save eliminated.
  51              	.LVL1:
  52 0000 7047     		bx	lr
  53              		.cfi_endproc
  54              	.LFE23:
ARM GAS  /tmp/ccE8ADpL.s 			page 2


  55              		.size	tmo, .-tmo
  56 0002 00BFAFF3 		.section	.text.bmk13_execute,"ax",%progbits
  56      0080AFF3 
  56      0080AFF3 
  56      0080
  57              		.align	2
  58              		.p2align 4,,15
  59              		.thumb
  60              		.thumb_func
  61              		.type	bmk13_execute, %function
  62              	bmk13_execute:
  63              	.LFB29:
  64              		.loc 1 637 0
  65              		.cfi_startproc
  66              		@ args = 0, pretend = 0, frame = 0
  67              		@ frame_needed = 0, uses_anonymous_args = 0
  68              		.loc 1 639 0
  69 0000 40F20000 		movw	r0, #:lower16:.LC0
  70              		.loc 1 637 0
  71 0004 10B5     		push	{r4, lr}
  72              		.cfi_def_cfa_offset 8
  73              		.cfi_offset 4, -8
  74              		.cfi_offset 14, -4
  75              		.loc 1 639 0
  76 0006 C0F20000 		movt	r0, #:upper16:.LC0
  77              		.loc 1 645 0
  78 000a 40F20004 		movw	r4, #:lower16:.LC1
  79 000e C0F20004 		movt	r4, #:upper16:.LC1
  80              		.loc 1 639 0
  81 0012 FFF7FEFF 		bl	test_print
  82              	.LVL2:
  83              		.loc 1 640 0
  84 0016 4FF4EE70 		mov	r0, #476
  85 001a FFF7FEFF 		bl	test_printn
  86              	.LVL3:
  87              		.loc 1 645 0
  88 001e 2046     		mov	r0, r4
  89 0020 FFF7FEFF 		bl	test_println
  90              	.LVL4:
  91              		.loc 1 646 0
  92 0024 40F20000 		movw	r0, #:lower16:.LC2
  93 0028 C0F20000 		movt	r0, #:upper16:.LC2
  94 002c FFF7FEFF 		bl	test_print
  95              	.LVL5:
  96              		.loc 1 647 0
  97 0030 4C20     		movs	r0, #76
  98 0032 FFF7FEFF 		bl	test_printn
  99              	.LVL6:
 100              		.loc 1 648 0
 101 0036 2046     		mov	r0, r4
 102 0038 FFF7FEFF 		bl	test_println
 103              	.LVL7:
 104              		.loc 1 649 0
 105 003c 40F20000 		movw	r0, #:lower16:.LC3
 106 0040 C0F20000 		movt	r0, #:upper16:.LC3
 107 0044 FFF7FEFF 		bl	test_print
 108              	.LVL8:
ARM GAS  /tmp/ccE8ADpL.s 			page 3


 109              		.loc 1 650 0
 110 0048 1420     		movs	r0, #20
 111 004a FFF7FEFF 		bl	test_printn
 112              	.LVL9:
 113              		.loc 1 651 0
 114 004e 2046     		mov	r0, r4
 115 0050 FFF7FEFF 		bl	test_println
 116              	.LVL10:
 117              		.loc 1 653 0
 118 0054 40F20000 		movw	r0, #:lower16:.LC4
 119 0058 C0F20000 		movt	r0, #:upper16:.LC4
 120 005c FFF7FEFF 		bl	test_print
 121              	.LVL11:
 122              		.loc 1 654 0
 123 0060 0C20     		movs	r0, #12
 124 0062 FFF7FEFF 		bl	test_printn
 125              	.LVL12:
 126              		.loc 1 655 0
 127 0066 2046     		mov	r0, r4
 128 0068 FFF7FEFF 		bl	test_println
 129              	.LVL13:
 130              		.loc 1 658 0
 131 006c 40F20000 		movw	r0, #:lower16:.LC5
 132 0070 C0F20000 		movt	r0, #:upper16:.LC5
 133 0074 FFF7FEFF 		bl	test_print
 134              	.LVL14:
 135              		.loc 1 659 0
 136 0078 0420     		movs	r0, #4
 137 007a FFF7FEFF 		bl	test_printn
 138              	.LVL15:
 139              		.loc 1 660 0
 140 007e 2046     		mov	r0, r4
 141 0080 FFF7FEFF 		bl	test_println
 142              	.LVL16:
 143              		.loc 1 661 0
 144 0084 40F20000 		movw	r0, #:lower16:.LC6
 145 0088 C0F20000 		movt	r0, #:upper16:.LC6
 146 008c FFF7FEFF 		bl	test_print
 147              	.LVL17:
 148              		.loc 1 662 0
 149 0090 1020     		movs	r0, #16
 150 0092 FFF7FEFF 		bl	test_printn
 151              	.LVL18:
 152              		.loc 1 663 0
 153 0096 2046     		mov	r0, r4
 154 0098 FFF7FEFF 		bl	test_println
 155              	.LVL19:
 156              		.loc 1 666 0
 157 009c 40F20000 		movw	r0, #:lower16:.LC7
 158 00a0 C0F20000 		movt	r0, #:upper16:.LC7
 159 00a4 FFF7FEFF 		bl	test_print
 160              	.LVL20:
 161              		.loc 1 667 0
 162 00a8 1020     		movs	r0, #16
 163 00aa FFF7FEFF 		bl	test_printn
 164              	.LVL21:
 165              		.loc 1 668 0
ARM GAS  /tmp/ccE8ADpL.s 			page 4


 166 00ae 2046     		mov	r0, r4
 167 00b0 FFF7FEFF 		bl	test_println
 168              	.LVL22:
 169              		.loc 1 671 0
 170 00b4 40F20000 		movw	r0, #:lower16:.LC8
 171 00b8 C0F20000 		movt	r0, #:upper16:.LC8
 172 00bc FFF7FEFF 		bl	test_print
 173              	.LVL23:
 174              		.loc 1 672 0
 175 00c0 0820     		movs	r0, #8
 176 00c2 FFF7FEFF 		bl	test_printn
 177              	.LVL24:
 178              		.loc 1 673 0
 179 00c6 2046     		mov	r0, r4
 180 00c8 FFF7FEFF 		bl	test_println
 181              	.LVL25:
 182              		.loc 1 676 0
 183 00cc 40F20000 		movw	r0, #:lower16:.LC9
 184 00d0 C0F20000 		movt	r0, #:upper16:.LC9
 185 00d4 FFF7FEFF 		bl	test_print
 186              	.LVL26:
 187              		.loc 1 677 0
 188 00d8 2420     		movs	r0, #36
 189 00da FFF7FEFF 		bl	test_printn
 190              	.LVL27:
 191              		.loc 1 678 0
 192 00de 2046     		mov	r0, r4
 193 00e0 FFF7FEFF 		bl	test_println
 194              	.LVL28:
 195              		.loc 1 681 0
 196 00e4 40F20000 		movw	r0, #:lower16:.LC10
 197 00e8 C0F20000 		movt	r0, #:upper16:.LC10
 198 00ec FFF7FEFF 		bl	test_print
 199              	.LVL29:
 200              		.loc 1 682 0
 201 00f0 2820     		movs	r0, #40
 202 00f2 FFF7FEFF 		bl	test_printn
 203              	.LVL30:
 204              		.loc 1 683 0
 205 00f6 2046     		mov	r0, r4
 206              		.loc 1 685 0
 207 00f8 BDE81040 		pop	{r4, lr}
 208              		.loc 1 683 0
 209 00fc FFF7FEBF 		b	test_println
 210              	.LVL31:
 211              		.cfi_endproc
 212              	.LFE29:
 213              		.size	bmk13_execute, .-bmk13_execute
 214              		.section	.text.thread1,"ax",%progbits
 215              		.align	2
 216              		.p2align 4,,15
 217              		.thumb
 218              		.thumb_func
 219              		.type	thread1, %function
 220              	thread1:
 221              	.LFB7:
 222              		.loc 1 64 0
ARM GAS  /tmp/ccE8ADpL.s 			page 5


 223              		.cfi_startproc
 224              		@ args = 0, pretend = 0, frame = 0
 225              		@ frame_needed = 0, uses_anonymous_args = 0
 226              	.LVL32:
 227 0000 10B5     		push	{r4, lr}
 228              		.cfi_def_cfa_offset 8
 229              		.cfi_offset 4, -8
 230              		.cfi_offset 14, -4
 231              	.LVL33:
 232              	.L6:
 233              		.loc 1 70 0 discriminator 1
 234 0002 FFF7FEFF 		bl	chMsgWait
 235              	.LVL34:
 236              		.loc 1 71 0 discriminator 1
 237 0006 846B     		ldr	r4, [r0, #56]
 238              	.LVL35:
 239              		.loc 1 72 0 discriminator 1
 240 0008 2146     		mov	r1, r4
 241 000a FFF7FEFF 		bl	chMsgRelease
 242              	.LVL36:
 243              		.loc 1 73 0 discriminator 1
 244 000e 002C     		cmp	r4, #0
 245 0010 F7D1     		bne	.L6
 246              		.loc 1 75 0
 247 0012 2046     		mov	r0, r4
 248 0014 10BD     		pop	{r4, pc}
 249              		.cfi_endproc
 250              	.LFE7:
 251              		.size	thread1, .-thread1
 252 0016 00BFAFF3 		.section	.text.bmk6_execute,"ax",%progbits
 252      0080AFF3 
 252      0080
 253              		.align	2
 254              		.p2align 4,,15
 255              		.thumb
 256              		.thumb_func
 257              		.type	bmk6_execute, %function
 258              	bmk6_execute:
 259              	.LFB16:
 260              		.loc 1 304 0
 261              		.cfi_startproc
 262              		@ args = 0, pretend = 0, frame = 0
 263              		@ frame_needed = 0, uses_anonymous_args = 0
 264              	.LVL37:
 265 0000 2DE9F041 		push	{r4, r5, r6, r7, r8, lr}
 266              		.cfi_def_cfa_offset 24
 267              		.cfi_offset 4, -24
 268              		.cfi_offset 5, -20
 269              		.cfi_offset 6, -16
 270              		.cfi_offset 7, -12
 271              		.cfi_offset 8, -8
 272              		.cfi_offset 14, -4
 273              		.loc 1 308 0
 274 0004 40F20002 		movw	r2, #:lower16:rlist
 275 0008 C0F20002 		movt	r2, #:upper16:rlist
 276              		.loc 1 307 0
 277 000c 40F20003 		movw	r3, #:lower16:wa
ARM GAS  /tmp/ccE8ADpL.s 			page 6


 278              		.loc 1 308 0
 279 0010 9269     		ldr	r2, [r2, #24]
 280              		.loc 1 307 0
 281 0012 C0F20003 		movt	r3, #:upper16:wa
 282              		.loc 1 304 0
 283 0016 82B0     		sub	sp, sp, #8
 284              		.cfi_def_cfa_offset 32
 285              		.loc 1 308 0
 286 0018 9768     		ldr	r7, [r2, #8]
 287              		.loc 1 307 0
 288 001a D3F80080 		ldr	r8, [r3]
 289              	.LVL38:
 290              		.loc 1 309 0
 291 001e FFF7FEFF 		bl	test_wait_tick
 292              	.LVL39:
 293              		.loc 1 310 0
 294 0022 4FF47A70 		mov	r0, #1000
 295 0026 FFF7FEFF 		bl	test_start_timer
 296              	.LVL40:
 297              		.loc 1 306 0
 298 002a 0024     		movs	r4, #0
 299 002c 40F20005 		movw	r5, #:lower16:test_timer_done
 300              		.loc 1 308 0
 301 0030 0137     		adds	r7, r7, #1
 302              	.LVL41:
 303              		.loc 1 312 0
 304 0032 2646     		mov	r6, r4
 305 0034 C0F20005 		movt	r5, #:upper16:test_timer_done
 306              	.LVL42:
 307              	.L10:
 308              		.loc 1 312 0 is_stmt 0 discriminator 1
 309 0038 40F20003 		movw	r3, #:lower16:thread2
 310 003c C0F20003 		movt	r3, #:upper16:thread2
 311 0040 0096     		str	r6, [sp]
 312 0042 4046     		mov	r0, r8
 313 0044 4FF4A871 		mov	r1, #336
 314 0048 3A46     		mov	r2, r7
 315 004a FFF7FEFF 		bl	chThdCreateStatic
 316              	.LVL43:
 317              		.loc 1 317 0 is_stmt 1 discriminator 1
 318 004e 2B78     		ldrb	r3, [r5]	@ zero_extendqisi2
 319              		.loc 1 313 0 discriminator 1
 320 0050 0134     		adds	r4, r4, #1
 321              	.LVL44:
 322              		.loc 1 317 0 discriminator 1
 323 0052 002B     		cmp	r3, #0
 324 0054 F0D0     		beq	.L10
 325              		.loc 1 318 0
 326 0056 40F20000 		movw	r0, #:lower16:.LC11
 327 005a C0F20000 		movt	r0, #:upper16:.LC11
 328 005e FFF7FEFF 		bl	test_print
 329              	.LVL45:
 330              		.loc 1 319 0
 331 0062 2046     		mov	r0, r4
 332 0064 FFF7FEFF 		bl	test_printn
 333              	.LVL46:
 334              		.loc 1 320 0
ARM GAS  /tmp/ccE8ADpL.s 			page 7


 335 0068 40F20000 		movw	r0, #:lower16:.LC12
 336 006c C0F20000 		movt	r0, #:upper16:.LC12
 337              		.loc 1 321 0
 338 0070 02B0     		add	sp, sp, #8
 339              		@ sp needed
 340 0072 BDE8F041 		pop	{r4, r5, r6, r7, r8, lr}
 341              	.LVL47:
 342              		.loc 1 320 0
 343 0076 FFF7FEBF 		b	test_println
 344              	.LVL48:
 345              		.cfi_endproc
 346              	.LFE16:
 347              		.size	bmk6_execute, .-bmk6_execute
 348 007a 00BFAFF3 		.section	.text.msg_loop_test,"ax",%progbits
 348      0080
 349              		.align	2
 350              		.p2align 4,,15
 351              		.thumb
 352              		.thumb_func
 353              		.type	msg_loop_test, %function
 354              	msg_loop_test:
 355              	.LFB8:
 356              		.loc 1 80 0
 357              		.cfi_startproc
 358              		@ args = 0, pretend = 0, frame = 0
 359              		@ frame_needed = 0, uses_anonymous_args = 0
 360              	.LVL49:
 361 0000 70B5     		push	{r4, r5, r6, lr}
 362              		.cfi_def_cfa_offset 16
 363              		.cfi_offset 4, -16
 364              		.cfi_offset 5, -12
 365              		.cfi_offset 6, -8
 366              		.cfi_offset 14, -4
 367              		.loc 1 80 0
 368 0002 0646     		mov	r6, r0
 369              		.loc 1 83 0
 370 0004 FFF7FEFF 		bl	test_wait_tick
 371              	.LVL50:
 372              		.loc 1 84 0
 373 0008 4FF47A70 		mov	r0, #1000
 374 000c FFF7FEFF 		bl	test_start_timer
 375              	.LVL51:
 376 0010 40F20005 		movw	r5, #:lower16:test_timer_done
 377 0014 C0F20005 		movt	r5, #:upper16:test_timer_done
 378              		.loc 1 82 0
 379 0018 0024     		movs	r4, #0
 380              	.LVL52:
 381              	.L13:
 382              		.loc 1 86 0 discriminator 1
 383 001a 3046     		mov	r0, r6
 384 001c 0121     		movs	r1, #1
 385 001e FFF7FEFF 		bl	chMsgSend
 386              	.LVL53:
 387              		.loc 1 91 0 discriminator 1
 388 0022 2B78     		ldrb	r3, [r5]	@ zero_extendqisi2
 389              		.loc 1 87 0 discriminator 1
 390 0024 0134     		adds	r4, r4, #1
ARM GAS  /tmp/ccE8ADpL.s 			page 8


 391              	.LVL54:
 392              		.loc 1 91 0 discriminator 1
 393 0026 002B     		cmp	r3, #0
 394 0028 F7D0     		beq	.L13
 395              		.loc 1 92 0
 396 002a 3046     		mov	r0, r6
 397 002c 0021     		movs	r1, #0
 398 002e FFF7FEFF 		bl	chMsgSend
 399              	.LVL55:
 400              		.loc 1 94 0
 401 0032 2046     		mov	r0, r4
 402 0034 70BD     		pop	{r4, r5, r6, pc}
 403              		.cfi_endproc
 404              	.LFE8:
 405              		.size	msg_loop_test, .-msg_loop_test
 406 0036 00BFAFF3 		.section	.text.bmk1_execute,"ax",%progbits
 406      0080AFF3 
 406      0080
 407              		.align	2
 408              		.p2align 4,,15
 409              		.thumb
 410              		.thumb_func
 411              		.type	bmk1_execute, %function
 412              	bmk1_execute:
 413              	.LFB9:
 414              		.loc 1 105 0
 415              		.cfi_startproc
 416              		@ args = 0, pretend = 0, frame = 0
 417              		@ frame_needed = 0, uses_anonymous_args = 0
 418 0000 10B5     		push	{r4, lr}
 419              		.cfi_def_cfa_offset 8
 420              		.cfi_offset 4, -8
 421              		.cfi_offset 14, -4
 422              		.loc 1 108 0
 423 0002 40F20002 		movw	r2, #:lower16:rlist
 424 0006 C0F20002 		movt	r2, #:upper16:rlist
 425 000a 40F20003 		movw	r3, #:lower16:wa
 426 000e 9269     		ldr	r2, [r2, #24]
 427 0010 C0F20003 		movt	r3, #:upper16:wa
 428              		.loc 1 105 0
 429 0014 82B0     		sub	sp, sp, #8
 430              		.cfi_def_cfa_offset 16
 431              		.loc 1 108 0
 432 0016 9268     		ldr	r2, [r2, #8]
 433 0018 1868     		ldr	r0, [r3]
 434 001a 0021     		movs	r1, #0
 435 001c 40F20003 		movw	r3, #:lower16:thread1
 436 0020 013A     		subs	r2, r2, #1
 437 0022 0091     		str	r1, [sp]
 438 0024 C0F20003 		movt	r3, #:upper16:thread1
 439 0028 4FF4A871 		mov	r1, #336
 440 002c FFF7FEFF 		bl	chThdCreateStatic
 441              	.LVL56:
 442 0030 40F20003 		movw	r3, #:lower16:threads
 443 0034 C0F20003 		movt	r3, #:upper16:threads
 444 0038 1860     		str	r0, [r3]
 445              		.loc 1 109 0
ARM GAS  /tmp/ccE8ADpL.s 			page 9


 446 003a FFF7FEFF 		bl	msg_loop_test
 447              	.LVL57:
 448 003e 0446     		mov	r4, r0
 449              	.LVL58:
 450              		.loc 1 110 0
 451 0040 FFF7FEFF 		bl	test_wait_threads
 452              	.LVL59:
 453              		.loc 1 111 0
 454 0044 40F20000 		movw	r0, #:lower16:.LC11
 455 0048 C0F20000 		movt	r0, #:upper16:.LC11
 456 004c FFF7FEFF 		bl	test_print
 457              	.LVL60:
 458              		.loc 1 112 0
 459 0050 2046     		mov	r0, r4
 460 0052 FFF7FEFF 		bl	test_printn
 461              	.LVL61:
 462              		.loc 1 113 0
 463 0056 40F20000 		movw	r0, #:lower16:.LC13
 464 005a C0F20000 		movt	r0, #:upper16:.LC13
 465 005e FFF7FEFF 		bl	test_print
 466              	.LVL62:
 467              		.loc 1 114 0
 468 0062 6000     		lsls	r0, r4, #1
 469 0064 FFF7FEFF 		bl	test_printn
 470              	.LVL63:
 471              		.loc 1 115 0
 472 0068 40F20000 		movw	r0, #:lower16:.LC14
 473 006c C0F20000 		movt	r0, #:upper16:.LC14
 474              		.loc 1 116 0
 475 0070 02B0     		add	sp, sp, #8
 476              		@ sp needed
 477 0072 BDE81040 		pop	{r4, lr}
 478              	.LVL64:
 479              		.loc 1 115 0
 480 0076 FFF7FEBF 		b	test_println
 481              	.LVL65:
 482              		.cfi_endproc
 483              	.LFE9:
 484              		.size	bmk1_execute, .-bmk1_execute
 485 007a 00BFAFF3 		.section	.text.bmk2_execute,"ax",%progbits
 485      0080
 486              		.align	2
 487              		.p2align 4,,15
 488              		.thumb
 489              		.thumb_func
 490              		.type	bmk2_execute, %function
 491              	bmk2_execute:
 492              	.LFB10:
 493              		.loc 1 134 0
 494              		.cfi_startproc
 495              		@ args = 0, pretend = 0, frame = 0
 496              		@ frame_needed = 0, uses_anonymous_args = 0
 497 0000 10B5     		push	{r4, lr}
 498              		.cfi_def_cfa_offset 8
 499              		.cfi_offset 4, -8
 500              		.cfi_offset 14, -4
 501              		.loc 1 137 0
ARM GAS  /tmp/ccE8ADpL.s 			page 10


 502 0002 40F20002 		movw	r2, #:lower16:rlist
 503 0006 C0F20002 		movt	r2, #:upper16:rlist
 504 000a 40F20003 		movw	r3, #:lower16:wa
 505 000e 9269     		ldr	r2, [r2, #24]
 506 0010 C0F20003 		movt	r3, #:upper16:wa
 507              		.loc 1 134 0
 508 0014 82B0     		sub	sp, sp, #8
 509              		.cfi_def_cfa_offset 16
 510              		.loc 1 137 0
 511 0016 9268     		ldr	r2, [r2, #8]
 512 0018 1868     		ldr	r0, [r3]
 513 001a 0021     		movs	r1, #0
 514 001c 40F20003 		movw	r3, #:lower16:thread1
 515 0020 0132     		adds	r2, r2, #1
 516 0022 0091     		str	r1, [sp]
 517 0024 C0F20003 		movt	r3, #:upper16:thread1
 518 0028 4FF4A871 		mov	r1, #336
 519 002c FFF7FEFF 		bl	chThdCreateStatic
 520              	.LVL66:
 521 0030 40F20003 		movw	r3, #:lower16:threads
 522 0034 C0F20003 		movt	r3, #:upper16:threads
 523 0038 1860     		str	r0, [r3]
 524              		.loc 1 138 0
 525 003a FFF7FEFF 		bl	msg_loop_test
 526              	.LVL67:
 527 003e 0446     		mov	r4, r0
 528              	.LVL68:
 529              		.loc 1 139 0
 530 0040 FFF7FEFF 		bl	test_wait_threads
 531              	.LVL69:
 532              		.loc 1 140 0
 533 0044 40F20000 		movw	r0, #:lower16:.LC11
 534 0048 C0F20000 		movt	r0, #:upper16:.LC11
 535 004c FFF7FEFF 		bl	test_print
 536              	.LVL70:
 537              		.loc 1 141 0
 538 0050 2046     		mov	r0, r4
 539 0052 FFF7FEFF 		bl	test_printn
 540              	.LVL71:
 541              		.loc 1 142 0
 542 0056 40F20000 		movw	r0, #:lower16:.LC13
 543 005a C0F20000 		movt	r0, #:upper16:.LC13
 544 005e FFF7FEFF 		bl	test_print
 545              	.LVL72:
 546              		.loc 1 143 0
 547 0062 6000     		lsls	r0, r4, #1
 548 0064 FFF7FEFF 		bl	test_printn
 549              	.LVL73:
 550              		.loc 1 144 0
 551 0068 40F20000 		movw	r0, #:lower16:.LC14
 552 006c C0F20000 		movt	r0, #:upper16:.LC14
 553              		.loc 1 145 0
 554 0070 02B0     		add	sp, sp, #8
 555              		@ sp needed
 556 0072 BDE81040 		pop	{r4, lr}
 557              	.LVL74:
 558              		.loc 1 144 0
ARM GAS  /tmp/ccE8ADpL.s 			page 11


 559 0076 FFF7FEBF 		b	test_println
 560              	.LVL75:
 561              		.cfi_endproc
 562              	.LFE10:
 563              		.size	bmk2_execute, .-bmk2_execute
 564 007a 00BFAFF3 		.section	.text.bmk3_execute,"ax",%progbits
 564      0080
 565              		.align	2
 566              		.p2align 4,,15
 567              		.thumb
 568              		.thumb_func
 569              		.type	bmk3_execute, %function
 570              	bmk3_execute:
 571              	.LFB12:
 572              		.loc 1 169 0
 573              		.cfi_startproc
 574              		@ args = 0, pretend = 0, frame = 0
 575              		@ frame_needed = 0, uses_anonymous_args = 0
 576 0000 2DE9F041 		push	{r4, r5, r6, r7, r8, lr}
 577              		.cfi_def_cfa_offset 24
 578              		.cfi_offset 4, -24
 579              		.cfi_offset 5, -20
 580              		.cfi_offset 6, -16
 581              		.cfi_offset 7, -12
 582              		.cfi_offset 8, -8
 583              		.cfi_offset 14, -4
 584              		.loc 1 172 0
 585 0004 40F20006 		movw	r6, #:lower16:rlist
 586 0008 C0F20006 		movt	r6, #:upper16:rlist
 587 000c 40F20005 		movw	r5, #:lower16:wa
 588 0010 B369     		ldr	r3, [r6, #24]
 589              		.loc 1 169 0
 590 0012 82B0     		sub	sp, sp, #8
 591              		.cfi_def_cfa_offset 32
 592              		.loc 1 172 0
 593 0014 C0F20005 		movt	r5, #:upper16:wa
 594 0018 9A68     		ldr	r2, [r3, #8]
 595 001a 2868     		ldr	r0, [r5]
 596 001c 4FF00008 		mov	r8, #0
 597 0020 40F20003 		movw	r3, #:lower16:thread1
 598 0024 0132     		adds	r2, r2, #1
 599 0026 CDF80080 		str	r8, [sp]
 600 002a C0F20003 		movt	r3, #:upper16:thread1
 601 002e 4FF4A871 		mov	r1, #336
 602 0032 FFF7FEFF 		bl	chThdCreateStatic
 603              	.LVL76:
 604              		.loc 1 173 0
 605 0036 B269     		ldr	r2, [r6, #24]
 606 0038 6B68     		ldr	r3, [r5, #4]
 607 003a 9268     		ldr	r2, [r2, #8]
 608 003c CDF80080 		str	r8, [sp]
 609              		.loc 1 172 0
 610 0040 40F20004 		movw	r4, #:lower16:threads
 611 0044 C0F20004 		movt	r4, #:upper16:threads
 612              		.loc 1 173 0
 613 0048 40F20007 		movw	r7, #:lower16:thread2
 614 004c C0F20007 		movt	r7, #:upper16:thread2
ARM GAS  /tmp/ccE8ADpL.s 			page 12


 615              		.loc 1 172 0
 616 0050 2060     		str	r0, [r4]
 617              		.loc 1 173 0
 618 0052 023A     		subs	r2, r2, #2
 619 0054 1846     		mov	r0, r3
 620 0056 4FF4A871 		mov	r1, #336
 621 005a 3B46     		mov	r3, r7
 622 005c FFF7FEFF 		bl	chThdCreateStatic
 623              	.LVL77:
 624              		.loc 1 174 0
 625 0060 B269     		ldr	r2, [r6, #24]
 626 0062 AB68     		ldr	r3, [r5, #8]
 627 0064 9268     		ldr	r2, [r2, #8]
 628              		.loc 1 173 0
 629 0066 6060     		str	r0, [r4, #4]
 630              		.loc 1 174 0
 631 0068 033A     		subs	r2, r2, #3
 632 006a CDF80080 		str	r8, [sp]
 633 006e 1846     		mov	r0, r3
 634 0070 4FF4A871 		mov	r1, #336
 635 0074 3B46     		mov	r3, r7
 636 0076 FFF7FEFF 		bl	chThdCreateStatic
 637              	.LVL78:
 638              		.loc 1 175 0
 639 007a B269     		ldr	r2, [r6, #24]
 640 007c EB68     		ldr	r3, [r5, #12]
 641 007e 9268     		ldr	r2, [r2, #8]
 642              		.loc 1 174 0
 643 0080 A060     		str	r0, [r4, #8]
 644              		.loc 1 175 0
 645 0082 043A     		subs	r2, r2, #4
 646 0084 CDF80080 		str	r8, [sp]
 647 0088 1846     		mov	r0, r3
 648 008a 4FF4A871 		mov	r1, #336
 649 008e 3B46     		mov	r3, r7
 650 0090 FFF7FEFF 		bl	chThdCreateStatic
 651              	.LVL79:
 652              		.loc 1 176 0
 653 0094 B269     		ldr	r2, [r6, #24]
 654 0096 2B69     		ldr	r3, [r5, #16]
 655 0098 9268     		ldr	r2, [r2, #8]
 656              		.loc 1 175 0
 657 009a E060     		str	r0, [r4, #12]
 658              		.loc 1 176 0
 659 009c 053A     		subs	r2, r2, #5
 660 009e 4FF4A871 		mov	r1, #336
 661 00a2 1846     		mov	r0, r3
 662 00a4 CDF80080 		str	r8, [sp]
 663 00a8 3B46     		mov	r3, r7
 664 00aa FFF7FEFF 		bl	chThdCreateStatic
 665              	.LVL80:
 666 00ae 2061     		str	r0, [r4, #16]
 667              		.loc 1 177 0
 668 00b0 2068     		ldr	r0, [r4]
 669 00b2 FFF7FEFF 		bl	msg_loop_test
 670              	.LVL81:
 671 00b6 0446     		mov	r4, r0
ARM GAS  /tmp/ccE8ADpL.s 			page 13


 672              	.LVL82:
 673              		.loc 1 178 0
 674 00b8 FFF7FEFF 		bl	test_wait_threads
 675              	.LVL83:
 676              		.loc 1 179 0
 677 00bc 40F20000 		movw	r0, #:lower16:.LC11
 678 00c0 C0F20000 		movt	r0, #:upper16:.LC11
 679 00c4 FFF7FEFF 		bl	test_print
 680              	.LVL84:
 681              		.loc 1 180 0
 682 00c8 2046     		mov	r0, r4
 683 00ca FFF7FEFF 		bl	test_printn
 684              	.LVL85:
 685              		.loc 1 181 0
 686 00ce 40F20000 		movw	r0, #:lower16:.LC13
 687 00d2 C0F20000 		movt	r0, #:upper16:.LC13
 688 00d6 FFF7FEFF 		bl	test_print
 689              	.LVL86:
 690              		.loc 1 182 0
 691 00da 6000     		lsls	r0, r4, #1
 692 00dc FFF7FEFF 		bl	test_printn
 693              	.LVL87:
 694              		.loc 1 183 0
 695 00e0 40F20000 		movw	r0, #:lower16:.LC14
 696 00e4 C0F20000 		movt	r0, #:upper16:.LC14
 697              		.loc 1 184 0
 698 00e8 02B0     		add	sp, sp, #8
 699              		@ sp needed
 700 00ea BDE8F041 		pop	{r4, r5, r6, r7, r8, lr}
 701              	.LVL88:
 702              		.loc 1 183 0
 703 00ee FFF7FEBF 		b	test_println
 704              	.LVL89:
 705              		.cfi_endproc
 706              	.LFE12:
 707              		.size	bmk3_execute, .-bmk3_execute
 708 00f2 00BFAFF3 		.section	.text.thread4,"ax",%progbits
 708      0080AFF3 
 708      0080AFF3 
 708      0080
 709              		.align	2
 710              		.p2align 4,,15
 711              		.global	thread4
 712              		.thumb
 713              		.thumb_func
 714              		.type	thread4, %function
 715              	thread4:
 716              	.LFB13:
 717              		.loc 1 203 0
 718              		.cfi_startproc
 719              		@ args = 0, pretend = 0, frame = 0
 720              		@ frame_needed = 0, uses_anonymous_args = 0
 721              	.LVL90:
 722              		.loc 1 205 0
 723 0000 40F20002 		movw	r2, #:lower16:rlist
 724 0004 C0F20002 		movt	r2, #:upper16:rlist
 725              		.loc 1 203 0
ARM GAS  /tmp/ccE8ADpL.s 			page 14


 726 0008 10B5     		push	{r4, lr}
 727              		.cfi_def_cfa_offset 8
 728              		.cfi_offset 4, -8
 729              		.cfi_offset 14, -4
 730              	.LBB2:
 731              		.loc 1 208 0
 732 000a 2023     		movs	r3, #32
 733              	.LBE2:
 734              		.loc 1 205 0
 735 000c 9469     		ldr	r4, [r2, #24]
 736              	.LVL91:
 737              	.LBB3:
 738              		.loc 1 208 0
 739              	@ 208 "../../../test/testbmk.c" 1
 740 000e 83F31188 		msr     BASEPRI, r3
 741              	@ 0 "" 2
 742              		.thumb
 743              	.LBE3:
 744 0012 FFF7FEFF 		bl	dbg_check_lock
 745              	.LVL92:
 746              	.L19:
 747              		.loc 1 210 0 discriminator 1
 748 0016 0220     		movs	r0, #2
 749 0018 FFF7FEFF 		bl	chSchGoSleepS
 750              	.LVL93:
 751              		.loc 1 212 0 discriminator 1
 752 001c A36A     		ldr	r3, [r4, #40]
 753 001e 002B     		cmp	r3, #0
 754 0020 F9D0     		beq	.L19
 755              		.loc 1 213 0
 756 0022 FFF7FEFF 		bl	dbg_check_unlock
 757              	.LVL94:
 758              	.LBB4:
 759 0026 0023     		movs	r3, #0
 760              	@ 213 "../../../test/testbmk.c" 1
 761 0028 83F31188 		msr     BASEPRI, r3
 762              	@ 0 "" 2
 763              		.thumb
 764              	.LBE4:
 765              		.loc 1 215 0
 766 002c 0020     		movs	r0, #0
 767 002e 10BD     		pop	{r4, pc}
 768              		.cfi_endproc
 769              	.LFE13:
 770              		.size	thread4, .-thread4
 771              		.section	.text.bmk4_execute,"ax",%progbits
 772              		.align	2
 773              		.p2align 4,,15
 774              		.thumb
 775              		.thumb_func
 776              		.type	bmk4_execute, %function
 777              	bmk4_execute:
 778              	.LFB14:
 779              		.loc 1 217 0
 780              		.cfi_startproc
 781              		@ args = 0, pretend = 0, frame = 0
 782              		@ frame_needed = 0, uses_anonymous_args = 0
ARM GAS  /tmp/ccE8ADpL.s 			page 15


 783 0000 70B5     		push	{r4, r5, r6, lr}
 784              		.cfi_def_cfa_offset 16
 785              		.cfi_offset 4, -16
 786              		.cfi_offset 5, -12
 787              		.cfi_offset 6, -8
 788              		.cfi_offset 14, -4
 789              		.loc 1 221 0
 790 0002 40F20002 		movw	r2, #:lower16:rlist
 791 0006 C0F20002 		movt	r2, #:upper16:rlist
 792 000a 40F20003 		movw	r3, #:lower16:wa
 793 000e 9269     		ldr	r2, [r2, #24]
 794 0010 C0F20003 		movt	r3, #:upper16:wa
 795              		.loc 1 217 0
 796 0014 82B0     		sub	sp, sp, #8
 797              		.cfi_def_cfa_offset 24
 798              		.loc 1 221 0
 799 0016 9268     		ldr	r2, [r2, #8]
 800 0018 1868     		ldr	r0, [r3]
 801 001a 0025     		movs	r5, #0
 802 001c 40F20003 		movw	r3, #:lower16:thread4
 803 0020 0132     		adds	r2, r2, #1
 804 0022 4FF4A871 		mov	r1, #336
 805 0026 C0F20003 		movt	r3, #:upper16:thread4
 806 002a 0095     		str	r5, [sp]
 807 002c FFF7FEFF 		bl	chThdCreateStatic
 808              	.LVL95:
 809 0030 40F20003 		movw	r3, #:lower16:threads
 810 0034 C0F20003 		movt	r3, #:upper16:threads
 811 0038 0446     		mov	r4, r0
 812 003a 1860     		str	r0, [r3]
 813              	.LVL96:
 814              		.loc 1 223 0
 815 003c FFF7FEFF 		bl	test_wait_tick
 816              	.LVL97:
 817              		.loc 1 224 0
 818 0040 4FF47A70 		mov	r0, #1000
 819 0044 FFF7FEFF 		bl	test_start_timer
 820              	.LVL98:
 821 0048 40F20006 		movw	r6, #:lower16:test_timer_done
 822 004c C0F20006 		movt	r6, #:upper16:test_timer_done
 823              	.LVL99:
 824              	.L22:
 825              	.LBB5:
 826              		.loc 1 226 0 discriminator 1
 827 0050 2023     		movs	r3, #32
 828              	@ 226 "../../../test/testbmk.c" 1
 829 0052 83F31188 		msr     BASEPRI, r3
 830              	@ 0 "" 2
 831              		.thumb
 832              	.LBE5:
 833 0056 FFF7FEFF 		bl	dbg_check_lock
 834              	.LVL100:
 835              		.loc 1 227 0 discriminator 1
 836 005a 2046     		mov	r0, r4
 837 005c 0021     		movs	r1, #0
 838 005e FFF7FEFF 		bl	chSchWakeupS
 839              	.LVL101:
ARM GAS  /tmp/ccE8ADpL.s 			page 16


 840              		.loc 1 228 0 discriminator 1
 841 0062 2046     		mov	r0, r4
 842 0064 0021     		movs	r1, #0
 843 0066 FFF7FEFF 		bl	chSchWakeupS
 844              	.LVL102:
 845              		.loc 1 229 0 discriminator 1
 846 006a 2046     		mov	r0, r4
 847 006c 0021     		movs	r1, #0
 848 006e FFF7FEFF 		bl	chSchWakeupS
 849              	.LVL103:
 850              		.loc 1 230 0 discriminator 1
 851 0072 2046     		mov	r0, r4
 852 0074 0021     		movs	r1, #0
 853 0076 FFF7FEFF 		bl	chSchWakeupS
 854              	.LVL104:
 855              		.loc 1 231 0 discriminator 1
 856 007a FFF7FEFF 		bl	dbg_check_unlock
 857              	.LVL105:
 858              	.LBB6:
 859 007e 0023     		movs	r3, #0
 860              	@ 231 "../../../test/testbmk.c" 1
 861 0080 83F31188 		msr     BASEPRI, r3
 862              	@ 0 "" 2
 863              		.thumb
 864              	.LBE6:
 865              		.loc 1 236 0 discriminator 1
 866 0084 3378     		ldrb	r3, [r6]	@ zero_extendqisi2
 867              		.loc 1 232 0 discriminator 1
 868 0086 0435     		adds	r5, r5, #4
 869              	.LVL106:
 870              		.loc 1 236 0 discriminator 1
 871 0088 002B     		cmp	r3, #0
 872 008a E1D0     		beq	.L22
 873              	.LBB7:
 874              		.loc 1 237 0
 875 008c 2023     		movs	r3, #32
 876              	@ 237 "../../../test/testbmk.c" 1
 877 008e 83F31188 		msr     BASEPRI, r3
 878              	@ 0 "" 2
 879              		.thumb
 880              	.LBE7:
 881 0092 FFF7FEFF 		bl	dbg_check_lock
 882              	.LVL107:
 883              		.loc 1 238 0
 884 0096 2046     		mov	r0, r4
 885 0098 4FF0FF31 		mov	r1, #-1
 886 009c FFF7FEFF 		bl	chSchWakeupS
 887              	.LVL108:
 888              		.loc 1 239 0
 889 00a0 FFF7FEFF 		bl	dbg_check_unlock
 890              	.LVL109:
 891              	.LBB8:
 892 00a4 0023     		movs	r3, #0
 893              	@ 239 "../../../test/testbmk.c" 1
 894 00a6 83F31188 		msr     BASEPRI, r3
 895              	@ 0 "" 2
 896              		.thumb
ARM GAS  /tmp/ccE8ADpL.s 			page 17


 897              	.LBE8:
 898              		.loc 1 241 0
 899 00aa FFF7FEFF 		bl	test_wait_threads
 900              	.LVL110:
 901              		.loc 1 242 0
 902 00ae 40F20000 		movw	r0, #:lower16:.LC11
 903 00b2 C0F20000 		movt	r0, #:upper16:.LC11
 904 00b6 FFF7FEFF 		bl	test_print
 905              	.LVL111:
 906              		.loc 1 243 0
 907 00ba 6800     		lsls	r0, r5, #1
 908 00bc FFF7FEFF 		bl	test_printn
 909              	.LVL112:
 910              		.loc 1 244 0
 911 00c0 40F20000 		movw	r0, #:lower16:.LC14
 912 00c4 C0F20000 		movt	r0, #:upper16:.LC14
 913              		.loc 1 245 0
 914 00c8 02B0     		add	sp, sp, #8
 915              		@ sp needed
 916 00ca BDE87040 		pop	{r4, r5, r6, lr}
 917              	.LVL113:
 918              		.loc 1 244 0
 919 00ce FFF7FEBF 		b	test_println
 920              	.LVL114:
 921              		.cfi_endproc
 922              	.LFE14:
 923              		.size	bmk4_execute, .-bmk4_execute
 924 00d2 00BFAFF3 		.section	.text.bmk5_execute,"ax",%progbits
 924      0080AFF3 
 924      0080AFF3 
 924      0080
 925              		.align	2
 926              		.p2align 4,,15
 927              		.thumb
 928              		.thumb_func
 929              		.type	bmk5_execute, %function
 930              	bmk5_execute:
 931              	.LFB15:
 932              		.loc 1 265 0
 933              		.cfi_startproc
 934              		@ args = 0, pretend = 0, frame = 0
 935              		@ frame_needed = 0, uses_anonymous_args = 0
 936              	.LVL115:
 937 0000 2DE9F041 		push	{r4, r5, r6, r7, r8, lr}
 938              		.cfi_def_cfa_offset 24
 939              		.cfi_offset 4, -24
 940              		.cfi_offset 5, -20
 941              		.cfi_offset 6, -16
 942              		.cfi_offset 7, -12
 943              		.cfi_offset 8, -8
 944              		.cfi_offset 14, -4
 945              		.loc 1 269 0
 946 0004 40F20002 		movw	r2, #:lower16:rlist
 947 0008 C0F20002 		movt	r2, #:upper16:rlist
 948              		.loc 1 268 0
 949 000c 40F20003 		movw	r3, #:lower16:wa
 950              		.loc 1 269 0
ARM GAS  /tmp/ccE8ADpL.s 			page 18


 951 0010 9269     		ldr	r2, [r2, #24]
 952              		.loc 1 268 0
 953 0012 C0F20003 		movt	r3, #:upper16:wa
 954              		.loc 1 265 0
 955 0016 82B0     		sub	sp, sp, #8
 956              		.cfi_def_cfa_offset 32
 957              		.loc 1 269 0
 958 0018 9768     		ldr	r7, [r2, #8]
 959              		.loc 1 268 0
 960 001a D3F80080 		ldr	r8, [r3]
 961              	.LVL116:
 962              		.loc 1 270 0
 963 001e FFF7FEFF 		bl	test_wait_tick
 964              	.LVL117:
 965              		.loc 1 271 0
 966 0022 4FF47A70 		mov	r0, #1000
 967 0026 FFF7FEFF 		bl	test_start_timer
 968              	.LVL118:
 969              		.loc 1 267 0
 970 002a 0024     		movs	r4, #0
 971 002c 40F20005 		movw	r5, #:lower16:test_timer_done
 972              		.loc 1 269 0
 973 0030 013F     		subs	r7, r7, #1
 974              	.LVL119:
 975              		.loc 1 273 0
 976 0032 2646     		mov	r6, r4
 977 0034 C0F20005 		movt	r5, #:upper16:test_timer_done
 978              	.LVL120:
 979              	.L25:
 980              		.loc 1 273 0 is_stmt 0 discriminator 1
 981 0038 40F20003 		movw	r3, #:lower16:thread2
 982 003c C0F20003 		movt	r3, #:upper16:thread2
 983 0040 4FF4A871 		mov	r1, #336
 984 0044 3A46     		mov	r2, r7
 985 0046 0096     		str	r6, [sp]
 986 0048 4046     		mov	r0, r8
 987 004a FFF7FEFF 		bl	chThdCreateStatic
 988              	.LVL121:
 989 004e FFF7FEFF 		bl	chThdWait
 990              	.LVL122:
 991              		.loc 1 278 0 is_stmt 1 discriminator 1
 992 0052 2B78     		ldrb	r3, [r5]	@ zero_extendqisi2
 993              		.loc 1 274 0 discriminator 1
 994 0054 0134     		adds	r4, r4, #1
 995              	.LVL123:
 996              		.loc 1 278 0 discriminator 1
 997 0056 002B     		cmp	r3, #0
 998 0058 EED0     		beq	.L25
 999              		.loc 1 279 0
 1000 005a 40F20000 		movw	r0, #:lower16:.LC11
 1001 005e C0F20000 		movt	r0, #:upper16:.LC11
 1002 0062 FFF7FEFF 		bl	test_print
 1003              	.LVL124:
 1004              		.loc 1 280 0
 1005 0066 2046     		mov	r0, r4
 1006 0068 FFF7FEFF 		bl	test_printn
 1007              	.LVL125:
ARM GAS  /tmp/ccE8ADpL.s 			page 19


 1008              		.loc 1 281 0
 1009 006c 40F20000 		movw	r0, #:lower16:.LC12
 1010 0070 C0F20000 		movt	r0, #:upper16:.LC12
 1011              		.loc 1 282 0
 1012 0074 02B0     		add	sp, sp, #8
 1013              		@ sp needed
 1014 0076 BDE8F041 		pop	{r4, r5, r6, r7, r8, lr}
 1015              	.LVL126:
 1016              		.loc 1 281 0
 1017 007a FFF7FEBF 		b	test_println
 1018              	.LVL127:
 1019              		.cfi_endproc
 1020              	.LFE15:
 1021              		.size	bmk5_execute, .-bmk5_execute
 1022 007e 00BF     		.section	.text.bmk7_execute,"ax",%progbits
 1023              		.align	2
 1024              		.p2align 4,,15
 1025              		.thumb
 1026              		.thumb_func
 1027              		.type	bmk7_execute, %function
 1028              	bmk7_execute:
 1029              	.LFB19:
 1030              		.loc 1 354 0
 1031              		.cfi_startproc
 1032              		@ args = 0, pretend = 0, frame = 0
 1033              		@ frame_needed = 0, uses_anonymous_args = 0
 1034 0000 F0B5     		push	{r4, r5, r6, r7, lr}
 1035              		.cfi_def_cfa_offset 20
 1036              		.cfi_offset 4, -20
 1037              		.cfi_offset 5, -16
 1038              		.cfi_offset 6, -12
 1039              		.cfi_offset 7, -8
 1040              		.cfi_offset 14, -4
 1041              		.loc 1 357 0
 1042 0002 40F20007 		movw	r7, #:lower16:rlist
 1043 0006 C0F20007 		movt	r7, #:upper16:rlist
 1044 000a 40F20006 		movw	r6, #:lower16:wa
 1045 000e BB69     		ldr	r3, [r7, #24]
 1046              		.loc 1 354 0
 1047 0010 83B0     		sub	sp, sp, #12
 1048              		.cfi_def_cfa_offset 32
 1049              		.loc 1 357 0
 1050 0012 C0F20006 		movt	r6, #:upper16:wa
 1051 0016 9A68     		ldr	r2, [r3, #8]
 1052 0018 3068     		ldr	r0, [r6]
 1053 001a 0024     		movs	r4, #0
 1054 001c 40F20003 		movw	r3, #:lower16:thread3
 1055 0020 0532     		adds	r2, r2, #5
 1056 0022 C0F20003 		movt	r3, #:upper16:thread3
 1057 0026 4FF4A871 		mov	r1, #336
 1058 002a 0094     		str	r4, [sp]
 1059 002c FFF7FEFF 		bl	chThdCreateStatic
 1060              	.LVL128:
 1061              		.loc 1 358 0
 1062 0030 BB69     		ldr	r3, [r7, #24]
 1063 0032 7168     		ldr	r1, [r6, #4]
 1064 0034 9A68     		ldr	r2, [r3, #8]
ARM GAS  /tmp/ccE8ADpL.s 			page 20


 1065 0036 0094     		str	r4, [sp]
 1066              		.loc 1 357 0
 1067 0038 40F20005 		movw	r5, #:lower16:threads
 1068 003c C0F20005 		movt	r5, #:upper16:threads
 1069              		.loc 1 358 0
 1070 0040 40F20003 		movw	r3, #:lower16:thread3
 1071              		.loc 1 357 0
 1072 0044 2860     		str	r0, [r5]
 1073              		.loc 1 358 0
 1074 0046 0432     		adds	r2, r2, #4
 1075 0048 0846     		mov	r0, r1
 1076 004a C0F20003 		movt	r3, #:upper16:thread3
 1077 004e 4FF4A871 		mov	r1, #336
 1078 0052 FFF7FEFF 		bl	chThdCreateStatic
 1079              	.LVL129:
 1080              		.loc 1 359 0
 1081 0056 BB69     		ldr	r3, [r7, #24]
 1082 0058 B168     		ldr	r1, [r6, #8]
 1083 005a 9A68     		ldr	r2, [r3, #8]
 1084              		.loc 1 358 0
 1085 005c 6860     		str	r0, [r5, #4]
 1086              		.loc 1 359 0
 1087 005e 40F20003 		movw	r3, #:lower16:thread3
 1088 0062 0332     		adds	r2, r2, #3
 1089 0064 0846     		mov	r0, r1
 1090 0066 C0F20003 		movt	r3, #:upper16:thread3
 1091 006a 4FF4A871 		mov	r1, #336
 1092 006e 0094     		str	r4, [sp]
 1093 0070 FFF7FEFF 		bl	chThdCreateStatic
 1094              	.LVL130:
 1095              		.loc 1 360 0
 1096 0074 BB69     		ldr	r3, [r7, #24]
 1097 0076 F168     		ldr	r1, [r6, #12]
 1098 0078 9A68     		ldr	r2, [r3, #8]
 1099              		.loc 1 359 0
 1100 007a A860     		str	r0, [r5, #8]
 1101              		.loc 1 360 0
 1102 007c 40F20003 		movw	r3, #:lower16:thread3
 1103 0080 0232     		adds	r2, r2, #2
 1104 0082 0846     		mov	r0, r1
 1105 0084 C0F20003 		movt	r3, #:upper16:thread3
 1106 0088 4FF4A871 		mov	r1, #336
 1107 008c 0094     		str	r4, [sp]
 1108 008e FFF7FEFF 		bl	chThdCreateStatic
 1109              	.LVL131:
 1110              		.loc 1 361 0
 1111 0092 BB69     		ldr	r3, [r7, #24]
 1112 0094 3169     		ldr	r1, [r6, #16]
 1113 0096 9A68     		ldr	r2, [r3, #8]
 1114              		.loc 1 360 0
 1115 0098 E860     		str	r0, [r5, #12]
 1116              		.loc 1 361 0
 1117 009a 40F20003 		movw	r3, #:lower16:thread3
 1118 009e 0132     		adds	r2, r2, #1
 1119 00a0 C0F20003 		movt	r3, #:upper16:thread3
 1120 00a4 0846     		mov	r0, r1
 1121 00a6 0094     		str	r4, [sp]
ARM GAS  /tmp/ccE8ADpL.s 			page 21


 1122 00a8 4FF4A871 		mov	r1, #336
 1123 00ac FFF7FEFF 		bl	chThdCreateStatic
 1124              	.LVL132:
 1125 00b0 2861     		str	r0, [r5, #16]
 1126              	.LVL133:
 1127              		.loc 1 364 0
 1128 00b2 FFF7FEFF 		bl	test_wait_tick
 1129              	.LVL134:
 1130              		.loc 1 365 0
 1131 00b6 4FF47A70 		mov	r0, #1000
 1132 00ba FFF7FEFF 		bl	test_start_timer
 1133              	.LVL135:
 1134 00be 40F20005 		movw	r5, #:lower16:test_timer_done
 1135 00c2 C0F20005 		movt	r5, #:upper16:test_timer_done
 1136              	.LVL136:
 1137              	.L28:
 1138              		.loc 1 367 0 discriminator 1
 1139 00c6 40F20000 		movw	r0, #:lower16:.LANCHOR0
 1140 00ca C0F20000 		movt	r0, #:upper16:.LANCHOR0
 1141 00ce 0021     		movs	r1, #0
 1142 00d0 FFF7FEFF 		bl	chSemReset
 1143              	.LVL137:
 1144              		.loc 1 372 0 discriminator 1
 1145 00d4 2B78     		ldrb	r3, [r5]	@ zero_extendqisi2
 1146              		.loc 1 368 0 discriminator 1
 1147 00d6 0134     		adds	r4, r4, #1
 1148              	.LVL138:
 1149              		.loc 1 372 0 discriminator 1
 1150 00d8 002B     		cmp	r3, #0
 1151 00da F4D0     		beq	.L28
 1152              		.loc 1 373 0
 1153 00dc FFF7FEFF 		bl	test_terminate_threads
 1154              	.LVL139:
 1155              		.loc 1 374 0
 1156 00e0 40F20000 		movw	r0, #:lower16:.LANCHOR0
 1157 00e4 0021     		movs	r1, #0
 1158 00e6 C0F20000 		movt	r0, #:upper16:.LANCHOR0
 1159 00ea FFF7FEFF 		bl	chSemReset
 1160              	.LVL140:
 1161              		.loc 1 375 0
 1162 00ee FFF7FEFF 		bl	test_wait_threads
 1163              	.LVL141:
 1164              		.loc 1 377 0
 1165 00f2 40F20000 		movw	r0, #:lower16:.LC11
 1166 00f6 C0F20000 		movt	r0, #:upper16:.LC11
 1167 00fa FFF7FEFF 		bl	test_print
 1168              	.LVL142:
 1169              		.loc 1 378 0
 1170 00fe 2046     		mov	r0, r4
 1171 0100 FFF7FEFF 		bl	test_printn
 1172              	.LVL143:
 1173              		.loc 1 379 0
 1174 0104 40F20000 		movw	r0, #:lower16:.LC15
 1175 0108 C0F20000 		movt	r0, #:upper16:.LC15
 1176 010c FFF7FEFF 		bl	test_print
 1177              	.LVL144:
 1178              		.loc 1 380 0
ARM GAS  /tmp/ccE8ADpL.s 			page 22


 1179 0110 04EB4400 		add	r0, r4, r4, lsl #1
 1180 0114 4000     		lsls	r0, r0, #1
 1181 0116 FFF7FEFF 		bl	test_printn
 1182              	.LVL145:
 1183              		.loc 1 381 0
 1184 011a 40F20000 		movw	r0, #:lower16:.LC14
 1185 011e C0F20000 		movt	r0, #:upper16:.LC14
 1186              		.loc 1 382 0
 1187 0122 03B0     		add	sp, sp, #12
 1188              		@ sp needed
 1189 0124 BDE8F040 		pop	{r4, r5, r6, r7, lr}
 1190              	.LVL146:
 1191              		.loc 1 381 0
 1192 0128 FFF7FEBF 		b	test_println
 1193              	.LVL147:
 1194              		.cfi_endproc
 1195              	.LFE19:
 1196              		.size	bmk7_execute, .-bmk7_execute
 1197 012c AFF30080 		.section	.text.thread3,"ax",%progbits
 1198              		.align	2
 1199              		.p2align 4,,15
 1200              		.thumb
 1201              		.thumb_func
 1202              		.type	thread3, %function
 1203              	thread3:
 1204              	.LFB17:
 1205              		.loc 1 341 0
 1206              		.cfi_startproc
 1207              		@ args = 0, pretend = 0, frame = 0
 1208              		@ frame_needed = 0, uses_anonymous_args = 0
 1209              	.LVL148:
 1210 0000 10B5     		push	{r4, lr}
 1211              		.cfi_def_cfa_offset 8
 1212              		.cfi_offset 4, -8
 1213              		.cfi_offset 14, -4
 1214              		.loc 1 344 0
 1215 0002 40F20004 		movw	r4, #:lower16:rlist
 1216 0006 C0F20004 		movt	r4, #:upper16:rlist
 1217 000a A369     		ldr	r3, [r4, #24]
 1218 000c 93F82130 		ldrb	r3, [r3, #33]	@ zero_extendqisi2
 1219 0010 5A07     		lsls	r2, r3, #29
 1220 0012 0AD4     		bmi	.L33
 1221              	.LVL149:
 1222              	.L32:
 1223              		.loc 1 345 0
 1224 0014 40F20000 		movw	r0, #:lower16:.LANCHOR0
 1225 0018 C0F20000 		movt	r0, #:upper16:.LANCHOR0
 1226 001c FFF7FEFF 		bl	chSemWait
 1227              	.LVL150:
 1228              		.loc 1 344 0
 1229 0020 A369     		ldr	r3, [r4, #24]
 1230 0022 93F82130 		ldrb	r3, [r3, #33]	@ zero_extendqisi2
 1231 0026 5B07     		lsls	r3, r3, #29
 1232 0028 F4D5     		bpl	.L32
 1233              	.L33:
 1234              		.loc 1 347 0
 1235 002a 0020     		movs	r0, #0
ARM GAS  /tmp/ccE8ADpL.s 			page 23


 1236 002c 10BD     		pop	{r4, pc}
 1237              		.cfi_endproc
 1238              	.LFE17:
 1239              		.size	thread3, .-thread3
 1240 002e 00BF     		.section	.text.bmk7_setup,"ax",%progbits
 1241              		.align	2
 1242              		.p2align 4,,15
 1243              		.thumb
 1244              		.thumb_func
 1245              		.type	bmk7_setup, %function
 1246              	bmk7_setup:
 1247              	.LFB18:
 1248              		.loc 1 349 0
 1249              		.cfi_startproc
 1250              		@ args = 0, pretend = 0, frame = 0
 1251              		@ frame_needed = 0, uses_anonymous_args = 0
 1252              		@ link register save eliminated.
 1253              		.loc 1 351 0
 1254 0000 40F20000 		movw	r0, #:lower16:.LANCHOR0
 1255 0004 C0F20000 		movt	r0, #:upper16:.LANCHOR0
 1256 0008 0021     		movs	r1, #0
 1257 000a FFF7FEBF 		b	chSemInit
 1258              	.LVL151:
 1259              		.cfi_endproc
 1260              	.LFE18:
 1261              		.size	bmk7_setup, .-bmk7_setup
 1262 000e 00BF     		.section	.text.bmk11_setup,"ax",%progbits
 1263              		.align	2
 1264              		.p2align 4,,15
 1265              		.thumb
 1266              		.thumb_func
 1267              		.type	bmk11_setup, %function
 1268              	bmk11_setup:
 1269              	.LFB25:
 1270              		.loc 1 545 0
 1271              		.cfi_startproc
 1272              		@ args = 0, pretend = 0, frame = 0
 1273              		@ frame_needed = 0, uses_anonymous_args = 0
 1274              		@ link register save eliminated.
 1275              		.loc 1 547 0
 1276 0000 40F20000 		movw	r0, #:lower16:.LANCHOR0
 1277 0004 C0F20000 		movt	r0, #:upper16:.LANCHOR0
 1278 0008 0121     		movs	r1, #1
 1279 000a FFF7FEBF 		b	chSemInit
 1280              	.LVL152:
 1281              		.cfi_endproc
 1282              	.LFE25:
 1283              		.size	bmk11_setup, .-bmk11_setup
 1284 000e 00BF     		.section	.text.bmk8_execute,"ax",%progbits
 1285              		.align	2
 1286              		.p2align 4,,15
 1287              		.thumb
 1288              		.thumb_func
 1289              		.type	bmk8_execute, %function
 1290              	bmk8_execute:
 1291              	.LFB21:
 1292              		.loc 1 416 0
ARM GAS  /tmp/ccE8ADpL.s 			page 24


 1293              		.cfi_startproc
 1294              		@ args = 0, pretend = 0, frame = 8
 1295              		@ frame_needed = 0, uses_anonymous_args = 0
 1296 0000 2DE9F041 		push	{r4, r5, r6, r7, r8, lr}
 1297              		.cfi_def_cfa_offset 24
 1298              		.cfi_offset 4, -24
 1299              		.cfi_offset 5, -20
 1300              		.cfi_offset 6, -16
 1301              		.cfi_offset 7, -12
 1302              		.cfi_offset 8, -8
 1303              		.cfi_offset 14, -4
 1304              		.loc 1 422 0
 1305 0004 40F20008 		movw	r8, #:lower16:rlist
 1306              		.loc 1 416 0
 1307 0008 84B0     		sub	sp, sp, #16
 1308              		.cfi_def_cfa_offset 40
 1309              		.loc 1 419 0
 1310 000a 04AC     		add	r4, sp, #16
 1311              		.loc 1 422 0
 1312 000c C0F20008 		movt	r8, #:upper16:rlist
 1313              		.loc 1 419 0
 1314 0010 0023     		movs	r3, #0
 1315 0012 44F8043D 		str	r3, [r4, #-4]!
 1316              		.loc 1 420 0
 1317 0016 FFF7FEFF 		bl	test_wait_tick
 1318              	.LVL153:
 1319              		.loc 1 422 0
 1320 001a D8F81830 		ldr	r3, [r8, #24]
 1321 001e 40F20007 		movw	r7, #:lower16:wa
 1322 0022 C0F20007 		movt	r7, #:upper16:wa
 1323 0026 9A68     		ldr	r2, [r3, #8]
 1324 0028 3868     		ldr	r0, [r7]
 1325 002a 0094     		str	r4, [sp]
 1326 002c 40F20006 		movw	r6, #:lower16:thread8
 1327 0030 C0F20006 		movt	r6, #:upper16:thread8
 1328 0034 3346     		mov	r3, r6
 1329 0036 013A     		subs	r2, r2, #1
 1330 0038 4FF4A871 		mov	r1, #336
 1331 003c FFF7FEFF 		bl	chThdCreateStatic
 1332              	.LVL154:
 1333              		.loc 1 423 0
 1334 0040 D8F81830 		ldr	r3, [r8, #24]
 1335 0044 7968     		ldr	r1, [r7, #4]
 1336 0046 9A68     		ldr	r2, [r3, #8]
 1337 0048 0094     		str	r4, [sp]
 1338              		.loc 1 422 0
 1339 004a 40F20005 		movw	r5, #:lower16:threads
 1340 004e C0F20005 		movt	r5, #:upper16:threads
 1341              		.loc 1 423 0
 1342 0052 3346     		mov	r3, r6
 1343              		.loc 1 422 0
 1344 0054 2860     		str	r0, [r5]
 1345              		.loc 1 423 0
 1346 0056 013A     		subs	r2, r2, #1
 1347 0058 0846     		mov	r0, r1
 1348 005a 4FF4A871 		mov	r1, #336
 1349 005e FFF7FEFF 		bl	chThdCreateStatic
ARM GAS  /tmp/ccE8ADpL.s 			page 25


 1350              	.LVL155:
 1351              		.loc 1 424 0
 1352 0062 D8F81820 		ldr	r2, [r8, #24]
 1353 0066 BB68     		ldr	r3, [r7, #8]
 1354 0068 9268     		ldr	r2, [r2, #8]
 1355              		.loc 1 423 0
 1356 006a 6860     		str	r0, [r5, #4]
 1357              		.loc 1 424 0
 1358 006c 013A     		subs	r2, r2, #1
 1359 006e 0094     		str	r4, [sp]
 1360 0070 1846     		mov	r0, r3
 1361 0072 4FF4A871 		mov	r1, #336
 1362 0076 3346     		mov	r3, r6
 1363 0078 FFF7FEFF 		bl	chThdCreateStatic
 1364              	.LVL156:
 1365              		.loc 1 425 0
 1366 007c D8F81820 		ldr	r2, [r8, #24]
 1367 0080 FB68     		ldr	r3, [r7, #12]
 1368 0082 9268     		ldr	r2, [r2, #8]
 1369              		.loc 1 424 0
 1370 0084 A860     		str	r0, [r5, #8]
 1371              		.loc 1 425 0
 1372 0086 013A     		subs	r2, r2, #1
 1373 0088 0094     		str	r4, [sp]
 1374 008a 1846     		mov	r0, r3
 1375 008c 4FF4A871 		mov	r1, #336
 1376 0090 3346     		mov	r3, r6
 1377 0092 FFF7FEFF 		bl	chThdCreateStatic
 1378              	.LVL157:
 1379              		.loc 1 426 0
 1380 0096 D8F81820 		ldr	r2, [r8, #24]
 1381 009a 3B69     		ldr	r3, [r7, #16]
 1382 009c 9268     		ldr	r2, [r2, #8]
 1383              		.loc 1 425 0
 1384 009e E860     		str	r0, [r5, #12]
 1385              		.loc 1 426 0
 1386 00a0 013A     		subs	r2, r2, #1
 1387 00a2 4FF4A871 		mov	r1, #336
 1388 00a6 1846     		mov	r0, r3
 1389 00a8 0094     		str	r4, [sp]
 1390 00aa 3346     		mov	r3, r6
 1391 00ac FFF7FEFF 		bl	chThdCreateStatic
 1392              	.LVL158:
 1393 00b0 2861     		str	r0, [r5, #16]
 1394              		.loc 1 428 0
 1395 00b2 4FF47A70 		mov	r0, #1000
 1396 00b6 FFF7FEFF 		bl	chThdSleep
 1397              	.LVL159:
 1398              		.loc 1 429 0
 1399 00ba FFF7FEFF 		bl	test_terminate_threads
 1400              	.LVL160:
 1401              		.loc 1 430 0
 1402 00be FFF7FEFF 		bl	test_wait_threads
 1403              	.LVL161:
 1404              		.loc 1 432 0
 1405 00c2 40F20000 		movw	r0, #:lower16:.LC11
 1406 00c6 C0F20000 		movt	r0, #:upper16:.LC11
ARM GAS  /tmp/ccE8ADpL.s 			page 26


 1407 00ca FFF7FEFF 		bl	test_print
 1408              	.LVL162:
 1409              		.loc 1 433 0
 1410 00ce 0398     		ldr	r0, [sp, #12]
 1411 00d0 FFF7FEFF 		bl	test_printn
 1412              	.LVL163:
 1413              		.loc 1 434 0
 1414 00d4 40F20000 		movw	r0, #:lower16:.LC14
 1415 00d8 C0F20000 		movt	r0, #:upper16:.LC14
 1416 00dc FFF7FEFF 		bl	test_println
 1417              	.LVL164:
 1418              		.loc 1 435 0
 1419 00e0 04B0     		add	sp, sp, #16
 1420              		@ sp needed
 1421 00e2 BDE8F081 		pop	{r4, r5, r6, r7, r8, pc}
 1422              		.cfi_endproc
 1423              	.LFE21:
 1424              		.size	bmk8_execute, .-bmk8_execute
 1425 00e6 00BFAFF3 		.section	.text.thread8,"ax",%progbits
 1425      0080AFF3 
 1425      0080
 1426              		.align	2
 1427              		.p2align 4,,15
 1428              		.thumb
 1429              		.thumb_func
 1430              		.type	thread8, %function
 1431              	thread8:
 1432              	.LFB20:
 1433              		.loc 1 401 0
 1434              		.cfi_startproc
 1435              		@ args = 0, pretend = 0, frame = 0
 1436              		@ frame_needed = 0, uses_anonymous_args = 0
 1437              	.LVL165:
 1438 0000 38B5     		push	{r3, r4, r5, lr}
 1439              		.cfi_def_cfa_offset 16
 1440              		.cfi_offset 3, -16
 1441              		.cfi_offset 4, -12
 1442              		.cfi_offset 5, -8
 1443              		.cfi_offset 14, -4
 1444 0002 40F20005 		movw	r5, #:lower16:rlist
 1445              		.loc 1 401 0
 1446 0006 0446     		mov	r4, r0
 1447 0008 C0F20005 		movt	r5, #:upper16:rlist
 1448              	.LVL166:
 1449              	.L39:
 1450              		.loc 1 404 0 discriminator 1
 1451 000c FFF7FEFF 		bl	chThdYield
 1452              	.LVL167:
 1453              		.loc 1 405 0 discriminator 1
 1454 0010 FFF7FEFF 		bl	chThdYield
 1455              	.LVL168:
 1456              		.loc 1 406 0 discriminator 1
 1457 0014 FFF7FEFF 		bl	chThdYield
 1458              	.LVL169:
 1459              		.loc 1 407 0 discriminator 1
 1460 0018 FFF7FEFF 		bl	chThdYield
 1461              	.LVL170:
ARM GAS  /tmp/ccE8ADpL.s 			page 27


 1462              		.loc 1 408 0 discriminator 1
 1463 001c 2368     		ldr	r3, [r4]
 1464              		.loc 1 412 0 discriminator 1
 1465 001e AA69     		ldr	r2, [r5, #24]
 1466              		.loc 1 408 0 discriminator 1
 1467 0020 0433     		adds	r3, r3, #4
 1468 0022 2360     		str	r3, [r4]
 1469              		.loc 1 412 0 discriminator 1
 1470 0024 92F82130 		ldrb	r3, [r2, #33]	@ zero_extendqisi2
 1471 0028 5907     		lsls	r1, r3, #29
 1472 002a EFD5     		bpl	.L39
 1473              		.loc 1 414 0
 1474 002c 0020     		movs	r0, #0
 1475 002e 38BD     		pop	{r3, r4, r5, pc}
 1476              		.cfi_endproc
 1477              	.LFE20:
 1478              		.size	thread8, .-thread8
 1479              		.section	.text.bmk9_execute,"ax",%progbits
 1480              		.align	2
 1481              		.p2align 4,,15
 1482              		.thumb
 1483              		.thumb_func
 1484              		.type	bmk9_execute, %function
 1485              	bmk9_execute:
 1486              	.LFB22:
 1487              		.loc 1 455 0
 1488              		.cfi_startproc
 1489              		@ args = 0, pretend = 0, frame = 0
 1490              		@ frame_needed = 0, uses_anonymous_args = 0
 1491 0000 30B5     		push	{r4, r5, lr}
 1492              		.cfi_def_cfa_offset 12
 1493              		.cfi_offset 4, -12
 1494              		.cfi_offset 5, -8
 1495              		.cfi_offset 14, -4
 1496 0002 83B0     		sub	sp, sp, #12
 1497              		.cfi_def_cfa_offset 24
 1498              		.loc 1 460 0
 1499 0004 0024     		movs	r4, #0
 1500 0006 40F20000 		movw	r0, #:lower16:.LANCHOR1
 1501 000a 40F20001 		movw	r1, #:lower16:.LANCHOR2
 1502 000e 2346     		mov	r3, r4
 1503 0010 C0F20001 		movt	r1, #:upper16:.LANCHOR2
 1504 0014 1022     		movs	r2, #16
 1505 0016 C0F20000 		movt	r0, #:upper16:.LANCHOR1
 1506 001a 0094     		str	r4, [sp]
 1507 001c FFF7FEFF 		bl	chIQInit
 1508              	.LVL171:
 1509              		.loc 1 462 0
 1510 0020 FFF7FEFF 		bl	test_wait_tick
 1511              	.LVL172:
 1512              		.loc 1 463 0
 1513 0024 4FF47A70 		mov	r0, #1000
 1514 0028 FFF7FEFF 		bl	test_start_timer
 1515              	.LVL173:
 1516 002c 40F20005 		movw	r5, #:lower16:test_timer_done
 1517 0030 C0F20005 		movt	r5, #:upper16:test_timer_done
 1518              	.LVL174:
ARM GAS  /tmp/ccE8ADpL.s 			page 28


 1519              	.L42:
 1520              	.LBB9:
 1521              		.loc 1 465 0 discriminator 1
 1522 0034 2023     		movs	r3, #32
 1523              	@ 465 "../../../test/testbmk.c" 1
 1524 0036 83F31188 		msr     BASEPRI, r3
 1525              	@ 0 "" 2
 1526              		.thumb
 1527              	.LBE9:
 1528 003a FFF7FEFF 		bl	dbg_check_lock
 1529              	.LVL175:
 1530              		.loc 1 466 0 discriminator 1
 1531 003e 40F20000 		movw	r0, #:lower16:.LANCHOR1
 1532 0042 0021     		movs	r1, #0
 1533 0044 C0F20000 		movt	r0, #:upper16:.LANCHOR1
 1534 0048 FFF7FEFF 		bl	chIQPutI
 1535              	.LVL176:
 1536              		.loc 1 467 0 discriminator 1
 1537 004c 40F20000 		movw	r0, #:lower16:.LANCHOR1
 1538 0050 0121     		movs	r1, #1
 1539 0052 C0F20000 		movt	r0, #:upper16:.LANCHOR1
 1540 0056 FFF7FEFF 		bl	chIQPutI
 1541              	.LVL177:
 1542              		.loc 1 468 0 discriminator 1
 1543 005a 40F20000 		movw	r0, #:lower16:.LANCHOR1
 1544 005e 0221     		movs	r1, #2
 1545 0060 C0F20000 		movt	r0, #:upper16:.LANCHOR1
 1546 0064 FFF7FEFF 		bl	chIQPutI
 1547              	.LVL178:
 1548              		.loc 1 469 0 discriminator 1
 1549 0068 40F20000 		movw	r0, #:lower16:.LANCHOR1
 1550 006c 0321     		movs	r1, #3
 1551 006e C0F20000 		movt	r0, #:upper16:.LANCHOR1
 1552 0072 FFF7FEFF 		bl	chIQPutI
 1553              	.LVL179:
 1554              		.loc 1 470 0 discriminator 1
 1555 0076 FFF7FEFF 		bl	dbg_check_unlock
 1556              	.LVL180:
 1557              	.LBB10:
 1558 007a 0023     		movs	r3, #0
 1559              	@ 470 "../../../test/testbmk.c" 1
 1560 007c 83F31188 		msr     BASEPRI, r3
 1561              	@ 0 "" 2
 1562              		.thumb
 1563              	.LBE10:
 1564              		.loc 1 471 0 discriminator 1
 1565 0080 40F20000 		movw	r0, #:lower16:.LANCHOR1
 1566 0084 4FF0FF31 		mov	r1, #-1
 1567 0088 C0F20000 		movt	r0, #:upper16:.LANCHOR1
 1568 008c FFF7FEFF 		bl	chIQGetTimeout
 1569              	.LVL181:
 1570              		.loc 1 472 0 discriminator 1
 1571 0090 40F20000 		movw	r0, #:lower16:.LANCHOR1
 1572 0094 4FF0FF31 		mov	r1, #-1
 1573 0098 C0F20000 		movt	r0, #:upper16:.LANCHOR1
 1574 009c FFF7FEFF 		bl	chIQGetTimeout
 1575              	.LVL182:
ARM GAS  /tmp/ccE8ADpL.s 			page 29


 1576              		.loc 1 473 0 discriminator 1
 1577 00a0 40F20000 		movw	r0, #:lower16:.LANCHOR1
 1578 00a4 4FF0FF31 		mov	r1, #-1
 1579 00a8 C0F20000 		movt	r0, #:upper16:.LANCHOR1
 1580 00ac FFF7FEFF 		bl	chIQGetTimeout
 1581              	.LVL183:
 1582              		.loc 1 474 0 discriminator 1
 1583 00b0 40F20000 		movw	r0, #:lower16:.LANCHOR1
 1584 00b4 C0F20000 		movt	r0, #:upper16:.LANCHOR1
 1585 00b8 4FF0FF31 		mov	r1, #-1
 1586 00bc FFF7FEFF 		bl	chIQGetTimeout
 1587              	.LVL184:
 1588              		.loc 1 479 0 discriminator 1
 1589 00c0 2B78     		ldrb	r3, [r5]	@ zero_extendqisi2
 1590              		.loc 1 475 0 discriminator 1
 1591 00c2 0134     		adds	r4, r4, #1
 1592              	.LVL185:
 1593              		.loc 1 479 0 discriminator 1
 1594 00c4 002B     		cmp	r3, #0
 1595 00c6 B5D0     		beq	.L42
 1596              		.loc 1 480 0
 1597 00c8 40F20000 		movw	r0, #:lower16:.LC11
 1598 00cc C0F20000 		movt	r0, #:upper16:.LC11
 1599 00d0 FFF7FEFF 		bl	test_print
 1600              	.LVL186:
 1601              		.loc 1 481 0
 1602 00d4 A000     		lsls	r0, r4, #2
 1603 00d6 FFF7FEFF 		bl	test_printn
 1604              	.LVL187:
 1605              		.loc 1 482 0
 1606 00da 40F20000 		movw	r0, #:lower16:.LC16
 1607 00de C0F20000 		movt	r0, #:upper16:.LC16
 1608              		.loc 1 483 0
 1609 00e2 03B0     		add	sp, sp, #12
 1610              		@ sp needed
 1611 00e4 BDE83040 		pop	{r4, r5, lr}
 1612              	.LVL188:
 1613              		.loc 1 482 0
 1614 00e8 FFF7FEBF 		b	test_println
 1615              	.LVL189:
 1616              		.cfi_endproc
 1617              	.LFE22:
 1618              		.size	bmk9_execute, .-bmk9_execute
 1619 00ec AFF30080 		.section	.text.bmk10_execute,"ax",%progbits
 1620              		.align	2
 1621              		.p2align 4,,15
 1622              		.thumb
 1623              		.thumb_func
 1624              		.type	bmk10_execute, %function
 1625              	bmk10_execute:
 1626              	.LFB24:
 1627              		.loc 1 504 0
 1628              		.cfi_startproc
 1629              		@ args = 0, pretend = 0, frame = 0
 1630              		@ frame_needed = 0, uses_anonymous_args = 0
 1631              	.LVL190:
 1632 0000 38B5     		push	{r3, r4, r5, lr}
ARM GAS  /tmp/ccE8ADpL.s 			page 30


 1633              		.cfi_def_cfa_offset 16
 1634              		.cfi_offset 3, -16
 1635              		.cfi_offset 4, -12
 1636              		.cfi_offset 5, -8
 1637              		.cfi_offset 14, -4
 1638              		.loc 1 508 0
 1639 0002 FFF7FEFF 		bl	test_wait_tick
 1640              	.LVL191:
 1641              		.loc 1 509 0
 1642 0006 4FF47A70 		mov	r0, #1000
 1643 000a FFF7FEFF 		bl	test_start_timer
 1644              	.LVL192:
 1645 000e 40F20005 		movw	r5, #:lower16:test_timer_done
 1646 0012 C0F20005 		movt	r5, #:upper16:test_timer_done
 1647              		.loc 1 506 0
 1648 0016 0024     		movs	r4, #0
 1649              	.LVL193:
 1650              	.L45:
 1651              	.LBB11:
 1652              		.loc 1 511 0 discriminator 1
 1653 0018 2023     		movs	r3, #32
 1654              	@ 511 "../../../test/testbmk.c" 1
 1655 001a 83F31188 		msr     BASEPRI, r3
 1656              	@ 0 "" 2
 1657              		.thumb
 1658              	.LBE11:
 1659 001e FFF7FEFF 		bl	dbg_check_lock
 1660              	.LVL194:
 1661              		.loc 1 512 0 discriminator 1
 1662 0022 40F20000 		movw	r0, #:lower16:.LANCHOR3
 1663 0026 40F20002 		movw	r2, #:lower16:tmo
 1664 002a C0F20000 		movt	r0, #:upper16:.LANCHOR3
 1665 002e C0F20002 		movt	r2, #:upper16:tmo
 1666 0032 0121     		movs	r1, #1
 1667 0034 0023     		movs	r3, #0
 1668 0036 FFF7FEFF 		bl	chVTSetI
 1669              	.LVL195:
 1670              		.loc 1 513 0 discriminator 1
 1671 003a 40F20000 		movw	r0, #:lower16:.LANCHOR4
 1672 003e 40F20002 		movw	r2, #:lower16:tmo
 1673 0042 C0F20002 		movt	r2, #:upper16:tmo
 1674 0046 42F21071 		movw	r1, #10000
 1675 004a 0023     		movs	r3, #0
 1676 004c C0F20000 		movt	r0, #:upper16:.LANCHOR4
 1677 0050 FFF7FEFF 		bl	chVTSetI
 1678              	.LVL196:
 1679              		.loc 1 514 0 discriminator 1
 1680 0054 40F20000 		movw	r0, #:lower16:.LANCHOR3
 1681 0058 C0F20000 		movt	r0, #:upper16:.LANCHOR3
 1682 005c FFF7FEFF 		bl	chVTResetI
 1683              	.LVL197:
 1684              		.loc 1 515 0 discriminator 1
 1685 0060 40F20000 		movw	r0, #:lower16:.LANCHOR4
 1686 0064 C0F20000 		movt	r0, #:upper16:.LANCHOR4
 1687 0068 FFF7FEFF 		bl	chVTResetI
 1688              	.LVL198:
 1689              		.loc 1 516 0 discriminator 1
ARM GAS  /tmp/ccE8ADpL.s 			page 31


 1690 006c FFF7FEFF 		bl	dbg_check_unlock
 1691              	.LVL199:
 1692              	.LBB12:
 1693 0070 0023     		movs	r3, #0
 1694              	@ 516 "../../../test/testbmk.c" 1
 1695 0072 83F31188 		msr     BASEPRI, r3
 1696              	@ 0 "" 2
 1697              		.thumb
 1698              	.LBE12:
 1699              		.loc 1 521 0 discriminator 1
 1700 0076 2B78     		ldrb	r3, [r5]	@ zero_extendqisi2
 1701              		.loc 1 517 0 discriminator 1
 1702 0078 0134     		adds	r4, r4, #1
 1703              	.LVL200:
 1704              		.loc 1 521 0 discriminator 1
 1705 007a 002B     		cmp	r3, #0
 1706 007c CCD0     		beq	.L45
 1707              		.loc 1 522 0
 1708 007e 40F20000 		movw	r0, #:lower16:.LC11
 1709 0082 C0F20000 		movt	r0, #:upper16:.LC11
 1710 0086 FFF7FEFF 		bl	test_print
 1711              	.LVL201:
 1712              		.loc 1 523 0
 1713 008a 6000     		lsls	r0, r4, #1
 1714 008c FFF7FEFF 		bl	test_printn
 1715              	.LVL202:
 1716              		.loc 1 524 0
 1717 0090 40F20000 		movw	r0, #:lower16:.LC17
 1718 0094 C0F20000 		movt	r0, #:upper16:.LC17
 1719              		.loc 1 525 0
 1720 0098 BDE83840 		pop	{r3, r4, r5, lr}
 1721              	.LVL203:
 1722              		.loc 1 524 0
 1723 009c FFF7FEBF 		b	test_println
 1724              	.LVL204:
 1725              		.cfi_endproc
 1726              	.LFE24:
 1727              		.size	bmk10_execute, .-bmk10_execute
 1728              		.section	.text.bmk11_execute,"ax",%progbits
 1729              		.align	2
 1730              		.p2align 4,,15
 1731              		.thumb
 1732              		.thumb_func
 1733              		.type	bmk11_execute, %function
 1734              	bmk11_execute:
 1735              	.LFB26:
 1736              		.loc 1 550 0
 1737              		.cfi_startproc
 1738              		@ args = 0, pretend = 0, frame = 0
 1739              		@ frame_needed = 0, uses_anonymous_args = 0
 1740              	.LVL205:
 1741 0000 38B5     		push	{r3, r4, r5, lr}
 1742              		.cfi_def_cfa_offset 16
 1743              		.cfi_offset 3, -16
 1744              		.cfi_offset 4, -12
 1745              		.cfi_offset 5, -8
 1746              		.cfi_offset 14, -4
ARM GAS  /tmp/ccE8ADpL.s 			page 32


 1747              		.loc 1 553 0
 1748 0002 FFF7FEFF 		bl	test_wait_tick
 1749              	.LVL206:
 1750              		.loc 1 554 0
 1751 0006 4FF47A70 		mov	r0, #1000
 1752 000a FFF7FEFF 		bl	test_start_timer
 1753              	.LVL207:
 1754 000e 40F20005 		movw	r5, #:lower16:test_timer_done
 1755 0012 C0F20005 		movt	r5, #:upper16:test_timer_done
 1756              		.loc 1 551 0
 1757 0016 0024     		movs	r4, #0
 1758              	.LVL208:
 1759              	.L48:
 1760              		.loc 1 556 0 discriminator 1
 1761 0018 40F20000 		movw	r0, #:lower16:.LANCHOR0
 1762 001c C0F20000 		movt	r0, #:upper16:.LANCHOR0
 1763 0020 FFF7FEFF 		bl	chSemWait
 1764              	.LVL209:
 1765              		.loc 1 557 0 discriminator 1
 1766 0024 40F20000 		movw	r0, #:lower16:.LANCHOR0
 1767 0028 C0F20000 		movt	r0, #:upper16:.LANCHOR0
 1768 002c FFF7FEFF 		bl	chSemSignal
 1769              	.LVL210:
 1770              		.loc 1 558 0 discriminator 1
 1771 0030 40F20000 		movw	r0, #:lower16:.LANCHOR0
 1772 0034 C0F20000 		movt	r0, #:upper16:.LANCHOR0
 1773 0038 FFF7FEFF 		bl	chSemWait
 1774              	.LVL211:
 1775              		.loc 1 559 0 discriminator 1
 1776 003c 40F20000 		movw	r0, #:lower16:.LANCHOR0
 1777 0040 C0F20000 		movt	r0, #:upper16:.LANCHOR0
 1778 0044 FFF7FEFF 		bl	chSemSignal
 1779              	.LVL212:
 1780              		.loc 1 560 0 discriminator 1
 1781 0048 40F20000 		movw	r0, #:lower16:.LANCHOR0
 1782 004c C0F20000 		movt	r0, #:upper16:.LANCHOR0
 1783 0050 FFF7FEFF 		bl	chSemWait
 1784              	.LVL213:
 1785              		.loc 1 561 0 discriminator 1
 1786 0054 40F20000 		movw	r0, #:lower16:.LANCHOR0
 1787 0058 C0F20000 		movt	r0, #:upper16:.LANCHOR0
 1788 005c FFF7FEFF 		bl	chSemSignal
 1789              	.LVL214:
 1790              		.loc 1 562 0 discriminator 1
 1791 0060 40F20000 		movw	r0, #:lower16:.LANCHOR0
 1792 0064 C0F20000 		movt	r0, #:upper16:.LANCHOR0
 1793 0068 FFF7FEFF 		bl	chSemWait
 1794              	.LVL215:
 1795              		.loc 1 563 0 discriminator 1
 1796 006c 40F20000 		movw	r0, #:lower16:.LANCHOR0
 1797 0070 C0F20000 		movt	r0, #:upper16:.LANCHOR0
 1798 0074 FFF7FEFF 		bl	chSemSignal
 1799              	.LVL216:
 1800              		.loc 1 568 0 discriminator 1
 1801 0078 2B78     		ldrb	r3, [r5]	@ zero_extendqisi2
 1802              		.loc 1 564 0 discriminator 1
 1803 007a 0134     		adds	r4, r4, #1
ARM GAS  /tmp/ccE8ADpL.s 			page 33


 1804              	.LVL217:
 1805              		.loc 1 568 0 discriminator 1
 1806 007c 002B     		cmp	r3, #0
 1807 007e CBD0     		beq	.L48
 1808              		.loc 1 569 0
 1809 0080 40F20000 		movw	r0, #:lower16:.LC11
 1810 0084 C0F20000 		movt	r0, #:upper16:.LC11
 1811 0088 FFF7FEFF 		bl	test_print
 1812              	.LVL218:
 1813              		.loc 1 570 0
 1814 008c A000     		lsls	r0, r4, #2
 1815 008e FFF7FEFF 		bl	test_printn
 1816              	.LVL219:
 1817              		.loc 1 571 0
 1818 0092 40F20000 		movw	r0, #:lower16:.LC18
 1819 0096 C0F20000 		movt	r0, #:upper16:.LC18
 1820              		.loc 1 572 0
 1821 009a BDE83840 		pop	{r3, r4, r5, lr}
 1822              	.LVL220:
 1823              		.loc 1 571 0
 1824 009e FFF7FEBF 		b	test_println
 1825              	.LVL221:
 1826              		.cfi_endproc
 1827              	.LFE26:
 1828              		.size	bmk11_execute, .-bmk11_execute
 1829 00a2 00BFAFF3 		.section	.text.bmk12_execute,"ax",%progbits
 1829      0080AFF3 
 1829      0080AFF3 
 1829      0080
 1830              		.align	2
 1831              		.p2align 4,,15
 1832              		.thumb
 1833              		.thumb_func
 1834              		.type	bmk12_execute, %function
 1835              	bmk12_execute:
 1836              	.LFB28:
 1837              		.loc 1 598 0
 1838              		.cfi_startproc
 1839              		@ args = 0, pretend = 0, frame = 0
 1840              		@ frame_needed = 0, uses_anonymous_args = 0
 1841              	.LVL222:
 1842 0000 38B5     		push	{r3, r4, r5, lr}
 1843              		.cfi_def_cfa_offset 16
 1844              		.cfi_offset 3, -16
 1845              		.cfi_offset 4, -12
 1846              		.cfi_offset 5, -8
 1847              		.cfi_offset 14, -4
 1848              		.loc 1 601 0
 1849 0002 FFF7FEFF 		bl	test_wait_tick
 1850              	.LVL223:
 1851              		.loc 1 602 0
 1852 0006 4FF47A70 		mov	r0, #1000
 1853 000a FFF7FEFF 		bl	test_start_timer
 1854              	.LVL224:
 1855 000e 40F20005 		movw	r5, #:lower16:test_timer_done
 1856 0012 C0F20005 		movt	r5, #:upper16:test_timer_done
 1857              		.loc 1 599 0
ARM GAS  /tmp/ccE8ADpL.s 			page 34


 1858 0016 0024     		movs	r4, #0
 1859              	.LVL225:
 1860              	.L51:
 1861              		.loc 1 604 0 discriminator 1
 1862 0018 40F20000 		movw	r0, #:lower16:.LANCHOR5
 1863 001c C0F20000 		movt	r0, #:upper16:.LANCHOR5
 1864 0020 FFF7FEFF 		bl	chMtxLock
 1865              	.LVL226:
 1866              		.loc 1 605 0 discriminator 1
 1867 0024 FFF7FEFF 		bl	chMtxUnlock
 1868              	.LVL227:
 1869              		.loc 1 606 0 discriminator 1
 1870 0028 40F20000 		movw	r0, #:lower16:.LANCHOR5
 1871 002c C0F20000 		movt	r0, #:upper16:.LANCHOR5
 1872 0030 FFF7FEFF 		bl	chMtxLock
 1873              	.LVL228:
 1874              		.loc 1 607 0 discriminator 1
 1875 0034 FFF7FEFF 		bl	chMtxUnlock
 1876              	.LVL229:
 1877              		.loc 1 608 0 discriminator 1
 1878 0038 40F20000 		movw	r0, #:lower16:.LANCHOR5
 1879 003c C0F20000 		movt	r0, #:upper16:.LANCHOR5
 1880 0040 FFF7FEFF 		bl	chMtxLock
 1881              	.LVL230:
 1882              		.loc 1 609 0 discriminator 1
 1883 0044 FFF7FEFF 		bl	chMtxUnlock
 1884              	.LVL231:
 1885              		.loc 1 610 0 discriminator 1
 1886 0048 40F20000 		movw	r0, #:lower16:.LANCHOR5
 1887 004c C0F20000 		movt	r0, #:upper16:.LANCHOR5
 1888 0050 FFF7FEFF 		bl	chMtxLock
 1889              	.LVL232:
 1890              		.loc 1 611 0 discriminator 1
 1891 0054 FFF7FEFF 		bl	chMtxUnlock
 1892              	.LVL233:
 1893              		.loc 1 616 0 discriminator 1
 1894 0058 2B78     		ldrb	r3, [r5]	@ zero_extendqisi2
 1895              		.loc 1 612 0 discriminator 1
 1896 005a 0134     		adds	r4, r4, #1
 1897              	.LVL234:
 1898              		.loc 1 616 0 discriminator 1
 1899 005c 002B     		cmp	r3, #0
 1900 005e DBD0     		beq	.L51
 1901              		.loc 1 617 0
 1902 0060 40F20000 		movw	r0, #:lower16:.LC11
 1903 0064 C0F20000 		movt	r0, #:upper16:.LC11
 1904 0068 FFF7FEFF 		bl	test_print
 1905              	.LVL235:
 1906              		.loc 1 618 0
 1907 006c A000     		lsls	r0, r4, #2
 1908 006e FFF7FEFF 		bl	test_printn
 1909              	.LVL236:
 1910              		.loc 1 619 0
 1911 0072 40F20000 		movw	r0, #:lower16:.LC19
 1912 0076 C0F20000 		movt	r0, #:upper16:.LC19
 1913              		.loc 1 620 0
 1914 007a BDE83840 		pop	{r3, r4, r5, lr}
ARM GAS  /tmp/ccE8ADpL.s 			page 35


 1915              	.LVL237:
 1916              		.loc 1 619 0
 1917 007e FFF7FEBF 		b	test_println
 1918              	.LVL238:
 1919              		.cfi_endproc
 1920              	.LFE28:
 1921              		.size	bmk12_execute, .-bmk12_execute
 1922 0082 00BFAFF3 		.section	.text.bmk12_setup,"ax",%progbits
 1922      0080AFF3 
 1922      0080AFF3 
 1922      0080
 1923              		.align	2
 1924              		.p2align 4,,15
 1925              		.thumb
 1926              		.thumb_func
 1927              		.type	bmk12_setup, %function
 1928              	bmk12_setup:
 1929              	.LFB27:
 1930              		.loc 1 593 0
 1931              		.cfi_startproc
 1932              		@ args = 0, pretend = 0, frame = 0
 1933              		@ frame_needed = 0, uses_anonymous_args = 0
 1934              		@ link register save eliminated.
 1935              		.loc 1 595 0
 1936 0000 40F20000 		movw	r0, #:lower16:.LANCHOR5
 1937 0004 C0F20000 		movt	r0, #:upper16:.LANCHOR5
 1938 0008 FFF7FEBF 		b	chMtxInit
 1939              	.LVL239:
 1940              		.cfi_endproc
 1941              	.LFE27:
 1942              		.size	bmk12_setup, .-bmk12_setup
 1943              		.global	patternbmk
 1944              		.global	testbmk13
 1945              		.global	testbmk12
 1946              		.global	testbmk11
 1947              		.global	testbmk10
 1948              		.global	testbmk9
 1949              		.global	testbmk8
 1950              		.global	testbmk7
 1951              		.global	testbmk6
 1952              		.global	testbmk5
 1953              		.global	testbmk4
 1954              		.global	testbmk3
 1955              		.global	testbmk2
 1956              		.global	testbmk1
 1957 000c AFF30080 		.section	.bss.vt2.5003,"aw",%nobits
 1958              		.align	2
 1959              		.set	.LANCHOR4,. + 0
 1960              		.type	vt2.5003, %object
 1961              		.size	vt2.5003, 20
 1962              	vt2.5003:
 1963 0000 00000000 		.space	20
 1963      00000000 
 1963      00000000 
 1963      00000000 
 1963      00000000 
 1964              		.section	.rodata.patternbmk,"a",%progbits
ARM GAS  /tmp/ccE8ADpL.s 			page 36


 1965              		.align	2
 1966              		.type	patternbmk, %object
 1967              		.size	patternbmk, 56
 1968              	patternbmk:
 1969 0000 00000000 		.word	testbmk1
 1970 0004 00000000 		.word	testbmk2
 1971 0008 00000000 		.word	testbmk3
 1972 000c 00000000 		.word	testbmk4
 1973 0010 00000000 		.word	testbmk5
 1974 0014 00000000 		.word	testbmk6
 1975 0018 00000000 		.word	testbmk7
 1976 001c 00000000 		.word	testbmk8
 1977 0020 00000000 		.word	testbmk9
 1978 0024 00000000 		.word	testbmk10
 1979 0028 00000000 		.word	testbmk11
 1980 002c 00000000 		.word	testbmk12
 1981 0030 00000000 		.word	testbmk13
 1982 0034 00000000 		.word	0
 1983              		.section	.rodata.testbmk8,"a",%progbits
 1984              		.align	2
 1985              		.type	testbmk8, %object
 1986              		.size	testbmk8, 16
 1987              	testbmk8:
 1988 0000 D0010000 		.word	.LC25
 1989 0004 00000000 		.word	0
 1990 0008 00000000 		.word	0
 1991 000c 00000000 		.word	bmk8_execute
 1992              		.section	.bss.vt1.5002,"aw",%nobits
 1993              		.align	2
 1994              		.set	.LANCHOR3,. + 0
 1995              		.type	vt1.5002, %object
 1996              		.size	vt1.5002, 20
 1997              	vt1.5002:
 1998 0000 00000000 		.space	20
 1998      00000000 
 1998      00000000 
 1998      00000000 
 1998      00000000 
 1999              		.section	.rodata.testbmk10,"a",%progbits
 2000              		.align	2
 2001              		.type	testbmk10, %object
 2002              		.size	testbmk10, 16
 2003              	testbmk10:
 2004 0000 88010000 		.word	.LC23
 2005 0004 00000000 		.word	0
 2006 0008 00000000 		.word	0
 2007 000c 00000000 		.word	bmk10_execute
 2008              		.section	.bss.iq.4990,"aw",%nobits
 2009              		.align	2
 2010              		.set	.LANCHOR1,. + 0
 2011              		.type	iq.4990, %object
 2012              		.size	iq.4990, 36
 2013              	iq.4990:
 2014 0000 00000000 		.space	36
 2014      00000000 
 2014      00000000 
 2014      00000000 
ARM GAS  /tmp/ccE8ADpL.s 			page 37


 2014      00000000 
 2015              		.section	.rodata.testbmk4,"a",%progbits
 2016              		.align	2
 2017              		.type	testbmk4, %object
 2018              		.size	testbmk4, 16
 2019              	testbmk4:
 2020 0000 64020000 		.word	.LC29
 2021 0004 00000000 		.word	0
 2022 0008 00000000 		.word	0
 2023 000c 00000000 		.word	bmk4_execute
 2024              		.section	.bss.mtx1,"aw",%nobits
 2025              		.align	2
 2026              		.set	.LANCHOR5,. + 0
 2027              		.type	mtx1, %object
 2028              		.size	mtx1, 16
 2029              	mtx1:
 2030 0000 00000000 		.space	16
 2030      00000000 
 2030      00000000 
 2030      00000000 
 2031              		.section	.rodata.testbmk3,"a",%progbits
 2032              		.align	2
 2033              		.type	testbmk3, %object
 2034              		.size	testbmk3, 16
 2035              	testbmk3:
 2036 0000 80020000 		.word	.LC30
 2037 0004 00000000 		.word	0
 2038 0008 00000000 		.word	0
 2039 000c 00000000 		.word	bmk3_execute
 2040              		.section	.rodata.testbmk6,"a",%progbits
 2041              		.align	2
 2042              		.type	testbmk6, %object
 2043              		.size	testbmk6, 16
 2044              	testbmk6:
 2045 0000 24020000 		.word	.LC27
 2046 0004 00000000 		.word	0
 2047 0008 00000000 		.word	0
 2048 000c 00000000 		.word	bmk6_execute
 2049              		.section	.rodata.testbmk2,"a",%progbits
 2050              		.align	2
 2051              		.type	testbmk2, %object
 2052              		.size	testbmk2, 16
 2053              	testbmk2:
 2054 0000 98020000 		.word	.LC31
 2055 0004 00000000 		.word	0
 2056 0008 00000000 		.word	0
 2057 000c 00000000 		.word	bmk2_execute
 2058              		.section	.rodata.str1.4,"aMS",%progbits,1
 2059              		.align	2
 2060              	.LC0:
 2061 0000 2D2D2D20 		.ascii	"--- System: \000"
 2061      53797374 
 2061      656D3A20 
 2061      00
 2062 000d 000000   		.space	3
 2063              	.LC1:
 2064 0010 20627974 		.ascii	" bytes\000"
ARM GAS  /tmp/ccE8ADpL.s 			page 38


 2064      657300
 2065 0017 00       		.space	1
 2066              	.LC2:
 2067 0018 2D2D2D20 		.ascii	"--- Thread: \000"
 2067      54687265 
 2067      61643A20 
 2067      00
 2068 0025 000000   		.space	3
 2069              	.LC3:
 2070 0028 2D2D2D20 		.ascii	"--- Timer : \000"
 2070      54696D65 
 2070      72203A20 
 2070      00
 2071 0035 000000   		.space	3
 2072              	.LC4:
 2073 0038 2D2D2D20 		.ascii	"--- Semaph: \000"
 2073      53656D61 
 2073      70683A20 
 2073      00
 2074 0045 000000   		.space	3
 2075              	.LC5:
 2076 0048 2D2D2D20 		.ascii	"--- EventS: \000"
 2076      4576656E 
 2076      74533A20 
 2076      00
 2077 0055 000000   		.space	3
 2078              	.LC6:
 2079 0058 2D2D2D20 		.ascii	"--- EventL: \000"
 2079      4576656E 
 2079      744C3A20 
 2079      00
 2080 0065 000000   		.space	3
 2081              	.LC7:
 2082 0068 2D2D2D20 		.ascii	"--- Mutex : \000"
 2082      4D757465 
 2082      78203A20 
 2082      00
 2083 0075 000000   		.space	3
 2084              	.LC8:
 2085 0078 2D2D2D20 		.ascii	"--- CondV.: \000"
 2085      436F6E64 
 2085      562E3A20 
 2085      00
 2086 0085 000000   		.space	3
 2087              	.LC9:
 2088 0088 2D2D2D20 		.ascii	"--- Queue : \000"
 2088      51756575 
 2088      65203A20 
 2088      00
 2089 0095 000000   		.space	3
 2090              	.LC10:
 2091 0098 2D2D2D20 		.ascii	"--- MailB.: \000"
 2091      4D61696C 
 2091      422E3A20 
 2091      00
 2092 00a5 000000   		.space	3
 2093              	.LC11:
ARM GAS  /tmp/ccE8ADpL.s 			page 39


 2094 00a8 2D2D2D20 		.ascii	"--- Score : \000"
 2094      53636F72 
 2094      65203A20 
 2094      00
 2095 00b5 000000   		.space	3
 2096              	.LC12:
 2097 00b8 20746872 		.ascii	" threads/S\000"
 2097      65616473 
 2097      2F5300
 2098 00c3 00       		.space	1
 2099              	.LC13:
 2100 00c4 206D7367 		.ascii	" msgs/S, \000"
 2100      732F532C 
 2100      2000
 2101 00ce 0000     		.space	2
 2102              	.LC14:
 2103 00d0 20637478 		.ascii	" ctxswc/S\000"
 2103      7377632F 
 2103      5300
 2104 00da 0000     		.space	2
 2105              	.LC15:
 2106 00dc 20726573 		.ascii	" reschedules/S, \000"
 2106      63686564 
 2106      756C6573 
 2106      2F532C20 
 2106      00
 2107 00ed 000000   		.space	3
 2108              	.LC16:
 2109 00f0 20627974 		.ascii	" bytes/S\000"
 2109      65732F53 
 2109      00
 2110 00f9 000000   		.space	3
 2111              	.LC17:
 2112 00fc 2074696D 		.ascii	" timers/S\000"
 2112      6572732F 
 2112      5300
 2113 0106 0000     		.space	2
 2114              	.LC18:
 2115 0108 20776169 		.ascii	" wait+signal/S\000"
 2115      742B7369 
 2115      676E616C 
 2115      2F5300
 2116 0117 00       		.space	1
 2117              	.LC19:
 2118 0118 206C6F63 		.ascii	" lock+unlock/S\000"
 2118      6B2B756E 
 2118      6C6F636B 
 2118      2F5300
 2119 0127 00       		.space	1
 2120              	.LC20:
 2121 0128 42656E63 		.ascii	"Benchmark, RAM footprint\000"
 2121      686D6172 
 2121      6B2C2052 
 2121      414D2066 
 2121      6F6F7470 
 2122 0141 000000   		.space	3
 2123              	.LC21:
ARM GAS  /tmp/ccE8ADpL.s 			page 40


 2124 0144 42656E63 		.ascii	"Benchmark, mutexes lock/unlock\000"
 2124      686D6172 
 2124      6B2C206D 
 2124      75746578 
 2124      6573206C 
 2125 0163 00       		.space	1
 2126              	.LC22:
 2127 0164 42656E63 		.ascii	"Benchmark, semaphores wait/signal\000"
 2127      686D6172 
 2127      6B2C2073 
 2127      656D6170 
 2127      686F7265 
 2128 0186 0000     		.space	2
 2129              	.LC23:
 2130 0188 42656E63 		.ascii	"Benchmark, virtual timers set/reset\000"
 2130      686D6172 
 2130      6B2C2076 
 2130      69727475 
 2130      616C2074 
 2131              	.LC24:
 2132 01ac 42656E63 		.ascii	"Benchmark, I/O Queues throughput\000"
 2132      686D6172 
 2132      6B2C2049 
 2132      2F4F2051 
 2132      75657565 
 2133 01cd 000000   		.space	3
 2134              	.LC25:
 2135 01d0 42656E63 		.ascii	"Benchmark, round robin context switching\000"
 2135      686D6172 
 2135      6B2C2072 
 2135      6F756E64 
 2135      20726F62 
 2136 01f9 000000   		.space	3
 2137              	.LC26:
 2138 01fc 42656E63 		.ascii	"Benchmark, mass reschedule, 5 threads\000"
 2138      686D6172 
 2138      6B2C206D 
 2138      61737320 
 2138      72657363 
 2139 0222 0000     		.space	2
 2140              	.LC27:
 2141 0224 42656E63 		.ascii	"Benchmark, threads, create only\000"
 2141      686D6172 
 2141      6B2C2074 
 2141      68726561 
 2141      64732C20 
 2142              	.LC28:
 2143 0244 42656E63 		.ascii	"Benchmark, threads, full cycle\000"
 2143      686D6172 
 2143      6B2C2074 
 2143      68726561 
 2143      64732C20 
 2144 0263 00       		.space	1
 2145              	.LC29:
 2146 0264 42656E63 		.ascii	"Benchmark, context switch\000"
 2146      686D6172 
 2146      6B2C2063 
ARM GAS  /tmp/ccE8ADpL.s 			page 41


 2146      6F6E7465 
 2146      78742073 
 2147 027e 0000     		.space	2
 2148              	.LC30:
 2149 0280 42656E63 		.ascii	"Benchmark, messages #3\000"
 2149      686D6172 
 2149      6B2C206D 
 2149      65737361 
 2149      67657320 
 2150 0297 00       		.space	1
 2151              	.LC31:
 2152 0298 42656E63 		.ascii	"Benchmark, messages #2\000"
 2152      686D6172 
 2152      6B2C206D 
 2152      65737361 
 2152      67657320 
 2153 02af 00       		.space	1
 2154              	.LC32:
 2155 02b0 42656E63 		.ascii	"Benchmark, messages #1\000"
 2155      686D6172 
 2155      6B2C206D 
 2155      65737361 
 2155      67657320 
 2156 02c7 00       		.section	.rodata.testbmk9,"a",%progbits
 2157              		.align	2
 2158              		.type	testbmk9, %object
 2159              		.size	testbmk9, 16
 2160              	testbmk9:
 2161 0000 AC010000 		.word	.LC24
 2162 0004 00000000 		.word	0
 2163 0008 00000000 		.word	0
 2164 000c 00000000 		.word	bmk9_execute
 2165              		.section	.bss.sem1,"aw",%nobits
 2166              		.align	2
 2167              		.set	.LANCHOR0,. + 0
 2168              		.type	sem1, %object
 2169              		.size	sem1, 12
 2170              	sem1:
 2171 0000 00000000 		.space	12
 2171      00000000 
 2171      00000000 
 2172              		.section	.rodata.testbmk1,"a",%progbits
 2173              		.align	2
 2174              		.type	testbmk1, %object
 2175              		.size	testbmk1, 16
 2176              	testbmk1:
 2177 0000 B0020000 		.word	.LC32
 2178 0004 00000000 		.word	0
 2179 0008 00000000 		.word	0
 2180 000c 00000000 		.word	bmk1_execute
 2181              		.section	.rodata.testbmk11,"a",%progbits
 2182              		.align	2
 2183              		.type	testbmk11, %object
 2184              		.size	testbmk11, 16
 2185              	testbmk11:
 2186 0000 64010000 		.word	.LC22
 2187 0004 00000000 		.word	bmk11_setup
ARM GAS  /tmp/ccE8ADpL.s 			page 42


 2188 0008 00000000 		.word	0
 2189 000c 00000000 		.word	bmk11_execute
 2190              		.section	.rodata.testbmk12,"a",%progbits
 2191              		.align	2
 2192              		.type	testbmk12, %object
 2193              		.size	testbmk12, 16
 2194              	testbmk12:
 2195 0000 44010000 		.word	.LC21
 2196 0004 00000000 		.word	bmk12_setup
 2197 0008 00000000 		.word	0
 2198 000c 00000000 		.word	bmk12_execute
 2199              		.section	.rodata.testbmk13,"a",%progbits
 2200              		.align	2
 2201              		.type	testbmk13, %object
 2202              		.size	testbmk13, 16
 2203              	testbmk13:
 2204 0000 28010000 		.word	.LC20
 2205 0004 00000000 		.word	0
 2206 0008 00000000 		.word	0
 2207 000c 00000000 		.word	bmk13_execute
 2208              		.section	.rodata.testbmk5,"a",%progbits
 2209              		.align	2
 2210              		.type	testbmk5, %object
 2211              		.size	testbmk5, 16
 2212              	testbmk5:
 2213 0000 44020000 		.word	.LC28
 2214 0004 00000000 		.word	0
 2215 0008 00000000 		.word	0
 2216 000c 00000000 		.word	bmk5_execute
 2217              		.section	.bss.ib.4989,"aw",%nobits
 2218              		.align	2
 2219              		.set	.LANCHOR2,. + 0
 2220              		.type	ib.4989, %object
 2221              		.size	ib.4989, 16
 2222              	ib.4989:
 2223 0000 00000000 		.space	16
 2223      00000000 
 2223      00000000 
 2223      00000000 
 2224              		.section	.rodata.testbmk7,"a",%progbits
 2225              		.align	2
 2226              		.type	testbmk7, %object
 2227              		.size	testbmk7, 16
 2228              	testbmk7:
 2229 0000 FC010000 		.word	.LC26
 2230 0004 00000000 		.word	bmk7_setup
 2231 0008 00000000 		.word	0
 2232 000c 00000000 		.word	bmk7_execute
 2233              		.text
 2234              	.Letext0:
 2235              		.file 2 "/usr/lib/gcc/arm-none-eabi/4.8.2/include/stddef.h"
 2236              		.file 3 "/usr/include/newlib/machine/_default_types.h"
 2237              		.file 4 "/usr/include/newlib/stdint.h"
 2238              		.file 5 "../../../os/ports/GCC/ARMCMx/chtypes.h"
 2239              		.file 6 "../../../os/kernel/include/chlists.h"
 2240              		.file 7 "../../../os/kernel/include/chthreads.h"
 2241              		.file 8 "../../../os/ports/GCC/ARMCMx/chcore_v7m.h"
ARM GAS  /tmp/ccE8ADpL.s 			page 43


 2242              		.file 9 "../../../os/kernel/include/chvt.h"
 2243              		.file 10 "../../../os/kernel/include/chschd.h"
 2244              		.file 11 "../../../os/kernel/include/chsem.h"
 2245              		.file 12 "../../../os/kernel/include/chmtx.h"
 2246              		.file 13 "../../../os/kernel/include/chqueues.h"
 2247              		.file 14 "../../../test/test.h"
 2248              		.file 15 "../../../os/kernel/include/chmsg.h"
 2249              		.file 16 "../../../os/kernel/include/chdebug.h"