ARM GAS  /tmp/cc1TPsXe.s 			page 1


   1              		.syntax unified
   2              		.cpu cortex-m4
   3              		.fpu softvfp
   4              		.eabi_attribute 20, 1
   5              		.eabi_attribute 21, 1
   6              		.eabi_attribute 23, 3
   7              		.eabi_attribute 24, 1
   8              		.eabi_attribute 25, 1
   9              		.eabi_attribute 26, 1
  10              		.eabi_attribute 30, 2
  11              		.eabi_attribute 34, 1
  12              		.eabi_attribute 18, 4
  13              		.thumb
  14              		.file	"testmsg.c"
  15              		.text
  16              	.Ltext0:
  17              		.cfi_sections	.debug_frame
  18              		.section	.text.msg1_execute,"ax",%progbits
  19              		.align	2
  20              		.p2align 4,,15
  21              		.thumb
  22              		.thumb_func
  23              		.type	msg1_execute, %function
  24              	msg1_execute:
  25              	.LFB8:
  26              		.file 1 "../../../test/testmsg.c"
  27              		.loc 1 67 0
  28              		.cfi_startproc
  29              		@ args = 0, pretend = 0, frame = 0
  30              		@ frame_needed = 0, uses_anonymous_args = 0
  31 0000 10B5     		push	{r4, lr}
  32              		.cfi_def_cfa_offset 8
  33              		.cfi_offset 4, -8
  34              		.cfi_offset 14, -4
  35              		.loc 1 74 0
  36 0002 40F20002 		movw	r2, #:lower16:rlist
  37 0006 C0F20002 		movt	r2, #:upper16:rlist
  38 000a 40F20003 		movw	r3, #:lower16:wa
  39 000e 9169     		ldr	r1, [r2, #24]
  40 0010 C0F20003 		movt	r3, #:upper16:wa
  41              		.loc 1 67 0
  42 0014 82B0     		sub	sp, sp, #8
  43              		.cfi_def_cfa_offset 16
  44              		.loc 1 74 0
  45 0016 8A68     		ldr	r2, [r1, #8]
  46 0018 1868     		ldr	r0, [r3]
  47 001a 0091     		str	r1, [sp]
  48 001c 40F20003 		movw	r3, #:lower16:thread
  49 0020 0132     		adds	r2, r2, #1
  50 0022 4FF4A871 		mov	r1, #336
  51 0026 C0F20003 		movt	r3, #:upper16:thread
  52 002a FFF7FEFF 		bl	chThdCreateStatic
  53              	.LVL0:
  54 002e 40F20003 		movw	r3, #:lower16:threads
  55 0032 C0F20003 		movt	r3, #:upper16:threads
  56 0036 1860     		str	r0, [r3]
  57              		.loc 1 76 0
ARM GAS  /tmp/cc1TPsXe.s 			page 2


  58 0038 FFF7FEFF 		bl	chMsgWait
  59              	.LVL1:
  60              		.loc 1 77 0
  61 003c 846B     		ldr	r4, [r0, #56]
  62              	.LVL2:
  63              		.loc 1 78 0
  64 003e 2146     		mov	r1, r4
  65 0040 FFF7FEFF 		bl	chMsgRelease
  66              	.LVL3:
  67              		.loc 1 79 0
  68 0044 E0B2     		uxtb	r0, r4
  69 0046 FFF7FEFF 		bl	test_emit_token
  70              	.LVL4:
  71              		.loc 1 80 0
  72 004a FFF7FEFF 		bl	chMsgWait
  73              	.LVL5:
  74              		.loc 1 81 0
  75 004e 846B     		ldr	r4, [r0, #56]
  76              	.LVL6:
  77              		.loc 1 82 0
  78 0050 2146     		mov	r1, r4
  79 0052 FFF7FEFF 		bl	chMsgRelease
  80              	.LVL7:
  81              		.loc 1 83 0
  82 0056 E0B2     		uxtb	r0, r4
  83 0058 FFF7FEFF 		bl	test_emit_token
  84              	.LVL8:
  85              		.loc 1 84 0
  86 005c FFF7FEFF 		bl	chMsgWait
  87              	.LVL9:
  88              		.loc 1 85 0
  89 0060 846B     		ldr	r4, [r0, #56]
  90              	.LVL10:
  91              		.loc 1 86 0
  92 0062 2146     		mov	r1, r4
  93 0064 FFF7FEFF 		bl	chMsgRelease
  94              	.LVL11:
  95              		.loc 1 87 0
  96 0068 E0B2     		uxtb	r0, r4
  97 006a FFF7FEFF 		bl	test_emit_token
  98              	.LVL12:
  99              		.loc 1 88 0
 100 006e 40F20001 		movw	r1, #:lower16:.LC0
 101 0072 C0F20001 		movt	r1, #:upper16:.LC0
 102 0076 0120     		movs	r0, #1
 103              		.loc 1 89 0
 104 0078 02B0     		add	sp, sp, #8
 105              		@ sp needed
 106 007a BDE81040 		pop	{r4, lr}
 107              	.LVL13:
 108              		.loc 1 88 0
 109 007e FFF7FEBF 		b	_test_assert_sequence
 110              	.LVL14:
 111              		.cfi_endproc
 112              	.LFE8:
 113              		.size	msg1_execute, .-msg1_execute
 114 0082 00BFAFF3 		.section	.text.thread,"ax",%progbits
ARM GAS  /tmp/cc1TPsXe.s 			page 3


 114      0080AFF3 
 114      0080AFF3 
 114      0080
 115              		.align	2
 116              		.p2align 4,,15
 117              		.thumb
 118              		.thumb_func
 119              		.type	thread, %function
 120              	thread:
 121              	.LFB7:
 122              		.loc 1 59 0
 123              		.cfi_startproc
 124              		@ args = 0, pretend = 0, frame = 0
 125              		@ frame_needed = 0, uses_anonymous_args = 0
 126              	.LVL15:
 127 0000 10B5     		push	{r4, lr}
 128              		.cfi_def_cfa_offset 8
 129              		.cfi_offset 4, -8
 130              		.cfi_offset 14, -4
 131              		.loc 1 61 0
 132 0002 4121     		movs	r1, #65
 133              		.loc 1 59 0
 134 0004 0446     		mov	r4, r0
 135              		.loc 1 61 0
 136 0006 FFF7FEFF 		bl	chMsgSend
 137              	.LVL16:
 138              		.loc 1 62 0
 139 000a 2046     		mov	r0, r4
 140 000c 4221     		movs	r1, #66
 141 000e FFF7FEFF 		bl	chMsgSend
 142              	.LVL17:
 143              		.loc 1 63 0
 144 0012 2046     		mov	r0, r4
 145 0014 4321     		movs	r1, #67
 146 0016 FFF7FEFF 		bl	chMsgSend
 147              	.LVL18:
 148              		.loc 1 65 0
 149 001a 0020     		movs	r0, #0
 150 001c 10BD     		pop	{r4, pc}
 151              		.cfi_endproc
 152              	.LFE7:
 153              		.size	thread, .-thread
 154              		.global	patternmsg
 155              		.global	testmsg1
 156 001e 00BF     		.section	.rodata.testmsg1,"a",%progbits
 157              		.align	2
 158              		.type	testmsg1, %object
 159              		.size	testmsg1, 16
 160              	testmsg1:
 161 0000 04000000 		.word	.LC1
 162 0004 00000000 		.word	0
 163 0008 00000000 		.word	0
 164 000c 00000000 		.word	msg1_execute
 165              		.section	.rodata.str1.4,"aMS",%progbits,1
 166              		.align	2
 167              	.LC0:
 168 0000 41424300 		.ascii	"ABC\000"
ARM GAS  /tmp/cc1TPsXe.s 			page 4


 169              	.LC1:
 170 0004 4D657373 		.ascii	"Messages, loop\000"
 170      61676573 
 170      2C206C6F 
 170      6F7000
 171 0013 00       		.section	.rodata.patternmsg,"a",%progbits
 172              		.align	2
 173              		.type	patternmsg, %object
 174              		.size	patternmsg, 8
 175              	patternmsg:
 176 0000 00000000 		.word	testmsg1
 177 0004 00000000 		.word	0
 178              		.text
 179              	.Letext0:
 180              		.file 2 "/usr/lib/gcc/arm-none-eabi/4.8.2/include/stddef.h"
 181              		.file 3 "/usr/include/newlib/machine/_default_types.h"
 182              		.file 4 "/usr/include/newlib/stdint.h"
 183              		.file 5 "../../../os/ports/GCC/ARMCMx/chtypes.h"
 184              		.file 6 "../../../os/kernel/include/chlists.h"
 185              		.file 7 "../../../os/kernel/include/chthreads.h"
 186              		.file 8 "../../../os/ports/GCC/ARMCMx/chcore_v7m.h"
 187              		.file 9 "../../../os/kernel/include/chschd.h"
 188              		.file 10 "../../../os/kernel/include/chmtx.h"
 189              		.file 11 "../../../test/test.h"
 190              		.file 12 "../../../os/kernel/include/chmsg.h"
 191              		.section	.debug_info,"",%progbits
 192              	.Ldebug_info0:
 193 0000 32070000 		.4byte	0x732
 194 0004 0400     		.2byte	0x4
 195 0006 00000000 		.4byte	.Ldebug_abbrev0
 196 000a 04       		.byte	0x4
 197 000b 01       		.uleb128 0x1
 198 000c 2F000000 		.4byte	.LASF87
 199 0010 01       		.byte	0x1
 200 0011 BF020000 		.4byte	.LASF88
 201 0015 49020000 		.4byte	.LASF89
 202 0019 00000000 		.4byte	.Ldebug_ranges0+0
 203 001d 00000000 		.4byte	0
 204 0021 00000000 		.4byte	.Ldebug_line0
 205 0025 02       		.uleb128 0x2
 206 0026 04       		.byte	0x4
 207 0027 05       		.byte	0x5
 208 0028 696E7400 		.ascii	"int\000"
 209 002c 03       		.uleb128 0x3
 210 002d 0E000000 		.4byte	.LASF2
 211 0031 02       		.byte	0x2
 212 0032 D4       		.byte	0xd4
 213 0033 37000000 		.4byte	0x37
 214 0037 04       		.uleb128 0x4
 215 0038 04       		.byte	0x4
 216 0039 07       		.byte	0x7
 217 003a 81010000 		.4byte	.LASF0
 218 003e 04       		.uleb128 0x4
 219 003f 01       		.byte	0x1
 220 0040 06       		.byte	0x6
 221 0041 01010000 		.4byte	.LASF1
 222 0045 03       		.uleb128 0x3
ARM GAS  /tmp/cc1TPsXe.s 			page 5


 223 0046 25000000 		.4byte	.LASF3
 224 004a 03       		.byte	0x3
 225 004b 1C       		.byte	0x1c
 226 004c 50000000 		.4byte	0x50
 227 0050 04       		.uleb128 0x4
 228 0051 01       		.byte	0x1
 229 0052 08       		.byte	0x8
 230 0053 16030000 		.4byte	.LASF4
 231 0057 04       		.uleb128 0x4
 232 0058 02       		.byte	0x2
 233 0059 05       		.byte	0x5
 234 005a 2E030000 		.4byte	.LASF5
 235 005e 04       		.uleb128 0x4
 236 005f 02       		.byte	0x2
 237 0060 07       		.byte	0x7
 238 0061 B6010000 		.4byte	.LASF6
 239 0065 03       		.uleb128 0x3
 240 0066 D2030000 		.4byte	.LASF7
 241 006a 03       		.byte	0x3
 242 006b 37       		.byte	0x37
 243 006c 70000000 		.4byte	0x70
 244 0070 04       		.uleb128 0x4
 245 0071 04       		.byte	0x4
 246 0072 05       		.byte	0x5
 247 0073 3E010000 		.4byte	.LASF8
 248 0077 03       		.uleb128 0x3
 249 0078 62010000 		.4byte	.LASF9
 250 007c 03       		.byte	0x3
 251 007d 38       		.byte	0x38
 252 007e 82000000 		.4byte	0x82
 253 0082 04       		.uleb128 0x4
 254 0083 04       		.byte	0x4
 255 0084 07       		.byte	0x7
 256 0085 8E010000 		.4byte	.LASF10
 257 0089 04       		.uleb128 0x4
 258 008a 08       		.byte	0x8
 259 008b 05       		.byte	0x5
 260 008c F3000000 		.4byte	.LASF11
 261 0090 03       		.uleb128 0x3
 262 0091 D7020000 		.4byte	.LASF12
 263 0095 03       		.byte	0x3
 264 0096 4E       		.byte	0x4e
 265 0097 9B000000 		.4byte	0x9b
 266 009b 04       		.uleb128 0x4
 267 009c 08       		.byte	0x8
 268 009d 07       		.byte	0x7
 269 009e CC000000 		.4byte	.LASF13
 270 00a2 03       		.uleb128 0x3
 271 00a3 16040000 		.4byte	.LASF14
 272 00a7 04       		.byte	0x4
 273 00a8 2A       		.byte	0x2a
 274 00a9 45000000 		.4byte	0x45
 275 00ad 03       		.uleb128 0x3
 276 00ae 0E030000 		.4byte	.LASF15
 277 00b2 04       		.byte	0x4
 278 00b3 41       		.byte	0x41
 279 00b4 65000000 		.4byte	0x65
ARM GAS  /tmp/cc1TPsXe.s 			page 6


 280 00b8 03       		.uleb128 0x3
 281 00b9 A0030000 		.4byte	.LASF16
 282 00bd 04       		.byte	0x4
 283 00be 42       		.byte	0x42
 284 00bf 77000000 		.4byte	0x77
 285 00c3 03       		.uleb128 0x3
 286 00c4 1C000000 		.4byte	.LASF17
 287 00c8 04       		.byte	0x4
 288 00c9 4E       		.byte	0x4e
 289 00ca 90000000 		.4byte	0x90
 290 00ce 03       		.uleb128 0x3
 291 00cf 15010000 		.4byte	.LASF18
 292 00d3 05       		.byte	0x5
 293 00d4 2B       		.byte	0x2b
 294 00d5 D9000000 		.4byte	0xd9
 295 00d9 04       		.uleb128 0x4
 296 00da 01       		.byte	0x1
 297 00db 02       		.byte	0x2
 298 00dc 08030000 		.4byte	.LASF19
 299 00e0 03       		.uleb128 0x3
 300 00e1 D7010000 		.4byte	.LASF20
 301 00e5 05       		.byte	0x5
 302 00e6 2C       		.byte	0x2c
 303 00e7 A2000000 		.4byte	0xa2
 304 00eb 03       		.uleb128 0x3
 305 00ec 51010000 		.4byte	.LASF21
 306 00f0 05       		.byte	0x5
 307 00f1 2D       		.byte	0x2d
 308 00f2 A2000000 		.4byte	0xa2
 309 00f6 03       		.uleb128 0x3
 310 00f7 E2020000 		.4byte	.LASF22
 311 00fb 05       		.byte	0x5
 312 00fc 2E       		.byte	0x2e
 313 00fd A2000000 		.4byte	0xa2
 314 0101 03       		.uleb128 0x3
 315 0102 34010000 		.4byte	.LASF23
 316 0106 05       		.byte	0x5
 317 0107 2F       		.byte	0x2f
 318 0108 A2000000 		.4byte	0xa2
 319 010c 03       		.uleb128 0x3
 320 010d F9020000 		.4byte	.LASF24
 321 0111 05       		.byte	0x5
 322 0112 30       		.byte	0x30
 323 0113 B8000000 		.4byte	0xb8
 324 0117 03       		.uleb128 0x3
 325 0118 C9010000 		.4byte	.LASF25
 326 011c 05       		.byte	0x5
 327 011d 31       		.byte	0x31
 328 011e AD000000 		.4byte	0xad
 329 0122 03       		.uleb128 0x3
 330 0123 EB010000 		.4byte	.LASF26
 331 0127 05       		.byte	0x5
 332 0128 33       		.byte	0x33
 333 0129 B8000000 		.4byte	0xb8
 334 012d 03       		.uleb128 0x3
 335 012e BD030000 		.4byte	.LASF27
 336 0132 05       		.byte	0x5
ARM GAS  /tmp/cc1TPsXe.s 			page 7


 337 0133 35       		.byte	0x35
 338 0134 B8000000 		.4byte	0xb8
 339 0138 03       		.uleb128 0x3
 340 0139 78030000 		.4byte	.LASF28
 341 013d 06       		.byte	0x6
 342 013e 2A       		.byte	0x2a
 343 013f 43010000 		.4byte	0x143
 344 0143 05       		.uleb128 0x5
 345 0144 78030000 		.4byte	.LASF28
 346 0148 4C       		.byte	0x4c
 347 0149 07       		.byte	0x7
 348 014a 5E       		.byte	0x5e
 349 014b 4C020000 		.4byte	0x24c
 350 014f 06       		.uleb128 0x6
 351 0150 69030000 		.4byte	.LASF29
 352 0154 07       		.byte	0x7
 353 0155 5F       		.byte	0x5f
 354 0156 6D020000 		.4byte	0x26d
 355 015a 00       		.byte	0
 356 015b 06       		.uleb128 0x6
 357 015c EA020000 		.4byte	.LASF30
 358 0160 07       		.byte	0x7
 359 0161 61       		.byte	0x61
 360 0162 6D020000 		.4byte	0x26d
 361 0166 04       		.byte	0x4
 362 0167 06       		.uleb128 0x6
 363 0168 EC000000 		.4byte	.LASF31
 364 016c 07       		.byte	0x7
 365 016d 63       		.byte	0x63
 366 016e 0C010000 		.4byte	0x10c
 367 0172 08       		.byte	0x8
 368 0173 06       		.uleb128 0x6
 369 0174 41040000 		.4byte	.LASF32
 370 0178 07       		.byte	0x7
 371 0179 64       		.byte	0x64
 372 017a 32030000 		.4byte	0x332
 373 017e 0C       		.byte	0xc
 374 017f 06       		.uleb128 0x6
 375 0180 5A010000 		.4byte	.LASF33
 376 0184 07       		.byte	0x7
 377 0185 66       		.byte	0x66
 378 0186 6D020000 		.4byte	0x26d
 379 018a 10       		.byte	0x10
 380 018b 06       		.uleb128 0x6
 381 018c 2E020000 		.4byte	.LASF34
 382 0190 07       		.byte	0x7
 383 0191 67       		.byte	0x67
 384 0192 6D020000 		.4byte	0x26d
 385 0196 14       		.byte	0x14
 386 0197 06       		.uleb128 0x6
 387 0198 32040000 		.4byte	.LASF35
 388 019c 07       		.byte	0x7
 389 019d 6E       		.byte	0x6e
 390 019e 32040000 		.4byte	0x432
 391 01a2 18       		.byte	0x18
 392 01a3 06       		.uleb128 0x6
 393 01a4 76010000 		.4byte	.LASF36
ARM GAS  /tmp/cc1TPsXe.s 			page 8


 394 01a8 07       		.byte	0x7
 395 01a9 74       		.byte	0x74
 396 01aa 44040000 		.4byte	0x444
 397 01ae 1C       		.byte	0x1c
 398 01af 06       		.uleb128 0x6
 399 01b0 38030000 		.4byte	.LASF37
 400 01b4 07       		.byte	0x7
 401 01b5 79       		.byte	0x79
 402 01b6 EB000000 		.4byte	0xeb
 403 01ba 20       		.byte	0x20
 404 01bb 06       		.uleb128 0x6
 405 01bc 70030000 		.4byte	.LASF38
 406 01c0 07       		.byte	0x7
 407 01c1 7D       		.byte	0x7d
 408 01c2 E0000000 		.4byte	0xe0
 409 01c6 21       		.byte	0x21
 410 01c7 06       		.uleb128 0x6
 411 01c8 FF030000 		.4byte	.LASF39
 412 01cc 07       		.byte	0x7
 413 01cd 82       		.byte	0x82
 414 01ce F6000000 		.4byte	0xf6
 415 01d2 22       		.byte	0x22
 416 01d3 06       		.uleb128 0x6
 417 01d4 40030000 		.4byte	.LASF40
 418 01d8 07       		.byte	0x7
 419 01d9 88       		.byte	0x88
 420 01da 01010000 		.4byte	0x101
 421 01de 23       		.byte	0x23
 422 01df 06       		.uleb128 0x6
 423 01e0 DC030000 		.4byte	.LASF41
 424 01e4 07       		.byte	0x7
 425 01e5 8F       		.byte	0x8f
 426 01e6 5A030000 		.4byte	0x35a
 427 01ea 24       		.byte	0x24
 428 01eb 07       		.uleb128 0x7
 429 01ec 705F7500 		.ascii	"p_u\000"
 430 01f0 07       		.byte	0x7
 431 01f1 B4       		.byte	0xb4
 432 01f2 FD030000 		.4byte	0x3fd
 433 01f6 28       		.byte	0x28
 434 01f7 06       		.uleb128 0x6
 435 01f8 47040000 		.4byte	.LASF42
 436 01fc 07       		.byte	0x7
 437 01fd B9       		.byte	0xb9
 438 01fe 93020000 		.4byte	0x293
 439 0202 2C       		.byte	0x2c
 440 0203 06       		.uleb128 0x6
 441 0204 EA030000 		.4byte	.LASF43
 442 0208 07       		.byte	0x7
 443 0209 BF       		.byte	0xbf
 444 020a 73020000 		.4byte	0x273
 445 020e 30       		.byte	0x30
 446 020f 06       		.uleb128 0x6
 447 0210 08000000 		.4byte	.LASF44
 448 0214 07       		.byte	0x7
 449 0215 C3       		.byte	0xc3
 450 0216 17010000 		.4byte	0x117
ARM GAS  /tmp/cc1TPsXe.s 			page 9


 451 021a 38       		.byte	0x38
 452 021b 06       		.uleb128 0x6
 453 021c 95030000 		.4byte	.LASF45
 454 0220 07       		.byte	0x7
 455 0221 C9       		.byte	0xc9
 456 0222 22010000 		.4byte	0x122
 457 0226 3C       		.byte	0x3c
 458 0227 06       		.uleb128 0x6
 459 0228 24030000 		.4byte	.LASF46
 460 022c 07       		.byte	0x7
 461 022d D0       		.byte	0xd0
 462 022e 4A040000 		.4byte	0x44a
 463 0232 40       		.byte	0x40
 464 0233 06       		.uleb128 0x6
 465 0234 C7030000 		.4byte	.LASF47
 466 0238 07       		.byte	0x7
 467 0239 D4       		.byte	0xd4
 468 023a 0C010000 		.4byte	0x10c
 469 023e 44       		.byte	0x44
 470 023f 06       		.uleb128 0x6
 471 0240 0D010000 		.4byte	.LASF48
 472 0244 07       		.byte	0x7
 473 0245 DA       		.byte	0xda
 474 0246 A9020000 		.4byte	0x2a9
 475 024a 48       		.byte	0x48
 476 024b 00       		.byte	0
 477 024c 08       		.uleb128 0x8
 478 024d 08       		.byte	0x8
 479 024e 06       		.byte	0x6
 480 024f 61       		.byte	0x61
 481 0250 6D020000 		.4byte	0x26d
 482 0254 06       		.uleb128 0x6
 483 0255 69030000 		.4byte	.LASF29
 484 0259 06       		.byte	0x6
 485 025a 62       		.byte	0x62
 486 025b 6D020000 		.4byte	0x26d
 487 025f 00       		.byte	0
 488 0260 06       		.uleb128 0x6
 489 0261 EA020000 		.4byte	.LASF30
 490 0265 06       		.byte	0x6
 491 0266 64       		.byte	0x64
 492 0267 6D020000 		.4byte	0x26d
 493 026b 04       		.byte	0x4
 494 026c 00       		.byte	0
 495 026d 09       		.uleb128 0x9
 496 026e 04       		.byte	0x4
 497 026f 38010000 		.4byte	0x138
 498 0273 03       		.uleb128 0x3
 499 0274 3C020000 		.4byte	.LASF49
 500 0278 06       		.byte	0x6
 501 0279 66       		.byte	0x66
 502 027a 4C020000 		.4byte	0x24c
 503 027e 08       		.uleb128 0x8
 504 027f 04       		.byte	0x4
 505 0280 06       		.byte	0x6
 506 0281 6B       		.byte	0x6b
 507 0282 93020000 		.4byte	0x293
ARM GAS  /tmp/cc1TPsXe.s 			page 10


 508 0286 06       		.uleb128 0x6
 509 0287 69030000 		.4byte	.LASF29
 510 028b 06       		.byte	0x6
 511 028c 6D       		.byte	0x6d
 512 028d 6D020000 		.4byte	0x26d
 513 0291 00       		.byte	0
 514 0292 00       		.byte	0
 515 0293 03       		.uleb128 0x3
 516 0294 DF010000 		.4byte	.LASF50
 517 0298 06       		.byte	0x6
 518 0299 70       		.byte	0x70
 519 029a 7E020000 		.4byte	0x27e
 520 029e 03       		.uleb128 0x3
 521 029f 6D010000 		.4byte	.LASF51
 522 02a3 08       		.byte	0x8
 523 02a4 E5       		.byte	0xe5
 524 02a5 A9020000 		.4byte	0x2a9
 525 02a9 0A       		.uleb128 0xa
 526 02aa 04       		.byte	0x4
 527 02ab 03       		.uleb128 0x3
 528 02ac FD010000 		.4byte	.LASF52
 529 02b0 08       		.byte	0x8
 530 02b1 EB       		.byte	0xeb
 531 02b2 C3000000 		.4byte	0xc3
 532 02b6 0B       		.uleb128 0xb
 533 02b7 E3030000 		.4byte	.LASF53
 534 02bb 24       		.byte	0x24
 535 02bc 08       		.byte	0x8
 536 02bd 0C01     		.2byte	0x10c
 537 02bf 32030000 		.4byte	0x332
 538 02c3 0C       		.uleb128 0xc
 539 02c4 723400   		.ascii	"r4\000"
 540 02c7 08       		.byte	0x8
 541 02c8 1F01     		.2byte	0x11f
 542 02ca 9E020000 		.4byte	0x29e
 543 02ce 00       		.byte	0
 544 02cf 0C       		.uleb128 0xc
 545 02d0 723500   		.ascii	"r5\000"
 546 02d3 08       		.byte	0x8
 547 02d4 2001     		.2byte	0x120
 548 02d6 9E020000 		.4byte	0x29e
 549 02da 04       		.byte	0x4
 550 02db 0C       		.uleb128 0xc
 551 02dc 723600   		.ascii	"r6\000"
 552 02df 08       		.byte	0x8
 553 02e0 2101     		.2byte	0x121
 554 02e2 9E020000 		.4byte	0x29e
 555 02e6 08       		.byte	0x8
 556 02e7 0C       		.uleb128 0xc
 557 02e8 723700   		.ascii	"r7\000"
 558 02eb 08       		.byte	0x8
 559 02ec 2201     		.2byte	0x122
 560 02ee 9E020000 		.4byte	0x29e
 561 02f2 0C       		.byte	0xc
 562 02f3 0C       		.uleb128 0xc
 563 02f4 723800   		.ascii	"r8\000"
 564 02f7 08       		.byte	0x8
ARM GAS  /tmp/cc1TPsXe.s 			page 11


 565 02f8 2301     		.2byte	0x123
 566 02fa 9E020000 		.4byte	0x29e
 567 02fe 10       		.byte	0x10
 568 02ff 0C       		.uleb128 0xc
 569 0300 723900   		.ascii	"r9\000"
 570 0303 08       		.byte	0x8
 571 0304 2401     		.2byte	0x124
 572 0306 9E020000 		.4byte	0x29e
 573 030a 14       		.byte	0x14
 574 030b 0C       		.uleb128 0xc
 575 030c 72313000 		.ascii	"r10\000"
 576 0310 08       		.byte	0x8
 577 0311 2501     		.2byte	0x125
 578 0313 9E020000 		.4byte	0x29e
 579 0317 18       		.byte	0x18
 580 0318 0C       		.uleb128 0xc
 581 0319 72313100 		.ascii	"r11\000"
 582 031d 08       		.byte	0x8
 583 031e 2601     		.2byte	0x126
 584 0320 9E020000 		.4byte	0x29e
 585 0324 1C       		.byte	0x1c
 586 0325 0C       		.uleb128 0xc
 587 0326 6C7200   		.ascii	"lr\000"
 588 0329 08       		.byte	0x8
 589 032a 2701     		.2byte	0x127
 590 032c 9E020000 		.4byte	0x29e
 591 0330 20       		.byte	0x20
 592 0331 00       		.byte	0
 593 0332 0B       		.uleb128 0xb
 594 0333 AE010000 		.4byte	.LASF54
 595 0337 04       		.byte	0x4
 596 0338 08       		.byte	0x8
 597 0339 3101     		.2byte	0x131
 598 033b 4D030000 		.4byte	0x34d
 599 033f 0C       		.uleb128 0xc
 600 0340 72313300 		.ascii	"r13\000"
 601 0344 08       		.byte	0x8
 602 0345 3201     		.2byte	0x132
 603 0347 4D030000 		.4byte	0x34d
 604 034b 00       		.byte	0
 605 034c 00       		.byte	0
 606 034d 09       		.uleb128 0x9
 607 034e 04       		.byte	0x4
 608 034f B6020000 		.4byte	0x2b6
 609 0353 04       		.uleb128 0x4
 610 0354 04       		.byte	0x4
 611 0355 07       		.byte	0x7
 612 0356 25020000 		.4byte	.LASF55
 613 035a 0D       		.uleb128 0xd
 614 035b 2D010000 		.4byte	0x12d
 615 035f 08       		.uleb128 0x8
 616 0360 1C       		.byte	0x1c
 617 0361 09       		.byte	0x9
 618 0362 5E       		.byte	0x5e
 619 0363 B0030000 		.4byte	0x3b0
 620 0367 06       		.uleb128 0x6
 621 0368 A9030000 		.4byte	.LASF56
ARM GAS  /tmp/cc1TPsXe.s 			page 12


 622 036c 09       		.byte	0x9
 623 036d 5F       		.byte	0x5f
 624 036e 73020000 		.4byte	0x273
 625 0372 00       		.byte	0
 626 0373 06       		.uleb128 0x6
 627 0374 52030000 		.4byte	.LASF57
 628 0378 09       		.byte	0x9
 629 0379 60       		.byte	0x60
 630 037a 0C010000 		.4byte	0x10c
 631 037e 08       		.byte	0x8
 632 037f 06       		.uleb128 0x6
 633 0380 36020000 		.4byte	.LASF58
 634 0384 09       		.byte	0x9
 635 0385 62       		.byte	0x62
 636 0386 32030000 		.4byte	0x332
 637 038a 0C       		.byte	0xc
 638 038b 06       		.uleb128 0x6
 639 038c CF010000 		.4byte	.LASF59
 640 0390 09       		.byte	0x9
 641 0391 65       		.byte	0x65
 642 0392 6D020000 		.4byte	0x26d
 643 0396 10       		.byte	0x10
 644 0397 06       		.uleb128 0x6
 645 0398 B7020000 		.4byte	.LASF60
 646 039c 09       		.byte	0x9
 647 039d 66       		.byte	0x66
 648 039e 6D020000 		.4byte	0x26d
 649 03a2 14       		.byte	0x14
 650 03a3 06       		.uleb128 0x6
 651 03a4 AD020000 		.4byte	.LASF61
 652 03a8 09       		.byte	0x9
 653 03a9 69       		.byte	0x69
 654 03aa 6D020000 		.4byte	0x26d
 655 03ae 18       		.byte	0x18
 656 03af 00       		.byte	0
 657 03b0 03       		.uleb128 0x3
 658 03b1 06040000 		.4byte	.LASF62
 659 03b5 09       		.byte	0x9
 660 03b6 6B       		.byte	0x6b
 661 03b7 5F030000 		.4byte	0x35f
 662 03bb 05       		.uleb128 0x5
 663 03bc F7010000 		.4byte	.LASF63
 664 03c0 10       		.byte	0x10
 665 03c1 0A       		.byte	0xa
 666 03c2 2C       		.byte	0x2c
 667 03c3 EC030000 		.4byte	0x3ec
 668 03c7 06       		.uleb128 0x6
 669 03c8 1C010000 		.4byte	.LASF64
 670 03cc 0A       		.byte	0xa
 671 03cd 2D       		.byte	0x2d
 672 03ce 73020000 		.4byte	0x273
 673 03d2 00       		.byte	0
 674 03d3 06       		.uleb128 0x6
 675 03d4 39040000 		.4byte	.LASF65
 676 03d8 0A       		.byte	0xa
 677 03d9 2F       		.byte	0x2f
 678 03da 6D020000 		.4byte	0x26d
ARM GAS  /tmp/cc1TPsXe.s 			page 13


 679 03de 08       		.byte	0x8
 680 03df 06       		.uleb128 0x6
 681 03e0 B6030000 		.4byte	.LASF66
 682 03e4 0A       		.byte	0xa
 683 03e5 31       		.byte	0x31
 684 03e6 EC030000 		.4byte	0x3ec
 685 03ea 0C       		.byte	0xc
 686 03eb 00       		.byte	0
 687 03ec 09       		.uleb128 0x9
 688 03ed 04       		.byte	0x4
 689 03ee BB030000 		.4byte	0x3bb
 690 03f2 03       		.uleb128 0x3
 691 03f3 F7010000 		.4byte	.LASF63
 692 03f7 0A       		.byte	0xa
 693 03f8 33       		.byte	0x33
 694 03f9 BB030000 		.4byte	0x3bb
 695 03fd 0E       		.uleb128 0xe
 696 03fe 04       		.byte	0x4
 697 03ff 07       		.byte	0x7
 698 0400 96       		.byte	0x96
 699 0401 32040000 		.4byte	0x432
 700 0405 0F       		.uleb128 0xf
 701 0406 15000000 		.4byte	.LASF67
 702 040a 07       		.byte	0x7
 703 040b 9D       		.byte	0x9d
 704 040c 17010000 		.4byte	0x117
 705 0410 0F       		.uleb128 0xf
 706 0411 E3000000 		.4byte	.LASF68
 707 0415 07       		.byte	0x7
 708 0416 A4       		.byte	0xa4
 709 0417 17010000 		.4byte	0x117
 710 041b 0F       		.uleb128 0xf
 711 041c 2B040000 		.4byte	.LASF69
 712 0420 07       		.byte	0x7
 713 0421 AB       		.byte	0xab
 714 0422 A9020000 		.4byte	0x2a9
 715 0426 0F       		.uleb128 0xf
 716 0427 62030000 		.4byte	.LASF70
 717 042b 07       		.byte	0x7
 718 042c B2       		.byte	0xb2
 719 042d 22010000 		.4byte	0x122
 720 0431 00       		.byte	0
 721 0432 09       		.uleb128 0x9
 722 0433 04       		.byte	0x4
 723 0434 38040000 		.4byte	0x438
 724 0438 10       		.uleb128 0x10
 725 0439 3D040000 		.4byte	0x43d
 726 043d 04       		.uleb128 0x4
 727 043e 01       		.byte	0x1
 728 043f 08       		.byte	0x8
 729 0440 B1030000 		.4byte	.LASF71
 730 0444 09       		.uleb128 0x9
 731 0445 04       		.byte	0x4
 732 0446 AB020000 		.4byte	0x2ab
 733 044a 09       		.uleb128 0x9
 734 044b 04       		.byte	0x4
 735 044c F2030000 		.4byte	0x3f2
ARM GAS  /tmp/cc1TPsXe.s 			page 14


 736 0450 03       		.uleb128 0x3
 737 0451 00000000 		.4byte	.LASF72
 738 0455 07       		.byte	0x7
 739 0456 E5       		.byte	0xe5
 740 0457 5B040000 		.4byte	0x45b
 741 045b 09       		.uleb128 0x9
 742 045c 04       		.byte	0x4
 743 045d 61040000 		.4byte	0x461
 744 0461 11       		.uleb128 0x11
 745 0462 17010000 		.4byte	0x117
 746 0466 70040000 		.4byte	0x470
 747 046a 12       		.uleb128 0x12
 748 046b A9020000 		.4byte	0x2a9
 749 046f 00       		.byte	0
 750 0470 05       		.uleb128 0x5
 751 0471 8C030000 		.4byte	.LASF73
 752 0475 10       		.byte	0x10
 753 0476 0B       		.byte	0xb
 754 0477 3B       		.byte	0x3b
 755 0478 AD040000 		.4byte	0x4ad
 756 047c 06       		.uleb128 0x6
 757 047d A9010000 		.4byte	.LASF74
 758 0481 0B       		.byte	0xb
 759 0482 3C       		.byte	0x3c
 760 0483 32040000 		.4byte	0x432
 761 0487 00       		.byte	0
 762 0488 06       		.uleb128 0x6
 763 0489 91020000 		.4byte	.LASF75
 764 048d 0B       		.byte	0xb
 765 048e 3D       		.byte	0x3d
 766 048f AE040000 		.4byte	0x4ae
 767 0493 04       		.byte	0x4
 768 0494 06       		.uleb128 0x6
 769 0495 A0010000 		.4byte	.LASF76
 770 0499 0B       		.byte	0xb
 771 049a 3E       		.byte	0x3e
 772 049b AE040000 		.4byte	0x4ae
 773 049f 08       		.byte	0x8
 774 04a0 06       		.uleb128 0x6
 775 04a1 F1020000 		.4byte	.LASF77
 776 04a5 0B       		.byte	0xb
 777 04a6 3F       		.byte	0x3f
 778 04a7 AE040000 		.4byte	0x4ae
 779 04ab 0C       		.byte	0xc
 780 04ac 00       		.byte	0
 781 04ad 13       		.uleb128 0x13
 782 04ae 09       		.uleb128 0x9
 783 04af 04       		.byte	0x4
 784 04b0 AD040000 		.4byte	0x4ad
 785 04b4 14       		.uleb128 0x14
 786 04b5 1E040000 		.4byte	.LASF90
 787 04b9 01       		.byte	0x1
 788 04ba 43       		.byte	0x43
 789 04bb 00000000 		.4byte	.LFB8
 790 04bf 82000000 		.4byte	.LFE8-.LFB8
 791 04c3 01       		.uleb128 0x1
 792 04c4 9C       		.byte	0x9c
ARM GAS  /tmp/cc1TPsXe.s 			page 15


 793 04c5 B0050000 		.4byte	0x5b0
 794 04c9 15       		.uleb128 0x15
 795 04ca 747000   		.ascii	"tp\000"
 796 04cd 01       		.byte	0x1
 797 04ce 44       		.byte	0x44
 798 04cf 6D020000 		.4byte	0x26d
 799 04d3 00000000 		.4byte	.LLST0
 800 04d7 15       		.uleb128 0x15
 801 04d8 6D736700 		.ascii	"msg\000"
 802 04dc 01       		.byte	0x1
 803 04dd 45       		.byte	0x45
 804 04de 17010000 		.4byte	0x117
 805 04e2 29000000 		.4byte	.LLST1
 806 04e6 16       		.uleb128 0x16
 807 04e7 2E000000 		.4byte	.LVL0
 808 04eb A3060000 		.4byte	0x6a3
 809 04ef 04050000 		.4byte	0x504
 810 04f3 17       		.uleb128 0x17
 811 04f4 01       		.uleb128 0x1
 812 04f5 53       		.byte	0x53
 813 04f6 05       		.uleb128 0x5
 814 04f7 03       		.byte	0x3
 815 04f8 00000000 		.4byte	thread
 816 04fc 17       		.uleb128 0x17
 817 04fd 01       		.uleb128 0x1
 818 04fe 51       		.byte	0x51
 819 04ff 03       		.uleb128 0x3
 820 0500 0A       		.byte	0xa
 821 0501 5001     		.2byte	0x150
 822 0503 00       		.byte	0
 823 0504 18       		.uleb128 0x18
 824 0505 3C000000 		.4byte	.LVL1
 825 0509 CD060000 		.4byte	0x6cd
 826 050d 16       		.uleb128 0x16
 827 050e 44000000 		.4byte	.LVL3
 828 0512 D8060000 		.4byte	0x6d8
 829 0516 21050000 		.4byte	0x521
 830 051a 17       		.uleb128 0x17
 831 051b 01       		.uleb128 0x1
 832 051c 51       		.byte	0x51
 833 051d 02       		.uleb128 0x2
 834 051e 74       		.byte	0x74
 835 051f 00       		.sleb128 0
 836 0520 00       		.byte	0
 837 0521 16       		.uleb128 0x16
 838 0522 4A000000 		.4byte	.LVL4
 839 0526 EE060000 		.4byte	0x6ee
 840 052a 35050000 		.4byte	0x535
 841 052e 17       		.uleb128 0x17
 842 052f 01       		.uleb128 0x1
 843 0530 50       		.byte	0x50
 844 0531 02       		.uleb128 0x2
 845 0532 74       		.byte	0x74
 846 0533 00       		.sleb128 0
 847 0534 00       		.byte	0
 848 0535 18       		.uleb128 0x18
 849 0536 4E000000 		.4byte	.LVL5
ARM GAS  /tmp/cc1TPsXe.s 			page 16


 850 053a CD060000 		.4byte	0x6cd
 851 053e 16       		.uleb128 0x16
 852 053f 56000000 		.4byte	.LVL7
 853 0543 D8060000 		.4byte	0x6d8
 854 0547 52050000 		.4byte	0x552
 855 054b 17       		.uleb128 0x17
 856 054c 01       		.uleb128 0x1
 857 054d 51       		.byte	0x51
 858 054e 02       		.uleb128 0x2
 859 054f 74       		.byte	0x74
 860 0550 00       		.sleb128 0
 861 0551 00       		.byte	0
 862 0552 16       		.uleb128 0x16
 863 0553 5C000000 		.4byte	.LVL8
 864 0557 EE060000 		.4byte	0x6ee
 865 055b 66050000 		.4byte	0x566
 866 055f 17       		.uleb128 0x17
 867 0560 01       		.uleb128 0x1
 868 0561 50       		.byte	0x50
 869 0562 02       		.uleb128 0x2
 870 0563 74       		.byte	0x74
 871 0564 00       		.sleb128 0
 872 0565 00       		.byte	0
 873 0566 18       		.uleb128 0x18
 874 0567 60000000 		.4byte	.LVL9
 875 056b CD060000 		.4byte	0x6cd
 876 056f 16       		.uleb128 0x16
 877 0570 68000000 		.4byte	.LVL11
 878 0574 D8060000 		.4byte	0x6d8
 879 0578 83050000 		.4byte	0x583
 880 057c 17       		.uleb128 0x17
 881 057d 01       		.uleb128 0x1
 882 057e 51       		.byte	0x51
 883 057f 02       		.uleb128 0x2
 884 0580 74       		.byte	0x74
 885 0581 00       		.sleb128 0
 886 0582 00       		.byte	0
 887 0583 16       		.uleb128 0x16
 888 0584 6E000000 		.4byte	.LVL12
 889 0588 EE060000 		.4byte	0x6ee
 890 058c 97050000 		.4byte	0x597
 891 0590 17       		.uleb128 0x17
 892 0591 01       		.uleb128 0x1
 893 0592 50       		.byte	0x50
 894 0593 02       		.uleb128 0x2
 895 0594 74       		.byte	0x74
 896 0595 00       		.sleb128 0
 897 0596 00       		.byte	0
 898 0597 19       		.uleb128 0x19
 899 0598 82000000 		.4byte	.LVL14
 900 059c FF060000 		.4byte	0x6ff
 901 05a0 17       		.uleb128 0x17
 902 05a1 01       		.uleb128 0x1
 903 05a2 51       		.byte	0x51
 904 05a3 05       		.uleb128 0x5
 905 05a4 03       		.byte	0x3
 906 05a5 00000000 		.4byte	.LC0
ARM GAS  /tmp/cc1TPsXe.s 			page 17


 907 05a9 17       		.uleb128 0x17
 908 05aa 01       		.uleb128 0x1
 909 05ab 50       		.byte	0x50
 910 05ac 01       		.uleb128 0x1
 911 05ad 31       		.byte	0x31
 912 05ae 00       		.byte	0
 913 05af 00       		.byte	0
 914 05b0 1A       		.uleb128 0x1a
 915 05b1 01030000 		.4byte	.LASF91
 916 05b5 01       		.byte	0x1
 917 05b6 3B       		.byte	0x3b
 918 05b7 17010000 		.4byte	0x117
 919 05bb 00000000 		.4byte	.LFB7
 920 05bf 1E000000 		.4byte	.LFE7-.LFB7
 921 05c3 01       		.uleb128 0x1
 922 05c4 9C       		.byte	0x9c
 923 05c5 21060000 		.4byte	0x621
 924 05c9 1B       		.uleb128 0x1b
 925 05ca 7000     		.ascii	"p\000"
 926 05cc 01       		.byte	0x1
 927 05cd 3B       		.byte	0x3b
 928 05ce A9020000 		.4byte	0x2a9
 929 05d2 3C000000 		.4byte	.LLST2
 930 05d6 16       		.uleb128 0x16
 931 05d7 0A000000 		.4byte	.LVL16
 932 05db 1F070000 		.4byte	0x71f
 933 05df F0050000 		.4byte	0x5f0
 934 05e3 17       		.uleb128 0x17
 935 05e4 01       		.uleb128 0x1
 936 05e5 51       		.byte	0x51
 937 05e6 02       		.uleb128 0x2
 938 05e7 08       		.byte	0x8
 939 05e8 41       		.byte	0x41
 940 05e9 17       		.uleb128 0x17
 941 05ea 01       		.uleb128 0x1
 942 05eb 50       		.byte	0x50
 943 05ec 02       		.uleb128 0x2
 944 05ed 74       		.byte	0x74
 945 05ee 00       		.sleb128 0
 946 05ef 00       		.byte	0
 947 05f0 16       		.uleb128 0x16
 948 05f1 12000000 		.4byte	.LVL17
 949 05f5 1F070000 		.4byte	0x71f
 950 05f9 0A060000 		.4byte	0x60a
 951 05fd 17       		.uleb128 0x17
 952 05fe 01       		.uleb128 0x1
 953 05ff 51       		.byte	0x51
 954 0600 02       		.uleb128 0x2
 955 0601 08       		.byte	0x8
 956 0602 42       		.byte	0x42
 957 0603 17       		.uleb128 0x17
 958 0604 01       		.uleb128 0x1
 959 0605 50       		.byte	0x50
 960 0606 02       		.uleb128 0x2
 961 0607 74       		.byte	0x74
 962 0608 00       		.sleb128 0
 963 0609 00       		.byte	0
ARM GAS  /tmp/cc1TPsXe.s 			page 18


 964 060a 1C       		.uleb128 0x1c
 965 060b 1A000000 		.4byte	.LVL18
 966 060f 1F070000 		.4byte	0x71f
 967 0613 17       		.uleb128 0x17
 968 0614 01       		.uleb128 0x1
 969 0615 51       		.byte	0x51
 970 0616 02       		.uleb128 0x2
 971 0617 08       		.byte	0x8
 972 0618 43       		.byte	0x43
 973 0619 17       		.uleb128 0x17
 974 061a 01       		.uleb128 0x1
 975 061b 50       		.byte	0x50
 976 061c 02       		.uleb128 0x2
 977 061d 74       		.byte	0x74
 978 061e 00       		.sleb128 0
 979 061f 00       		.byte	0
 980 0620 00       		.byte	0
 981 0621 1D       		.uleb128 0x1d
 982 0622 10040000 		.4byte	.LASF78
 983 0626 09       		.byte	0x9
 984 0627 6F       		.byte	0x6f
 985 0628 B0030000 		.4byte	0x3b0
 986 062c 1E       		.uleb128 0x1e
 987 062d 6D020000 		.4byte	0x26d
 988 0631 3C060000 		.4byte	0x63c
 989 0635 1F       		.uleb128 0x1f
 990 0636 53030000 		.4byte	0x353
 991 063a 04       		.byte	0x4
 992 063b 00       		.byte	0
 993 063c 1D       		.uleb128 0x1d
 994 063d 4A030000 		.4byte	.LASF79
 995 0641 0B       		.byte	0xb
 996 0642 A5       		.byte	0xa5
 997 0643 2C060000 		.4byte	0x62c
 998 0647 1E       		.uleb128 0x1e
 999 0648 A9020000 		.4byte	0x2a9
 1000 064c 52060000 		.4byte	0x652
 1001 0650 20       		.uleb128 0x20
 1002 0651 00       		.byte	0
 1003 0652 21       		.uleb128 0x21
 1004 0653 776100   		.ascii	"wa\000"
 1005 0656 0B       		.byte	0xb
 1006 0657 A7       		.byte	0xa7
 1007 0658 5C060000 		.4byte	0x65c
 1008 065c 10       		.uleb128 0x10
 1009 065d 47060000 		.4byte	0x647
 1010 0661 22       		.uleb128 0x22
 1011 0662 59030000 		.4byte	.LASF80
 1012 0666 01       		.byte	0x1
 1013 0667 5B       		.byte	0x5b
 1014 0668 72060000 		.4byte	0x672
 1015 066c 05       		.uleb128 0x5
 1016 066d 03       		.byte	0x3
 1017 066e 00000000 		.4byte	testmsg1
 1018 0672 10       		.uleb128 0x10
 1019 0673 70040000 		.4byte	0x470
 1020 0677 1E       		.uleb128 0x1e
ARM GAS  /tmp/cc1TPsXe.s 			page 19


 1021 0678 87060000 		.4byte	0x687
 1022 067c 87060000 		.4byte	0x687
 1023 0680 1F       		.uleb128 0x1f
 1024 0681 53030000 		.4byte	0x353
 1025 0685 01       		.byte	0x1
 1026 0686 00       		.byte	0
 1027 0687 09       		.uleb128 0x9
 1028 0688 04       		.byte	0x4
 1029 0689 72060000 		.4byte	0x672
 1030 068d 22       		.uleb128 0x22
 1031 068e 1A020000 		.4byte	.LASF81
 1032 0692 01       		.byte	0x1
 1033 0693 67       		.byte	0x67
 1034 0694 9E060000 		.4byte	0x69e
 1035 0698 05       		.uleb128 0x5
 1036 0699 03       		.byte	0x3
 1037 069a 00000000 		.4byte	patternmsg
 1038 069e 10       		.uleb128 0x10
 1039 069f 77060000 		.4byte	0x677
 1040 06a3 23       		.uleb128 0x23
 1041 06a4 08020000 		.4byte	.LASF84
 1042 06a8 07       		.byte	0x7
 1043 06a9 7001     		.2byte	0x170
 1044 06ab 6D020000 		.4byte	0x26d
 1045 06af CD060000 		.4byte	0x6cd
 1046 06b3 12       		.uleb128 0x12
 1047 06b4 A9020000 		.4byte	0x2a9
 1048 06b8 12       		.uleb128 0x12
 1049 06b9 2C000000 		.4byte	0x2c
 1050 06bd 12       		.uleb128 0x12
 1051 06be 0C010000 		.4byte	0x10c
 1052 06c2 12       		.uleb128 0x12
 1053 06c3 50040000 		.4byte	0x450
 1054 06c7 12       		.uleb128 0x12
 1055 06c8 A9020000 		.4byte	0x2a9
 1056 06cc 00       		.byte	0
 1057 06cd 24       		.uleb128 0x24
 1058 06ce F5030000 		.4byte	.LASF92
 1059 06d2 0C       		.byte	0xc
 1060 06d3 52       		.byte	0x52
 1061 06d4 6D020000 		.4byte	0x26d
 1062 06d8 25       		.uleb128 0x25
 1063 06d9 7F030000 		.4byte	.LASF82
 1064 06dd 0C       		.byte	0xc
 1065 06de 53       		.byte	0x53
 1066 06df EE060000 		.4byte	0x6ee
 1067 06e3 12       		.uleb128 0x12
 1068 06e4 6D020000 		.4byte	0x26d
 1069 06e8 12       		.uleb128 0x12
 1070 06e9 17010000 		.4byte	0x117
 1071 06ed 00       		.byte	0
 1072 06ee 25       		.uleb128 0x25
 1073 06ef 24010000 		.4byte	.LASF83
 1074 06f3 0B       		.byte	0xb
 1075 06f4 56       		.byte	0x56
 1076 06f5 FF060000 		.4byte	0x6ff
 1077 06f9 12       		.uleb128 0x12
ARM GAS  /tmp/cc1TPsXe.s 			page 20


 1078 06fa 3D040000 		.4byte	0x43d
 1079 06fe 00       		.byte	0
 1080 06ff 26       		.uleb128 0x26
 1081 0700 97020000 		.4byte	.LASF85
 1082 0704 0B       		.byte	0xb
 1083 0705 59       		.byte	0x59
 1084 0706 CE000000 		.4byte	0xce
 1085 070a 19070000 		.4byte	0x719
 1086 070e 12       		.uleb128 0x12
 1087 070f 37000000 		.4byte	0x37
 1088 0713 12       		.uleb128 0x12
 1089 0714 19070000 		.4byte	0x719
 1090 0718 00       		.byte	0
 1091 0719 09       		.uleb128 0x9
 1092 071a 04       		.byte	0x4
 1093 071b 3D040000 		.4byte	0x43d
 1094 071f 27       		.uleb128 0x27
 1095 0720 47010000 		.4byte	.LASF86
 1096 0724 0C       		.byte	0xc
 1097 0725 51       		.byte	0x51
 1098 0726 17010000 		.4byte	0x117
 1099 072a 12       		.uleb128 0x12
 1100 072b 6D020000 		.4byte	0x26d
 1101 072f 12       		.uleb128 0x12
 1102 0730 17010000 		.4byte	0x117
 1103 0734 00       		.byte	0
 1104 0735 00       		.byte	0
 1105              		.section	.debug_abbrev,"",%progbits
 1106              	.Ldebug_abbrev0:
 1107 0000 01       		.uleb128 0x1
 1108 0001 11       		.uleb128 0x11
 1109 0002 01       		.byte	0x1
 1110 0003 25       		.uleb128 0x25
 1111 0004 0E       		.uleb128 0xe
 1112 0005 13       		.uleb128 0x13
 1113 0006 0B       		.uleb128 0xb
 1114 0007 03       		.uleb128 0x3
 1115 0008 0E       		.uleb128 0xe
 1116 0009 1B       		.uleb128 0x1b
 1117 000a 0E       		.uleb128 0xe
 1118 000b 55       		.uleb128 0x55
 1119 000c 17       		.uleb128 0x17
 1120 000d 11       		.uleb128 0x11
 1121 000e 01       		.uleb128 0x1
 1122 000f 10       		.uleb128 0x10
 1123 0010 17       		.uleb128 0x17
 1124 0011 00       		.byte	0
 1125 0012 00       		.byte	0
 1126 0013 02       		.uleb128 0x2
 1127 0014 24       		.uleb128 0x24
 1128 0015 00       		.byte	0
 1129 0016 0B       		.uleb128 0xb
 1130 0017 0B       		.uleb128 0xb
 1131 0018 3E       		.uleb128 0x3e
 1132 0019 0B       		.uleb128 0xb
 1133 001a 03       		.uleb128 0x3
 1134 001b 08       		.uleb128 0x8
ARM GAS  /tmp/cc1TPsXe.s 			page 21


 1135 001c 00       		.byte	0
 1136 001d 00       		.byte	0
 1137 001e 03       		.uleb128 0x3
 1138 001f 16       		.uleb128 0x16
 1139 0020 00       		.byte	0
 1140 0021 03       		.uleb128 0x3
 1141 0022 0E       		.uleb128 0xe
 1142 0023 3A       		.uleb128 0x3a
 1143 0024 0B       		.uleb128 0xb
 1144 0025 3B       		.uleb128 0x3b
 1145 0026 0B       		.uleb128 0xb
 1146 0027 49       		.uleb128 0x49
 1147 0028 13       		.uleb128 0x13
 1148 0029 00       		.byte	0
 1149 002a 00       		.byte	0
 1150 002b 04       		.uleb128 0x4
 1151 002c 24       		.uleb128 0x24
 1152 002d 00       		.byte	0
 1153 002e 0B       		.uleb128 0xb
 1154 002f 0B       		.uleb128 0xb
 1155 0030 3E       		.uleb128 0x3e
 1156 0031 0B       		.uleb128 0xb
 1157 0032 03       		.uleb128 0x3
 1158 0033 0E       		.uleb128 0xe
 1159 0034 00       		.byte	0
 1160 0035 00       		.byte	0
 1161 0036 05       		.uleb128 0x5
 1162 0037 13       		.uleb128 0x13
 1163 0038 01       		.byte	0x1
 1164 0039 03       		.uleb128 0x3
 1165 003a 0E       		.uleb128 0xe
 1166 003b 0B       		.uleb128 0xb
 1167 003c 0B       		.uleb128 0xb
 1168 003d 3A       		.uleb128 0x3a
 1169 003e 0B       		.uleb128 0xb
 1170 003f 3B       		.uleb128 0x3b
 1171 0040 0B       		.uleb128 0xb
 1172 0041 01       		.uleb128 0x1
 1173 0042 13       		.uleb128 0x13
 1174 0043 00       		.byte	0
 1175 0044 00       		.byte	0
 1176 0045 06       		.uleb128 0x6
 1177 0046 0D       		.uleb128 0xd
 1178 0047 00       		.byte	0
 1179 0048 03       		.uleb128 0x3
 1180 0049 0E       		.uleb128 0xe
 1181 004a 3A       		.uleb128 0x3a
 1182 004b 0B       		.uleb128 0xb
 1183 004c 3B       		.uleb128 0x3b
 1184 004d 0B       		.uleb128 0xb
 1185 004e 49       		.uleb128 0x49
 1186 004f 13       		.uleb128 0x13
 1187 0050 38       		.uleb128 0x38
 1188 0051 0B       		.uleb128 0xb
 1189 0052 00       		.byte	0
 1190 0053 00       		.byte	0
 1191 0054 07       		.uleb128 0x7
ARM GAS  /tmp/cc1TPsXe.s 			page 22


 1192 0055 0D       		.uleb128 0xd
 1193 0056 00       		.byte	0
 1194 0057 03       		.uleb128 0x3
 1195 0058 08       		.uleb128 0x8
 1196 0059 3A       		.uleb128 0x3a
 1197 005a 0B       		.uleb128 0xb
 1198 005b 3B       		.uleb128 0x3b
 1199 005c 0B       		.uleb128 0xb
 1200 005d 49       		.uleb128 0x49
 1201 005e 13       		.uleb128 0x13
 1202 005f 38       		.uleb128 0x38
 1203 0060 0B       		.uleb128 0xb
 1204 0061 00       		.byte	0
 1205 0062 00       		.byte	0
 1206 0063 08       		.uleb128 0x8
 1207 0064 13       		.uleb128 0x13
 1208 0065 01       		.byte	0x1
 1209 0066 0B       		.uleb128 0xb
 1210 0067 0B       		.uleb128 0xb
 1211 0068 3A       		.uleb128 0x3a
 1212 0069 0B       		.uleb128 0xb
 1213 006a 3B       		.uleb128 0x3b
 1214 006b 0B       		.uleb128 0xb
 1215 006c 01       		.uleb128 0x1
 1216 006d 13       		.uleb128 0x13
 1217 006e 00       		.byte	0
 1218 006f 00       		.byte	0
 1219 0070 09       		.uleb128 0x9
 1220 0071 0F       		.uleb128 0xf
 1221 0072 00       		.byte	0
 1222 0073 0B       		.uleb128 0xb
 1223 0074 0B       		.uleb128 0xb
 1224 0075 49       		.uleb128 0x49
 1225 0076 13       		.uleb128 0x13
 1226 0077 00       		.byte	0
 1227 0078 00       		.byte	0
 1228 0079 0A       		.uleb128 0xa
 1229 007a 0F       		.uleb128 0xf
 1230 007b 00       		.byte	0
 1231 007c 0B       		.uleb128 0xb
 1232 007d 0B       		.uleb128 0xb
 1233 007e 00       		.byte	0
 1234 007f 00       		.byte	0
 1235 0080 0B       		.uleb128 0xb
 1236 0081 13       		.uleb128 0x13
 1237 0082 01       		.byte	0x1
 1238 0083 03       		.uleb128 0x3
 1239 0084 0E       		.uleb128 0xe
 1240 0085 0B       		.uleb128 0xb
 1241 0086 0B       		.uleb128 0xb
 1242 0087 3A       		.uleb128 0x3a
 1243 0088 0B       		.uleb128 0xb
 1244 0089 3B       		.uleb128 0x3b
 1245 008a 05       		.uleb128 0x5
 1246 008b 01       		.uleb128 0x1
 1247 008c 13       		.uleb128 0x13
 1248 008d 00       		.byte	0
ARM GAS  /tmp/cc1TPsXe.s 			page 23


 1249 008e 00       		.byte	0
 1250 008f 0C       		.uleb128 0xc
 1251 0090 0D       		.uleb128 0xd
 1252 0091 00       		.byte	0
 1253 0092 03       		.uleb128 0x3
 1254 0093 08       		.uleb128 0x8
 1255 0094 3A       		.uleb128 0x3a
 1256 0095 0B       		.uleb128 0xb
 1257 0096 3B       		.uleb128 0x3b
 1258 0097 05       		.uleb128 0x5
 1259 0098 49       		.uleb128 0x49
 1260 0099 13       		.uleb128 0x13
 1261 009a 38       		.uleb128 0x38
 1262 009b 0B       		.uleb128 0xb
 1263 009c 00       		.byte	0
 1264 009d 00       		.byte	0
 1265 009e 0D       		.uleb128 0xd
 1266 009f 35       		.uleb128 0x35
 1267 00a0 00       		.byte	0
 1268 00a1 49       		.uleb128 0x49
 1269 00a2 13       		.uleb128 0x13
 1270 00a3 00       		.byte	0
 1271 00a4 00       		.byte	0
 1272 00a5 0E       		.uleb128 0xe
 1273 00a6 17       		.uleb128 0x17
 1274 00a7 01       		.byte	0x1
 1275 00a8 0B       		.uleb128 0xb
 1276 00a9 0B       		.uleb128 0xb
 1277 00aa 3A       		.uleb128 0x3a
 1278 00ab 0B       		.uleb128 0xb
 1279 00ac 3B       		.uleb128 0x3b
 1280 00ad 0B       		.uleb128 0xb
 1281 00ae 01       		.uleb128 0x1
 1282 00af 13       		.uleb128 0x13
 1283 00b0 00       		.byte	0
 1284 00b1 00       		.byte	0
 1285 00b2 0F       		.uleb128 0xf
 1286 00b3 0D       		.uleb128 0xd
 1287 00b4 00       		.byte	0
 1288 00b5 03       		.uleb128 0x3
 1289 00b6 0E       		.uleb128 0xe
 1290 00b7 3A       		.uleb128 0x3a
 1291 00b8 0B       		.uleb128 0xb
 1292 00b9 3B       		.uleb128 0x3b
 1293 00ba 0B       		.uleb128 0xb
 1294 00bb 49       		.uleb128 0x49
 1295 00bc 13       		.uleb128 0x13
 1296 00bd 00       		.byte	0
 1297 00be 00       		.byte	0
 1298 00bf 10       		.uleb128 0x10
 1299 00c0 26       		.uleb128 0x26
 1300 00c1 00       		.byte	0
 1301 00c2 49       		.uleb128 0x49
 1302 00c3 13       		.uleb128 0x13
 1303 00c4 00       		.byte	0
 1304 00c5 00       		.byte	0
 1305 00c6 11       		.uleb128 0x11
ARM GAS  /tmp/cc1TPsXe.s 			page 24


 1306 00c7 15       		.uleb128 0x15
 1307 00c8 01       		.byte	0x1
 1308 00c9 27       		.uleb128 0x27
 1309 00ca 19       		.uleb128 0x19
 1310 00cb 49       		.uleb128 0x49
 1311 00cc 13       		.uleb128 0x13
 1312 00cd 01       		.uleb128 0x1
 1313 00ce 13       		.uleb128 0x13
 1314 00cf 00       		.byte	0
 1315 00d0 00       		.byte	0
 1316 00d1 12       		.uleb128 0x12
 1317 00d2 05       		.uleb128 0x5
 1318 00d3 00       		.byte	0
 1319 00d4 49       		.uleb128 0x49
 1320 00d5 13       		.uleb128 0x13
 1321 00d6 00       		.byte	0
 1322 00d7 00       		.byte	0
 1323 00d8 13       		.uleb128 0x13
 1324 00d9 15       		.uleb128 0x15
 1325 00da 00       		.byte	0
 1326 00db 27       		.uleb128 0x27
 1327 00dc 19       		.uleb128 0x19
 1328 00dd 00       		.byte	0
 1329 00de 00       		.byte	0
 1330 00df 14       		.uleb128 0x14
 1331 00e0 2E       		.uleb128 0x2e
 1332 00e1 01       		.byte	0x1
 1333 00e2 03       		.uleb128 0x3
 1334 00e3 0E       		.uleb128 0xe
 1335 00e4 3A       		.uleb128 0x3a
 1336 00e5 0B       		.uleb128 0xb
 1337 00e6 3B       		.uleb128 0x3b
 1338 00e7 0B       		.uleb128 0xb
 1339 00e8 27       		.uleb128 0x27
 1340 00e9 19       		.uleb128 0x19
 1341 00ea 11       		.uleb128 0x11
 1342 00eb 01       		.uleb128 0x1
 1343 00ec 12       		.uleb128 0x12
 1344 00ed 06       		.uleb128 0x6
 1345 00ee 40       		.uleb128 0x40
 1346 00ef 18       		.uleb128 0x18
 1347 00f0 9742     		.uleb128 0x2117
 1348 00f2 19       		.uleb128 0x19
 1349 00f3 01       		.uleb128 0x1
 1350 00f4 13       		.uleb128 0x13
 1351 00f5 00       		.byte	0
 1352 00f6 00       		.byte	0
 1353 00f7 15       		.uleb128 0x15
 1354 00f8 34       		.uleb128 0x34
 1355 00f9 00       		.byte	0
 1356 00fa 03       		.uleb128 0x3
 1357 00fb 08       		.uleb128 0x8
 1358 00fc 3A       		.uleb128 0x3a
 1359 00fd 0B       		.uleb128 0xb
 1360 00fe 3B       		.uleb128 0x3b
 1361 00ff 0B       		.uleb128 0xb
 1362 0100 49       		.uleb128 0x49
ARM GAS  /tmp/cc1TPsXe.s 			page 25


 1363 0101 13       		.uleb128 0x13
 1364 0102 02       		.uleb128 0x2
 1365 0103 17       		.uleb128 0x17
 1366 0104 00       		.byte	0
 1367 0105 00       		.byte	0
 1368 0106 16       		.uleb128 0x16
 1369 0107 898201   		.uleb128 0x4109
 1370 010a 01       		.byte	0x1
 1371 010b 11       		.uleb128 0x11
 1372 010c 01       		.uleb128 0x1
 1373 010d 31       		.uleb128 0x31
 1374 010e 13       		.uleb128 0x13
 1375 010f 01       		.uleb128 0x1
 1376 0110 13       		.uleb128 0x13
 1377 0111 00       		.byte	0
 1378 0112 00       		.byte	0
 1379 0113 17       		.uleb128 0x17
 1380 0114 8A8201   		.uleb128 0x410a
 1381 0117 00       		.byte	0
 1382 0118 02       		.uleb128 0x2
 1383 0119 18       		.uleb128 0x18
 1384 011a 9142     		.uleb128 0x2111
 1385 011c 18       		.uleb128 0x18
 1386 011d 00       		.byte	0
 1387 011e 00       		.byte	0
 1388 011f 18       		.uleb128 0x18
 1389 0120 898201   		.uleb128 0x4109
 1390 0123 00       		.byte	0
 1391 0124 11       		.uleb128 0x11
 1392 0125 01       		.uleb128 0x1
 1393 0126 31       		.uleb128 0x31
 1394 0127 13       		.uleb128 0x13
 1395 0128 00       		.byte	0
 1396 0129 00       		.byte	0
 1397 012a 19       		.uleb128 0x19
 1398 012b 898201   		.uleb128 0x4109
 1399 012e 01       		.byte	0x1
 1400 012f 11       		.uleb128 0x11
 1401 0130 01       		.uleb128 0x1
 1402 0131 9542     		.uleb128 0x2115
 1403 0133 19       		.uleb128 0x19
 1404 0134 31       		.uleb128 0x31
 1405 0135 13       		.uleb128 0x13
 1406 0136 00       		.byte	0
 1407 0137 00       		.byte	0
 1408 0138 1A       		.uleb128 0x1a
 1409 0139 2E       		.uleb128 0x2e
 1410 013a 01       		.byte	0x1
 1411 013b 03       		.uleb128 0x3
 1412 013c 0E       		.uleb128 0xe
 1413 013d 3A       		.uleb128 0x3a
 1414 013e 0B       		.uleb128 0xb
 1415 013f 3B       		.uleb128 0x3b
 1416 0140 0B       		.uleb128 0xb
 1417 0141 27       		.uleb128 0x27
 1418 0142 19       		.uleb128 0x19
 1419 0143 49       		.uleb128 0x49
ARM GAS  /tmp/cc1TPsXe.s 			page 26


 1420 0144 13       		.uleb128 0x13
 1421 0145 11       		.uleb128 0x11
 1422 0146 01       		.uleb128 0x1
 1423 0147 12       		.uleb128 0x12
 1424 0148 06       		.uleb128 0x6
 1425 0149 40       		.uleb128 0x40
 1426 014a 18       		.uleb128 0x18
 1427 014b 9742     		.uleb128 0x2117
 1428 014d 19       		.uleb128 0x19
 1429 014e 01       		.uleb128 0x1
 1430 014f 13       		.uleb128 0x13
 1431 0150 00       		.byte	0
 1432 0151 00       		.byte	0
 1433 0152 1B       		.uleb128 0x1b
 1434 0153 05       		.uleb128 0x5
 1435 0154 00       		.byte	0
 1436 0155 03       		.uleb128 0x3
 1437 0156 08       		.uleb128 0x8
 1438 0157 3A       		.uleb128 0x3a
 1439 0158 0B       		.uleb128 0xb
 1440 0159 3B       		.uleb128 0x3b
 1441 015a 0B       		.uleb128 0xb
 1442 015b 49       		.uleb128 0x49
 1443 015c 13       		.uleb128 0x13
 1444 015d 02       		.uleb128 0x2
 1445 015e 17       		.uleb128 0x17
 1446 015f 00       		.byte	0
 1447 0160 00       		.byte	0
 1448 0161 1C       		.uleb128 0x1c
 1449 0162 898201   		.uleb128 0x4109
 1450 0165 01       		.byte	0x1
 1451 0166 11       		.uleb128 0x11
 1452 0167 01       		.uleb128 0x1
 1453 0168 31       		.uleb128 0x31
 1454 0169 13       		.uleb128 0x13
 1455 016a 00       		.byte	0
 1456 016b 00       		.byte	0
 1457 016c 1D       		.uleb128 0x1d
 1458 016d 34       		.uleb128 0x34
 1459 016e 00       		.byte	0
 1460 016f 03       		.uleb128 0x3
 1461 0170 0E       		.uleb128 0xe
 1462 0171 3A       		.uleb128 0x3a
 1463 0172 0B       		.uleb128 0xb
 1464 0173 3B       		.uleb128 0x3b
 1465 0174 0B       		.uleb128 0xb
 1466 0175 49       		.uleb128 0x49
 1467 0176 13       		.uleb128 0x13
 1468 0177 3F       		.uleb128 0x3f
 1469 0178 19       		.uleb128 0x19
 1470 0179 3C       		.uleb128 0x3c
 1471 017a 19       		.uleb128 0x19
 1472 017b 00       		.byte	0
 1473 017c 00       		.byte	0
 1474 017d 1E       		.uleb128 0x1e
 1475 017e 01       		.uleb128 0x1
 1476 017f 01       		.byte	0x1
ARM GAS  /tmp/cc1TPsXe.s 			page 27


 1477 0180 49       		.uleb128 0x49
 1478 0181 13       		.uleb128 0x13
 1479 0182 01       		.uleb128 0x1
 1480 0183 13       		.uleb128 0x13
 1481 0184 00       		.byte	0
 1482 0185 00       		.byte	0
 1483 0186 1F       		.uleb128 0x1f
 1484 0187 21       		.uleb128 0x21
 1485 0188 00       		.byte	0
 1486 0189 49       		.uleb128 0x49
 1487 018a 13       		.uleb128 0x13
 1488 018b 2F       		.uleb128 0x2f
 1489 018c 0B       		.uleb128 0xb
 1490 018d 00       		.byte	0
 1491 018e 00       		.byte	0
 1492 018f 20       		.uleb128 0x20
 1493 0190 21       		.uleb128 0x21
 1494 0191 00       		.byte	0
 1495 0192 00       		.byte	0
 1496 0193 00       		.byte	0
 1497 0194 21       		.uleb128 0x21
 1498 0195 34       		.uleb128 0x34
 1499 0196 00       		.byte	0
 1500 0197 03       		.uleb128 0x3
 1501 0198 08       		.uleb128 0x8
 1502 0199 3A       		.uleb128 0x3a
 1503 019a 0B       		.uleb128 0xb
 1504 019b 3B       		.uleb128 0x3b
 1505 019c 0B       		.uleb128 0xb
 1506 019d 49       		.uleb128 0x49
 1507 019e 13       		.uleb128 0x13
 1508 019f 3F       		.uleb128 0x3f
 1509 01a0 19       		.uleb128 0x19
 1510 01a1 3C       		.uleb128 0x3c
 1511 01a2 19       		.uleb128 0x19
 1512 01a3 00       		.byte	0
 1513 01a4 00       		.byte	0
 1514 01a5 22       		.uleb128 0x22
 1515 01a6 34       		.uleb128 0x34
 1516 01a7 00       		.byte	0
 1517 01a8 03       		.uleb128 0x3
 1518 01a9 0E       		.uleb128 0xe
 1519 01aa 3A       		.uleb128 0x3a
 1520 01ab 0B       		.uleb128 0xb
 1521 01ac 3B       		.uleb128 0x3b
 1522 01ad 0B       		.uleb128 0xb
 1523 01ae 49       		.uleb128 0x49
 1524 01af 13       		.uleb128 0x13
 1525 01b0 3F       		.uleb128 0x3f
 1526 01b1 19       		.uleb128 0x19
 1527 01b2 02       		.uleb128 0x2
 1528 01b3 18       		.uleb128 0x18
 1529 01b4 00       		.byte	0
 1530 01b5 00       		.byte	0
 1531 01b6 23       		.uleb128 0x23
 1532 01b7 2E       		.uleb128 0x2e
 1533 01b8 01       		.byte	0x1
ARM GAS  /tmp/cc1TPsXe.s 			page 28


 1534 01b9 3F       		.uleb128 0x3f
 1535 01ba 19       		.uleb128 0x19
 1536 01bb 03       		.uleb128 0x3
 1537 01bc 0E       		.uleb128 0xe
 1538 01bd 3A       		.uleb128 0x3a
 1539 01be 0B       		.uleb128 0xb
 1540 01bf 3B       		.uleb128 0x3b
 1541 01c0 05       		.uleb128 0x5
 1542 01c1 27       		.uleb128 0x27
 1543 01c2 19       		.uleb128 0x19
 1544 01c3 49       		.uleb128 0x49
 1545 01c4 13       		.uleb128 0x13
 1546 01c5 3C       		.uleb128 0x3c
 1547 01c6 19       		.uleb128 0x19
 1548 01c7 01       		.uleb128 0x1
 1549 01c8 13       		.uleb128 0x13
 1550 01c9 00       		.byte	0
 1551 01ca 00       		.byte	0
 1552 01cb 24       		.uleb128 0x24
 1553 01cc 2E       		.uleb128 0x2e
 1554 01cd 00       		.byte	0
 1555 01ce 3F       		.uleb128 0x3f
 1556 01cf 19       		.uleb128 0x19
 1557 01d0 03       		.uleb128 0x3
 1558 01d1 0E       		.uleb128 0xe
 1559 01d2 3A       		.uleb128 0x3a
 1560 01d3 0B       		.uleb128 0xb
 1561 01d4 3B       		.uleb128 0x3b
 1562 01d5 0B       		.uleb128 0xb
 1563 01d6 27       		.uleb128 0x27
 1564 01d7 19       		.uleb128 0x19
 1565 01d8 49       		.uleb128 0x49
 1566 01d9 13       		.uleb128 0x13
 1567 01da 3C       		.uleb128 0x3c
 1568 01db 19       		.uleb128 0x19
 1569 01dc 00       		.byte	0
 1570 01dd 00       		.byte	0
 1571 01de 25       		.uleb128 0x25
 1572 01df 2E       		.uleb128 0x2e
 1573 01e0 01       		.byte	0x1
 1574 01e1 3F       		.uleb128 0x3f
 1575 01e2 19       		.uleb128 0x19
 1576 01e3 03       		.uleb128 0x3
 1577 01e4 0E       		.uleb128 0xe
 1578 01e5 3A       		.uleb128 0x3a
 1579 01e6 0B       		.uleb128 0xb
 1580 01e7 3B       		.uleb128 0x3b
 1581 01e8 0B       		.uleb128 0xb
 1582 01e9 27       		.uleb128 0x27
 1583 01ea 19       		.uleb128 0x19
 1584 01eb 3C       		.uleb128 0x3c
 1585 01ec 19       		.uleb128 0x19
 1586 01ed 01       		.uleb128 0x1
 1587 01ee 13       		.uleb128 0x13
 1588 01ef 00       		.byte	0
 1589 01f0 00       		.byte	0
 1590 01f1 26       		.uleb128 0x26
ARM GAS  /tmp/cc1TPsXe.s 			page 29


 1591 01f2 2E       		.uleb128 0x2e
 1592 01f3 01       		.byte	0x1
 1593 01f4 3F       		.uleb128 0x3f
 1594 01f5 19       		.uleb128 0x19
 1595 01f6 03       		.uleb128 0x3
 1596 01f7 0E       		.uleb128 0xe
 1597 01f8 3A       		.uleb128 0x3a
 1598 01f9 0B       		.uleb128 0xb
 1599 01fa 3B       		.uleb128 0x3b
 1600 01fb 0B       		.uleb128 0xb
 1601 01fc 27       		.uleb128 0x27
 1602 01fd 19       		.uleb128 0x19
 1603 01fe 49       		.uleb128 0x49
 1604 01ff 13       		.uleb128 0x13
 1605 0200 3C       		.uleb128 0x3c
 1606 0201 19       		.uleb128 0x19
 1607 0202 01       		.uleb128 0x1
 1608 0203 13       		.uleb128 0x13
 1609 0204 00       		.byte	0
 1610 0205 00       		.byte	0
 1611 0206 27       		.uleb128 0x27
 1612 0207 2E       		.uleb128 0x2e
 1613 0208 01       		.byte	0x1
 1614 0209 3F       		.uleb128 0x3f
 1615 020a 19       		.uleb128 0x19
 1616 020b 03       		.uleb128 0x3
 1617 020c 0E       		.uleb128 0xe
 1618 020d 3A       		.uleb128 0x3a
 1619 020e 0B       		.uleb128 0xb
 1620 020f 3B       		.uleb128 0x3b
 1621 0210 0B       		.uleb128 0xb
 1622 0211 27       		.uleb128 0x27
 1623 0212 19       		.uleb128 0x19
 1624 0213 49       		.uleb128 0x49
 1625 0214 13       		.uleb128 0x13
 1626 0215 3C       		.uleb128 0x3c
 1627 0216 19       		.uleb128 0x19
 1628 0217 00       		.byte	0
 1629 0218 00       		.byte	0
 1630 0219 00       		.byte	0
 1631              		.section	.debug_loc,"",%progbits
 1632              	.Ldebug_loc0:
 1633              	.LLST0:
 1634 0000 3C000000 		.4byte	.LVL1
 1635 0004 43000000 		.4byte	.LVL3-1
 1636 0008 0100     		.2byte	0x1
 1637 000a 50       		.byte	0x50
 1638 000b 4E000000 		.4byte	.LVL5
 1639 000f 55000000 		.4byte	.LVL7-1
 1640 0013 0100     		.2byte	0x1
 1641 0015 50       		.byte	0x50
 1642 0016 60000000 		.4byte	.LVL9
 1643 001a 67000000 		.4byte	.LVL11-1
 1644 001e 0100     		.2byte	0x1
 1645 0020 50       		.byte	0x50
 1646 0021 00000000 		.4byte	0
 1647 0025 00000000 		.4byte	0
ARM GAS  /tmp/cc1TPsXe.s 			page 30


 1648              	.LLST1:
 1649 0029 3E000000 		.4byte	.LVL2
 1650 002d 7E000000 		.4byte	.LVL13
 1651 0031 0100     		.2byte	0x1
 1652 0033 54       		.byte	0x54
 1653 0034 00000000 		.4byte	0
 1654 0038 00000000 		.4byte	0
 1655              	.LLST2:
 1656 003c 00000000 		.4byte	.LVL15
 1657 0040 09000000 		.4byte	.LVL16-1
 1658 0044 0100     		.2byte	0x1
 1659 0046 50       		.byte	0x50
 1660 0047 09000000 		.4byte	.LVL16-1
 1661 004b 1E000000 		.4byte	.LFE7
 1662 004f 0100     		.2byte	0x1
 1663 0051 54       		.byte	0x54
 1664 0052 00000000 		.4byte	0
 1665 0056 00000000 		.4byte	0
 1666              		.section	.debug_aranges,"",%progbits
 1667 0000 24000000 		.4byte	0x24
 1668 0004 0200     		.2byte	0x2
 1669 0006 00000000 		.4byte	.Ldebug_info0
 1670 000a 04       		.byte	0x4
 1671 000b 00       		.byte	0
 1672 000c 0000     		.2byte	0
 1673 000e 0000     		.2byte	0
 1674 0010 00000000 		.4byte	.LFB8
 1675 0014 82000000 		.4byte	.LFE8-.LFB8
 1676 0018 00000000 		.4byte	.LFB7
 1677 001c 1E000000 		.4byte	.LFE7-.LFB7
 1678 0020 00000000 		.4byte	0
 1679 0024 00000000 		.4byte	0
 1680              		.section	.debug_ranges,"",%progbits
 1681              	.Ldebug_ranges0:
 1682 0000 00000000 		.4byte	.LFB8
 1683 0004 82000000 		.4byte	.LFE8
 1684 0008 00000000 		.4byte	.LFB7
 1685 000c 1E000000 		.4byte	.LFE7
 1686 0010 00000000 		.4byte	0
 1687 0014 00000000 		.4byte	0
 1688              		.section	.debug_line,"",%progbits
 1689              	.Ldebug_line0:
 1690 0000 90010000 		.section	.debug_str,"MS",%progbits,1
 1690      02005001 
 1690      00000201 
 1690      FB0E0D00 
 1690      01010101 
 1691              	.LASF72:
 1692 0000 7466756E 		.ascii	"tfunc_t\000"
 1692      635F7400 
 1693              	.LASF44:
 1694 0008 705F6D73 		.ascii	"p_msg\000"
 1694      6700
 1695              	.LASF2:
 1696 000e 73697A65 		.ascii	"size_t\000"
 1696      5F7400
 1697              	.LASF67:
ARM GAS  /tmp/cc1TPsXe.s 			page 31


 1698 0015 7264796D 		.ascii	"rdymsg\000"
 1698      736700
 1699              	.LASF17:
 1700 001c 75696E74 		.ascii	"uint64_t\000"
 1700      36345F74 
 1700      00
 1701              	.LASF3:
 1702 0025 5F5F7569 		.ascii	"__uint8_t\000"
 1702      6E74385F 
 1702      7400
 1703              	.LASF87:
 1704 002f 474E5520 		.ascii	"GNU C 4.8.2 -mcpu=cortex-m4 -mno-thumb-interwork -m"
 1704      4320342E 
 1704      382E3220 
 1704      2D6D6370 
 1704      753D636F 
 1705 0062 7468756D 		.ascii	"thumb -ggdb -O2 -fomit-frame-pointer -falign-functi"
 1705      62202D67 
 1705      67646220 
 1705      2D4F3220 
 1705      2D666F6D 
 1706 0095 6F6E733D 		.ascii	"ons=16 -ffunction-sections -fdata-sections -fno-com"
 1706      3136202D 
 1706      6666756E 
 1706      6374696F 
 1706      6E2D7365 
 1707 00c8 6D6F6E00 		.ascii	"mon\000"
 1708              	.LASF13:
 1709 00cc 6C6F6E67 		.ascii	"long long unsigned int\000"
 1709      206C6F6E 
 1709      6720756E 
 1709      7369676E 
 1709      65642069 
 1710              	.LASF68:
 1711 00e3 65786974 		.ascii	"exitcode\000"
 1711      636F6465 
 1711      00
 1712              	.LASF31:
 1713 00ec 705F7072 		.ascii	"p_prio\000"
 1713      696F00
 1714              	.LASF11:
 1715 00f3 6C6F6E67 		.ascii	"long long int\000"
 1715      206C6F6E 
 1715      6720696E 
 1715      7400
 1716              	.LASF1:
 1717 0101 7369676E 		.ascii	"signed char\000"
 1717      65642063 
 1717      68617200 
 1718              	.LASF48:
 1719 010d 705F6D70 		.ascii	"p_mpool\000"
 1719      6F6F6C00 
 1720              	.LASF18:
 1721 0115 626F6F6C 		.ascii	"bool_t\000"
 1721      5F7400
 1722              	.LASF64:
 1723 011c 6D5F7175 		.ascii	"m_queue\000"
ARM GAS  /tmp/cc1TPsXe.s 			page 32


 1723      65756500 
 1724              	.LASF83:
 1725 0124 74657374 		.ascii	"test_emit_token\000"
 1725      5F656D69 
 1725      745F746F 
 1725      6B656E00 
 1726              	.LASF23:
 1727 0134 74736C69 		.ascii	"tslices_t\000"
 1727      6365735F 
 1727      7400
 1728              	.LASF8:
 1729 013e 6C6F6E67 		.ascii	"long int\000"
 1729      20696E74 
 1729      00
 1730              	.LASF86:
 1731 0147 63684D73 		.ascii	"chMsgSend\000"
 1731      6753656E 
 1731      6400
 1732              	.LASF21:
 1733 0151 74737461 		.ascii	"tstate_t\000"
 1733      74655F74 
 1733      00
 1734              	.LASF33:
 1735 015a 705F6E65 		.ascii	"p_newer\000"
 1735      77657200 
 1736              	.LASF9:
 1737 0162 5F5F7569 		.ascii	"__uint32_t\000"
 1737      6E743332 
 1737      5F7400
 1738              	.LASF51:
 1739 016d 72656761 		.ascii	"regarm_t\000"
 1739      726D5F74 
 1739      00
 1740              	.LASF36:
 1741 0176 705F7374 		.ascii	"p_stklimit\000"
 1741      6B6C696D 
 1741      697400
 1742              	.LASF0:
 1743 0181 756E7369 		.ascii	"unsigned int\000"
 1743      676E6564 
 1743      20696E74 
 1743      00
 1744              	.LASF10:
 1745 018e 6C6F6E67 		.ascii	"long unsigned int\000"
 1745      20756E73 
 1745      69676E65 
 1745      6420696E 
 1745      7400
 1746              	.LASF76:
 1747 01a0 74656172 		.ascii	"teardown\000"
 1747      646F776E 
 1747      00
 1748              	.LASF74:
 1749 01a9 6E616D65 		.ascii	"name\000"
 1749      00
 1750              	.LASF54:
 1751 01ae 636F6E74 		.ascii	"context\000"
ARM GAS  /tmp/cc1TPsXe.s 			page 33


 1751      65787400 
 1752              	.LASF6:
 1753 01b6 73686F72 		.ascii	"short unsigned int\000"
 1753      7420756E 
 1753      7369676E 
 1753      65642069 
 1753      6E7400
 1754              	.LASF25:
 1755 01c9 6D73675F 		.ascii	"msg_t\000"
 1755      7400
 1756              	.LASF59:
 1757 01cf 725F6E65 		.ascii	"r_newer\000"
 1757      77657200 
 1758              	.LASF20:
 1759 01d7 746D6F64 		.ascii	"tmode_t\000"
 1759      655F7400 
 1760              	.LASF50:
 1761 01df 54687265 		.ascii	"ThreadsList\000"
 1761      6164734C 
 1761      69737400 
 1762              	.LASF26:
 1763 01eb 6576656E 		.ascii	"eventmask_t\000"
 1763      746D6173 
 1763      6B5F7400 
 1764              	.LASF63:
 1765 01f7 4D757465 		.ascii	"Mutex\000"
 1765      7800
 1766              	.LASF52:
 1767 01fd 73746B61 		.ascii	"stkalign_t\000"
 1767      6C69676E 
 1767      5F7400
 1768              	.LASF84:
 1769 0208 63685468 		.ascii	"chThdCreateStatic\000"
 1769      64437265 
 1769      61746553 
 1769      74617469 
 1769      6300
 1770              	.LASF81:
 1771 021a 70617474 		.ascii	"patternmsg\000"
 1771      65726E6D 
 1771      736700
 1772              	.LASF55:
 1773 0225 73697A65 		.ascii	"sizetype\000"
 1773      74797065 
 1773      00
 1774              	.LASF34:
 1775 022e 705F6F6C 		.ascii	"p_older\000"
 1775      64657200 
 1776              	.LASF58:
 1777 0236 725F6374 		.ascii	"r_ctx\000"
 1777      7800
 1778              	.LASF49:
 1779 023c 54687265 		.ascii	"ThreadsQueue\000"
 1779      61647351 
 1779      75657565 
 1779      00
 1780              	.LASF89:
ARM GAS  /tmp/cc1TPsXe.s 			page 34


 1781 0249 2F686F6D 		.ascii	"/home/mo/ARMProjects/ChibiOS_Sample/ChibiOS_2.6.5/t"
 1781      652F6D6F 
 1781      2F41524D 
 1781      50726F6A 
 1781      65637473 
 1782 027c 65737468 		.ascii	"esthal/STM32F4xx/ADC\000"
 1782      616C2F53 
 1782      544D3332 
 1782      46347878 
 1782      2F414443 
 1783              	.LASF75:
 1784 0291 73657475 		.ascii	"setup\000"
 1784      7000
 1785              	.LASF85:
 1786 0297 5F746573 		.ascii	"_test_assert_sequence\000"
 1786      745F6173 
 1786      73657274 
 1786      5F736571 
 1786      75656E63 
 1787              	.LASF61:
 1788 02ad 725F6375 		.ascii	"r_current\000"
 1788      7272656E 
 1788      7400
 1789              	.LASF60:
 1790 02b7 725F6F6C 		.ascii	"r_older\000"
 1790      64657200 
 1791              	.LASF88:
 1792 02bf 2E2E2F2E 		.ascii	"../../../test/testmsg.c\000"
 1792      2E2F2E2E 
 1792      2F746573 
 1792      742F7465 
 1792      73746D73 
 1793              	.LASF12:
 1794 02d7 5F5F7569 		.ascii	"__uint64_t\000"
 1794      6E743634 
 1794      5F7400
 1795              	.LASF22:
 1796 02e2 74726566 		.ascii	"trefs_t\000"
 1796      735F7400 
 1797              	.LASF30:
 1798 02ea 705F7072 		.ascii	"p_prev\000"
 1798      657600
 1799              	.LASF77:
 1800 02f1 65786563 		.ascii	"execute\000"
 1800      75746500 
 1801              	.LASF24:
 1802 02f9 74707269 		.ascii	"tprio_t\000"
 1802      6F5F7400 
 1803              	.LASF91:
 1804 0301 74687265 		.ascii	"thread\000"
 1804      616400
 1805              	.LASF19:
 1806 0308 5F426F6F 		.ascii	"_Bool\000"
 1806      6C00
 1807              	.LASF15:
 1808 030e 696E7433 		.ascii	"int32_t\000"
 1808      325F7400 
ARM GAS  /tmp/cc1TPsXe.s 			page 35


 1809              	.LASF4:
 1810 0316 756E7369 		.ascii	"unsigned char\000"
 1810      676E6564 
 1810      20636861 
 1810      7200
 1811              	.LASF46:
 1812 0324 705F6D74 		.ascii	"p_mtxlist\000"
 1812      786C6973 
 1812      7400
 1813              	.LASF5:
 1814 032e 73686F72 		.ascii	"short int\000"
 1814      7420696E 
 1814      7400
 1815              	.LASF37:
 1816 0338 705F7374 		.ascii	"p_state\000"
 1816      61746500 
 1817              	.LASF40:
 1818 0340 705F7072 		.ascii	"p_preempt\000"
 1818      65656D70 
 1818      7400
 1819              	.LASF79:
 1820 034a 74687265 		.ascii	"threads\000"
 1820      61647300 
 1821              	.LASF57:
 1822 0352 725F7072 		.ascii	"r_prio\000"
 1822      696F00
 1823              	.LASF80:
 1824 0359 74657374 		.ascii	"testmsg1\000"
 1824      6D736731 
 1824      00
 1825              	.LASF70:
 1826 0362 65776D61 		.ascii	"ewmask\000"
 1826      736B00
 1827              	.LASF29:
 1828 0369 705F6E65 		.ascii	"p_next\000"
 1828      787400
 1829              	.LASF38:
 1830 0370 705F666C 		.ascii	"p_flags\000"
 1830      61677300 
 1831              	.LASF28:
 1832 0378 54687265 		.ascii	"Thread\000"
 1832      616400
 1833              	.LASF82:
 1834 037f 63684D73 		.ascii	"chMsgRelease\000"
 1834      6752656C 
 1834      65617365 
 1834      00
 1835              	.LASF73:
 1836 038c 74657374 		.ascii	"testcase\000"
 1836      63617365 
 1836      00
 1837              	.LASF45:
 1838 0395 705F6570 		.ascii	"p_epending\000"
 1838      656E6469 
 1838      6E6700
 1839              	.LASF16:
 1840 03a0 75696E74 		.ascii	"uint32_t\000"
ARM GAS  /tmp/cc1TPsXe.s 			page 36


 1840      33325F74 
 1840      00
 1841              	.LASF56:
 1842 03a9 725F7175 		.ascii	"r_queue\000"
 1842      65756500 
 1843              	.LASF71:
 1844 03b1 63686172 		.ascii	"char\000"
 1844      00
 1845              	.LASF66:
 1846 03b6 6D5F6E65 		.ascii	"m_next\000"
 1846      787400
 1847              	.LASF27:
 1848 03bd 73797374 		.ascii	"systime_t\000"
 1848      696D655F 
 1848      7400
 1849              	.LASF47:
 1850 03c7 705F7265 		.ascii	"p_realprio\000"
 1850      616C7072 
 1850      696F00
 1851              	.LASF7:
 1852 03d2 5F5F696E 		.ascii	"__int32_t\000"
 1852      7433325F 
 1852      7400
 1853              	.LASF41:
 1854 03dc 705F7469 		.ascii	"p_time\000"
 1854      6D6500
 1855              	.LASF53:
 1856 03e3 696E7463 		.ascii	"intctx\000"
 1856      747800
 1857              	.LASF43:
 1858 03ea 705F6D73 		.ascii	"p_msgqueue\000"
 1858      67717565 
 1858      756500
 1859              	.LASF92:
 1860 03f5 63684D73 		.ascii	"chMsgWait\000"
 1860      67576169 
 1860      7400
 1861              	.LASF39:
 1862 03ff 705F7265 		.ascii	"p_refs\000"
 1862      667300
 1863              	.LASF62:
 1864 0406 52656164 		.ascii	"ReadyList\000"
 1864      794C6973 
 1864      7400
 1865              	.LASF78:
 1866 0410 726C6973 		.ascii	"rlist\000"
 1866      7400
 1867              	.LASF14:
 1868 0416 75696E74 		.ascii	"uint8_t\000"
 1868      385F7400 
 1869              	.LASF90:
 1870 041e 6D736731 		.ascii	"msg1_execute\000"
 1870      5F657865 
 1870      63757465 
 1870      00
 1871              	.LASF69:
 1872 042b 77746F62 		.ascii	"wtobjp\000"
ARM GAS  /tmp/cc1TPsXe.s 			page 37


 1872      6A7000
 1873              	.LASF35:
 1874 0432 705F6E61 		.ascii	"p_name\000"
 1874      6D6500
 1875              	.LASF65:
 1876 0439 6D5F6F77 		.ascii	"m_owner\000"
 1876      6E657200 
 1877              	.LASF32:
 1878 0441 705F6374 		.ascii	"p_ctx\000"
 1878      7800
 1879              	.LASF42:
 1880 0447 705F7761 		.ascii	"p_waiting\000"
 1880      6974696E 
 1880      6700
 1881              		.ident	"GCC: (4.8.2-14ubuntu1+6) 4.8.2"
ARM GAS  /tmp/cc1TPsXe.s 			page 38


DEFINED SYMBOLS
                            *ABS*:0000000000000000 testmsg.c
     /tmp/cc1TPsXe.s:19     .text.msg1_execute:0000000000000000 $t
     /tmp/cc1TPsXe.s:24     .text.msg1_execute:0000000000000000 msg1_execute
     /tmp/cc1TPsXe.s:120    .text.thread:0000000000000000 thread
     /tmp/cc1TPsXe.s:167    .rodata.str1.4:0000000000000000 .LC0
     /tmp/cc1TPsXe.s:115    .text.thread:0000000000000000 $t
     /tmp/cc1TPsXe.s:175    .rodata.patternmsg:0000000000000000 patternmsg
     /tmp/cc1TPsXe.s:160    .rodata.testmsg1:0000000000000000 testmsg1
     /tmp/cc1TPsXe.s:157    .rodata.testmsg1:0000000000000000 $d
     /tmp/cc1TPsXe.s:166    .rodata.str1.4:0000000000000000 $d
     /tmp/cc1TPsXe.s:172    .rodata.patternmsg:0000000000000000 $d
                     .debug_frame:0000000000000010 $d

UNDEFINED SYMBOLS
rlist
wa
chThdCreateStatic
threads
chMsgWait
chMsgRelease
test_emit_token
_test_assert_sequence
chMsgSend
