ARM GAS  /tmp/cc1TPsXe.s 			page 1


   1              		.syntax unified
   2              		.cpu cortex-m4
   3              		.fpu softvfp
   4              		.eabi_attribute 20, 1
   5              		.eabi_attribute 21, 1
   6              		.eabi_attribute 23, 3
   7              		.eabi_attribute 24, 1
   8              		.eabi_attribute 25, 1
   9              		.eabi_attribute 26, 1
  10              		.eabi_attribute 30, 2
  11              		.eabi_attribute 34, 1
  12              		.eabi_attribute 18, 4
  13              		.thumb
  14              		.file	"testmsg.c"
  15              		.text
  16              	.Ltext0:
  17              		.cfi_sections	.debug_frame
  18              		.section	.text.msg1_execute,"ax",%progbits
  19              		.align	2
  20              		.p2align 4,,15
  21              		.thumb
  22              		.thumb_func
  23              		.type	msg1_execute, %function
  24              	msg1_execute:
  25              	.LFB8:
  26              		.file 1 "../../../test/testmsg.c"
  27              		.loc 1 67 0
  28              		.cfi_startproc
  29              		@ args = 0, pretend = 0, frame = 0
  30              		@ frame_needed = 0, uses_anonymous_args = 0
  31 0000 10B5     		push	{r4, lr}
  32              		.cfi_def_cfa_offset 8
  33              		.cfi_offset 4, -8
  34              		.cfi_offset 14, -4
  35              		.loc 1 74 0
  36 0002 40F20002 		movw	r2, #:lower16:rlist
  37 0006 C0F20002 		movt	r2, #:upper16:rlist
  38 000a 40F20003 		movw	r3, #:lower16:wa
  39 000e 9169     		ldr	r1, [r2, #24]
  40 0010 C0F20003 		movt	r3, #:upper16:wa
  41              		.loc 1 67 0
  42 0014 82B0     		sub	sp, sp, #8
  43              		.cfi_def_cfa_offset 16
  44              		.loc 1 74 0
  45 0016 8A68     		ldr	r2, [r1, #8]
  46 0018 1868     		ldr	r0, [r3]
  47 001a 0091     		str	r1, [sp]
  48 001c 40F20003 		movw	r3, #:lower16:thread
  49 0020 0132     		adds	r2, r2, #1
  50 0022 4FF4A871 		mov	r1, #336
  51 0026 C0F20003 		movt	r3, #:upper16:thread
  52 002a FFF7FEFF 		bl	chThdCreateStatic
  53              	.LVL0:
  54 002e 40F20003 		movw	r3, #:lower16:threads
  55 0032 C0F20003 		movt	r3, #:upper16:threads
  56 0036 1860     		str	r0, [r3]
  57              		.loc 1 76 0
ARM GAS  /tmp/cc1TPsXe.s 			page 2


  58 0038 FFF7FEFF 		bl	chMsgWait
  59              	.LVL1:
  60              		.loc 1 77 0
  61 003c 846B     		ldr	r4, [r0, #56]
  62              	.LVL2:
  63              		.loc 1 78 0
  64 003e 2146     		mov	r1, r4
  65 0040 FFF7FEFF 		bl	chMsgRelease
  66              	.LVL3:
  67              		.loc 1 79 0
  68 0044 E0B2     		uxtb	r0, r4
  69 0046 FFF7FEFF 		bl	test_emit_token
  70              	.LVL4:
  71              		.loc 1 80 0
  72 004a FFF7FEFF 		bl	chMsgWait
  73              	.LVL5:
  74              		.loc 1 81 0
  75 004e 846B     		ldr	r4, [r0, #56]
  76              	.LVL6:
  77              		.loc 1 82 0
  78 0050 2146     		mov	r1, r4
  79 0052 FFF7FEFF 		bl	chMsgRelease
  80              	.LVL7:
  81              		.loc 1 83 0
  82 0056 E0B2     		uxtb	r0, r4
  83 0058 FFF7FEFF 		bl	test_emit_token
  84              	.LVL8:
  85              		.loc 1 84 0
  86 005c FFF7FEFF 		bl	chMsgWait
  87              	.LVL9:
  88              		.loc 1 85 0
  89 0060 846B     		ldr	r4, [r0, #56]
  90              	.LVL10:
  91              		.loc 1 86 0
  92 0062 2146     		mov	r1, r4
  93 0064 FFF7FEFF 		bl	chMsgRelease
  94              	.LVL11:
  95              		.loc 1 87 0
  96 0068 E0B2     		uxtb	r0, r4
  97 006a FFF7FEFF 		bl	test_emit_token
  98              	.LVL12:
  99              		.loc 1 88 0
 100 006e 40F20001 		movw	r1, #:lower16:.LC0
 101 0072 C0F20001 		movt	r1, #:upper16:.LC0
 102 0076 0120     		movs	r0, #1
 103              		.loc 1 89 0
 104 0078 02B0     		add	sp, sp, #8
 105              		@ sp needed
 106 007a BDE81040 		pop	{r4, lr}
 107              	.LVL13:
 108              		.loc 1 88 0
 109 007e FFF7FEBF 		b	_test_assert_sequence
 110              	.LVL14:
 111              		.cfi_endproc
 112              	.LFE8:
 113              		.size	msg1_execute, .-msg1_execute
 114 0082 00BFAFF3 		.section	.text.thread,"ax",%progbits
ARM GAS  /tmp/cc1TPsXe.s 			page 3


 114      0080AFF3 
 114      0080AFF3 
 114      0080
 115              		.align	2
 116              		.p2align 4,,15
 117              		.thumb
 118              		.thumb_func
 119              		.type	thread, %function
 120              	thread:
 121              	.LFB7:
 122              		.loc 1 59 0
 123              		.cfi_startproc
 124              		@ args = 0, pretend = 0, frame = 0
 125              		@ frame_needed = 0, uses_anonymous_args = 0
 126              	.LVL15:
 127 0000 10B5     		push	{r4, lr}
 128              		.cfi_def_cfa_offset 8
 129              		.cfi_offset 4, -8
 130              		.cfi_offset 14, -4
 131              		.loc 1 61 0
 132 0002 4121     		movs	r1, #65
 133              		.loc 1 59 0
 134 0004 0446     		mov	r4, r0
 135              		.loc 1 61 0
 136 0006 FFF7FEFF 		bl	chMsgSend
 137              	.LVL16:
 138              		.loc 1 62 0
 139 000a 2046     		mov	r0, r4
 140 000c 4221     		movs	r1, #66
 141 000e FFF7FEFF 		bl	chMsgSend
 142              	.LVL17:
 143              		.loc 1 63 0
 144 0012 2046     		mov	r0, r4
 145 0014 4321     		movs	r1, #67
 146 0016 FFF7FEFF 		bl	chMsgSend
 147              	.LVL18:
 148              		.loc 1 65 0
 149 001a 0020     		movs	r0, #0
 150 001c 10BD     		pop	{r4, pc}
 151              		.cfi_endproc
 152              	.LFE7:
 153              		.size	thread, .-thread
 154              		.global	patternmsg
 155              		.global	testmsg1
 156 001e 00BF     		.section	.rodata.testmsg1,"a",%progbits
 157              		.align	2
 158              		.type	testmsg1, %object
 159              		.size	testmsg1, 16
 160              	testmsg1:
 161 0000 04000000 		.word	.LC1
 162 0004 00000000 		.word	0
 163 0008 00000000 		.word	0
 164 000c 00000000 		.word	msg1_execute
 165              		.section	.rodata.str1.4,"aMS",%progbits,1
 166              		.align	2
 167              	.LC0:
 168 0000 41424300 		.ascii	"ABC\000"
ARM GAS  /tmp/cc1TPsXe.s 			page 4


 169              	.LC1:
 170 0004 4D657373 		.ascii	"Messages, loop\000"
 170      61676573 
 170      2C206C6F 
 170      6F7000
 171 0013 00       		.section	.rodata.patternmsg,"a",%progbits
 172              		.align	2
 173              		.type	patternmsg, %object
 174              		.size	patternmsg, 8
 175              	patternmsg:
 176 0000 00000000 		.word	testmsg1
 177 0004 00000000 		.word	0
 178              		.text
 179              	.Letext0:
 180              		.file 2 "/usr/lib/gcc/arm-none-eabi/4.8.2/include/stddef.h"
 181              		.file 3 "/usr/include/newlib/machine/_default_types.h"
 182              		.file 4 "/usr/include/newlib/stdint.h"
 183              		.file 5 "../../../os/ports/GCC/ARMCMx/chtypes.h"
 184              		.file 6 "../../../os/kernel/include/chlists.h"
 185              		.file 7 "../../../os/kernel/include/chthreads.h"
 186              		.file 8 "../../../os/ports/GCC/ARMCMx/chcore_v7m.h"
 187              		.file 9 "../../../os/kernel/include/chschd.h"
 188              		.file 10 "../../../os/kernel/include/chmtx.h"
 189              		.file 11 "../../../test/test.h"
 190              		.file 12 "../../../os/kernel/include/chmsg.h"