ARM GAS  /tmp/cc7gjngR.s 			page 1


   1              		.syntax unified
   2              		.cpu cortex-m4
   3              		.fpu softvfp
   4              		.eabi_attribute 20, 1
   5              		.eabi_attribute 21, 1
   6              		.eabi_attribute 23, 3
   7              		.eabi_attribute 24, 1
   8              		.eabi_attribute 25, 1
   9              		.eabi_attribute 26, 1
  10              		.eabi_attribute 30, 2
  11              		.eabi_attribute 34, 1
  12              		.eabi_attribute 18, 4
  13              		.thumb
  14              		.file	"tm.c"
  15              		.text
  16              	.Ltext0:
  17              		.cfi_sections	.debug_frame
  18              		.section	.text.tm_start,"ax",%progbits
  19              		.align	2
  20              		.p2align 4,,15
  21              		.thumb
  22              		.thumb_func
  23              		.type	tm_start, %function
  24              	tm_start:
  25              	.LFB118:
  26              		.file 1 "../../../os/hal/src/tm.c"
  27              		.loc 1 69 0
  28              		.cfi_startproc
  29              		@ args = 0, pretend = 0, frame = 0
  30              		@ frame_needed = 0, uses_anonymous_args = 0
  31              		@ link register save eliminated.
  32              	.LVL0:
  33              		.loc 1 71 0
  34 0000 4FF48053 		mov	r3, #4096
  35 0004 CEF20003 		movt	r3, 57344
  36 0008 5B68     		ldr	r3, [r3, #4]
  37 000a 8360     		str	r3, [r0, #8]
  38 000c 7047     		bx	lr
  39              		.cfi_endproc
  40              	.LFE118:
  41              		.size	tm_start, .-tm_start
  42 000e 00BF     		.section	.text.tm_stop,"ax",%progbits
  43              		.align	2
  44              		.p2align 4,,15
  45              		.thumb
  46              		.thumb_func
  47              		.type	tm_stop, %function
  48              	tm_stop:
  49              	.LFB119:
  50              		.loc 1 81 0
  51              		.cfi_startproc
  52              		@ args = 0, pretend = 0, frame = 0
  53              		@ frame_needed = 0, uses_anonymous_args = 0
  54              		@ link register save eliminated.
  55              	.LVL1:
  56              		.loc 1 83 0
  57 0000 4FF48053 		mov	r3, #4096
ARM GAS  /tmp/cc7gjngR.s 			page 2


  58 0004 CEF20003 		movt	r3, 57344
  59              		.loc 1 84 0
  60 0008 40F20002 		movw	r2, #:lower16:.LANCHOR0
  61 000c C0F20002 		movt	r2, #:upper16:.LANCHOR0
  62              		.loc 1 83 0
  63 0010 5B68     		ldr	r3, [r3, #4]
  64              	.LVL2:
  65              		.loc 1 84 0
  66 0012 8168     		ldr	r1, [r0, #8]
  67              		.loc 1 81 0
  68 0014 10B4     		push	{r4}
  69              		.cfi_def_cfa_offset 4
  70              		.cfi_offset 4, -4
  71              		.loc 1 84 0
  72 0016 1468     		ldr	r4, [r2]
  73              		.loc 1 85 0
  74 0018 C268     		ldr	r2, [r0, #12]
  75              		.loc 1 84 0
  76 001a 5B1A     		subs	r3, r3, r1
  77              	.LVL3:
  78 001c 1B1B     		subs	r3, r3, r4
  79              		.loc 1 85 0
  80 001e 9342     		cmp	r3, r2
  81              		.loc 1 84 0
  82 0020 8360     		str	r3, [r0, #8]
  83              		.loc 1 86 0
  84 0022 88BF     		it	hi
  85 0024 C360     		strhi	r3, [r0, #12]
  86              		.loc 1 85 0
  87 0026 03D8     		bhi	.L2
  88              		.loc 1 87 0
  89 0028 0269     		ldr	r2, [r0, #16]
  90 002a 9342     		cmp	r3, r2
  91              		.loc 1 88 0
  92 002c 38BF     		it	cc
  93 002e 0361     		strcc	r3, [r0, #16]
  94              	.L2:
  95              		.loc 1 89 0
  96 0030 5DF8044B 		ldr	r4, [sp], #4
  97 0034 7047     		bx	lr
  98              		.cfi_endproc
  99              	.LFE119:
 100              		.size	tm_stop, .-tm_stop
 101 0036 00BFAFF3 		.section	.text.tmInit,"ax",%progbits
 101      0080AFF3 
 101      0080
 102              		.align	2
 103              		.p2align 4,,15
 104              		.global	tmInit
 105              		.thumb
 106              		.thumb_func
 107              		.type	tmInit, %function
 108              	tmInit:
 109              	.LFB120:
 110              		.loc 1 104 0
 111              		.cfi_startproc
 112              		@ args = 0, pretend = 0, frame = 24
ARM GAS  /tmp/cc7gjngR.s 			page 3


 113              		@ frame_needed = 0, uses_anonymous_args = 0
 114 0000 10B5     		push	{r4, lr}
 115              		.cfi_def_cfa_offset 8
 116              		.cfi_offset 4, -8
 117              		.cfi_offset 14, -4
 118              		.loc 1 110 0
 119 0002 40F20004 		movw	r4, #:lower16:.LANCHOR0
 120              		.loc 1 104 0
 121 0006 86B0     		sub	sp, sp, #24
 122              		.cfi_def_cfa_offset 32
 123              		.loc 1 110 0
 124 0008 C0F20004 		movt	r4, #:upper16:.LANCHOR0
 125              	.LBB8:
 126              	.LBB9:
 127              		.loc 1 71 0
 128 000c 4FF48053 		mov	r3, #4096
 129              	.LBE9:
 130              	.LBE8:
 131              		.loc 1 110 0
 132 0010 0022     		movs	r2, #0
 133              	.LBB13:
 134              	.LBB10:
 135              		.loc 1 71 0
 136 0012 CEF20003 		movt	r3, 57344
 137              	.LBE10:
 138              	.LBE13:
 139              	.LBB14:
 140              	.LBB15:
 141              		.loc 1 130 0
 142 0016 4FF0FF31 		mov	r1, #-1
 143              	.LBE15:
 144              	.LBE14:
 145              		.loc 1 110 0
 146 001a 2260     		str	r2, [r4]
 147              	.LVL4:
 148              	.LBB20:
 149              	.LBB16:
 150              		.loc 1 129 0
 151 001c 0492     		str	r2, [sp, #16]
 152              		.loc 1 130 0
 153 001e 0591     		str	r1, [sp, #20]
 154              	.LVL5:
 155              	.LBE16:
 156              	.LBE20:
 157              	.LBB21:
 158              	.LBB11:
 159              		.loc 1 71 0
 160 0020 5968     		ldr	r1, [r3, #4]
 161              	.LBE11:
 162              	.LBE21:
 163              	.LBB22:
 164              	.LBB17:
 165              		.loc 1 126 0
 166 0022 40F20002 		movw	r2, #:lower16:tm_start
 167              		.loc 1 127 0
 168 0026 40F20003 		movw	r3, #:lower16:tm_stop
 169              		.loc 1 126 0
ARM GAS  /tmp/cc7gjngR.s 			page 4


 170 002a C0F20002 		movt	r2, #:upper16:tm_start
 171              		.loc 1 127 0
 172 002e C0F20003 		movt	r3, #:upper16:tm_stop
 173              	.LBE17:
 174              	.LBE22:
 175              		.loc 1 113 0
 176 0032 01A8     		add	r0, sp, #4
 177              	.LVL6:
 178              	.LBB23:
 179              	.LBB18:
 180              		.loc 1 127 0
 181 0034 0293     		str	r3, [sp, #8]
 182              	.LBE18:
 183              	.LBE23:
 184              	.LBB24:
 185              	.LBB12:
 186              		.loc 1 71 0
 187 0036 0391     		str	r1, [sp, #12]
 188              	.LBE12:
 189              	.LBE24:
 190              	.LBB25:
 191              	.LBB19:
 192              		.loc 1 126 0
 193 0038 0192     		str	r2, [sp, #4]
 194              	.LBE19:
 195              	.LBE25:
 196              		.loc 1 113 0
 197 003a FFF7FEFF 		bl	tm_stop
 198              	.LVL7:
 199              		.loc 1 114 0
 200 003e 039B     		ldr	r3, [sp, #12]
 201 0040 2360     		str	r3, [r4]
 202              		.loc 1 115 0
 203 0042 06B0     		add	sp, sp, #24
 204              		@ sp needed
 205 0044 10BD     		pop	{r4, pc}
 206              		.cfi_endproc
 207              	.LFE120:
 208              		.size	tmInit, .-tmInit
 209              		.section	.text.tmObjectInit,"ax",%progbits
 210              		.align	2
 211              		.p2align 4,,15
 212              		.global	tmObjectInit
 213              		.thumb
 214              		.thumb_func
 215              		.type	tmObjectInit, %function
 216              	tmObjectInit:
 217              	.LFB121:
 218              		.loc 1 124 0
 219              		.cfi_startproc
 220              		@ args = 0, pretend = 0, frame = 0
 221              		@ frame_needed = 0, uses_anonymous_args = 0
 222              		@ link register save eliminated.
 223              	.LVL8:
 224              		.loc 1 126 0
 225 0000 40F20002 		movw	r2, #:lower16:tm_start
 226              		.loc 1 127 0
ARM GAS  /tmp/cc7gjngR.s 			page 5


 227 0004 40F20003 		movw	r3, #:lower16:tm_stop
 228              		.loc 1 124 0
 229 0008 10B4     		push	{r4}
 230              		.cfi_def_cfa_offset 4
 231              		.cfi_offset 4, -4
 232              		.loc 1 128 0
 233 000a 0021     		movs	r1, #0
 234              		.loc 1 130 0
 235 000c 4FF0FF34 		mov	r4, #-1
 236              		.loc 1 126 0
 237 0010 C0F20002 		movt	r2, #:upper16:tm_start
 238              		.loc 1 127 0
 239 0014 C0F20003 		movt	r3, #:upper16:tm_stop
 240              		.loc 1 130 0
 241 0018 0461     		str	r4, [r0, #16]
 242              		.loc 1 127 0
 243 001a 80E80C00 		stmia	r0, {r2, r3}
 244              		.loc 1 128 0
 245 001e 8160     		str	r1, [r0, #8]
 246              		.loc 1 129 0
 247 0020 C160     		str	r1, [r0, #12]
 248              		.loc 1 131 0
 249 0022 5DF8044B 		ldr	r4, [sp], #4
 250 0026 7047     		bx	lr
 251              		.cfi_endproc
 252              	.LFE121:
 253              		.size	tmObjectInit, .-tmObjectInit
 254              		.section	.bss.measurement_offset,"aw",%nobits
 255              		.align	2
 256              		.set	.LANCHOR0,. + 0
 257              		.type	measurement_offset, %object
 258              		.size	measurement_offset, 4
 259              	measurement_offset:
 260 0000 00000000 		.space	4
 261              		.text
 262              	.Letext0:
 263              		.file 2 "/usr/include/newlib/machine/_default_types.h"
 264              		.file 3 "/usr/include/newlib/stdint.h"
 265              		.file 4 "../../../os/ports/common/ARMCMx/nvic.h"
 266              		.file 5 "../../../os/hal/platforms/STM32F4xx/hal_lld.h"
 267              		.file 6 "../../../os/hal/include/tm.h"
 268              		.file 7 "../../../os/ports/common/ARMCMx/CMSIS/include/core_cm4.h"